 psftp

 Timestamp is 5fe829f4 (Sun Dec 27 13:30:12 2020)

 Preferred load address is 00400000

 Start         Length     Name                   Class
 0001:00000000 0006622aH .text$mn                CODE
 0002:00000000 00000250H .idata$5                DATA
 0002:00000250 00000004H .00cfg                  DATA
 0002:00000254 00000004H .CRT$XCA                DATA
 0002:00000258 00000004H .CRT$XCAA               DATA
 0002:0000025c 00000004H .CRT$XCZ                DATA
 0002:00000260 00000004H .CRT$XIA                DATA
 0002:00000264 00000004H .CRT$XIAA               DATA
 0002:00000268 00000004H .CRT$XIAC               DATA
 0002:0000026c 00000010H .CRT$XIC                DATA
 0002:0000027c 00000004H .CRT$XIZ                DATA
 0002:00000280 00000004H .CRT$XPA                DATA
 0002:00000284 00000008H .CRT$XPX                DATA
 0002:0000028c 00000004H .CRT$XPXA               DATA
 0002:00000290 00000004H .CRT$XPZ                DATA
 0002:00000294 00000004H .CRT$XTA                DATA
 0002:00000298 00000008H .CRT$XTZ                DATA
 0002:000002a0 0001e520H .rdata                  DATA
 0002:0001e7bc 00000000H .rdata$r                DATA
 0002:0001e7c0 0000000cH .rdata$sxdata           DATA
 0002:0001e7cc 000002b8H .rdata$zzzdbg           DATA
 0002:0001ea84 00000004H .rtc$IAA                DATA
 0002:0001ea88 00000004H .rtc$IZZ                DATA
 0002:0001ea8c 00000004H .rtc$TAA                DATA
 0002:0001ea90 00000008H .rtc$TZZ                DATA
 0002:0001ea98 000006ecH .xdata$x                DATA
 0002:0001f184 00000000H .edata                  DATA
 0002:0001f184 0000003cH .idata$2                DATA
 0002:0001f1c0 00000014H .idata$3                DATA
 0002:0001f1d4 00000250H .idata$4                DATA
 0002:0001f424 00000ac4H .idata$6                DATA
 0003:00000000 00001230H .data                   DATA
 0003:00001230 00000000H .data$r                 DATA
 0003:00001230 00001460H .bss                    DATA
 0004:00000000 000000c4H .gfids$x                DATA
 0004:000000c4 00000020H .gfids$y                DATA
 0005:00000000 000001e0H .rsrc$01                DATA
 0005:000001e0 000012f8H .rsrc$02                DATA

  Address         Publics by Value              Rva+Base       Lib:Object

 0000:00000000       __except_list              00000000     <absolute>
 0000:00000000       ___guard_longjmp_count     00000000     <absolute>
 0000:00000000       ___guard_fids_count        00000000     <absolute>
 0000:00000000       ___guard_longjmp_table     00000000     <absolute>
 0000:00000000       ___guard_iat_table         00000000     <absolute>
 0000:00000000       ___guard_iat_count         00000000     <absolute>
 0000:00000000       ___dynamic_value_reloc_table 00000000     <absolute>
 0000:00000000       ___guard_fids_table        00000000     <absolute>
 0000:00000003       ___safe_se_handler_count   00000003     <absolute>
 0000:00000100       ___guard_flags             00000100     <absolute>
 0000:00000000       ___ImageBase               00400000     <linker-defined>
 0001:0000016c       _agentf_new                0040116c f   agentf.obj
 0001:000002cb       _backend_socket_log        004012cb f   be_misc.obj
 0001:0000042f       _log_proxy_stderr          0040142f f   be_misc.obj
 0001:000005a4       _psb_init                  004015a4 f   be_misc.obj
 0001:000005b0       _delete_callbacks_for_context 004015b0 f   callback.obj
 0001:0000061c       _queue_idempotent_callback 0040161c f   callback.obj
 0001:00000638       _queue_toplevel_callback   00401638 f   callback.obj
 0001:000006a8       _run_toplevel_callbacks    004016a8 f   callback.obj
 0001:000006f6       _toplevel_callback_pending 004016f6 f   callback.obj
 0001:00000730       _cmdline_cleanup           00401730 f   cmdline.obj
 0001:00000786       _cmdline_get_passwd_input  00401786 f   cmdline.obj
 0001:000007f3       _cmdline_process_param     004017f3 f   cmdline.obj
 0001:00001be7       _cmdline_run_saved         00402be7 f   cmdline.obj
 0001:00001d15       _conf_copy                 00402d15 f   conf.obj
 0001:00001d2d       _conf_copy_into            00402d2d f   conf.obj
 0001:00001e04       _conf_del_str_str          00402e04 f   conf.obj
 0001:00001e86       _conf_free                 00402e86 f   conf.obj
 0001:00001ea3       _conf_get_bool             00402ea3 f   conf.obj
 0001:00001f24       _conf_get_filename         00402f24 f   conf.obj
 0001:00001fa5       _conf_get_int              00402fa5 f   conf.obj
 0001:00002026       _conf_get_int_int          00403026 f   conf.obj
 0001:000020ad       _conf_get_str              004030ad f   conf.obj
 0001:0000212e       _conf_get_str_nthstrkey    0040312e f   conf.obj
 0001:000021ca       _conf_get_str_str          004031ca f   conf.obj
 0001:00002200       _conf_get_str_str_opt      00403200 f   conf.obj
 0001:00002275       _conf_get_str_strs         00403275 f   conf.obj
 0001:00002369       _conf_new                  00403369 f   conf.obj
 0001:0000238a       _conf_set_bool             0040338a f   conf.obj
 0001:000023f9       _conf_set_filename         004033f9 f   conf.obj
 0001:0000246e       _conf_set_fontspec         0040346e f   conf.obj
 0001:000024e3       _conf_set_int              004034e3 f   conf.obj
 0001:00002552       _conf_set_int_int          00403552 f   conf.obj
 0001:000025c8       _conf_set_str              004035c8 f   conf.obj
 0001:0000263d       _conf_set_str_str          0040363d f   conf.obj
 0001:00002716       _proxy_socks5_handlechap   00403716 f   cproxy.obj
 0001:00002927       _proxy_socks5_offerencryptedauth 00403927 f   cproxy.obj
 0001:00002938       _proxy_socks5_selectchap   00403938 f   cproxy.obj
 0001:00002a2c       _ecc_edwards_add           00403a2c f   ecc.obj
 0001:00002ced       _ecc_edwards_eq            00403ced f   ecc.obj
 0001:00002d4a       _ecc_edwards_get_affine    00403d4a f   ecc.obj
 0001:00002dd8       _ecc_edwards_multiply      00403dd8 f   ecc.obj
 0001:00002ebf       _ecc_edwards_point_copy    00403ebf f   ecc.obj
 0001:00002f01       _ecc_edwards_point_free    00403f01 f   ecc.obj
 0001:00002f38       _ecc_edwards_point_new     00403f38 f   ecc.obj
 0001:00002f8a       _ecc_edwards_point_new_from_y 00403f8a f   ecc.obj
 0001:00003170       _ecc_montgomery_curve      00404170 f   ecc.obj
 0001:0000322b       _ecc_montgomery_diff_add   0040422b f   ecc.obj
 0001:000033c1       _ecc_montgomery_double     004043c1 f   ecc.obj
 0001:000034ea       _ecc_montgomery_get_affine 004044ea f   ecc.obj
 0001:00003542       _ecc_montgomery_multiply   00404542 f   ecc.obj
 0001:0000362c       _ecc_montgomery_point_copy 0040462c f   ecc.obj
 0001:00003658       _ecc_montgomery_point_free 00404658 f   ecc.obj
 0001:0000367f       _ecc_montgomery_point_new  0040467f f   ecc.obj
 0001:000036d1       _ecc_weierstrass_add       004046d1 f   ecc.obj
 0001:000037b5       _ecc_weierstrass_add_general 004047b5 f   ecc.obj
 0001:00003ad7       _ecc_weierstrass_curve     00404ad7 f   ecc.obj
 0001:00003ad7       _ecc_edwards_curve         00404ad7 f   ecc.obj
 0001:00003b3b       _ecc_weierstrass_double    00404b3b f   ecc.obj
 0001:00003cdd       _ecc_weierstrass_get_affine 00404cdd f   ecc.obj
 0001:00003d1f       _ecc_weierstrass_is_identity 00404d1f f   ecc.obj
 0001:00003d33       _ecc_weierstrass_multiply  00404d33 f   ecc.obj
 0001:00003e9b       _ecc_weierstrass_point_copy 00404e9b f   ecc.obj
 0001:00003ed2       _ecc_weierstrass_point_free 00404ed2 f   ecc.obj
 0001:00003f01       _ecc_weierstrass_point_new 00404f01 f   ecc.obj
 0001:00003f50       _ecc_weierstrass_point_new_from_x 00404f50 f   ecc.obj
 0001:0000405d       _ecc_weierstrass_point_new_identity 0040505d f   ecc.obj
 0001:000040ca       _ecc_weierstrass_point_valid 004050ca f   ecc.obj
 0001:00004399       _new_error_socket_fmt      00405399 f   errsock.obj
 0001:000043cd       ___local_stdio_printf_options 004053cd f i logging.obj
 0001:000043d3       __vsnprintf_l              004053d3 f i logging.obj
 0001:00004405       _log_free                  00405405 f   logging.obj
 0001:0000443c       _log_init                  0040543c f   logging.obj
 0001:00004483       _log_packet                00405483 f   logging.obj
 0001:000047f7       _logevent                  004057f7 f   logging.obj
 0001:0000487a       _logevent_and_free         0040587a f   logging.obj
 0001:000048cd       _logeventf                 004058cd f   logging.obj
 0001:000048e3       _logeventvf                004058e3 f   logging.obj
 0001:000048fe       _logfclose                 004058fe f   logging.obj
 0001:00004919       _logflush                  00405919 f   logging.obj
 0001:00004932       _logfopen                  00405932 f   logging.obj
 0001:00004c8f       _sprintf                   00405c8f f i logging.obj
 0001:00005556       _mainchan_get_specials     00406556 f   mainchan.obj
 0001:0000567c       _mainchan_new              0040667c f   mainchan.obj
 0001:0000579f       _mainchan_special_cmd      0040679f f   mainchan.obj
 0001:0000581a       _mainchan_terminal_size    0040681a f   mainchan.obj
 0001:00005920       _BinarySink_put_asciz      00406920 f   marshal.obj
 0001:0000593a       _BinarySink_put_bool       0040693a f   marshal.obj
 0001:00005956       _BinarySink_put_byte       00406956 f   marshal.obj
 0001:00005968       _BinarySink_put_data       00406968 f   marshal.obj
 0001:0000597b       _BinarySink_put_datapl     0040697b f   marshal.obj
 0001:00005990       _BinarySink_put_padding    00406990 f   marshal.obj
 0001:000059e8       _BinarySink_put_pstring    004069e8 f   marshal.obj
 0001:00005a1d       _BinarySink_put_string     00406a1d f   marshal.obj
 0001:00005a3c       _BinarySink_put_stringpl   00406a3c f   marshal.obj
 0001:00005a51       _BinarySink_put_stringsb   00406a51 f   marshal.obj
 0001:00005a6f       _BinarySink_put_stringz    00406a6f f   marshal.obj
 0001:00005a8a       _BinarySink_put_uint16     00406a8a f   marshal.obj
 0001:00005aae       _BinarySink_put_uint32     00406aae f   marshal.obj
 0001:00005ae2       _BinarySink_put_uint64     00406ae2 f   marshal.obj
 0001:00005b5f       _BinarySource_REWIND_TO__  00406b5f f   marshal.obj
 0001:00005ba4       _BinarySource_get_asciz    00406ba4 f   marshal.obj
 0001:00005beb       _BinarySource_get_bool     00406beb f   marshal.obj
 0001:00005c13       _BinarySource_get_byte     00406c13 f   marshal.obj
 0001:00005c33       _BinarySource_get_data     00406c33 f   marshal.obj
 0001:00005c60       _BinarySource_get_pstring  00406c60 f   marshal.obj
 0001:00005cac       _BinarySource_get_string   00406cac f   marshal.obj
 0001:00005d1a       _BinarySource_get_uint16   00406d1a f   marshal.obj
 0001:00005d4b       _BinarySource_get_uint32   00406d4b f   marshal.obj
 0001:00005d8f       _BinarySource_get_uint64   00406d8f f   marshal.obj
 0001:00005dbc       _bufchain_sink_init        00406dbc f   marshal.obj
 0001:00005deb       _stdio_sink_init           00406deb f   marshal.obj
 0001:00005e1c       _safefree                  00406e1c f   memory.obj
 0001:00005e28       _safegrowarray             00406e28 f   memory.obj
 0001:00005f3d       _safemalloc                00406f3d f   memory.obj
 0001:00005f7b       _saferealloc               00406f7b f   memory.obj
 0001:00005fc0       _add_prompt                00406fc0 f   misc.obj
 0001:0000600f       _buildinfo                 0040700f f   misc.obj
 0001:000060a9       _conf_launchable           004070a9 f   misc.obj
 0001:000060d4       _free_prompts              004070d4 f   misc.obj
 0001:0000612b       _new_prompts               0040712b f   misc.obj
 0001:00006158       _out_of_memory             00407158 f   misc.obj
 0001:00006164       _prompt_get_result         00407164 f   misc.obj
 0001:00006174       _prompt_get_result_ref     00407174 f   misc.obj
 0001:0000617e       _prompt_set_result         0040717e f   misc.obj
 0001:000061ac       _seat_connection_fatal     004071ac f   misc.obj
 0001:000061d3       _sk_free_peer_info         004071d3 f   misc.obj
 0001:000061f7       _validate_manual_hostkey   004071f7 f   misc.obj
 0001:000063ad       _dup_mb_to_wc              004073ad f   miscucs.obj
 0001:000063cc       _dup_mb_to_wc_c            004073cc f   miscucs.obj
 0001:00006439       _BinarySink_put_mp_ssh1    00407439 f   mpint.obj
 0001:000064a0       _BinarySink_put_mp_ssh2    004074a0 f   mpint.obj
 0001:000064e4       _BinarySource_get_mp_ssh1  004074e4 f   mpint.obj
 0001:00006553       _BinarySource_get_mp_ssh2  00407553 f   mpint.obj
 0001:000065a1       __vfprintf_l               004075a1 f i mpint.obj
 0001:000065c4       _fprintf                   004075c4 f i mpint.obj
 0001:000065dc       _modsqrt_new               004075dc f   mpint.obj
 0001:00006669       _monty_add                 00407669 f   mpint.obj
 0001:000066b0       _monty_export              004076b0 f   mpint.obj
 0001:000066d3       _monty_export_into         004076d3 f   mpint.obj
 0001:00006732       _monty_free                00407732 f   mpint.obj
 0001:0000677c       _handle_get_privdata       0040777c f   winhandl.obj
 0001:0000677c       _monty_identity            0040777c f   mpint.obj
 0001:00006784       _monty_import              00407784 f   mpint.obj
 0001:0000679a       _monty_invert              0040779a f   mpint.obj
 0001:000067c7       _monty_modsqrt             004077c7 f   mpint.obj
 0001:0000698f       _monty_mul                 0040798f f   mpint.obj
 0001:000069b6       _monty_mul_into            004079b6 f   mpint.obj
 0001:00006a72       _monty_new                 00407a72 f   mpint.obj
 0001:00006b2e       _monty_pow                 00407b2e f   mpint.obj
 0001:00006d1c       _monty_sub                 00407d1c f   mpint.obj
 0001:00006d5b       _mp_add                    00407d5b f   mpint.obj
 0001:00006d87       _mp_add_integer_into       00407d87 f   mpint.obj
 0001:00006e6e       _mp_add_into               00407e6e f   mpint.obj
 0001:00007243       _mp_clear                  00408243 f   mpint.obj
 0001:00007258       _mp_cmp_eq                 00408258 f   mpint.obj
 0001:000072a6       _mp_cmp_hs                 004082a6 f   mpint.obj
 0001:000072c9       _mp_cond_add_into          004082c9 f   mpint.obj
 0001:000072f1       _mp_cond_clear             004082f1 f   mpint.obj
 0001:00007311       _mp_cond_sub_into          00408311 f   mpint.obj
 0001:0000733c       _mp_cond_swap              0040833c f   mpint.obj
 0001:0000739b       _mp_copy                   0040839b f   mpint.obj
 0001:000073c4       _mp_copy_into              004083c4 f   mpint.obj
 0001:00007401       _mp_divmod_into            00408401 f   mpint.obj
 0001:0000794b       _mp_eq_integer             0040894b f   mpint.obj
 0001:00007a9a       _mp_free                   00408a9a f   mpint.obj
 0001:00007ab6       _mp_from_bytes_be          00408ab6 f   mpint.obj
 0001:00007b2c       _mp_from_bytes_le          00408b2c f   mpint.obj
 0001:00007b41       _mp_from_decimal           00408b41 f   mpint.obj
 0001:00007b58       _mp_from_decimal_pl        00408b58 f   mpint.obj
 0001:00007bd6       _mp_from_hex               00408bd6 f   mpint.obj
 0001:00007bed       _mp_from_hex_pl            00408bed f   mpint.obj
 0001:00007cbb       _mp_from_integer           00408cbb f   mpint.obj
 0001:00007cf3       _mp_get_bit                00408cf3 f   mpint.obj
 0001:00007d13       _mp_get_byte               00408d13 f   mpint.obj
 0001:00007d33       _mp_get_hex                00408d33 f   mpint.obj
 0001:00007dca       _mp_get_nbits              00408dca f   mpint.obj
 0001:00007e24       _mp_hs_integer             00408e24 f   mpint.obj
 0001:00007e7e       _mp_invert                 00408e7e f   mpint.obj
 0001:00007ea2       _mp_invert_mod_2to         00408ea2 f   mpint.obj
 0001:0000818d       _mp_lshift_fixed_into      0040918d f   mpint.obj
 0001:00008253       _mp_max                    00409253 f   mpint.obj
 0001:0000827e       _mp_max_bits               0040927e f   mpint.obj
 0001:00008288       _mp_max_into               00409288 f   mpint.obj
 0001:000082aa       _mp_min                    004092aa f   mpint.obj
 0001:000082d5       _mp_min_into               004092d5 f   mpint.obj
 0001:000082f7       _mp_mod                    004092f7 f   mpint.obj
 0001:0000831b       _mp_modadd                 0040931b f   mpint.obj
 0001:00008346       _mp_modmul                 00409346 f   mpint.obj
 0001:00008371       _mp_modpow                 00409371 f   mpint.obj
 0001:000083f7       _mp_mul                    004093f7 f   mpint.obj
 0001:0000850f       _mp_mul_integer_into       0040950f f   mpint.obj
 0001:0000885d       _mp_mul_into               0040985d f   mpint.obj
 0001:000088a0       _mp_neg_into               004098a0 f   mpint.obj
 0001:000088bf       _mp_new                    004098bf f   mpint.obj
 0001:000088d1       _mp_power_2                004098d1 f   mpint.obj
 0001:000088f3       _mp_random_bits_fn         004098f3 f   mpint.obj
 0001:00008946       _mp_random_in_range_fn     00409946 f   mpint.obj
 0001:00008995       _mp_reduce_mod_2to         00409995 f   mpint.obj
 0001:000089bd       _mp_rshift_fixed           004099bd f   mpint.obj
 0001:000089f6       _mp_rshift_fixed_into      004099f6 f   mpint.obj
 0001:00008a61       _mp_rshift_safe            00409a61 f   mpint.obj
 0001:00008b88       _mp_select_into            00409b88 f   mpint.obj
 0001:00008bcc       _mp_set_bit                00409bcc f   mpint.obj
 0001:00008c1b       _mp_sub                    00409c1b f   mpint.obj
 0001:00008c46       _mp_sub_integer_into       00409c46 f   mpint.obj
 0001:00008c6a       _mp_sub_into               00409c6a f   mpint.obj
 0001:00008dfe       _pinger_free               00409dfe f   pinger.obj
 0001:00008e0d       _pinger_new                00409e0d f   pinger.obj
 0001:00008e40       _pinger_reconfig           00409e40 f   pinger.obj
 0001:00009881       _pfr_free                  0040a881 f   portfwd.obj
 0001:000098c0       _portfwd_raw_free          0040a8c0 f   portfwd.obj
 0001:000098f0       _portfwd_raw_new           0040a8f0 f   portfwd.obj
 0001:0000993c       _portfwd_raw_setup         0040a93c f   portfwd.obj
 0001:00009970       _portfwdmgr_close          0040a970 f   portfwd.obj
 0001:00009993       _portfwdmgr_close_all      0040a993 f   portfwd.obj
 0001:000099bf       _portfwdmgr_config         0040a9bf f   portfwd.obj
 0001:00009fee       _portfwdmgr_connect        0040afee f   portfwd.obj
 0001:0000a0ea       _portfwdmgr_free           0040b0ea f   portfwd.obj
 0001:0000a117       _portfwdmgr_new            0040b117 f   portfwd.obj
 0001:0000a4a9       ___local_stdio_scanf_options 0040b4a9 f i proxy.obj
 0001:0000a4af       __vsscanf_l                0040b4af f i proxy.obj
 0001:0000a50a       _format_telnet_command     0040b50a f   proxy.obj
 0001:0000a84c       _name_lookup               0040b84c f   proxy.obj
 0001:0000a904       _new_connection            0040b904 f   proxy.obj
 0001:0000ac44       _new_listener              0040bc44 f   proxy.obj
 0001:0000ac7a       _proxy_activate            0040bc7a f   proxy.obj
 0001:0000af57       _proxy_http_negotiate      0040bf57 f   proxy.obj
 0001:0000b377       _proxy_socks4_negotiate    0040c377 f   proxy.obj
 0001:0000b583       _proxy_socks5_negotiate    0040c583 f   proxy.obj
 0001:0000baeb       _proxy_telnet_negotiate    0040caeb f   proxy.obj
 0001:0000bc67       _sscanf                    0040cc67 f i proxy.obj
 0001:0000bc7f       _sftp_cmd_cd               0040cc7f f   psftp.obj
 0001:0000bd60       _sftp_cmd_pwd              0040cd60 f   psftp.obj
 0001:0000bda4       _sftp_cmd_get              0040cda4 f   psftp.obj
 0001:0000bdb5       _sftp_cmd_mget             0040cdb5 f   psftp.obj
 0001:0000bdc6       _sftp_cmd_reget            0040cdc6 f   psftp.obj
 0001:0000bdd7       _sftp_cmd_put              0040cdd7 f   psftp.obj
 0001:0000bde8       _sftp_cmd_mput             0040cde8 f   psftp.obj
 0001:0000bdf9       _sftp_cmd_reput            0040cdf9 f   psftp.obj
 0001:0000be0a       _sftp_cmd_mkdir            0040ce0a f   psftp.obj
 0001:0000beea       _sftp_cmd_rmdir            0040ceea f   psftp.obj
 0001:0000bf46       _sftp_cmd_rm               0040cf46 f   psftp.obj
 0001:0000bfa2       _sftp_cmd_mv               0040cfa2 f   psftp.obj
 0001:0000c0a7       _sftp_cmd_chmod            0040d0a7 f   psftp.obj
 0001:0000c59e       _sftp_cmd_quit             0040d59e f   psftp.obj
 0001:0000c59e       _has_embedded_chm          0040d59e f   winnohlp.obj
 0001:0000c5a2       _sftp_cmd_close            0040d5a2 f   psftp.obj
 0001:0000c5ed       _sftp_cmd_ls               0040d5ed f   psftp.obj
 0001:0000c859       _canonify                  0040d859 f   psftp.obj
 0001:0000c998       _cmdline_error             0040d998 f   psftp.obj
 0001:0000c9e5       _do_sftp                   0040d9e5 f   psftp.obj
 0001:0000cbbd       _is_wildcard               0040dbbd f   psftp.obj
 0001:0000cbf6       _list_directory_from_sftp_print 0040dbf6 f   psftp.obj
 0001:0000cc27       _list_directory_from_sftp_warn_unsorted 0040dc27 f   psftp.obj
 0001:0000cc33       _lookup_command            0040dc33 f   psftp.obj
 0001:0000cc8b       _printf                    0040dc8b f i psftp.obj
 0001:0000d03b       _psftp_main                0040e03b f   psftp.obj
 0001:0000d699       _sftp_begin_wildcard_matching 0040e699 f   psftp.obj
 0001:0000d7b3       _sftp_cmd_unknown          0040e7b3 f   psftp.obj
 0001:0000d7ca       _sftp_finish_wildcard_matching 0040e7ca f   psftp.obj
 0001:0000d814       _sftp_general_get          0040e814 f   psftp.obj
 0001:0000d9f0       _sftp_general_put          0040e9f0 f   psftp.obj
 0001:0000db95       _sftp_get_file             0040eb95 f   psftp.obj
 0001:0000e293       _sftp_getcmd               0040f293 f   psftp.obj
 0001:0000e4a5       _sftp_put_file             0040f4a5 f   psftp.obj
 0001:0000ea23       _sftp_recvdata             0040fa23 f   psftp.obj
 0001:0000ea78       _sftp_sendbuffer           0040fa78 f   psftp.obj
 0001:0000ea85       _sftp_senddata             0040fa85 f   psftp.obj
 0001:0000ea9e       _sftp_wait_for_reply       0040fa9e f   psftp.obj
 0001:0000eaed       _sftp_wildcard_get_filename 0040faed f   psftp.obj
 0001:0000edce       _wildcard_iterate          0040fdce f   psftp.obj
 0001:0000ee98       _list_directory_from_sftp_feed 0040fe98 f   psftpcommon.obj
 0001:0000ef54       _list_directory_from_sftp_finish 0040ff54 f   psftpcommon.obj
 0001:0000efa6       _list_directory_from_sftp_free 0040ffa6 f   psftpcommon.obj
 0001:0000efd6       _list_directory_from_sftp_new 0040ffd6 f   psftpcommon.obj
 0001:0000eff9       _sftp_name_compare         0040fff9 f   psftpcommon.obj
 0001:0000f011       _backend_vt_from_name      00410011 f   settings.obj
 0001:0000f044       _do_defaults               00410044 f   settings.obj
 0001:0000f049       _get_remote_username       00410049 f   settings.obj
 0001:0000f516       _load_open_settings        00410516 f   settings.obj
 0001:000106c6       _load_settings             004116c6 f   settings.obj
 0001:000107ac       _fxp_close_recv            004117ac f   sftp.obj
 0001:000107ac       _fxp_write_recv            004117ac f   sftp.obj
 0001:000107d6       _fxp_close_send            004117d6 f   sftp.obj
 0001:00010822       _fxp_dup_name              00411822 f   sftp.obj
 0001:0001085e       _fxp_error                 0041185e f   sftp.obj
 0001:00010864       _fxp_error_type            00411864 f   sftp.obj
 0001:0001086a       _fxp_free_name             0041186a f   sftp.obj
 0001:00010889       _fxp_free_names            00411889 f   sftp.obj
 0001:000108cd       _fxp_fstat_recv            004118cd f   sftp.obj
 0001:000108cd       _fxp_stat_recv             004118cd f   sftp.obj
 0001:00010900       _fxp_fstat_send            00411900 f   sftp.obj
 0001:00010a4a       _fxp_init                  00411a4a f   sftp.obj
 0001:00010afb       _fxp_mkdir_send            00411afb f   sftp.obj
 0001:00010b5b       _fxp_open_send             00411b5b f   sftp.obj
 0001:00010bc5       _fxp_open_recv             00411bc5 f   sftp.obj
 0001:00010bc5       _fxp_opendir_recv          00411bc5 f   sftp.obj
 0001:00010bf3       _fxp_opendir_send          00411bf3 f   sftp.obj
 0001:00010c2a       _fxp_read_recv             00411c2a f   sftp.obj
 0001:00010c9f       _fxp_read_send             00411c9f f   sftp.obj
 0001:00010cf3       _fxp_readdir_recv          00411cf3 f   sftp.obj
 0001:00010e54       _fxp_readdir_send          00411e54 f   sftp.obj
 0001:00010e90       _fxp_realpath_recv         00411e90 f   sftp.obj
 0001:00010f19       _fxp_realpath_send         00411f19 f   sftp.obj
 0001:00010f50       _fxp_remove_send           00411f50 f   sftp.obj
 0001:00010f87       _fxp_rename_send           00411f87 f   sftp.obj
 0001:00010fc8       _fxp_rmdir_send            00411fc8 f   sftp.obj
 0001:00010fff       _fxp_rmdir_recv            00411fff f   sftp.obj
 0001:00010fff       _fxp_remove_recv           00411fff f   sftp.obj
 0001:00010fff       _fxp_rename_recv           00411fff f   sftp.obj
 0001:00010fff       _fxp_setstat_recv          00411fff f   sftp.obj
 0001:00010fff       _fxp_mkdir_recv            00411fff f   sftp.obj
 0001:0001102a       _fxp_setstat_send          0041202a f   sftp.obj
 0001:0001107f       _fxp_stat_send             0041207f f   sftp.obj
 0001:000110b6       _fxp_write_send            004120b6 f   sftp.obj
 0001:000111d1       _sftp_cleanup_request      004121d1 f   sftp.obj
 0001:000111e9       _sftp_find_request         004121e9 f   sftp.obj
 0001:0001125e       _sftp_recv                 0041225e f   sftp.obj
 0001:000112ce       _sftp_register             004122ce f   sftp.obj
 0001:000112f0       _sftp_send                 004122f0 f   sftp.obj
 0001:00011316       _xfer_cleanup              00412316 f   sftp.obj
 0001:0001134a       _xfer_done                 0041234a f   sftp.obj
 0001:00011363       _xfer_download_data        00412363 f   sftp.obj
 0001:000113cb       _xfer_download_gotpkt      004123cb f   sftp.obj
 0001:000114bf       _xfer_download_init        004124bf f   sftp.obj
 0001:000114e4       _xfer_download_queue       004124e4 f   sftp.obj
 0001:000115d8       _xfer_set_error            004125d8 f   sftp.obj
 0001:000115e1       _xfer_upload_data          004125e1 f   sftp.obj
 0001:0001165e       _xfer_upload_gotpkt        0041265e f   sftp.obj
 0001:000116e0       _xfer_upload_init          004126e0 f   sftp.obj
 0001:000116f9       _xfer_upload_ready         004126f9 f   sftp.obj
 0001:00011704       _BinarySink_put_fxp_attrs  00412704 f   sftpcommon.obj
 0001:00011787       _BinarySource_get_fxp_attrs 00412787 f   sftpcommon.obj
 0001:00011885       _sftp_pkt_free             00412885 f   sftpcommon.obj
 0001:000118a0       _sftp_pkt_init             004128a0 f   sftpcommon.obj
 0001:000118e7       _sftp_recv_finish          004128e7 f   sftpcommon.obj
 0001:0001191a       _sftp_recv_prepare         0041291a f   sftpcommon.obj
 0001:00011949       _sftp_send_prepare         00412949 f   sftpcommon.obj
 0001:000121b6       _ssh_check_frozen          004131b6 f   ssh.obj
 0001:00012211       _ssh_conn_processed_data   00413211 f   ssh.obj
 0001:000122b5       _ssh_deferred_abort_callback 004132b5 f   ssh.obj
 0001:000122de       _ssh_get_logctx            004132de f   ssh.obj
 0001:000122e6       _ssh_got_exitcode          004132e6 f   ssh.obj
 0001:000122f2       _ssh_got_fallback_cmd      004132f2 f   ssh.obj
 0001:0001276a       _ssh_ldisc_update          0041376a f   ssh.obj
 0001:0001277e       _ssh_proto_error           0041377e f   ssh.obj
 0001:000127e5       _ssh_remote_eof            004137e5 f   ssh.obj
 0001:0001283e       _ssh_remote_error          0041383e f   ssh.obj
 0001:00012947       _ssh_sw_abort              00413947 f   ssh.obj
 0001:000129a8       _ssh_sw_abort_deferred     004139a8 f   ssh.obj
 0001:00012a02       _ssh_throttle_conn         00413a02 f   ssh.obj
 0001:00012a53       _ssh_user_close            00413a53 f   ssh.obj
 0001:0001312c       _ssh1_bpp_new              0041412c f   ssh1bpp.obj
 0001:00013169       _ssh1_bpp_new_cipher       00414169 f   ssh1bpp.obj
 0001:00013264       _ssh1_bpp_start_compression 00414264 f   ssh1bpp.obj
 0001:000132de       _ssh1_censor_packet        004142de f   ssh1censor.obj
 0001:00013ac8       _ssh1_channel_free         00414ac8 f   ssh1connection.obj
 0001:00013ae3       _ssh1_channel_init         00414ae3 f   ssh1connection.obj
 0001:00013b88       _ssh1_check_termination    00414b88 f   ssh1connection.obj
 0001:00013e53       _ssh1_connection_new       00414e53 f   ssh1connection.obj
 0001:00013edc       _ssh1_connection_set_protoflags 00414edc f   ssh1connection.obj
 0001:000141d4       _ssh1_connection_direction_specific_setup 004151d4 f   ssh1connection-client.obj
 0001:00014203       _ssh1_connection_need_antispoof_prompt 00415203 f   ssh1connection-client.obj
 0001:0001426b       _ssh1_handle_direction_specific_packet 0041526b f   ssh1connection-client.obj
 0001:00014719       _ssh1_rportfwd_alloc       00415719 f   ssh1connection-client.obj
 0001:00014868       _ssh1_serverside_agent_open 00415868 f   ssh1connection-client.obj
 0001:00014884       _ssh1_serverside_x11_open  00415884 f   ssh1connection-client.obj
 0001:000148af       _ssh1_session_open         004158af f   ssh1connection-client.obj
 0001:0001666b       _ssh1_login_new            0041766b f   ssh1login.obj
 0001:00017522       _ssh2_bpp_new              00418522 f   ssh2bpp.obj
 0001:0001756d       _ssh2_bpp_new_incoming_crypto 0041856d f   ssh2bpp.obj
 0001:000176c4       _ssh2_bpp_new_outgoing_crypto 004186c4 f   ssh2bpp.obj
 0001:0001782d       _ssh2_bpp_rekey_inadvisable 0041882d f   ssh2bpp.obj
 0001:00017b98       _ssh2_bare_bpp_new         00418b98 f   ssh2bpp-bare.obj
 0001:00017bd2       _ssh2_censor_packet        00418bd2 f   ssh2censor.obj
 0001:0001877a       _ssh2_channel_init         0041977a f   ssh2connection.obj
 0001:000188e6       _ssh2_chanopen_init        004198e6 f   ssh2connection.obj
 0001:0001892e       _ssh2_chanreq_init         0041992e f   ssh2connection.obj
 0001:0001953a       _ssh2_connection_new       0041a53a f   ssh2connection.obj
 0001:0001960a       _ssh2_queue_global_request_handler 0041a60a f   ssh2connection.obj
 0001:00019a8e       _ssh2_connection_need_antispoof_prompt 0041aa8e f   ssh2connection-client.obj
 0001:00019aac       _ssh2_connection_parse_channel_open 0041aaac f   ssh2connection-client.obj
 0001:00019c03       _ssh2_portfwd_chanopen     0041ac03 f   ssh2connection-client.obj
 0001:00019c7c       _ssh2_rportfwd_alloc       0041ac7c f   ssh2connection-client.obj
 0001:00019e2e       _ssh2_rportfwd_remove      0041ae2e f   ssh2connection-client.obj
 0001:00019ed0       _ssh2_serverside_agent_open 0041aed0 f   ssh2connection-client.obj
 0001:00019eec       _ssh2_serverside_x11_open  0041aeec f   ssh2connection-client.obj
 0001:00019f08       _ssh2_session_open         0041af08 f   ssh2connection-client.obj
 0001:00019f67       _ssh2channel_request_agent_forwarding 0041af67 f   ssh2connection-client.obj
 0001:00019f9e       _ssh2channel_request_pty   0041af9e f   ssh2connection-client.obj
 0001:0001a08a       _ssh2channel_request_x11_forwarding 0041b08a f   ssh2connection-client.obj
 0001:0001a0f0       _ssh2channel_send_env_var  0041b0f0 f   ssh2connection-client.obj
 0001:0001a146       _ssh2channel_send_exit_signal 0041b146 f   ssh2connection-client.obj
 0001:0001a162       _ssh2channel_send_exit_signal_numeric 0041b162 f   ssh2connection-client.obj
 0001:0001a17e       _ssh2channel_send_exit_status 0041b17e f   ssh2connection-client.obj
 0001:0001a19a       _ssh2channel_send_serial_break 0041b19a f   ssh2connection-client.obj
 0001:0001a1e4       _ssh2channel_send_signal   0041b1e4 f   ssh2connection-client.obj
 0001:0001a22e       _ssh2channel_send_terminal_size_change 0041b22e f   ssh2connection-client.obj
 0001:0001a285       _ssh2channel_start_command 0041b285 f   ssh2connection-client.obj
 0001:0001a2cd       _ssh2channel_start_shell   0041b2cd f   ssh2connection-client.obj
 0001:0001a304       _ssh2channel_start_subsystem 0041b304 f   ssh2connection-client.obj
 0001:0001a34e       _ssh2kex_coroutine         0041b34e f   ssh2kex-client.obj
 0001:0001b9b3       _ssh_transient_hostkey_cache_add 0041c9b3 f   ssh2transhk.obj
 0001:0001ba6a       _ssh_transient_hostkey_cache_free 0041ca6a f   ssh2transhk.obj
 0001:0001baaf       _ssh_transient_hostkey_cache_has 0041caaf f   ssh2transhk.obj
 0001:0001bacd       _ssh_transient_hostkey_cache_new 0041cacd f   ssh2transhk.obj
 0001:0001baee       _ssh_transient_hostkey_cache_non_empty 0041caee f   ssh2transhk.obj
 0001:0001bb02       _ssh_transient_hostkey_cache_verify 0041cb02 f   ssh2transhk.obj
 0001:0001ccc6       _nullseat_get_x_display    0041dcc6 f   misc.obj
 0001:0001ccc6       ___scrt_initialize_winrt   0041dcc6 f   LIBCMT:utility_desktop.obj
 0001:0001ccc6       __matherr                  0041dcc6 f   LIBCMT:matherr.obj
 0001:0001ccc6       __get_startup_new_mode     0041dcc6 f   LIBCMT:new_mode.obj
 0001:0001ccc6       _nullseat_get_ttymode      0041dcc6 f   misc.obj
 0001:0001ccc6       __get_startup_thread_locale_mode 0041dcc6 f   LIBCMT:thread_locale.obj
 0001:0001ccc6       __get_startup_commit_mode  0041dcc6 f   LIBCMT:commit_mode.obj
 0001:0001ccc9       _ssh2_common_filter_queue  0041dcc9 f   ssh2transport.obj
 0001:0001d48c       _ssh2_transport_dialog_callback 0041e48c f   ssh2transport.obj
 0001:0001d541       _ssh2_transport_get_session_id 0041e541 f   ssh2transport.obj
 0001:0001d790       _ssh2_transport_new        0041e790 f   ssh2transport.obj
 0001:0001d93c       _ssh2_transport_notify_auth_done 0041e93c f   ssh2transport.obj
 0001:0001d97d       _ssh2_transport_pop        0041e97d f   ssh2transport.obj
 0001:0001e27c       _ssh2transport_finalise_exhash 0041f27c f   ssh2transport.obj
 0001:00020d4f       _ssh2_userauth_new         00421d4f f   ssh2userauth.obj
 0001:00020e25       _ssh2_userauth_set_transport_layer 00421e25 f   ssh2userauth.obj
 0001:0002661f       _aes256_decrypt_pubkey     0042761f f   sshauxcrypt.obj
 0001:00026699       _des3_decrypt_pubkey       00427699 f   sshauxcrypt.obj
 0001:00026739       _des_decrypt_xdmauth       00427739 f   sshauxcrypt.obj
 0001:0002675e       _des_encrypt_xdmauth       0042775e f   sshauxcrypt.obj
 0001:00026813       _hash_simple               00427813 f   sshauxcrypt.obj
 0001:0002683c       _mac_simple                0042783c f   sshauxcrypt.obj
 0001:0002724f       _blowfish_expandkey        0042824f f   sshblowf.obj
 0001:000275d1       _blowfish_initkey          004285d1 f   sshblowf.obj
 0001:00027bf0       _ldisc_echoedit_update     00428bf0 f   psftp.obj
 0001:00027bf0       _nullseat_notify_remote_exit 00428bf0 f   misc.obj
 0001:00027bf0       _add_session_to_jumplist   00428bf0 f   winnojmp.obj
 0001:00027bf0       ___except_validate_jump_buffer 00428bf0 f   libvcruntime:jbcxrval.obj
 0001:00027bf0       _nullseat_echoedit_update  00428bf0 f   misc.obj
 0001:00027bf0       _platform_ssh_share_cleanup 00428bf0 f   winshare.obj
 0001:00027bf0       __initialize_invalid_parameter_handler 00428bf0 f   LIBCMT:invalid_parameter_handler.obj
 0001:00027bf0       __initialize_denormal_control 00428bf0 f   LIBCMT:denormal_control.obj
 0001:00027bf0       _nullseat_set_busy_status  00428bf0 f   misc.obj
 0001:00027bf0       @_guard_check_icall_nop@4  00428bf0 f   LIBCMT:guard_support.obj
 0001:00027bf0       _nullseat_update_specials_menu 00428bf0 f   misc.obj
 0001:00027bf0       _timer_change_notify       00428bf0 f   wincons.obj
 0001:00027bf0       _platform_get_x11_auth     00428bf0 f   winsftp.obj
 0001:00027bf0       ___except_validate_context_record 00428bf0 f   libvcruntime:jbcxrval.obj
 0001:00028a13       _nullseat_get_window_pixel_size 00429a13 f   misc.obj
 0001:00028a13       _chan_no_send_break        00429a13 f   sshcommon.obj
 0001:00028a13       _chan_no_run_shell         00429a13 f   sshcommon.obj
 0001:00028a13       _chan_no_run_subsystem     00429a13 f   sshcommon.obj
 0001:00028a13       _chan_no_exit_status       00429a13 f   sshcommon.obj
 0001:00028a13       _nullseat_get_windowid     00429a13 f   misc.obj
 0001:00028a13       _ssh2_connection_parse_global_request 00429a13 f   ssh2connection-client.obj
 0001:00028a13       _chan_no_enable_agent_forwarding 00429a13 f   sshcommon.obj
 0001:00028a13       _chan_no_exit_signal_numeric 00429a13 f   sshcommon.obj
 0001:00028a13       _chan_no_send_signal       00429a13 f   sshcommon.obj
 0001:00028a13       _chan_no_enable_x11_forwarding 00429a13 f   sshcommon.obj
 0001:00028a13       _chan_no_allocate_pty      00429a13 f   sshcommon.obj
 0001:00028a13       _chan_no_change_window_size 00429a13 f   sshcommon.obj
 0001:00028a13       _chan_no_set_env           00429a13 f   sshcommon.obj
 0001:00028a13       _chan_no_exit_signal       00429a13 f   sshcommon.obj
 0001:00028a13       _nullseat_is_never_utf8    00429a13 f   misc.obj
 0001:00028a13       _chan_no_run_command       00429a13 f   sshcommon.obj
 0001:00028a13       _sk_address_is_special_local 00429a13 f   winnet.obj
 0001:00028a16       _chan_no_request_response  00429a16 f   sshcommon.obj
 0001:00028a32       _add_to_commasep           00429a32 f   sshcommon.obj
 0001:00028a66       _alloc_channel_id_general  00429a66 f   sshcommon.obj
 0001:00028ab7       _chan_default_want_close   00429ab7 f   sshcommon.obj
 0001:00028acc       _chan_remotely_opened_confirmation 00429acc f   sshcommon.obj
 0001:00028ae8       _chan_remotely_opened_failure 00429ae8 f   sshcommon.obj
 0001:00028b04       _free_rportfwd             00429b04 f   sshcommon.obj
 0001:00028b30       _get_commasep_word         00429b30 f   sshcommon.obj
 0001:00028b9b       _get_ttymodes_from_conf    00429b9b f   sshcommon.obj
 0001:00028d90       _pq_base_concatenate       00429d90 f   sshcommon.obj
 0001:00028e8a       _pq_base_push              00429e8a f   sshcommon.obj
 0001:00028ec1       _pq_base_push_front        00429ec1 f   sshcommon.obj
 0001:00028f98       _pq_in_clear               00429f98 f   sshcommon.obj
 0001:00028fb1       _pq_in_init                00429fb1 f   sshcommon.obj
 0001:00028ffa       _pq_out_clear              00429ffa f   sshcommon.obj
 0001:00029025       _pq_out_init               0042a025 f   sshcommon.obj
 0001:00029099       _read_ttymodes_from_packet 0042a099 f   sshcommon.obj
 0001:0002916b       _ssh1_common_filter_queue  0042a16b f   sshcommon.obj
 0001:00029201       _ssh1_common_get_specials  0042a201 f   sshcommon.obj
 0001:00029225       _ssh1_compute_session_id   0042a225 f   sshcommon.obj
 0001:000292b9       _ssh1_pkt_type             0042a2b9 f   sshcommon.obj
 0001:00029486       _ssh2_bpp_check_unimplemented 0042a486 f   sshcommon.obj
 0001:000294df       _ssh2_bpp_queue_disconnect 0042a4df f   sshcommon.obj
 0001:00029525       _ssh2_pkt_type             0042a525 f   sshcommon.obj
 0001:000298c3       _ssh_bpp_common_setup      0042a8c3 f   sshcommon.obj
 0001:000298fb       _ssh_bpp_free              0042a8fb f   sshcommon.obj
 0001:000298fb       _ssh_ppl_free              0042a8fb f   sshcommon.obj
 0001:00029933       _ssh_free_pktout           0042a933 f   sshcommon.obj
 0001:0002994a       _ssh_new_packet            0042a94a f   sshcommon.obj
 0001:000299c0       _ssh_ppl_default_queued_data_size 0042a9c0 f   sshcommon.obj
 0001:000299cb       _ssh_ppl_replace           0042a9cb f   sshcommon.obj
 0001:00029a19       _ssh_ppl_setup_queues      0042aa19 f   sshcommon.obj
 0001:00029a55       _ssh_ppl_user_output_string_and_free 0042aa55 f   sshcommon.obj
 0001:00029a7e       _verify_ssh_manual_host_key 0042aa7e f   sshcommon.obj
 0001:00029bf9       _write_ttymodes_to_packet  0042abf9 f   sshcommon.obj
 0001:00029cba       _zombiechan_new            0042acba f   sshcommon.obj
 0001:00029cd3       _crc32_ssh1                0042acd3 f   sshcrc.obj
 0001:00029ce6       _crc32_update              0042ace6 f   sshcrc.obj
 0001:00029e00       _crcda_free_context        0042ae00 f   sshcrcda.obj
 0001:00029e1d       _crcda_make_context        0042ae1d f   sshcrcda.obj
 0001:00029e36       _detect_attack             0042ae36 f   sshcrcda.obj
 0001:0002ad13       _des_key_setup             0042bd13 f   sshdes.obj
 0001:0002ae6f       _dh_cleanup                0042be6f f   sshdh.obj
 0001:0002aec6       _dh_create_e               0042bec6 f   sshdh.obj
 0001:0002af47       _dh_find_K                 0042bf47 f   sshdh.obj
 0001:0002af7a       _dh_is_gex                 0042bf7a f   sshdh.obj
 0001:0002af84       _dh_setup_gex              0042bf84 f   sshdh.obj
 0001:0002afb7       _dh_setup_group            0042bfb7 f   sshdh.obj
 0001:0002affb       _dh_validate_f             0042bffb f   sshdh.obj
 0001:0002b7f0       _dss_gen_k                 0042c7f0 f   sshdss.obj
 0001:0002d3f9       _ssh_ecdhkex_curve_textname 0042e3f9 f   sshecc.obj
 0001:0002d406       _ssh_ecdhkex_freekey       0042e406 f   sshecc.obj
 0001:0002d424       _ssh_ecdhkex_getkey        0042e424 f   sshecc.obj
 0001:0002d43a       _ssh_ecdhkex_getpublic     0042e43a f   sshecc.obj
 0001:0002d44b       _ssh_ecdhkex_newkey        0042e44b f   sshecc.obj
 0001:0002d55d       _ssh_gssapi_bind_fns       0042e55d f   sshgssc.obj
 0001:0002dbc9       _ssh2_mac_generate         0042ebc9 f   sshmac.obj
 0001:0002dc21       _ssh2_mac_verify           0042ec21 f   sshmac.obj
 0001:0002dc4c       _ssh2_mac_verresult        0042ec4c f   sshmac.obj
 0001:0002dd3f       _MD5Final                  0042ed3f f   sshmd5.obj
 0001:0002de48       _MD5Init                   0042ee48 f   sshmd5.obj
 0001:0002ea02       _prng_add_entropy          0042fa02 f   sshprng.obj
 0001:0002eb08       _prng_free                 0042fb08 f   sshprng.obj
 0001:0002eb6c       _prng_new                  0042fb6c f   sshprng.obj
 0001:0002ebf3       _prng_read                 0042fbf3 f   sshprng.obj
 0001:0002ecda       _prng_seed_begin           0042fcda f   sshprng.obj
 0001:0002ed21       _prng_seed_finish          0042fd21 f   sshprng.obj
 0001:0002edbd       _find_pubkey_alg           0042fdbd f   sshpubk.obj
 0001:0002edd4       _find_pubkey_alg_len       0042fdd4 f   sshpubk.obj
 0001:0002ee90       _key_type                  0042fe90 f   sshpubk.obj
 0001:0002f10a       _key_type_to_str           0043010a f   sshpubk.obj
 0001:0002f18e       _openssh_loadpub           0043018e f   sshpubk.obj
 0001:0002f516       _rfc4716_loadpub           00430516 f   sshpubk.obj
 0001:0002f79f       _rsa_ssh1_encrypted        0043079f f   sshpubk.obj
 0001:0002fa8a       _rsa_ssh1_loadkey          00430a8a f   sshpubk.obj
 0001:0002fb44       _rsa_ssh1_loadpub          00430b44 f   sshpubk.obj
 0001:0002fd89       _ssh2_fingerprint          00430d89 f   sshpubk.obj
 0001:0002fdbb       _ssh2_fingerprint_blob     00430dbb f   sshpubk.obj
 0001:0002feb2       _ssh2_load_userkey         00430eb2 f   sshpubk.obj
 0001:00030584       _ssh2_userkey_encrypted    00431584 f   sshpubk.obj
 0001:000306dd       _ssh2_userkey_loadpub      004316dd f   sshpubk.obj
 0001:000309ac       _random_add_noise          004319ac f   sshrand.obj
 0001:000309d0       _random_clear              004319d0 f   sshrand.obj
 0001:00030a6b       _random_get_savedata       00431a6b f   sshrand.obj
 0001:00030aa5       _random_read               00431aa5 f   sshrand.obj
 0001:00030adc       _random_ref                00431adc f   sshrand.obj
 0001:00030af9       _random_save_seed          00431af9 f   sshrand.obj
 0001:00030b7f       _random_unref              00431b7f f   sshrand.obj
 0001:0003107b       _rsa2_invalid              0043207b f   sshrsa.obj
 0001:000310d3       _BinarySource_get_rsa_ssh1_priv 004320d3 f   sshrsa.obj
 0001:000310e8       _BinarySource_get_rsa_ssh1_pub 004320e8 f   sshrsa.obj
 0001:000311b0       _crt_modpow                004321b0 f   sshrsa.obj
 0001:000312f8       _freersakey                004322f8 f   sshrsa.obj
 0001:0003133f       _freersapriv               0043233f f   sshrsa.obj
 0001:000315ad       _rsa_ssh1_decrypt          004325ad f   sshrsa.obj
 0001:000315b2       _rsa_ssh1_encrypt          004325b2 f   sshrsa.obj
 0001:00031704       _rsa_ssh1_fingerprint      00432704 f   sshrsa.obj
 0001:00031805       _rsa_ssh1_public_blob      00432805 f   sshrsa.obj
 0001:00031856       _rsa_verify                00432856 f   sshrsa.obj
 0001:00031975       _rsastr_fmt                00432975 f   sshrsa.obj
 0001:000319a0       _ssh_rsakex_encrypt        004329a0 f   sshrsa.obj
 0001:00031adc       _ssh_rsakex_freekey        00432adc f   sshrsa.obj
 0001:00031aeb       _dh_modulus_bit_size       00432aeb f   sshdh.obj
 0001:00031aeb       _ssh_rsakex_klen           00432aeb f   sshrsa.obj
 0001:00031af9       _ssh_rsakex_newkey         00432af9 f   sshrsa.obj
 0001:00032654       _SHA384_Final              00433654 f   sshsh512.obj
 0001:00032693       _SHA384_Init               00433693 f   sshsh512.obj
 0001:00033583       _SHA512_Final              00434583 f   sshsh512.obj
 0001:000336bc       _SHA512_Init               004346bc f   sshsh512.obj
 0001:0003460f       _share_activate            0043560f f   sshshare.obj
 0001:00034929       _share_dead_xchannel_respond 00435929 f   sshshare.obj
 0001:00035492       _share_got_pkt_from_server 00436492 f   sshshare.obj
 0001:00035782       _share_ndownstreams        00436782 f   sshshare.obj
 0001:00035891       _share_setup_x11_channel   00436891 f   sshshare.obj
 0001:00035c3d       _share_xchannel_confirmation 00436c3d f   sshshare.obj
 0001:00035ce8       _share_xchannel_failure    00436ce8 f   sshshare.obj
 0001:00035d79       _sharestate_free           00436d79 f   sshshare.obj
 0001:00035dd3       _ssh_connection_sharing_init 00436dd3 f   sshshare.obj
 0001:00035fcd       _ssh_connshare_provide_connlayer 00436fcd f   sshshare.obj
 0001:00035fda       _ssh_share_sockname        00436fda f   sshshare.obj
 0001:00036043       _ssh_share_test_for_upstream 00437043 f   sshshare.obj
 0001:00036b48       _ssh_verstring_get_bugs    00437b48 f   sshverstring.obj
 0001:00036b50       _ssh_verstring_get_local   00437b50 f   sshverstring.obj
 0001:00036b58       _ssh_verstring_get_remote  00437b58 f   sshverstring.obj
 0001:00036b62       _ssh_verstring_new         00437b62 f   sshverstring.obj
 0001:00036ce6       _zlib_compress_block       00437ce6 f   sshzlib.obj
 0001:00036da5       _zlib_decompress_init      00437da5 f   sshzlib.obj
 0001:00036e88       _zlib_decompress_cleanup   00437e88 f   sshzlib.obj
 0001:00036ef6       _zlib_decompress_block     00437ef6 f   sshzlib.obj
 0001:0003751a       _zlib_compress_init        0043851a f   sshzlib.obj
 0001:000375b6       _zlib_compress_cleanup     004385b6 f   sshzlib.obj
 0001:00038096       _stripctrl_enable_line_limiting 00439096 f   stripctrl.obj
 0001:000380a1       _stripctrl_free            004390a1 f   stripctrl.obj
 0001:0003833f       _stripctrl_new             0043933f f   stripctrl.obj
 0001:000383a0       _stripctrl_reset           004393a0 f   stripctrl.obj
 0001:000383d5       _stripctrl_retarget        004393d5 f   stripctrl.obj
 0001:000383e8       _stripctrl_string_ptrlen   004393e8 f   stripctrl.obj
 0001:00038479       _expire_timer_context      00439479 f   timing.obj
 0001:000384c6       _run_timers                004394c6 f   timing.obj
 0001:00038564       _schedule_timer            00439564 f   timing.obj
 0001:000385f7       _timing_last_clock         004395f7 f   timing.obj
 0001:000385fd       _add234                    004395fd f   tree234.obj
 0001:00038b23       _count234                  00439b23 f   tree234.obj
 0001:00038b74       _del234                    00439b74 f   tree234.obj
 0001:00038ba3       _delpos234                 00439ba3 f   tree234.obj
 0001:00039052       _find234                   0043a052 f   tree234.obj
 0001:0003906b       _findrel234                0043a06b f   tree234.obj
 0001:00039086       _findrelpos234             0043a086 f   tree234.obj
 0001:000391bc       _freetree234               0043a1bc f   tree234.obj
 0001:000391d2       _index234                  0043a1d2 f   tree234.obj
 0001:0003924c       _newtree234                0043a24c f   tree234.obj
 0001:00039265       _search234_start           0043a265 f   tree234.obj
 0001:00039285       _search234_step            0043a285 f   tree234.obj
 0001:00039368       _base64_decode_atom        0043a368 f   utils.obj
 0001:00039454       _base64_encode_atom        0043a454 f   utils.obj
 0001:000394d3       _bufchain_add              0043a4d3 f   utils.obj
 0001:00039573       _bufchain_clear            0043a573 f   utils.obj
 0001:000395a5       _bufchain_consume          0043a5a5 f   utils.obj
 0001:0003962f       _bufchain_fetch            0043a62f f   utils.obj
 0001:000396a3       _bufchain_fetch_consume    0043a6a3 f   utils.obj
 0001:000396c4       _bufchain_fetch_consume_up_to 0043a6c4 f   utils.obj
 0001:000396ea       _bufchain_init             0043a6ea f   utils.obj
 0001:00039703       _bufchain_prefix           0043a703 f   utils.obj
 0001:00039712       _bufchain_set_callback_inner 0043a712 f   utils.obj
 0001:00039725       _bufchain_size             0043a725 f   utils.obj
 0001:0003972d       _bufchain_try_fetch_consume 0043a72d f   utils.obj
 0001:0003974e       _chomp                     0043a74e f   utils.obj
 0001:0003977b       _ctrlparse                 0043a77b f   utils.obj
 0001:00039801       _dupcat_fn                 0043a801 f   utils.obj
 0001:00039880       _dupprintf                 0043a880 f   utils.obj
 0001:00039891       _dupstr                    0043a891 f   utils.obj
 0001:000398c0       _dupvprintf                0043a8c0 f   utils.obj
 0001:00039958       _fgetline                  0043a958 f   utils.obj
 0001:000399e2       _host_strchr               0043a9e2 f   utils.obj
 0001:00039a5a       _host_strcspn              0043aa5a f   utils.obj
 0001:00039a80       _host_strduptrim           0043aa80 f   utils.obj
 0001:00039af9       _host_strrchr              0043aaf9 f   utils.obj
 0001:00039b1d       _mkstr                     0043ab1d f   utils.obj
 0001:00039b4c       _nullstrcmp                0043ab4c f   utils.obj
 0001:00039b6f       _parse_blocksize           0043ab6f f   utils.obj
 0001:00039be2       _ptrlen_endswith           0043abe2 f   utils.obj
 0001:00039c25       _ptrlen_eq_ptrlen          0043ac25 f   utils.obj
 0001:00039c49       _ptrlen_eq_string          0043ac49 f   utils.obj
 0001:00039c73       _smemeq                    0043ac73 f   utils.obj
 0001:00039cd2       _strbuf_append             0043acd2 f   utils.obj
 0001:00039d12       _strbuf_catf               0043ad12 f   utils.obj
 0001:00039d28       _strbuf_catfv              0043ad28 f   utils.obj
 0001:00039d5d       _strbuf_chomp              0043ad5d f   utils.obj
 0001:00039d84       _strbuf_finalise_agent_query 0043ad84 f   utils.obj
 0001:00039dc9       _strbuf_free               0043adc9 f   utils.obj
 0001:00039df5       _strbuf_new                0043adf5 f   utils.obj
 0001:00039dfe       _strbuf_new_for_agent_query 0043adfe f   utils.obj
 0001:00039e5e       _strbuf_new_nm             0043ae5e f   utils.obj
 0001:00039e67       _strbuf_shrink_by          0043ae67 f   utils.obj
 0001:00039e9c       _strbuf_shrink_to          0043ae9c f   utils.obj
 0001:00039ece       _strbuf_to_str             0043aece f   utils.obj
 0001:00039ee4       _strendswith               0043aee4 f   utils.obj
 0001:00039f1c       _string_length_for_printf  0043af1c f   utils.obj
 0001:00039f47       _vsnprintf                 0043af47 f i utils.obj
 0001:00039fc0       _mk_wcwidth                0043afc0 f   wcwidth.obj
 0001:0003a017       _wc_match                  0043b017 f   wildcard.obj
 0001:0003a24b       _wc_unescape               0043b24b f   wildcard.obj
 0001:0003a29c       _got_crypt                 0043b29c f   wincapi.obj
 0001:0003a408       _cleanup_exit              0043b408 f   wincons.obj
 0001:0003a41c       _console_confirm_weak_cached_hostkey 0043b41c f   wincons.obj
 0001:0003a4f7       _console_confirm_weak_crypto_primitive 0043b4f7 f   wincons.obj
 0001:0003a5d2       _console_connection_fatal  0043b5d2 f   wincons.obj
 0001:0003a5ea       _console_get_userpass_input 0043b5ea f   wincons.obj
 0001:0003a84d       _console_print_error_msg   0043b84d f   wincons.obj
 0001:0003a8a1       _console_print_error_msg_fmt_v 0043b8a1 f   wincons.obj
 0001:0003a8c6       _console_stripctrl_new     0043b8c6 f   wincons.obj
 0001:0003a8d7       _console_verify_ssh_host_key 0043b8d7 f   wincons.obj
 0001:0003aa64       _modalfatalbox             0043ba64 f   wincons.obj
 0001:0003aa82       _nonfatal                  0043ba82 f   wincons.obj
 0001:0003aa99       _old_keyfile_warning       0043ba99 f   wincons.obj
 0001:0003aaaf       _pgp_fingerprints          0043baaf f   wincons.obj
 0001:0003aac5       _platform_default_b        0043bac5 f   windefs.obj
 0001:0003aaca       _platform_default_filename 0043baca f   windefs.obj
 0001:0003aaf1       _platform_default_fontspec 0043baf1 f   windefs.obj
 0001:0003ab23       _platform_default_i        0043bb23 f   windefs.obj
 0001:0003ab28       _platform_default_s        0043bb28 f   windefs.obj
 0001:0003ac43       _ssh_gss_cleanup           0043bc43 f   wingss.obj
 0001:0003ac8d       _ssh_gss_setup             0043bc8d f   wingss.obj
 0001:0003b4d1       _handle_add_foreign_event  0043c4d1 f   winhandl.obj
 0001:0003b598       _handle_free               0043c598 f   winhandl.obj
 0001:0003b5f3       _handle_get_events         0043c5f3 f   winhandl.obj
 0001:0003b656       _handle_got_event          0043c656 f   winhandl.obj
 0001:0003b775       _handle_input_new          0043c775 f   winhandl.obj
 0001:0003b98e       _handle_output_new         0043c98e f   winhandl.obj
 0001:0003bbd8       _handle_unthrottle         0043cbd8 f   winhandl.obj
 0001:0003bc0a       _handle_write              0043cc0a f   winhandl.obj
 0001:0003bc6c       _handle_write_eof          0043cc6c f   winhandl.obj
 0001:0003bffe       _make_handle_socket        0043cffe f   winhsock.obj
 0001:0003c0a9       _dll_hijacking_protection  0043d0a9 f   winmisc.obj
 0001:0003c10f       _escape_registry_key       0043d10f f   winmisc.obj
 0001:0003c19a       _filename_char_sanitise    0043d19a f   winmisc.obj
 0001:0003c1be       _filename_copy             0043d1be f   winmisc.obj
 0001:0003c1cb       _fontspec_free             0043d1cb f   winmisc.obj
 0001:0003c1cb       _filename_free             0043d1cb f   winmisc.obj
 0001:0003c1e1       _filename_from_str         0043d1e1 f   winmisc.obj
 0001:0003c201       _filename_is_null          0043d201 f   winmisc.obj
 0001:0003c20e       _filename_to_str           0043d20e f   winmisc.obj
 0001:0003c215       _fontspec_copy             0043d215 f   winmisc.obj
 0001:0003c22f       _fontspec_new              0043d22f f   winmisc.obj
 0001:0003c264       _get_username              0043d264 f   winmisc.obj
 0001:0003c35e       _load_system32_dll         0043d35e f   winmisc.obj
 0001:0003c3d7       _open_for_write_would_lose_data 0043d3d7 f   winmisc.obj
 0001:0003c422       _platform_get_x_display    0043d422 f   winmisc.obj
 0001:0003c435       _win_strerror              0043d435 f   winmisc.obj
 0001:0003c546       _smemclr                   0043d546 f   winmiscs.obj
 0001:0003c83c       _IN6_IS_ADDR_LOOPBACK      0043d83c f i winnet.obj
 0001:0003c8b2       _first_socket              0043d8b2 f   winnet.obj
 0001:0003c983       _net_service_lookup        0043d983 f   winnet.obj
 0001:0003c9a5       _next_socket               0043d9a5 f   winnet.obj
 0001:0003c9ca       _platform_get_x11_unix_address 0043d9ca f   winnet.obj
 0001:0003c9fb       _select_result             0043d9fb f   winnet.obj
 0001:0003cdac       _sk_addr_dup               0043ddac f   winnet.obj
 0001:0003cdb3       _sk_addr_error             0043ddb3 f   winnet.obj
 0001:0003cdbb       _sk_addr_free              0043ddbb f   winnet.obj
 0001:0003cdf3       _sk_addr_needs_port        0043ddf3 f   winnet.obj
 0001:0003cdff       _sk_addrcopy               0043ddff f   winnet.obj
 0001:0003cec0       _sk_address_is_local       0043dec0 f   winnet.obj
 0001:0003cf62       _sk_addrtype               0043df62 f   winnet.obj
 0001:0003cf95       _sk_cleanup                0043df95 f   winnet.obj
 0001:0003d04c       _sk_getaddr                0043e04c f   winnet.obj
 0001:0003d117       _sk_hostname_is_local      0043e117 f   winnet.obj
 0001:0003d15d       _sk_init                   0043e15d f   winnet.obj
 0001:0003d670       _sk_namedpipe_addr         0043e670 f   winnet.obj
 0001:0003d6bb       _sk_namelookup             0043e6bb f   winnet.obj
 0001:0003d9f0       _sk_new                    0043e9f0 f   winnet.obj
 0001:0003da8a       _sk_newlistener            0043ea8a f   winnet.obj
 0001:0003ddbf       _sk_nonamelookup           0043edbf f   winnet.obj
 0001:0003de77       _socket_writable           0043ee77 f   winnet.obj
 0001:0003e24e       _try_send                  0043f24e f   winnet.obj
 0001:0003e335       _winsock_error_string      0043f335 f   winnet.obj
 0001:0003e523       _noise_get_heavy           0043f523 f   winnoise.obj
 0001:0003e5fa       _noise_regular             0043f5fa f   winnoise.obj
 0001:0003e70f       _noise_ultralight          0043f70f f   winnoise.obj
 0001:0003e761       _prng_reseed_time_ms       0043f761 f   winnoise.obj
 0001:0003e78d       _win_read_random           0043f78d f   winnoise.obj
 0001:0003e86d       _new_named_pipe_client     0043f86d f   winnpc.obj
 0001:0003ebb0       _new_named_pipe_listener   0043fbb0 f   winnps.obj
 0001:0003ecc3       _agent_cancel_query        0043fcc3 f   winpgntc.obj
 0001:0003ecdc       _agent_exists              0043fcdc f   winpgntc.obj
 0001:0003ecef       _agent_query               0043fcef f   winpgntc.obj
 0001:0003eeb5       _platform_new_connection   0043feb5 f   winproxy.obj
 0001:0003f0cb       _get_user_sid              004400cb f   winsecur.obj
 0001:0003f1ea       _getsids                   004401ea f   winsecur.obj
 0001:0003f2d0       _got_advapi                004402d0 f   winsecur.obj
 0001:0003f3f7       _make_private_security_descriptor 004403f7 f   winsecur.obj
 0001:0003f68e       _restrict_process_acl      0044068e f   winsecur.obj
 0001:0003f6b7       _begin_wildcard_matching   004406b7 f   winsftp.obj
 0001:0003f75d       _close_directory           0044075d f   winsftp.obj
 0001:0003f782       _close_wfile               00440782 f   winsftp.obj
 0001:0003f782       _close_rfile               00440782 f   winsftp.obj
 0001:0003f7bb       _create_directory          004407bb f   winsftp.obj
 0001:0003f7ce       _dir_file_cat              004407ce f   winsftp.obj
 0001:0003f82a       _do_eventsel_loop          0044082a f   winsftp.obj
 0001:0003fa1f       _do_select                 00440a1f f   winsftp.obj
 0001:0003fa91       _file_type                 00440a91 f   winsftp.obj
 0001:0003faad       _filexfer_get_userpass_input 00440aad f   winsftp.obj
 0001:0003fac7       _finish_wildcard_matching  00440ac7 f   winsftp.obj
 0001:0003faf5       _get_file_posn             00440af5 f   winsftp.obj
 0001:0003fb1b       _main                      00440b1b f   winsftp.obj
 0001:0003fb25       _open_directory            00440b25 f   winsftp.obj
 0001:0003fbb5       _open_existing_file        00440bb5 f   winsftp.obj
 0001:0003fc8a       _open_existing_wfile       00440c8a f   winsftp.obj
 0001:0003fcee       _open_new_file             00440cee f   winsftp.obj
 0001:0003fd28       _platform_psftp_pre_conn_setup 00440d28 f   winsftp.obj
 0001:0003fd45       _psftp_getcwd              00440d45 f   winsftp.obj
 0001:0003fd86       _psftp_lcd                 00440d86 f   winsftp.obj
 0001:0003fde8       _read_filename             00440de8 f   winsftp.obj
 0001:0003fe8c       _read_from_file            00440e8c f   winsftp.obj
 0001:0003feb8       _seek_file                 00440eb8 f   winsftp.obj
 0001:0003ff00       _ssh_sftp_get_cmdline      00440f00 f   winsftp.obj
 0001:0003ffea       _ssh_sftp_loop_iteration   00440fea f   winsftp.obj
 0001:000400f4       _stripslashes              004410f4 f   winsftp.obj
 0001:0004013e       _test_wildcard             0044113e f   winsftp.obj
 0001:00040196       _vet_filename              00441196 f   winsftp.obj
 0001:000401df       _wildcard_get_filename     004411df f   winsftp.obj
 0001:0004026c       _write_to_file             0044126c f   winsftp.obj
 0001:00040389       _platform_ssh_share        00441389 f   winshare.obj
 0001:000407fd       _close_settings_r          004417fd f   winstore.obj
 0001:00040817       _have_ssh_host_key         00441817 f   winstore.obj
 0001:0004085e       _open_settings_r           0044185e f   winstore.obj
 0001:000408f0       _read_random_seed          004418f0 f   winstore.obj
 0001:0004096f       _read_setting_filename     0044196f f   winstore.obj
 0001:0004099f       _read_setting_fontspec     0044199f f   winstore.obj
 0001:00040a85       _read_setting_i            00441a85 f   winstore.obj
 0001:00040aca       _read_setting_s            00441aca f   winstore.obj
 0001:00040b6f       _store_host_key            00441b6f f   winstore.obj
 0001:00040c95       _verify_host_key           00441c95 f   winstore.obj
 0001:00040ecd       _write_random_seed         00441ecd f   winstore.obj
 0001:00040f00       _ltime                     00441f00 f   wintime.obj
 0001:00040f87       _mb_to_wc                  00441f87 f   winucs.obj
 0001:00041497       _x11_authcmp               00442497 f   x11fwd.obj
 0001:000414fc       _x11_dehexify              004424fc f   x11fwd.obj
 0001:00041565       _x11_free_display          00442565 f   x11fwd.obj
 0001:000415aa       _x11_free_fake_auth        004425aa f   x11fwd.obj
 0001:00041622       _x11_identify_auth_proto   00442622 f   x11fwd.obj
 0001:00041650       _x11_invent_fake_auth      00442650 f   x11fwd.obj
 0001:000417a9       _x11_make_greeting         004427a9 f   x11fwd.obj
 0001:0004196f       _x11_new_channel           0044296f f   x11fwd.obj
 0001:00041b0e       _x11_setup_display         00442b0e f   x11fwd.obj
 0001:00042026       @__security_check_cookie@4 00443026 f   LIBCMT:_secchk_.obj
 0001:00042040       __alloca_probe             00443040 f   LIBCMT:chkstk.obj
 0001:00042040       __chkstk                   00443040 f   LIBCMT:chkstk.obj
 0001:00042070       __allmul                   00443070 f   LIBCMT:llmul.obj
 0001:000420b0       __allshl                   004430b0 f   LIBCMT:llshl.obj
 0001:000420d0       __aullshr                  004430d0 f   LIBCMT:ullshr.obj
 0001:000420ef       ___raise_securityfailure   004430ef f   LIBCMT:gs_report.obj
 0001:00042117       ___report_gsfailure        00443117 f   LIBCMT:gs_report.obj
 0001:00042212       ___report_rangecheckfailure 00443212 f   LIBCMT:gs_report.obj
 0001:0004221e       ___report_securityfailure  0044321e f   LIBCMT:gs_report.obj
 0001:000422f0       __aulldiv                  004432f0 f   LIBCMT:ulldiv.obj
 0001:00042585       _mainCRTStartup            00443585 f   LIBCMT:exe_main.obj
 0001:0004258f       ??$__crt_fast_encode_pointer@PAX@@YAPAXQAX@Z 0044358f f i libvcruntime:winapi_downlevel.obj
 0001:0004258f       ??$__crt_fast_encode_pointer@PAP6AXXZ@@YAPAP6AXXZQAP6AXXZ@Z 0044358f f i LIBCMT:utility.obj
 0001:000425f0       ___scrt_acquire_startup_lock 004435f0 f   LIBCMT:utility.obj
 0001:00042625       ___scrt_initialize_crt     00443625 f   LIBCMT:utility.obj
 0001:0004265e       ___scrt_initialize_onexit_tables 0044365e f   LIBCMT:utility.obj
 0001:000426f5       ___scrt_is_nonwritable_in_current_image 004436f5 f   LIBCMT:utility.obj
 0001:0004277f       ___scrt_release_startup_lock 0044377f f   LIBCMT:utility.obj
 0001:0004279c       ___scrt_uninitialize_crt   0044379c f   LIBCMT:utility.obj
 0001:000427c4       __onexit                   004437c4 f   LIBCMT:utility.obj
 0001:000427ff       _atexit                    004437ff f   LIBCMT:utility.obj
 0001:00042814       ___security_init_cookie    00443814 f   LIBCMT:gs_support.obj
 0001:000428b0       _sftp_cmd_null             004438b0 f   psftp.obj
 0001:000428b0       __get_startup_argv_mode    004438b0 f   LIBCMT:argv_mode.obj
 0001:000428b4       __get_startup_file_mode    004438b4 f   LIBCMT:file_mode.obj
 0001:000428ba       ?__scrt_initialize_type_info@@YAXXZ 004438ba f   LIBCMT:tncleanup.obj
 0001:000428c6       __initialize_default_precision 004438c6 f   LIBCMT:default_precision.obj
 0001:000428e7       ___scrt_initialize_default_local_stdio_options 004438e7 f   LIBCMT:default_local_stdio_options.obj
 0001:00042904       ___scrt_is_user_matherr_present 00443904 f   LIBCMT:matherr_detection.obj
 0001:00042910       ___scrt_get_dyn_tls_init_callback 00443910 f   LIBCMT:dyn_tls_init.obj
 0001:00042916       ___scrt_get_dyn_tls_dtor_callback 00443916 f   LIBCMT:dyn_tls_dtor.obj
 0001:0004291c       ___scrt_fastfail           0044391c f   LIBCMT:utility_desktop.obj
 0001:00042a37       ___scrt_is_managed_app     00443a37 f   LIBCMT:utility_desktop.obj
 0001:00042a7b       ___scrt_set_unhandled_exception_filter 00443a7b f   LIBCMT:utility_desktop.obj
 0001:00042a87       ___scrt_unhandled_exception_filter@4 00443a87 f   LIBCMT:utility_desktop.obj
 0001:00042ac8       __crt_debugger_hook        00443ac8 f   LIBCMT:utility_desktop.obj
 0001:00042ad0       __RTC_Initialize           00443ad0 f   LIBCMT:_initsect_.obj
 0001:00042afb       __RTC_Terminate            00443afb f   LIBCMT:_initsect_.obj
 0001:00042b26       @_guard_check_icall@4      00443b26 f i LIBCMT:checkcfg.obj
 0001:00042b30       __SEH_prolog4              00443b30 f   LIBCMT:_sehprolg4_.obj
 0001:00042b76       __SEH_epilog4              00443b76 f   LIBCMT:_sehprolg4_.obj
 0001:00042b8b       ___isa_available_init      00443b8b f   LIBCMT:_cpu_disp_.obj
 0001:00042d25       ___scrt_is_ucrt_dll_in_use 00443d25 f   LIBCMT:ucrt_detection.obj
 0001:00042d32       _IsProcessorFeaturePresent@4 00443d32 f   kernel32:KERNEL32.dll
 0001:00042d40       _memchr                    00443d40 f   libvcruntime:memchr.obj
 0001:00042df0       _memcpy                    00443df0 f   libvcruntime:memcpy.obj
 0001:00043370       _memmove                   00444370 f   libvcruntime:memmove.obj
 0001:000438f0       _strchr                    004448f0 f   libvcruntime:strchr.obj
 0001:0004395e       ___from_strstr_to_strchr   0044495e     libvcruntime:strchr.obj
 0001:00043a20       _strrchr                   00444a20 f   libvcruntime:strrchr.obj
 0001:00043b60       _memset                    00444b60 f   libvcruntime:memset.obj
 0001:00043cba       _memcmp                    00444cba f   libvcruntime:_memcmp_.obj
 0001:00045440       _strstr                    00446440 f   libvcruntime:strstr.obj
 0001:000456f0       __except_handler4          004466f0 f   libvcruntime:_chandler4_.obj
 0001:00045856       ___vcrt_initialize         00446856 f   libvcruntime:initialization.obj
 0001:0004587f       ___vcrt_uninitialize       0044687f f   libvcruntime:initialization.obj
 0001:000458a0       __local_unwind4            004468a0 f   libvcruntime:_exsup4_.obj
 0001:00045976       __seh_longjmp_unwind4@4    00446976 f   libvcruntime:_exsup4_.obj
 0001:0004599e       @_EH4_CallFilterFunc@8     0044699e f   libvcruntime:_exsup4_.obj
 0001:000459b5       @_EH4_TransferToHandler@8  004469b5 f   libvcruntime:_exsup4_.obj
 0001:000459ce       @_EH4_GlobalUnwind2@8      004469ce f   libvcruntime:_exsup4_.obj
 0001:000459e7       @_EH4_LocalUnwind@16       004469e7 f   libvcruntime:_exsup4_.obj
 0001:000459fe       ___vcrt_freefls@4          004469fe f   libvcruntime:per_thread_data.obj
 0001:00045a1a       ___vcrt_initialize_ptd     00446a1a f   libvcruntime:per_thread_data.obj
 0001:00045a4d       ___vcrt_uninitialize_ptd   00446a4d f   libvcruntime:per_thread_data.obj
 0001:00045a68       ___vcrt_initialize_locks   00446a68 f   libvcruntime:locks.obj
 0001:00045aa4       ___vcrt_uninitialize_locks 00446aa4 f   libvcruntime:locks.obj
 0001:00045bf4       ___vcrt_FlsAlloc           00446bf4 f   libvcruntime:winapi_downlevel.obj
 0001:00045c2e       ___vcrt_FlsFree            00446c2e f   libvcruntime:winapi_downlevel.obj
 0001:00045c68       ___vcrt_FlsSetValue        00446c68 f   libvcruntime:winapi_downlevel.obj
 0001:00045ca5       ___vcrt_InitializeCriticalSectionEx 00446ca5 f   libvcruntime:winapi_downlevel.obj
 0001:00045ceb       ___vcrt_initialize_winapi_thunks 00446ceb f   libvcruntime:winapi_downlevel.obj
 0001:00045d25       ___vcrt_uninitialize_winapi_thunks 00446d25 f   libvcruntime:winapi_downlevel.obj
 0001:00045d57       ___vcrt_initialize_pure_virtual_call_handler 00446d57 f   libvcruntime:purevirt_data.obj
 0001:00045d80       __global_unwind2           00446d80 f   libvcruntime:_exsup_.obj
 0001:00045de5       __local_unwind2            00446de5 f   libvcruntime:_exsup_.obj
 0001:00045e69       __abnormal_termination     00446e69 f   libvcruntime:_exsup_.obj
 0001:00045e8c       __NLG_Notify1              00446e8c f   libvcruntime:_exsup_.obj
 0001:00045e95       __NLG_Notify               00446e95 f   libvcruntime:_exsup_.obj
 0001:00045eac       __NLG_Dispatch             00446eac     libvcruntime:_exsup_.obj
 0001:00045eac       __NLG_Dispatch2            00446eac     libvcruntime:_exsup_.obj
 0001:00045eb4       __NLG_Call                 00446eb4 f   libvcruntime:_exsup_.obj
 0001:00045eb6       __NLG_Return2              00446eb6     libvcruntime:_exsup_.obj
 0001:0004651b       ??$ftprintf@PAU_iobuf@@PB_WABQB_WABQB_WABI@?$__crt_char_traits@_W@@SAH$$QAPAU_iobuf@@$$QAPB_WABQB_W2ABI@Z 0044751b f i libucrt:assert.obj
 0001:000465fa       __vfwprintf_l              004475fa f i libucrt:assert.obj
 0001:0004661f       __vswprintf_c_l            0044761f f i libucrt:assert.obj
 0001:0004664e       __wassert                  0044764e f   libucrt:assert.obj
 0001:00046696       _fwprintf                  00447696 f i libucrt:assert.obj
 0001:000466b1       _swprintf                  004476b1 f i libucrt:assert.obj
 0001:000466d0       _strlen                    004476d0 f   libucrt:strlen.obj
 0001:0004675b       __fclose_nolock            0044775b f   libucrt:fclose.obj
 0001:000467d1       _fclose                    004477d1 f   libucrt:fclose.obj
 0001:00046912       _fopen                     00447912 f   libucrt:fopen.obj
 0001:00046929       __fread_nolock_s           00447929 f   libucrt:fread.obj
 0001:00046af5       _fread                     00447af5 f   libucrt:fread.obj
 0001:00046b12       _fread_s                   00447b12 f   libucrt:fread.obj
 0001:00046ba5       ??$is_overflow_condition@K@__crt_strtox@@YA_NIK@Z 00447ba5 f i libucrt:atox.obj
 0001:00046bd8       ??$is_overflow_condition@_K@__crt_strtox@@YA_NI_K@Z 00447bd8 f i libucrt:atox.obj
 0001:00046c1b       ??$make_c_string_character_source@_W$$T@__crt_strtox@@YA?AV?$c_string_character_source@_W@0@QB_W$$T@Z 00447c1b f i libucrt:atox.obj
 0001:00046c1b       ??$make_c_string_character_source@DPAPAD@__crt_strtox@@YA?AV?$c_string_character_source@D@0@QBDQAPAD@Z 00447c1b f i libucrt:strtox.obj
 0001:00046c1b       ??$make_c_string_character_source@D$$T@__crt_strtox@@YA?AV?$c_string_character_source@D@0@QBD$$T@Z 00447c1b f i libucrt:atox.obj
 0001:00046c1b       ??$make_c_string_character_source@_WPAPA_W@__crt_strtox@@YA?AV?$c_string_character_source@_W@0@QB_WQAPA_W@Z 00447c1b f i libucrt:strtox.obj
 0001:00046c36       ??$parse_integer@KV?$c_string_character_source@D@__crt_strtox@@@__crt_strtox@@YAKQAU__crt_locale_pointers@@V?$c_string_character_source@D@0@H_N@Z 00447c36 f i libucrt:atox.obj
 0001:00046e5e       ??$parse_integer@KV?$c_string_character_source@_W@__crt_strtox@@@__crt_strtox@@YAKQAU__crt_locale_pointers@@V?$c_string_character_source@_W@0@H_N@Z 00447e5e f i libucrt:atox.obj
 0001:00047543       ??$parse_integer@_KV?$c_string_character_source@D@__crt_strtox@@@__crt_strtox@@YA_KQAU__crt_locale_pointers@@V?$c_string_character_source@D@0@H_N@Z 00448543 f i libucrt:atox.obj
 0001:000477e9       ??0_LocaleUpdate@@QAE@QAU__crt_locale_pointers@@@Z 004487e9 f i libucrt:atox.obj
 0001:0004786c       ?unget@?$c_string_character_source@D@__crt_strtox@@QAEXD@Z 0044886c f i libucrt:atox.obj
 0001:00047894       ?unget@?$c_string_character_source@_W@__crt_strtox@@QAEX_W@Z 00448894 f i libucrt:atox.obj
 0001:000478c0       ?validate@?$c_string_character_source@_W@__crt_strtox@@QBE_NXZ 004488c0 f i libucrt:atox.obj
 0001:000478c0       ?validate@?$string_output_adapter@_W@__crt_stdio_output@@QBE_NXZ 004488c0 f i libucrt:output.obj
 0001:000478c0       ?validate@?$c_string_character_source@D@__crt_strtox@@QBE_NXZ 004488c0 f i libucrt:atox.obj
 0001:000478c0       ?validate@?$string_output_adapter@D@__crt_stdio_output@@QBE_NXZ 004488c0 f i libucrt:output.obj
 0001:000478c0       ?validate@?$stream_output_adapter@_W@__crt_stdio_output@@QBE_NXZ 004488c0 f i libucrt:output.obj
 0001:000478db       __chvalidchk_l             004488db f i libucrt:atox.obj
 0001:00047905       __ischartype_l             00448905 f i libucrt:atox.obj
 0001:00047938       __wtol                     00448938 f   libucrt:atox.obj
 0001:00047962       _atol                      00448962 f   libucrt:atox.obj
 0001:00047962       _atoi                      00448962 f   libucrt:atox.obj
 0001:00047990       _strcmp                    00448990 f   libucrt:strcmp.obj
 0001:00047a20       _strncmp                   00448a20 f   libucrt:strncmp.obj
 0001:00047aa0       _strspn                    00448aa0 f   libucrt:strspn.obj
 0001:00047ae6       ___acrt_stdio_flush_nolock 00448ae6 f   libucrt:fflush.obj
 0001:00047b4c       __fflush_nolock            00448b4c f   libucrt:fflush.obj
 0001:00047b93       __flushall                 00448b93 f   libucrt:fflush.obj
 0001:00047c74       _fflush                    00448c74 f   libucrt:fflush.obj
 0001:00047ccd       ??$?RV<lambda_11b4f7b0d3157825a5656a18eba1ae27>@@AAV<lambda_b51c0495177f500e782686251704ae76>@@V<lambda_cf89b47920b5017557bfe891e78aca36>@@@?$__crt_seh_guarded_call@I@@QAEI$$QAV<lambda_11b4f7b0d3157825a5656a18eba1ae27>@@AAV<lambda_b51c0495177f500e782686251704ae76>@@$$QAV<lambda_cf89b47920b5017557bfe891e78aca36>@@@Z 00448ccd f i libucrt:fwrite.obj
 0001:00047d1e       ??$__acrt_lock_stream_and_call@V<lambda_b51c0495177f500e782686251704ae76>@@@@YAIQAU_iobuf@@$$QAV<lambda_b51c0495177f500e782686251704ae76>@@@Z 00448d1e f i libucrt:fwrite.obj
 0001:00047d8c       __fwrite_nolock            00448d8c f   libucrt:fwrite.obj
 0001:00047f05       _fwrite                    00448f05 f   libucrt:fwrite.obj
 0001:00047f5d       ??$?RV<lambda_ab9923ffb5d694ec0d78876dd103e44f>@@AAV<lambda_481dd5778c961fbcd3b60b650e9b9dc4>@@V<lambda_7923d86c9e3f319b415918ec4b39749c>@@@?$__crt_seh_guarded_call@H@@QAEH$$QAV<lambda_ab9923ffb5d694ec0d78876dd103e44f>@@AAV<lambda_481dd5778c961fbcd3b60b650e9b9dc4>@@$$QAV<lambda_7923d86c9e3f319b415918ec4b39749c>@@@Z 00448f5d f i libucrt:output.obj
 0001:00047fae       ??$?RV<lambda_db08b09ef7aa9d4f8620ce68402612bc>@@AAV<lambda_4f2c1eaeead2a5fc776db5b62ea0fb9b>@@V<lambda_3ae262bc35d4ba6a3825c4f6bcaaf95c>@@@?$__crt_seh_guarded_call@H@@QAEH$$QAV<lambda_db08b09ef7aa9d4f8620ce68402612bc>@@AAV<lambda_4f2c1eaeead2a5fc776db5b62ea0fb9b>@@$$QAV<lambda_3ae262bc35d4ba6a3825c4f6bcaaf95c>@@@Z 00448fae f i libucrt:output.obj
 0001:00047fff       ??$__acrt_lock_stream_and_call@V<lambda_481dd5778c961fbcd3b60b650e9b9dc4>@@@@YAHQAU_iobuf@@$$QAV<lambda_481dd5778c961fbcd3b60b650e9b9dc4>@@@Z 00448fff f i libucrt:output.obj
 0001:00048027       ??$__acrt_lock_stream_and_call@V<lambda_4f2c1eaeead2a5fc776db5b62ea0fb9b>@@@@YAHQAU_iobuf@@$$QAV<lambda_4f2c1eaeead2a5fc776db5b62ea0fb9b>@@@Z 00449027 f i libucrt:output.obj
 0001:00048350       ??$count@D@formatting_buffer@__crt_stdio_output@@QBEIXZ 00449350 f i libucrt:output.obj
 0001:00048368       ??$ensure_buffer_is_big_enough@D@formatting_buffer@__crt_stdio_output@@QAE_NI@Z 00449368 f i libucrt:output.obj
 0001:000483ee       ??$is_wide_character_specifier@D@__crt_stdio_output@@YA_N_KDW4length_modifier@0@@Z 004493ee f i libucrt:output.obj
 0001:0004842e       ??$is_wide_character_specifier@_W@__crt_stdio_output@@YA_N_K_WW4length_modifier@0@@Z 0044942e f i libucrt:output.obj
 0001:0004847d       ??$scratch_data@D@formatting_buffer@__crt_stdio_output@@QAEPADXZ 0044947d f i libucrt:output.obj
 0001:0004849b       ??$type_case_integer_parse_into_buffer@I@?$output_processor@_WV?$stream_output_adapter@_W@__crt_stdio_output@@V?$standard_base@_WV?$stream_output_adapter@_W@__crt_stdio_output@@@2@@__crt_stdio_output@@AAEXII_N@Z 0044949b f i libucrt:output.obj
 0001:0004849b       ??$type_case_integer_parse_into_buffer@I@?$output_processor@_WV?$string_output_adapter@_W@__crt_stdio_output@@V?$standard_base@_WV?$string_output_adapter@_W@__crt_stdio_output@@@2@@__crt_stdio_output@@AAEXII_N@Z 0044949b f i libucrt:output.obj
 0001:0004849b       ??$type_case_integer_parse_into_buffer@I@?$output_processor@DV?$stream_output_adapter@D@__crt_stdio_output@@V?$standard_base@DV?$stream_output_adapter@D@__crt_stdio_output@@@2@@__crt_stdio_output@@AAEXII_N@Z 0044949b f i libucrt:output.obj
 0001:0004849b       ??$type_case_integer_parse_into_buffer@I@?$output_processor@DV?$string_output_adapter@D@__crt_stdio_output@@V?$standard_base@DV?$string_output_adapter@D@__crt_stdio_output@@@2@@__crt_stdio_output@@AAEXII_N@Z 0044949b f i libucrt:output.obj
 0001:00048510       ??$type_case_integer_parse_into_buffer@_K@?$output_processor@DV?$string_output_adapter@D@__crt_stdio_output@@V?$standard_base@DV?$string_output_adapter@D@__crt_stdio_output@@@2@@__crt_stdio_output@@AAEX_KI_N@Z 00449510 f i libucrt:output.obj
 0001:00048510       ??$type_case_integer_parse_into_buffer@_K@?$output_processor@_WV?$string_output_adapter@_W@__crt_stdio_output@@V?$standard_base@_WV?$string_output_adapter@_W@__crt_stdio_output@@@2@@__crt_stdio_output@@AAEX_KI_N@Z 00449510 f i libucrt:output.obj
 0001:00048510       ??$type_case_integer_parse_into_buffer@_K@?$output_processor@_WV?$stream_output_adapter@_W@__crt_stdio_output@@V?$standard_base@_WV?$stream_output_adapter@_W@__crt_stdio_output@@@2@@__crt_stdio_output@@AAEX_KI_N@Z 00449510 f i libucrt:output.obj
 0001:00048510       ??$type_case_integer_parse_into_buffer@_K@?$output_processor@DV?$stream_output_adapter@D@__crt_stdio_output@@V?$standard_base@DV?$stream_output_adapter@D@__crt_stdio_output@@@2@@__crt_stdio_output@@AAEX_KI_N@Z 00449510 f i libucrt:output.obj
 0001:00048598       ??$write_multiple_characters@V?$stream_output_adapter@D@__crt_stdio_output@@D@__crt_stdio_output@@YAXABV?$stream_output_adapter@D@0@DHQAH@Z 00449598 f i libucrt:output.obj
 0001:000485c4       ??$write_multiple_characters@V?$stream_output_adapter@_W@__crt_stdio_output@@D@__crt_stdio_output@@YAXABV?$stream_output_adapter@_W@0@DHQAH@Z 004495c4 f i libucrt:output.obj
 0001:000485f5       ??$write_multiple_characters@V?$string_output_adapter@D@__crt_stdio_output@@D@__crt_stdio_output@@YAXABV?$string_output_adapter@D@0@DHQAH@Z 004495f5 f i libucrt:output.obj
 0001:00048621       ??$write_multiple_characters@V?$string_output_adapter@_W@__crt_stdio_output@@D@__crt_stdio_output@@YAXABV?$string_output_adapter@_W@0@DHQAH@Z 00449621 f i libucrt:output.obj
 0001:00048652       ??0?$common_data@D@__crt_stdio_output@@IAE@XZ 00449652 f i libucrt:output.obj
 0001:00048699       ??0?$common_data@_W@__crt_stdio_output@@IAE@XZ 00449699 f i libucrt:output.obj
 0001:000486e5       ??0?$output_adapter_data@DV?$string_output_adapter@D@__crt_stdio_output@@@__crt_stdio_output@@IAE@ABV?$string_output_adapter@D@1@_KQBDQAU__crt_locale_pointers@@QAD@Z 004496e5 f i libucrt:output.obj
 0001:000486e5       ??0?$output_adapter_data@DV?$stream_output_adapter@D@__crt_stdio_output@@@__crt_stdio_output@@IAE@ABV?$stream_output_adapter@D@1@_KQBDQAU__crt_locale_pointers@@QAD@Z 004496e5 f i libucrt:output.obj
 0001:00048721       ??0?$output_adapter_data@_WV?$stream_output_adapter@_W@__crt_stdio_output@@@__crt_stdio_output@@IAE@ABV?$stream_output_adapter@_W@1@_KQB_WQAU__crt_locale_pointers@@QAD@Z 00449721 f i libucrt:output.obj
 0001:00048721       ??0?$output_adapter_data@_WV?$string_output_adapter@_W@__crt_stdio_output@@@__crt_stdio_output@@IAE@ABV?$string_output_adapter@_W@1@_KQB_WQAU__crt_locale_pointers@@QAD@Z 00449721 f i libucrt:output.obj
 0001:0004875d       ??0?$output_processor@DV?$string_output_adapter@D@__crt_stdio_output@@V?$standard_base@DV?$string_output_adapter@D@__crt_stdio_output@@@2@@__crt_stdio_output@@QAE@ABV?$string_output_adapter@D@1@_KQBDQAU__crt_locale_pointers@@QAD@Z 0044975d f i libucrt:output.obj
 0001:0004875d       ??0?$output_processor@DV?$stream_output_adapter@D@__crt_stdio_output@@V?$standard_base@DV?$stream_output_adapter@D@__crt_stdio_output@@@2@@__crt_stdio_output@@QAE@ABV?$stream_output_adapter@D@1@_KQBDQAU__crt_locale_pointers@@QAD@Z 0044975d f i libucrt:output.obj
 0001:00048792       ??0?$output_processor@_WV?$string_output_adapter@_W@__crt_stdio_output@@V?$standard_base@_WV?$string_output_adapter@_W@__crt_stdio_output@@@2@@__crt_stdio_output@@QAE@ABV?$string_output_adapter@_W@1@_KQB_WQAU__crt_locale_pointers@@QAD@Z 00449792 f i libucrt:output.obj
 0001:00048792       ??0?$output_processor@_WV?$stream_output_adapter@_W@__crt_stdio_output@@V?$standard_base@_WV?$stream_output_adapter@_W@__crt_stdio_output@@@2@@__crt_stdio_output@@QAE@ABV?$stream_output_adapter@_W@1@_KQB_WQAU__crt_locale_pointers@@QAD@Z 00449792 f i libucrt:output.obj
 0001:000487c7       ??1formatting_buffer@__crt_stdio_output@@QAE@XZ 004497c7 f i libucrt:output.obj
 0001:000487e1       ??4?$__crt_unique_heap_ptr@DU__crt_internal_free_policy@@@@QAEAAV0@$$QAV0@@Z 004497e1 f i libucrt:output.obj
 0001:0004897f       ?crop_zeroes@__crt_stdio_output@@YAXPADQAU__crt_locale_pointers@@@Z 0044997f f i libucrt:output.obj
 0001:000489d6       ?find_next_state@?$output_processor@DV?$string_output_adapter@D@__crt_stdio_output@@V?$standard_base@DV?$string_output_adapter@D@__crt_stdio_output@@@2@@__crt_stdio_output@@ABE?AW4state@2@DW432@@Z 004499d6 f i libucrt:output.obj
 0001:000489d6       ?find_next_state@?$output_processor@DV?$stream_output_adapter@D@__crt_stdio_output@@V?$standard_base@DV?$stream_output_adapter@D@__crt_stdio_output@@@2@@__crt_stdio_output@@ABE?AW4state@2@DW432@@Z 004499d6 f i libucrt:output.obj
 0001:00048a08       ?find_next_state@?$output_processor@_WV?$string_output_adapter@_W@__crt_stdio_output@@V?$standard_base@_WV?$string_output_adapter@_W@__crt_stdio_output@@@2@@__crt_stdio_output@@ABE?AW4state@2@_WW432@@Z 00449a08 f i libucrt:output.obj
 0001:00048a08       ?find_next_state@?$output_processor@_WV?$stream_output_adapter@_W@__crt_stdio_output@@V?$standard_base@_WV?$stream_output_adapter@_W@__crt_stdio_output@@@2@@__crt_stdio_output@@ABE?AW4state@2@_WW432@@Z 00449a08 f i libucrt:output.obj
 0001:00048a3c       ?force_decimal_point@__crt_stdio_output@@YAXPADQAU__crt_locale_pointers@@@Z 00449a3c f i libucrt:output.obj
 0001:00048a98       ?parse_int_from_format_string@?$output_processor@DV?$stream_output_adapter@D@__crt_stdio_output@@V?$standard_base@DV?$stream_output_adapter@D@__crt_stdio_output@@@2@@__crt_stdio_output@@AAE_NQAH@Z 00449a98 f i libucrt:output.obj
 0001:00048a98       ?parse_int_from_format_string@?$output_processor@DV?$string_output_adapter@D@__crt_stdio_output@@V?$standard_base@DV?$string_output_adapter@D@__crt_stdio_output@@@2@@__crt_stdio_output@@AAE_NQAH@Z 00449a98 f i libucrt:output.obj
 0001:00048af4       ?parse_int_from_format_string@?$output_processor@_WV?$string_output_adapter@_W@__crt_stdio_output@@V?$standard_base@_WV?$string_output_adapter@_W@__crt_stdio_output@@@2@@__crt_stdio_output@@AAE_NQAH@Z 00449af4 f i libucrt:output.obj
 0001:00048af4       ?parse_int_from_format_string@?$output_processor@_WV?$stream_output_adapter@_W@__crt_stdio_output@@V?$standard_base@_WV?$stream_output_adapter@_W@__crt_stdio_output@@@2@@__crt_stdio_output@@AAE_NQAH@Z 00449af4 f i libucrt:output.obj
 0001:00048b52       ?process@?$output_processor@DV?$stream_output_adapter@D@__crt_stdio_output@@V?$standard_base@DV?$stream_output_adapter@D@__crt_stdio_output@@@2@@__crt_stdio_output@@QAEHXZ 00449b52 f i libucrt:output.obj
 0001:00048c6e       ?process@?$output_processor@DV?$string_output_adapter@D@__crt_stdio_output@@V?$standard_base@DV?$string_output_adapter@D@__crt_stdio_output@@@2@@__crt_stdio_output@@QAEHXZ 00449c6e f i libucrt:output.obj
 0001:00048d8a       ?process@?$output_processor@_WV?$stream_output_adapter@_W@__crt_stdio_output@@V?$standard_base@_WV?$stream_output_adapter@_W@__crt_stdio_output@@@2@@__crt_stdio_output@@QAEHXZ 00449d8a f i libucrt:output.obj
 0001:00048eaa       ?process@?$output_processor@_WV?$string_output_adapter@_W@__crt_stdio_output@@V?$standard_base@_WV?$string_output_adapter@_W@__crt_stdio_output@@@2@@__crt_stdio_output@@QAEHXZ 00449eaa f i libucrt:output.obj
 0001:00048fca       ?state_case_flag@?$output_processor@DV?$string_output_adapter@D@__crt_stdio_output@@V?$standard_base@DV?$string_output_adapter@D@__crt_stdio_output@@@2@@__crt_stdio_output@@AAE_NXZ 00449fca f i libucrt:output.obj
 0001:00048fca       ?state_case_flag@?$output_processor@DV?$stream_output_adapter@D@__crt_stdio_output@@V?$standard_base@DV?$stream_output_adapter@D@__crt_stdio_output@@@2@@__crt_stdio_output@@AAE_NXZ 00449fca f i libucrt:output.obj
 0001:00049007       ?state_case_flag@?$output_processor@_WV?$stream_output_adapter@_W@__crt_stdio_output@@V?$standard_base@_WV?$stream_output_adapter@_W@__crt_stdio_output@@@2@@__crt_stdio_output@@AAE_NXZ 0044a007 f i libucrt:output.obj
 0001:00049007       ?state_case_flag@?$output_processor@_WV?$string_output_adapter@_W@__crt_stdio_output@@V?$standard_base@_WV?$string_output_adapter@_W@__crt_stdio_output@@@2@@__crt_stdio_output@@AAE_NXZ 0044a007 f i libucrt:output.obj
 0001:00049044       ?state_case_normal@?$output_processor@DV?$stream_output_adapter@D@__crt_stdio_output@@V?$standard_base@DV?$stream_output_adapter@D@__crt_stdio_output@@@2@@__crt_stdio_output@@AAE_NXZ 0044a044 f i libucrt:output.obj
 0001:00049063       ?state_case_normal@?$output_processor@DV?$string_output_adapter@D@__crt_stdio_output@@V?$standard_base@DV?$string_output_adapter@D@__crt_stdio_output@@@2@@__crt_stdio_output@@AAE_NXZ 0044a063 f i libucrt:output.obj
 0001:00049082       ?state_case_normal@?$output_processor@_WV?$stream_output_adapter@_W@__crt_stdio_output@@V?$standard_base@_WV?$stream_output_adapter@_W@__crt_stdio_output@@@2@@__crt_stdio_output@@AAE_NXZ 0044a082 f i libucrt:output.obj
 0001:000490a1       ?state_case_normal@?$output_processor@_WV?$string_output_adapter@_W@__crt_stdio_output@@V?$standard_base@_WV?$string_output_adapter@_W@__crt_stdio_output@@@2@@__crt_stdio_output@@AAE_NXZ 0044a0a1 f i libucrt:output.obj
 0001:000490c0       ?state_case_normal_common@?$output_processor@DV?$stream_output_adapter@D@__crt_stdio_output@@V?$standard_base@DV?$stream_output_adapter@D@__crt_stdio_output@@@2@@__crt_stdio_output@@AAE_NXZ 0044a0c0 f i libucrt:output.obj
 0001:000490ea       ?state_case_normal_common@?$output_processor@DV?$string_output_adapter@D@__crt_stdio_output@@V?$standard_base@DV?$string_output_adapter@D@__crt_stdio_output@@@2@@__crt_stdio_output@@AAE_NXZ 0044a0ea f i libucrt:output.obj
 0001:00049114       ?state_case_normal_common@?$output_processor@_WV?$stream_output_adapter@_W@__crt_stdio_output@@V?$standard_base@_WV?$stream_output_adapter@_W@__crt_stdio_output@@@2@@__crt_stdio_output@@AAE_NXZ 0044a114 f i libucrt:output.obj
 0001:0004912f       ?state_case_normal_common@?$output_processor@_WV?$string_output_adapter@_W@__crt_stdio_output@@V?$standard_base@_WV?$string_output_adapter@_W@__crt_stdio_output@@@2@@__crt_stdio_output@@AAE_NXZ 0044a12f f i libucrt:output.obj
 0001:0004914a       ?state_case_normal_tchar@?$output_processor@DV?$stream_output_adapter@D@__crt_stdio_output@@V?$standard_base@DV?$stream_output_adapter@D@__crt_stdio_output@@@2@@__crt_stdio_output@@AAE_ND@Z 0044a14a f i libucrt:output.obj
 0001:000491ab       ?state_case_normal_tchar@?$output_processor@DV?$string_output_adapter@D@__crt_stdio_output@@V?$standard_base@DV?$string_output_adapter@D@__crt_stdio_output@@@2@@__crt_stdio_output@@AAE_ND@Z 0044a1ab f i libucrt:output.obj
 0001:0004920c       ?state_case_precision@?$output_processor@DV?$string_output_adapter@D@__crt_stdio_output@@V?$standard_base@DV?$string_output_adapter@D@__crt_stdio_output@@@2@@__crt_stdio_output@@AAE_NXZ 0044a20c f i libucrt:output.obj
 0001:0004920c       ?state_case_precision@?$output_processor@DV?$stream_output_adapter@D@__crt_stdio_output@@V?$standard_base@DV?$stream_output_adapter@D@__crt_stdio_output@@@2@@__crt_stdio_output@@AAE_NXZ 0044a20c f i libucrt:output.obj
 0001:00049234       ?state_case_precision@?$output_processor@_WV?$string_output_adapter@_W@__crt_stdio_output@@V?$standard_base@_WV?$string_output_adapter@_W@__crt_stdio_output@@@2@@__crt_stdio_output@@AAE_NXZ 0044a234 f i libucrt:output.obj
 0001:00049234       ?state_case_precision@?$output_processor@_WV?$stream_output_adapter@_W@__crt_stdio_output@@V?$standard_base@_WV?$stream_output_adapter@_W@__crt_stdio_output@@@2@@__crt_stdio_output@@AAE_NXZ 0044a234 f i libucrt:output.obj
 0001:0004925d       ?state_case_size@?$output_processor@DV?$stream_output_adapter@D@__crt_stdio_output@@V?$standard_base@DV?$stream_output_adapter@D@__crt_stdio_output@@@2@@__crt_stdio_output@@AAE_NXZ 0044a25d f i libucrt:output.obj
 0001:000493c6       ?state_case_size@?$output_processor@DV?$string_output_adapter@D@__crt_stdio_output@@V?$standard_base@DV?$string_output_adapter@D@__crt_stdio_output@@@2@@__crt_stdio_output@@AAE_NXZ 0044a3c6 f i libucrt:output.obj
 0001:0004952f       ?state_case_size@?$output_processor@_WV?$stream_output_adapter@_W@__crt_stdio_output@@V?$standard_base@_WV?$stream_output_adapter@_W@__crt_stdio_output@@@2@@__crt_stdio_output@@AAE_NXZ 0044a52f f i libucrt:output.obj
 0001:000496ab       ?state_case_size@?$output_processor@_WV?$string_output_adapter@_W@__crt_stdio_output@@V?$standard_base@_WV?$string_output_adapter@_W@__crt_stdio_output@@@2@@__crt_stdio_output@@AAE_NXZ 0044a6ab f i libucrt:output.obj
 0001:00049827       ?state_case_type@?$output_processor@DV?$stream_output_adapter@D@__crt_stdio_output@@V?$standard_base@DV?$stream_output_adapter@D@__crt_stdio_output@@@2@@__crt_stdio_output@@AAE_NXZ 0044a827 f i libucrt:output.obj
 0001:00049a56       ?state_case_type@?$output_processor@DV?$string_output_adapter@D@__crt_stdio_output@@V?$standard_base@DV?$string_output_adapter@D@__crt_stdio_output@@@2@@__crt_stdio_output@@AAE_NXZ 0044aa56 f i libucrt:output.obj
 0001:00049c85       ?state_case_type@?$output_processor@_WV?$stream_output_adapter@_W@__crt_stdio_output@@V?$standard_base@_WV?$stream_output_adapter@_W@__crt_stdio_output@@@2@@__crt_stdio_output@@AAE_NXZ 0044ac85 f i libucrt:output.obj
 0001:00049ee2       ?state_case_type@?$output_processor@_WV?$string_output_adapter@_W@__crt_stdio_output@@V?$standard_base@_WV?$string_output_adapter@_W@__crt_stdio_output@@@2@@__crt_stdio_output@@AAE_NXZ 0044aee2 f i libucrt:output.obj
 0001:0004a13f       ?state_case_width@?$output_processor@DV?$stream_output_adapter@D@__crt_stdio_output@@V?$standard_base@DV?$stream_output_adapter@D@__crt_stdio_output@@@2@@__crt_stdio_output@@AAE_NXZ 0044b13f f i libucrt:output.obj
 0001:0004a13f       ?state_case_width@?$output_processor@DV?$string_output_adapter@D@__crt_stdio_output@@V?$standard_base@DV?$string_output_adapter@D@__crt_stdio_output@@@2@@__crt_stdio_output@@AAE_NXZ 0044b13f f i libucrt:output.obj
 0001:0004a16a       ?state_case_width@?$output_processor@_WV?$string_output_adapter@_W@__crt_stdio_output@@V?$standard_base@_WV?$string_output_adapter@_W@__crt_stdio_output@@@2@@__crt_stdio_output@@AAE_NXZ 0044b16a f i libucrt:output.obj
 0001:0004a16a       ?state_case_width@?$output_processor@_WV?$stream_output_adapter@_W@__crt_stdio_output@@V?$standard_base@_WV?$stream_output_adapter@_W@__crt_stdio_output@@@2@@__crt_stdio_output@@AAE_NXZ 0044b16a f i libucrt:output.obj
 0001:0004a196       ?to_integer_size@__crt_stdio_output@@YAIW4length_modifier@1@@Z 0044b196 f i libucrt:output.obj
 0001:0004a1f2       ?type_case_Z@?$output_processor@DV?$string_output_adapter@D@__crt_stdio_output@@V?$standard_base@DV?$string_output_adapter@D@__crt_stdio_output@@@2@@__crt_stdio_output@@AAE_NXZ 0044b1f2 f i libucrt:output.obj
 0001:0004a1f2       ?type_case_Z@?$output_processor@DV?$stream_output_adapter@D@__crt_stdio_output@@V?$standard_base@DV?$stream_output_adapter@D@__crt_stdio_output@@@2@@__crt_stdio_output@@AAE_NXZ 0044b1f2 f i libucrt:output.obj
 0001:0004a255       ?type_case_Z@?$output_processor@_WV?$stream_output_adapter@_W@__crt_stdio_output@@V?$standard_base@_WV?$stream_output_adapter@_W@__crt_stdio_output@@@2@@__crt_stdio_output@@AAE_NXZ 0044b255 f i libucrt:output.obj
 0001:0004a255       ?type_case_Z@?$output_processor@_WV?$string_output_adapter@_W@__crt_stdio_output@@V?$standard_base@_WV?$string_output_adapter@_W@__crt_stdio_output@@@2@@__crt_stdio_output@@AAE_NXZ 0044b255 f i libucrt:output.obj
 0001:0004a2b8       ?type_case_a@?$output_processor@DV?$string_output_adapter@D@__crt_stdio_output@@V?$standard_base@DV?$string_output_adapter@D@__crt_stdio_output@@@2@@__crt_stdio_output@@AAE_NXZ 0044b2b8 f i libucrt:output.obj
 0001:0004a2b8       ?type_case_a@?$output_processor@DV?$stream_output_adapter@D@__crt_stdio_output@@V?$standard_base@DV?$stream_output_adapter@D@__crt_stdio_output@@@2@@__crt_stdio_output@@AAE_NXZ 0044b2b8 f i libucrt:output.obj
 0001:0004a412       ?type_case_a@?$output_processor@_WV?$string_output_adapter@_W@__crt_stdio_output@@V?$standard_base@_WV?$string_output_adapter@_W@__crt_stdio_output@@@2@@__crt_stdio_output@@AAE_NXZ 0044b412 f i libucrt:output.obj
 0001:0004a412       ?type_case_a@?$output_processor@_WV?$stream_output_adapter@_W@__crt_stdio_output@@V?$standard_base@_WV?$stream_output_adapter@_W@__crt_stdio_output@@@2@@__crt_stdio_output@@AAE_NXZ 0044b412 f i libucrt:output.obj
 0001:0004a584       ?type_case_c_tchar@?$output_processor@DV?$string_output_adapter@D@__crt_stdio_output@@V?$standard_base@DV?$string_output_adapter@D@__crt_stdio_output@@@2@@__crt_stdio_output@@AAE_ND@Z 0044b584 f i libucrt:output.obj
 0001:0004a584       ?type_case_c_tchar@?$output_processor@DV?$stream_output_adapter@D@__crt_stdio_output@@V?$standard_base@DV?$stream_output_adapter@D@__crt_stdio_output@@@2@@__crt_stdio_output@@AAE_ND@Z 0044b584 f i libucrt:output.obj
 0001:0004a614       ?type_case_c_tchar@?$output_processor@_WV?$string_output_adapter@_W@__crt_stdio_output@@V?$standard_base@_WV?$string_output_adapter@_W@__crt_stdio_output@@@2@@__crt_stdio_output@@AAE_N_W@Z 0044b614 f i libucrt:output.obj
 0001:0004a614       ?type_case_c_tchar@?$output_processor@_WV?$stream_output_adapter@_W@__crt_stdio_output@@V?$standard_base@_WV?$stream_output_adapter@_W@__crt_stdio_output@@@2@@__crt_stdio_output@@AAE_N_W@Z 0044b614 f i libucrt:output.obj
 0001:0004a6ac       ?type_case_integer@?$output_processor@_WV?$string_output_adapter@_W@__crt_stdio_output@@V?$standard_base@_WV?$string_output_adapter@_W@__crt_stdio_output@@@2@@__crt_stdio_output@@AAE_NI_N@Z 0044b6ac f i libucrt:output.obj
 0001:0004a6ac       ?type_case_integer@?$output_processor@DV?$string_output_adapter@D@__crt_stdio_output@@V?$standard_base@DV?$string_output_adapter@D@__crt_stdio_output@@@2@@__crt_stdio_output@@AAE_NI_N@Z 0044b6ac f i libucrt:output.obj
 0001:0004a6ac       ?type_case_integer@?$output_processor@_WV?$stream_output_adapter@_W@__crt_stdio_output@@V?$standard_base@_WV?$stream_output_adapter@_W@__crt_stdio_output@@@2@@__crt_stdio_output@@AAE_NI_N@Z 0044b6ac f i libucrt:output.obj
 0001:0004a6ac       ?type_case_integer@?$output_processor@DV?$stream_output_adapter@D@__crt_stdio_output@@V?$standard_base@DV?$stream_output_adapter@D@__crt_stdio_output@@@2@@__crt_stdio_output@@AAE_NI_N@Z 0044b6ac f i libucrt:output.obj
 0001:0004a7f6       ?type_case_n@?$output_processor@_WV?$stream_output_adapter@_W@__crt_stdio_output@@V?$standard_base@_WV?$stream_output_adapter@_W@__crt_stdio_output@@@2@@__crt_stdio_output@@AAE_NXZ 0044b7f6 f i libucrt:output.obj
 0001:0004a7f6       ?type_case_n@?$output_processor@DV?$string_output_adapter@D@__crt_stdio_output@@V?$standard_base@DV?$string_output_adapter@D@__crt_stdio_output@@@2@@__crt_stdio_output@@AAE_NXZ 0044b7f6 f i libucrt:output.obj
 0001:0004a7f6       ?type_case_n@?$output_processor@DV?$stream_output_adapter@D@__crt_stdio_output@@V?$standard_base@DV?$stream_output_adapter@D@__crt_stdio_output@@@2@@__crt_stdio_output@@AAE_NXZ 0044b7f6 f i libucrt:output.obj
 0001:0004a7f6       ?type_case_n@?$output_processor@_WV?$string_output_adapter@_W@__crt_stdio_output@@V?$standard_base@_WV?$string_output_adapter@_W@__crt_stdio_output@@@2@@__crt_stdio_output@@AAE_NXZ 0044b7f6 f i libucrt:output.obj
 0001:0004a86a       ?type_case_o@?$output_processor@DV?$string_output_adapter@D@__crt_stdio_output@@V?$standard_base@DV?$string_output_adapter@D@__crt_stdio_output@@@2@@__crt_stdio_output@@AAE_NXZ 0044b86a f i libucrt:output.obj
 0001:0004a86a       ?type_case_o@?$output_processor@_WV?$stream_output_adapter@_W@__crt_stdio_output@@V?$standard_base@_WV?$stream_output_adapter@_W@__crt_stdio_output@@@2@@__crt_stdio_output@@AAE_NXZ 0044b86a f i libucrt:output.obj
 0001:0004a86a       ?type_case_o@?$output_processor@_WV?$string_output_adapter@_W@__crt_stdio_output@@V?$standard_base@_WV?$string_output_adapter@_W@__crt_stdio_output@@@2@@__crt_stdio_output@@AAE_NXZ 0044b86a f i libucrt:output.obj
 0001:0004a86a       ?type_case_o@?$output_processor@DV?$stream_output_adapter@D@__crt_stdio_output@@V?$standard_base@DV?$stream_output_adapter@D@__crt_stdio_output@@@2@@__crt_stdio_output@@AAE_NXZ 0044b86a f i libucrt:output.obj
 0001:0004a889       ?type_case_p@?$output_processor@DV?$string_output_adapter@D@__crt_stdio_output@@V?$standard_base@DV?$string_output_adapter@D@__crt_stdio_output@@@2@@__crt_stdio_output@@AAE_NXZ 0044b889 f i libucrt:output.obj
 0001:0004a889       ?type_case_p@?$output_processor@_WV?$stream_output_adapter@_W@__crt_stdio_output@@V?$standard_base@_WV?$stream_output_adapter@_W@__crt_stdio_output@@@2@@__crt_stdio_output@@AAE_NXZ 0044b889 f i libucrt:output.obj
 0001:0004a889       ?type_case_p@?$output_processor@_WV?$string_output_adapter@_W@__crt_stdio_output@@V?$standard_base@_WV?$string_output_adapter@_W@__crt_stdio_output@@@2@@__crt_stdio_output@@AAE_NXZ 0044b889 f i libucrt:output.obj
 0001:0004a889       ?type_case_p@?$output_processor@DV?$stream_output_adapter@D@__crt_stdio_output@@V?$standard_base@DV?$stream_output_adapter@D@__crt_stdio_output@@@2@@__crt_stdio_output@@AAE_NXZ 0044b889 f i libucrt:output.obj
 0001:0004a8a1       ?type_case_s@?$output_processor@DV?$string_output_adapter@D@__crt_stdio_output@@V?$standard_base@DV?$string_output_adapter@D@__crt_stdio_output@@@2@@__crt_stdio_output@@AAE_NXZ 0044b8a1 f i libucrt:output.obj
 0001:0004a8a1       ?type_case_s@?$output_processor@DV?$stream_output_adapter@D@__crt_stdio_output@@V?$standard_base@DV?$stream_output_adapter@D@__crt_stdio_output@@@2@@__crt_stdio_output@@AAE_NXZ 0044b8a1 f i libucrt:output.obj
 0001:0004a914       ?type_case_s@?$output_processor@_WV?$string_output_adapter@_W@__crt_stdio_output@@V?$standard_base@_WV?$string_output_adapter@_W@__crt_stdio_output@@@2@@__crt_stdio_output@@AAE_NXZ 0044b914 f i libucrt:output.obj
 0001:0004a914       ?type_case_s@?$output_processor@_WV?$stream_output_adapter@_W@__crt_stdio_output@@V?$standard_base@_WV?$stream_output_adapter@_W@__crt_stdio_output@@@2@@__crt_stdio_output@@AAE_NXZ 0044b914 f i libucrt:output.obj
 0001:0004a988       ?type_case_s_compute_narrow_string_length@?$output_processor@_WV?$stream_output_adapter@_W@__crt_stdio_output@@V?$standard_base@_WV?$stream_output_adapter@_W@__crt_stdio_output@@@2@@__crt_stdio_output@@ABEHH_W@Z 0044b988 f i libucrt:output.obj
 0001:0004a988       ?type_case_s_compute_narrow_string_length@?$output_processor@_WV?$string_output_adapter@_W@__crt_stdio_output@@V?$standard_base@_WV?$string_output_adapter@_W@__crt_stdio_output@@@2@@__crt_stdio_output@@ABEHH_W@Z 0044b988 f i libucrt:output.obj
 0001:0004a9c8       ?validate@?$stream_output_adapter@D@__crt_stdio_output@@QBE_NXZ 0044b9c8 f i libucrt:output.obj
 0001:0004a9e9       ?validate_stream_is_ansi_if_required@?$__acrt_stdio_char_traits@D@@SA_NQAU_iobuf@@@Z 0044b9e9 f i libucrt:output.obj
 0001:0004aa6b       ?write_character@?$stream_output_adapter@D@__crt_stdio_output@@QBEXDQAH@Z 0044ba6b f i libucrt:output.obj
 0001:0004aaa8       ?write_character@?$stream_output_adapter@_W@__crt_stdio_output@@QBEX_WQAH@Z 0044baa8 f i libucrt:output.obj
 0001:0004aae8       ?write_character@?$string_output_adapter@D@__crt_stdio_output@@QBE_NDQAH@Z 0044bae8 f i libucrt:output.obj
 0001:0004ab2a       ?write_character@?$string_output_adapter@_W@__crt_stdio_output@@QBE_N_WQAH@Z 0044bb2a f i libucrt:output.obj
 0001:0004ab6f       ?write_stored_string_tchar@?$output_processor@DV?$stream_output_adapter@D@__crt_stdio_output@@V?$standard_base@DV?$stream_output_adapter@D@__crt_stdio_output@@@2@@__crt_stdio_output@@AAE_ND@Z 0044bb6f f i libucrt:output.obj
 0001:0004ac16       ?write_stored_string_tchar@?$output_processor@DV?$string_output_adapter@D@__crt_stdio_output@@V?$standard_base@DV?$string_output_adapter@D@__crt_stdio_output@@@2@@__crt_stdio_output@@AAE_ND@Z 0044bc16 f i libucrt:output.obj
 0001:0004acbd       ?write_stored_string_tchar@?$output_processor@_WV?$stream_output_adapter@_W@__crt_stdio_output@@V?$standard_base@_WV?$stream_output_adapter@_W@__crt_stdio_output@@@2@@__crt_stdio_output@@AAE_N_W@Z 0044bcbd f i libucrt:output.obj
 0001:0004ad48       ?write_stored_string_tchar@?$output_processor@_WV?$string_output_adapter@_W@__crt_stdio_output@@V?$standard_base@_WV?$string_output_adapter@_W@__crt_stdio_output@@@2@@__crt_stdio_output@@AAE_N_W@Z 0044bd48 f i libucrt:output.obj
 0001:0004add3       ?write_string@?$stream_output_adapter@D@__crt_stdio_output@@QBEXQBDHQAH1@Z 0044bdd3 f i libucrt:output.obj
 0001:0004ae5d       ?write_string@?$stream_output_adapter@_W@__crt_stdio_output@@QBEXQB_WHQAH1@Z 0044be5d f i libucrt:output.obj
 0001:0004aeea       ?write_string@?$string_output_adapter@D@__crt_stdio_output@@QBEXQBDHQAH1@Z 0044beea f i libucrt:output.obj
 0001:0004af7d       ?write_string@?$string_output_adapter@_W@__crt_stdio_output@@QBEXQB_WHQAH1@Z 0044bf7d f i libucrt:output.obj
 0001:0004b017       ___stdio_common_vfprintf   0044c017 f   libucrt:output.obj
 0001:0004b08e       ___stdio_common_vfwprintf  0044c08e f   libucrt:output.obj
 0001:0004b105       ___stdio_common_vsprintf   0044c105 f   libucrt:output.obj
 0001:0004b129       ___stdio_common_vswprintf  0044c129 f   libucrt:output.obj
 0001:0004b2b4       __tolower_l                0044c2b4 f   libucrt:tolower_toupper.obj
 0001:0004b2ce       _tolower                   0044c2ce f   libucrt:tolower_toupper.obj
 0001:0004b2fe       __Strftime_l               0044c2fe f   libucrt:strftime.obj
 0001:0004b42d       _strftime                  0044c42d f   libucrt:strftime.obj
 0001:0004b450       _strcpy                    0044c450 f   libucrt:strcat.obj
 0001:0004b460       _strcat                    0044c460 f   libucrt:strcat.obj
 0001:0004b548       _free                      0044c548 f   libucrt:free.obj
 0001:0004b54d       _malloc                    0044c54d f   libucrt:malloc.obj
 0001:0004b558       _realloc                   0044c558 f   libucrt:realloc.obj
 0001:0004b570       _strcspn                   0044c570 f   libucrt:strcspn.obj
 0001:0004b5b6       ??$?RV<lambda_b0cac3301889906f8da68b04e3d9a7f4>@@AAV<lambda_9a20e10065b92b5193c3597a66cba9d4>@@V<lambda_24b35df97fd4c1fecac72a72d95cc146>@@@?$__crt_seh_guarded_call@H@@QAEH$$QAV<lambda_b0cac3301889906f8da68b04e3d9a7f4>@@AAV<lambda_9a20e10065b92b5193c3597a66cba9d4>@@$$QAV<lambda_24b35df97fd4c1fecac72a72d95cc146>@@@Z 0044c5b6 f i libucrt:fputs.obj
 0001:0004b607       ??$__acrt_lock_stream_and_call@V<lambda_9a20e10065b92b5193c3597a66cba9d4>@@@@YAHQAU_iobuf@@$$QAV<lambda_9a20e10065b92b5193c3597a66cba9d4>@@@Z 0044c607 f i libucrt:fputs.obj
 0001:0004b67d       _fputs                     0044c67d f   libucrt:fputs.obj
 0001:0004b758       _abort                     0044c758 f   libucrt:abort.obj
 0001:0004b79b       __isalnum_l                0044c79b f i libucrt:_ctype.obj
 0001:0004b7d6       __isdigit_l                0044c7d6 f i libucrt:_ctype.obj
 0001:0004b80e       __isspace_l                0044c80e f i libucrt:_ctype.obj
 0001:0004b846       __isxdigit_l               0044c846 f i libucrt:_ctype.obj
 0001:0004b881       _isalnum                   0044c881 f i libucrt:_ctype.obj
 0001:0004b8b0       _isdigit                   0044c8b0 f i libucrt:_ctype.obj
 0001:0004b8dd       _isspace                   0044c8dd f i libucrt:_ctype.obj
 0001:0004b90a       _isxdigit                  0044c90a f i libucrt:_ctype.obj
 0001:0004b939       __strnicmp                 0044c939 f   libucrt:strnicmp.obj
 0001:0004b9a5       __strnicmp_l               0044c9a5 f   libucrt:strnicmp.obj
 0001:0004ba5c       ??$assemble_floating_point_ind@N@__crt_strtox@@YAXAAN@Z 0044ca5c f i libucrt:input.obj
 0001:0004ba8b       ??$assemble_floating_point_infinity@N@__crt_strtox@@YAX_NAAN@Z 0044ca8b f i libucrt:input.obj
 0001:0004baca       ??$assemble_floating_point_qnan@N@__crt_strtox@@YAX_NAAN@Z 0044caca f i libucrt:input.obj
 0001:0004bb09       ??$assemble_floating_point_snan@N@__crt_strtox@@YAX_NAAN@Z 0044cb09 f i libucrt:input.obj
 0001:0004bb4d       ??$assemble_floating_point_value_t@M@__crt_strtox@@YA?AW4SLD_STATUS@@_NH_KAAM@Z 0044cb4d f i libucrt:input.obj
 0001:0004bb7d       ??$assemble_floating_point_value_t@N@__crt_strtox@@YA?AW4SLD_STATUS@@_NH_KAAN@Z 0044cb7d f i libucrt:input.obj
 0001:0004bbdc       ??$assemble_floating_point_zero@N@__crt_strtox@@YAX_NAAN@Z 0044cbdc f i libucrt:input.obj
 0001:0004bcda       ??$convert_decimal_string_to_floating_type@M@__crt_strtox@@YA?AW4SLD_STATUS@@ABUfloating_point_string@0@AAM@Z 0044ccda f i libucrt:input.obj
 0001:0004bcfd       ??$convert_decimal_string_to_floating_type@N@__crt_strtox@@YA?AW4SLD_STATUS@@ABUfloating_point_string@0@AAN@Z 0044ccfd f i libucrt:input.obj
 0001:0004bd20       ??$convert_hexadecimal_string_to_floating_type@M@__crt_strtox@@YA?AW4SLD_STATUS@@ABUfloating_point_string@0@AAM@Z 0044cd20 f i libucrt:input.obj
 0001:0004bd43       ??$convert_hexadecimal_string_to_floating_type@N@__crt_strtox@@YA?AW4SLD_STATUS@@ABUfloating_point_string@0@AAN@Z 0044cd43 f i libucrt:input.obj
 0001:0004bd66       ??$make_input_adapter_character_source@V?$string_input_adapter@D@__crt_stdio_input@@@__crt_strtox@@YA?AV?$input_adapter_character_source@V?$string_input_adapter@D@__crt_stdio_input@@@0@QAV?$string_input_adapter@D@__crt_stdio_input@@_KQA_N@Z 0044cd66 f i libucrt:input.obj
 0001:0004bd84       ??$parse_floating_point@V?$input_adapter_character_source@V?$string_input_adapter@D@__crt_stdio_input@@@__crt_strtox@@M@__crt_strtox@@YA?AW4SLD_STATUS@@QAU__crt_locale_pointers@@V?$input_adapter_character_source@V?$string_input_adapter@D@__crt_stdio_input@@@0@QAM@Z 0044cd84 f i libucrt:input.obj
 0001:0004bdff       ??$parse_floating_point@V?$input_adapter_character_source@V?$string_input_adapter@D@__crt_stdio_input@@@__crt_strtox@@N@__crt_strtox@@YA?AW4SLD_STATUS@@QAU__crt_locale_pointers@@V?$input_adapter_character_source@V?$string_input_adapter@D@__crt_stdio_input@@@0@QAN@Z 0044cdff f i libucrt:input.obj
 0001:0004be7a       ??$parse_floating_point_from_source@V?$input_adapter_character_source@V?$string_input_adapter@D@__crt_stdio_input@@@__crt_strtox@@@__crt_strtox@@YA?AW4floating_point_parse_result@0@QAU__crt_locale_pointers@@AAV?$input_adapter_character_source@V?$string_input_adapter@D@__crt_stdio_input@@@0@AAUfloating_point_string@0@@Z 0044ce7a f i libucrt:input.obj
 0001:0004c2e1       ??$parse_floating_point_possible_infinity@DV?$input_adapter_character_source@V?$string_input_adapter@D@__crt_stdio_input@@@__crt_strtox@@_K@__crt_strtox@@YA?AW4floating_point_parse_result@0@AADAAV?$input_adapter_character_source@V?$string_input_adapter@D@__crt_stdio_input@@@0@_K@Z 0044d2e1 f i libucrt:input.obj
 0001:0004c3a2       ??$parse_floating_point_possible_nan@DV?$input_adapter_character_source@V?$string_input_adapter@D@__crt_stdio_input@@@__crt_strtox@@_K@__crt_strtox@@YA?AW4floating_point_parse_result@0@AADAAV?$input_adapter_character_source@V?$string_input_adapter@D@__crt_stdio_input@@@0@_K@Z 0044d3a2 f i libucrt:input.obj
 0001:0004c4b4       ??$parse_floating_point_possible_nan_is_ind@DV?$input_adapter_character_source@V?$string_input_adapter@D@__crt_stdio_input@@@__crt_strtox@@@__crt_strtox@@YA_NAADAAV?$input_adapter_character_source@V?$string_input_adapter@D@__crt_stdio_input@@@0@@Z 0044d4b4 f i libucrt:input.obj
 0001:0004c4ee       ??$parse_floating_point_possible_nan_is_snan@DV?$input_adapter_character_source@V?$string_input_adapter@D@__crt_stdio_input@@@__crt_strtox@@@__crt_strtox@@YA_NAADAAV?$input_adapter_character_source@V?$string_input_adapter@D@__crt_stdio_input@@@0@@Z 0044d4ee f i libucrt:input.obj
 0001:0004c528       ??$parse_floating_point_write_result@M@__crt_strtox@@YA?AW4SLD_STATUS@@W4floating_point_parse_result@0@ABUfloating_point_string@0@QAM@Z 0044d528 f i libucrt:input.obj
 0001:0004c638       ??$parse_floating_point_write_result@N@__crt_strtox@@YA?AW4SLD_STATUS@@W4floating_point_parse_result@0@ABUfloating_point_string@0@QAN@Z 0044d638 f i libucrt:input.obj
 0001:0004c73c       ??$parse_integer@_KV?$input_adapter_character_source@V?$string_input_adapter@D@__crt_stdio_input@@@__crt_strtox@@@__crt_strtox@@YA_KQAU__crt_locale_pointers@@V?$input_adapter_character_source@V?$string_input_adapter@D@__crt_stdio_input@@@0@H_N@Z 0044d73c f i libucrt:input.obj
 0001:0004c9ed       ??$process_floating_point_specifier_t@M@?$input_processor@DV?$string_input_adapter@D@__crt_stdio_input@@@__crt_stdio_input@@AAE_NXZ 0044d9ed f i libucrt:input.obj
 0001:0004ca55       ??$process_floating_point_specifier_t@N@?$input_processor@DV?$string_input_adapter@D@__crt_stdio_input@@@__crt_stdio_input@@AAE_NXZ 0044da55 f i libucrt:input.obj
 0001:0004cabd       ??$process_string_specifier_tchar@D@?$input_processor@DV?$string_input_adapter@D@__crt_stdio_input@@@__crt_stdio_input@@AAE_NW4conversion_mode@1@D@Z 0044dabd f i libucrt:input.obj
 0001:0004cc1f       ??$process_string_specifier_tchar@_W@?$input_processor@DV?$string_input_adapter@D@__crt_stdio_input@@@__crt_stdio_input@@AAE_NW4conversion_mode@1@_W@Z 0044dc1f f i libucrt:input.obj
 0001:0004cd8b       ??$skip_whitespace@Vstring_input_adapter@__crt_stdio_input@@D@__crt_stdio_input@@YAHAAV?$string_input_adapter@D@0@QAU__crt_locale_pointers@@@Z 0044dd8b f i libucrt:input.obj
 0001:0004cdba       ??$write_floating_point@M@?$input_processor@DV?$string_input_adapter@D@__crt_stdio_input@@@__crt_stdio_input@@AAE_NABM@Z 0044ddba f i libucrt:input.obj
 0001:0004cdf1       ??$write_floating_point@N@?$input_processor@DV?$string_input_adapter@D@__crt_stdio_input@@@__crt_stdio_input@@AAE_NABN@Z 0044ddf1 f i libucrt:input.obj
 0001:0004ce2e       ??0?$format_string_parser@D@__crt_stdio_input@@QAE@_KQBE@Z 0044de2e f i libucrt:input.obj
 0001:0004ce78       ??0?$input_adapter_character_source@V?$string_input_adapter@D@__crt_stdio_input@@@__crt_strtox@@QAE@QAV?$string_input_adapter@D@__crt_stdio_input@@_KQA_N@Z 0044de78 f i libucrt:input.obj
 0001:0004cea9       ??0?$input_processor@DV?$string_input_adapter@D@__crt_stdio_input@@@__crt_stdio_input@@QAE@ABV?$string_input_adapter@D@1@_KQBDQAU__crt_locale_pointers@@QAD@Z 0044dea9 f i libucrt:input.obj
 0001:0004cf1b       ?advance@?$format_string_parser@D@__crt_stdio_input@@QAE_NXZ 0044df1b f i libucrt:input.obj
 0001:0004d03b       ?as_double@floating_point_value@__crt_strtox@@QBEAANXZ 0044e03b f i libucrt:input.obj
 0001:0004d060       ?as_float@floating_point_value@__crt_strtox@@QBEAAMXZ 0044e060 f i libucrt:input.obj
 0001:0004d085       ?assemble_floating_point_infinity@__crt_strtox@@YAX_NABVfloating_point_value@1@@Z 0044e085 f i libucrt:input.obj
 0001:0004d0bf       ?assemble_floating_point_value@__crt_strtox@@YA?AW4SLD_STATUS@@_KH_N1ABVfloating_point_value@1@@Z 0044e0bf f i libucrt:input.obj
 0001:0004d40b       ?assemble_floating_point_value_from_big_integer@__crt_strtox@@YA?AW4SLD_STATUS@@ABUbig_integer@1@I_N1ABVfloating_point_value@1@@Z 0044e40b f i libucrt:input.obj
 0001:0004d599       ?assemble_floating_point_zero@__crt_strtox@@YAX_NABVfloating_point_value@1@@Z 0044e599 f i libucrt:input.obj
 0001:0004d5cd       ?convert_decimal_string_to_floating_type_common@__crt_strtox@@YA?AW4SLD_STATUS@@ABUfloating_point_string@1@ABVfloating_point_value@1@@Z 0044e5cd f i libucrt:input.obj
 0001:0004f390       ?convert_hexadecimal_string_to_floating_type_common@__crt_strtox@@YA?AW4SLD_STATUS@@ABUfloating_point_string@1@ABVfloating_point_value@1@@Z 00450390 f i libucrt:input.obj
 0001:0004f43c       ?denormal_mantissa_mask@floating_point_value@__crt_strtox@@QBE_KXZ 0045043c f i libucrt:input.obj
 0001:0004f460       ?divide@__crt_strtox@@YA_KAAUbig_integer@1@ABU21@@Z 00450460 f i libucrt:input.obj
 0001:0004f90e       ?get@?$input_adapter_character_source@V?$string_input_adapter@D@__crt_stdio_input@@@__crt_strtox@@QAEDXZ 0045090e f i libucrt:input.obj
 0001:0004f948       ?get@?$string_input_adapter@D@__crt_stdio_input@@QAEHXZ 00450948 f i libucrt:input.obj
 0001:0004f95e       ?invert@?$scanset_buffer@E@__crt_stdio_input@@QAEXXZ 0045095e f i libucrt:input.obj
 0001:0004f97c       ?is_character_allowed_in_string@?$input_processor@DV?$string_input_adapter@D@__crt_stdio_input@@@__crt_stdio_input@@ABE_NW4conversion_mode@2@H@Z 0045097c f i libucrt:input.obj
 0001:0004f9c2       ?length@?$format_string_parser@D@__crt_stdio_input@@QBEIXZ 004509c2 f i libucrt:input.obj
 0001:0004fa03       ?normal_mantissa_mask@floating_point_value@__crt_strtox@@QBE_KXZ 00450a03 f i libucrt:input.obj
 0001:0004fa1a       ?process@?$input_processor@DV?$string_input_adapter@D@__crt_stdio_input@@@__crt_stdio_input@@QAEHXZ 00450a1a f i libucrt:input.obj
 0001:0004fa9f       ?process_character_count_specifier@?$input_processor@DV?$string_input_adapter@D@__crt_stdio_input@@@__crt_stdio_input@@AAE_NXZ 00450a9f f i libucrt:input.obj
 0001:0004fab9       ?process_conversion_specifier@?$input_processor@DV?$string_input_adapter@D@__crt_stdio_input@@@__crt_stdio_input@@AAE_NXZ 00450ab9 f i libucrt:input.obj
 0001:0004fb2d       ?process_floating_point_specifier@?$input_processor@DV?$string_input_adapter@D@__crt_stdio_input@@@__crt_stdio_input@@AAE_NXZ 00450b2d f i libucrt:input.obj
 0001:0004fb5d       ?process_integer_specifier@?$input_processor@DV?$string_input_adapter@D@__crt_stdio_input@@@__crt_stdio_input@@AAE_NI_N@Z 00450b5d f i libucrt:input.obj
 0001:0004fbc3       ?process_literal_character@?$input_processor@DV?$string_input_adapter@D@__crt_stdio_input@@@__crt_stdio_input@@AAE_NXZ 00450bc3 f i libucrt:input.obj
 0001:0004fbf9       ?process_literal_character_tchar@?$input_processor@DV?$string_input_adapter@D@__crt_stdio_input@@@__crt_stdio_input@@AAE_ND@Z 00450bf9 f i libucrt:input.obj
 0001:0004fc4f       ?process_state@?$input_processor@DV?$string_input_adapter@D@__crt_stdio_input@@@__crt_stdio_input@@AAE_NXZ 00450c4f f i libucrt:input.obj
 0001:0004fc85       ?process_string_specifier@?$input_processor@DV?$string_input_adapter@D@__crt_stdio_input@@@__crt_stdio_input@@AAE_NW4conversion_mode@2@@Z 00450c85 f i libucrt:input.obj
 0001:0004fccd       ?process_whitespace@?$input_processor@DV?$string_input_adapter@D@__crt_stdio_input@@@__crt_stdio_input@@AAE_NXZ 00450ccd f i libucrt:input.obj
 0001:0004fcea       ?restore_state@?$input_adapter_character_source@V?$string_input_adapter@D@__crt_stdio_input@@@__crt_strtox@@QAE_N_K@Z 00450cea f i libucrt:input.obj
 0001:0004fd0f       ?scan_conversion_specifier@?$format_string_parser@D@__crt_stdio_input@@AAE_NXZ 00450d0f f i libucrt:input.obj
 0001:0004fe7a       ?scan_optional_field_width@?$format_string_parser@D@__crt_stdio_input@@AAE_NXZ 00450e7a f i libucrt:input.obj
 0001:0004ff19       ?scan_optional_length_modifier@?$format_string_parser@D@__crt_stdio_input@@AAEXXZ 00450f19 f i libucrt:input.obj
 0001:00050039       ?scan_optional_literal_character_trail_bytes_tchar@?$format_string_parser@D@__crt_stdio_input@@AAE_ND@Z 00451039 f i libucrt:input.obj
 0001:0005008e       ?scan_optional_wide_modifier@?$format_string_parser@D@__crt_stdio_input@@AAEXXZ 0045108e f i libucrt:input.obj
 0001:000500ac       ?scan_scanset_range@?$format_string_parser@D@__crt_stdio_input@@AAE_NXZ 004510ac f i libucrt:input.obj
 0001:000501b3       ?set@?$scanset_buffer@E@__crt_stdio_input@@QAEXE@Z 004511b3 f i libucrt:input.obj
 0001:000501de       ?set_wide_for_c_s_or_scanset@?$format_string_parser@D@__crt_stdio_input@@AAEXXZ 004511de f i libucrt:input.obj
 0001:000501fe       ?test@?$scanset_buffer@E@__crt_stdio_input@@QBE_NE@Z 004511fe f i libucrt:input.obj
 0001:0005022f       ?to_floating_point_length@__crt_stdio_input@@YAIW4length_modifier@1@@Z 0045122f f i libucrt:input.obj
 0001:00050252       ?to_integer_length@__crt_stdio_input@@YAIW4length_modifier@1@@Z 00451252 f i libucrt:input.obj
 0001:000502aa       ?unget@?$input_adapter_character_source@V?$string_input_adapter@D@__crt_stdio_input@@@__crt_strtox@@QAEXD@Z 004512aa f i libucrt:input.obj
 0001:000502eb       ?unget@?$string_input_adapter@D@__crt_stdio_input@@QAEXH@Z 004512eb f i libucrt:input.obj
 0001:0005030a       ?validate@?$format_string_parser@D@__crt_stdio_input@@QBE_NXZ 0045130a f i libucrt:input.obj
 0001:00050326       ?validate@?$input_adapter_character_source@V?$string_input_adapter@D@__crt_stdio_input@@@__crt_strtox@@QBE_NXZ 00451326 f i libucrt:input.obj
 0001:00050347       ?validate@?$string_input_adapter@D@__crt_stdio_input@@QAE_NXZ 00451347 f i libucrt:input.obj
 0001:00050369       ?write_character@?$input_processor@DV?$string_input_adapter@D@__crt_stdio_input@@@__crt_stdio_input@@AAE_NQA_WIAAPA_WAAID@Z 00451369 f i libucrt:input.obj
 0001:000503da       ?write_integer@?$input_processor@DV?$string_input_adapter@D@__crt_stdio_input@@@__crt_stdio_input@@AAE_N_K_N@Z 004513da f i libucrt:input.obj
 0001:00050451       ___stdio_common_vsscanf    00451451 f   libucrt:input.obj
 0001:00050475       ___acrt_initialize_stdio   00451475 f   libucrt:_file.obj
 0001:0005053d       ___acrt_iob_func           0045153d f   libucrt:_file.obj
 0001:0005054d       ___acrt_uninitialize_stdio 0045154d f   libucrt:_file.obj
 0001:00050599       __lock_file                00451599 f   libucrt:_file.obj
 0001:000505ad       __unlock_file              004515ad f   libucrt:_file.obj
 0001:000506b0       _qsort                     004516b0 f   libucrt:qsort.obj
 0001:00050a4a       ??$__crt_fast_encode_pointer@P6GXPAXK0@Z@@YAP6GXPAXK0@ZQ6GX0K0@Z@Z 00451a4a f i libucrt:exit.obj
 0001:00050a4a       ??$__crt_fast_encode_pointer@P6AHXZ@@YAP6AHXZQ6AHXZ@Z 00451a4a f i libucrt:onexit.obj
 0001:00050a4a       ??$__crt_fast_encode_pointer@P6AHPAU_exception@@@Z@@YAP6AHPAU_exception@@@ZQ6AH0@Z@Z 00451a4a f i libucrt:matherr.obj
 0001:00050a4a       ??$__crt_fast_encode_pointer@P6GHPA_WKJ@Z@@YAP6GHPA_WKJ@ZQ6GH0KJ@Z@Z 00451a4a f i libucrt:winapi_thunks.obj
 0001:00050c40       ___acrt_initialize_thread_local_exit_callback 00451c40 f   libucrt:exit.obj
 0001:00050c4f       __c_exit                   00451c4f f   libucrt:exit.obj
 0001:00050c5e       __cexit                    00451c5e f   libucrt:exit.obj
 0001:00050c6d       __exit                     00451c6d f   libucrt:exit.obj
 0001:00050c83       __register_thread_local_exe_atexit_callback 00451c83 f   libucrt:exit.obj
 0001:00050cbb       _exit                      00451cbb f   libucrt:exit.obj
 0001:00050dd1       _system                    00451dd1 f   libucrt:system.obj
 0001:00050ddc       __difftime64               00451ddc f   libucrt:difftime.obj
 0001:00050e23       ___ascii_stricmp           00451e23 f   libucrt:stricmp.obj
 0001:00050e5e       __stricmp                  00451e5e f   libucrt:stricmp.obj
 0001:00050ea6       __stricmp_l                00451ea6 f   libucrt:stricmp.obj
 0001:00050fbf       __time64                   00451fbf f   libucrt:time.obj
 0001:00051001       __fgetc_nolock             00452001 f   libucrt:fgetc.obj
 0001:0005103d       __getc_nolock              0045203d f   libucrt:fgetc.obj
 0001:00051048       _fgetc                     00452048 f   libucrt:fgetc.obj
 0001:0005120f       _fgets                     0045220f f   libucrt:fgets.obj
 0001:0005121a       __fputc_nolock             0045221a f   libucrt:fputc.obj
 0001:00051243       _fputc                     00452243 f   libucrt:fputc.obj
 0001:00051347       _rewind                    00452347 f   libucrt:rewind.obj
 0001:00051415       __ungetc_nolock            00452415 f   libucrt:ungetc.obj
 0001:00051504       _ungetc                    00452504 f   libucrt:ungetc.obj
 0001:00051574       _strtol                    00452574 f   libucrt:strtox.obj
 0001:000515a0       _strtoul                   004525a0 f   libucrt:strtox.obj
 0001:000515cc       _strtoull                  004525cc f   libucrt:strtox.obj
 0001:000515f8       _wcstol                    004525f8 f   libucrt:strtox.obj
 0001:000516c1       _setlocale                 004526c1 f   libucrt:setlocale.obj
 0001:0005181e       _iswctype                  0045281e f   libucrt:iswctype.obj
 0001:00051a3b       _mbrtowc                   00452a3b f   libucrt:mbrtowc.obj
 0001:00051b36       _wcrtomb                   00452b36 f   libucrt:wcrtomb.obj
 0001:00051b67       _wcrtomb_s                 00452b67 f   libucrt:wcrtomb.obj
 0001:00051ecd       __dupenv_s                 00452ecd f   libucrt:getenv.obj
 0001:00051eeb       _getenv                    00452eeb f   libucrt:getenv.obj
 0001:00051ef6       _getenv_s                  00452ef6 f   libucrt:getenv.obj
 0001:00051f10       _strncpy                   00452f10 f   libucrt:strncpy.obj
 0001:00052034       __seh_filter_exe           00453034 f   libucrt:exception_filter.obj
 0001:000521a7       __query_app_type           004531a7 f   libucrt:report_runtime_error.obj
 0001:000521ad       __set_app_type             004531ad f   libucrt:report_runtime_error.obj
 0001:000521bc       ___acrt_has_user_matherr   004531bc f   libucrt:matherr.obj
 0001:000521d5       ___acrt_initialize_user_matherr 004531d5 f   libucrt:matherr.obj
 0001:000521e9       ___acrt_invoke_user_matherr 004531e9 f   libucrt:matherr.obj
 0001:00052232       ___setusermatherr          00453232 f   libucrt:matherr.obj
 0001:000524e0       ___acrt_allocate_buffer_for_argv 004534e0 f   libucrt:argv_parsing.obj
 0001:00052535       __configure_narrow_argv    00453535 f   libucrt:argv_parsing.obj
 0001:00052747       ??$uninitialize@A6AXAAPAPAD@Z@?$dual_state_global@PAPAD@__crt_state_management@@QAEXA6AXAAPAPAD@Z@Z 00453747 f i libucrt:environment_initialization.obj
 0001:00052747       ??$uninitialize@A6AXAAPAPA_W@Z@?$dual_state_global@PAPA_W@__crt_state_management@@QAEXA6AXAAPAPA_W@Z@Z 00453747 f i libucrt:environment_initialization.obj
 0001:000527bd       ___dcrt_get_or_create_narrow_environment_nolock 004537bd f   libucrt:environment_initialization.obj
 0001:000527c2       ___dcrt_uninitialize_environments_nolock 004537c2 f   libucrt:environment_initialization.obj
 0001:000527f9       __get_initial_narrow_environment 004537f9 f   libucrt:environment_initialization.obj
 0001:0005280d       __initialize_narrow_environment 0045380d f   libucrt:environment_initialization.obj
 0001:00052812       __initterm                 00453812 f   libucrt:initterm.obj
 0001:0005286e       __initterm_e               0045386e f   libucrt:initterm.obj
 0001:000528b3       __get_fmode                004538b3 f   libucrt:setmode.obj
 0001:000528df       __set_fmode                004538df f   libucrt:setmode.obj
 0001:0005291c       __setmode_nolock           0045391c f   libucrt:setmode.obj
 0001:000529ed       ___acrt_initialize_command_line 004539ed f   libucrt:argv_data.obj
 0001:00052a06       __should_initialize_environment 00453a06 f   LIBCMT:env_mode.obj
 0001:00052a06       ___acrt_uninitialize_command_line 00453a06 f   libucrt:argv_data.obj
 0001:00052a06       _nullseat_set_trust_status_vacuously 00453a06 f   misc.obj
 0001:00052a09       ___p___argc                00453a09 f   libucrt:argv_data.obj
 0001:00052a0f       ___p___argv                00453a0f f   libucrt:argv_data.obj
 0001:00052a15       ??$?RV<lambda_70818de7b02deff9841e8b0962a60ed9>@@AAV<lambda_2af78c5f5901b1372d98f9ab3177dfa6>@@AAV<lambda_f51fe5fd7c79a33db34fc9310f277369>@@@?$__crt_seh_guarded_call@X@@QAEX$$QAV<lambda_70818de7b02deff9841e8b0962a60ed9>@@AAV<lambda_2af78c5f5901b1372d98f9ab3177dfa6>@@AAV<lambda_f51fe5fd7c79a33db34fc9310f277369>@@@Z 00453a15 f i libucrt:wsetlocale.obj
 0001:00052a50       ??$?RV<lambda_c76fdea48760d5f9368b465f31df4405>@@AAV<lambda_e378711a6f6581bf7f0efd7cdf97f5d9>@@V<lambda_e927a58b2a85c081d733e8c6192ae2d2>@@@?$__crt_seh_guarded_call@X@@QAEX$$QAV<lambda_c76fdea48760d5f9368b465f31df4405>@@AAV<lambda_e378711a6f6581bf7f0efd7cdf97f5d9>@@$$QAV<lambda_e927a58b2a85c081d733e8c6192ae2d2>@@@Z 00453a50 f i libucrt:wsetlocale.obj
 0001:00052a93       ??$__acrt_lock_and_call@V<lambda_e378711a6f6581bf7f0efd7cdf97f5d9>@@@@YAXW4__acrt_lock_id@@$$QAV<lambda_e378711a6f6581bf7f0efd7cdf97f5d9>@@@Z 00453a93 f i libucrt:wsetlocale.obj
 0001:00052c15       ___acrt_copy_locale_name   00453c15 f   libucrt:wsetlocale.obj
 0001:00052c7b       ___acrt_set_locale_changed 00453c7b f   libucrt:wsetlocale.obj
 0001:00052c86       ___acrt_uninitialize_locale 00453c86 f   libucrt:wsetlocale.obj
 0001:00052cd8       ___lc_lctowcs              00453cd8 f   libucrt:wsetlocale.obj
 0001:00052d48       ___lc_wcstolc              00453d48 f   libucrt:wsetlocale.obj
 0001:00052e77       __configthreadlocale       00453e77 f   libucrt:wsetlocale.obj
 0001:00052f08       __expandlocale             00453f08 f   libucrt:wsetlocale.obj
 0001:0005327f       __wcscats                  0045427f f   libucrt:wsetlocale.obj
 0001:000532c0       __wsetlocale               004542c0 f   libucrt:wsetlocale.obj
 0001:00053b8a       __query_new_mode           00454b8a f   libucrt:new_mode.obj
 0001:00053b90       __set_new_mode             00454b90 f   libucrt:new_mode.obj
 0001:00053bbf       ___p__commode              00454bbf f   libucrt:ncommode.obj
 0001:00053bc5       ??$?RV<lambda_800076c951b434888f4765a74a194fcc>@@AAV<lambda_4e60a939b0d047cfe11ddc22648dfba9>@@V<lambda_6dbb1268764f43b569ce7b67e331d33a>@@@?$__crt_seh_guarded_call@H@@QAEH$$QAV<lambda_800076c951b434888f4765a74a194fcc>@@AAV<lambda_4e60a939b0d047cfe11ddc22648dfba9>@@$$QAV<lambda_6dbb1268764f43b569ce7b67e331d33a>@@@Z 00454bc5 f i libucrt:onexit.obj
 0001:00053c16       ??$?RV<lambda_995298e7d72eb4c2aab26c0585b3abe5>@@AAV<lambda_275893d493268fdec8709772e3fcec0e>@@V<lambda_293819299cbf9a7022e18b56a874bb5c>@@@?$__crt_seh_guarded_call@H@@QAEH$$QAV<lambda_995298e7d72eb4c2aab26c0585b3abe5>@@AAV<lambda_275893d493268fdec8709772e3fcec0e>@@$$QAV<lambda_293819299cbf9a7022e18b56a874bb5c>@@@Z 00454c16 f i libucrt:onexit.obj
 0001:00053c67       ??$__acrt_lock_and_call@V<lambda_275893d493268fdec8709772e3fcec0e>@@@@YAHW4__acrt_lock_id@@$$QAV<lambda_275893d493268fdec8709772e3fcec0e>@@@Z 00454c67 f i libucrt:onexit.obj
 0001:00053c8f       ??$__acrt_lock_and_call@V<lambda_4e60a939b0d047cfe11ddc22648dfba9>@@@@YAHW4__acrt_lock_id@@$$QAV<lambda_4e60a939b0d047cfe11ddc22648dfba9>@@@Z 00454c8f f i libucrt:onexit.obj
 0001:00053f18       __crt_atexit               00454f18 f   libucrt:onexit.obj
 0001:00053f2e       __execute_onexit_table     00454f2e f   libucrt:onexit.obj
 0001:00053f4b       __initialize_onexit_table  00454f4b f   libucrt:onexit.obj
 0001:00053f88       __register_onexit_function 00454f88 f   libucrt:onexit.obj
 0001:0005409d       ___acrt_initialize         0045509d f   libucrt:initialization.obj
 0001:000540af       ___acrt_uninitialize       004550af f   libucrt:initialization.obj
 0001:000540c1       __controlfp_s              004550c1 f   libucrt:contrlfp.obj
 0001:00054120       _terminate                 00455120 f   libucrt:terminate.obj
 0001:0005415c       __free_base                0045515c f   libucrt:free_base.obj
 0001:00054196       __malloc_base              00455196 f   libucrt:malloc_base.obj
 0001:000541e4       _strcpy_s                  004551e4 f   libucrt:strcpy_s.obj
 0001:0005423e       __calloc_base              0045523e f   libucrt:calloc_base.obj
 0001:0005429b       ___acrt_call_reportfault   0045529b f   libucrt:invalid_parameter.obj
 0001:000543d6       ___acrt_initialize_invalid_parameter_handler 004553d6 f   libucrt:invalid_parameter.obj
 0001:000543ea       __invalid_parameter        004553ea f   libucrt:invalid_parameter.obj
 0001:00054465       __invalid_parameter_noinfo 00455465 f   libucrt:invalid_parameter.obj
 0001:00054475       __invoke_watson            00455475 f   libucrt:invalid_parameter.obj
 0001:000544a8       ___acrt_errno_from_os_error 004554a8 f   libucrt:errno.obj
 0001:000544eb       ___acrt_errno_map_os_error 004554eb f   libucrt:errno.obj
 0001:0005450e       ___doserrno                0045550e f   libucrt:errno.obj
 0001:00054521       __errno                    00455521 f   libucrt:errno.obj
 0001:00054621       __itow_s                   00455621 f   libucrt:xtoa.obj
 0001:00054656       __set_error_mode           00455656 f   libucrt:set_error_mode.obj
 0001:00054695       _wcscat_s                  00455695 f   libucrt:wcscat_s.obj
 0001:0005470a       _wcscpy_s                  0045570a f   libucrt:wcscpy_s.obj
 0001:00054857       _wcsncat_s                 00455857 f   libucrt:wcsncat_s.obj
 0001:00054862       _strcat_s                  00455862 f   libucrt:strcat_s.obj
 0001:000549c6       ___acrt_show_wide_message_box 004559c6 f   libucrt:crtmbox.obj
 0001:000549d1       ??$?RV<lambda_d92cfe8357b99225085016881b624cb0>@@AAV<lambda_b721fa326cdb32351d23dfa67958c160>@@V<lambda_42d75b0848218ec137fa420c8ba9fdf9>@@@?$__crt_seh_guarded_call@H@@QAEH$$QAV<lambda_d92cfe8357b99225085016881b624cb0>@@AAV<lambda_b721fa326cdb32351d23dfa67958c160>@@$$QAV<lambda_42d75b0848218ec137fa420c8ba9fdf9>@@@Z 004559d1 f i libucrt:setvbuf.obj
 0001:00054a22       ??$__acrt_lock_stream_and_call@V<lambda_b721fa326cdb32351d23dfa67958c160>@@@@YAHQAU_iobuf@@$$QAV<lambda_b721fa326cdb32351d23dfa67958c160>@@@Z 00455a22 f i libucrt:setvbuf.obj
 0001:00054b17       _setvbuf                   00455b17 f   libucrt:setvbuf.obj
 0001:00054b8d       ??$?RV<lambda_a048d3beccc847880fc8490e18b82769>@@AAV<lambda_ec61778202f4f5fc7e7711acc23c3bca>@@V<lambda_f7496a158712204296dd6628a163878e>@@@?$__crt_seh_guarded_call@P6AXH@Z@@QAEP6AXH@Z$$QAV<lambda_a048d3beccc847880fc8490e18b82769>@@AAV<lambda_ec61778202f4f5fc7e7711acc23c3bca>@@$$QAV<lambda_f7496a158712204296dd6628a163878e>@@@Z 00455b8d f i libucrt:signal.obj
 0001:00054be7       ??$__acrt_lock_and_call@V<lambda_ec61778202f4f5fc7e7711acc23c3bca>@@@@YAP6AXH@ZW4__acrt_lock_id@@$$QAV<lambda_ec61778202f4f5fc7e7711acc23c3bca>@@@Z 00455be7 f i libucrt:signal.obj
 0001:00054c79       ___acrt_get_sigabrt_handler 00455c79 f   libucrt:signal.obj
 0001:00054c90       ___acrt_initialize_signal_handlers 00455c90 f   libucrt:signal.obj
 0001:00054ccb       ___fpecode                 00455ccb f   libucrt:signal.obj
 0001:00054cd4       _raise                     00455cd4 f   libucrt:signal.obj
 0001:00054edc       ??$?RV<lambda_123407a5e2ac06da108355a851863b7a>@@AAV<lambda_2fe9b910cf3cbf4a0ab98a02ba45b3ec>@@V<lambda_ae55bdf541ad94d75914d381c370e64d>@@@?$__crt_seh_guarded_call@H@@QAEH$$QAV<lambda_123407a5e2ac06da108355a851863b7a>@@AAV<lambda_2fe9b910cf3cbf4a0ab98a02ba45b3ec>@@$$QAV<lambda_ae55bdf541ad94d75914d381c370e64d>@@@Z 00455edc f i libucrt:close.obj
 0001:00054f5e       ??$__acrt_lowio_lock_fh_and_call@V<lambda_2fe9b910cf3cbf4a0ab98a02ba45b3ec>@@@@YAHH$$QAV<lambda_2fe9b910cf3cbf4a0ab98a02ba45b3ec>@@@Z 00455f5e f i libucrt:close.obj
 0001:00054f86       __close                    00455f86 f   libucrt:close.obj
 0001:00055005       __close_nolock             00456005 f   libucrt:close.obj
 0001:000550a1       __fileno                   004560a1 f   libucrt:fileno.obj
 0001:000550c7       ?__acrt_stdio_allocate_stream@@YA?AV__crt_stdio_stream@@XZ 004560c7 f   libucrt:stream.obj
 0001:00055126       ?__acrt_stdio_free_stream@@YAXV__crt_stdio_stream@@@Z 00456126 f   libucrt:stream.obj
 0001:00055224       ___acrt_stdio_free_buffer_nolock 00456224 f   libucrt:_freebuf.obj
 0001:00055262       ??$__acrt_stdio_parse_mode@D@@YA?AU__acrt_stdio_stream_mode@@QBD@Z 00456262 f i libucrt:openfile.obj
 0001:00055519       ?__acrt_stdio_parse_mode_D@@YA_NAAU__acrt_stdio_stream_mode@@@Z 00456519 f i libucrt:openfile.obj
 0001:00055534       ?__acrt_stdio_parse_mode_T@@YA_NAAU__acrt_stdio_stream_mode@@@Z 00456534 f i libucrt:openfile.obj
 0001:00055553       ?__acrt_stdio_parse_mode_b@@YA_NAAU__acrt_stdio_stream_mode@@@Z 00456553 f i libucrt:openfile.obj
 0001:00055573       ?__acrt_stdio_parse_mode_c@@YA_NAAU__acrt_stdio_stream_mode@@AA_N@Z 00456573 f i libucrt:openfile.obj
 0001:00055595       ?__acrt_stdio_parse_mode_n@@YA_NAAU__acrt_stdio_stream_mode@@AA_N@Z 00456595 f i libucrt:openfile.obj
 0001:000555b7       ?__acrt_stdio_parse_mode_plus@@YA_NAAU__acrt_stdio_stream_mode@@AA_N@Z 004565b7 f i libucrt:openfile.obj
 0001:000555ec       ?__acrt_stdio_parse_mode_t@@YA_NAAU__acrt_stdio_stream_mode@@@Z 004565ec f i libucrt:openfile.obj
 0001:0005560c       __openfile                 0045660c f   libucrt:openfile.obj
 0001:00055aff       __read                     00456aff f   libucrt:read.obj
 0001:00055c12       __read_nolock              00456c12 f   libucrt:read.obj
 0001:00056148       ___acrt_stdio_refill_and_read_narrow_nolock 00457148 f   libucrt:_filbuf.obj
 0001:00056153       ___pctype_func             00457153 f   libucrt:ctype.obj
 0001:00056179       __isctype_l                00457179 f   libucrt:isctype.obj
 0001:0005624b       ??$?RV<lambda_3518db117f0e7cdb002338c5d3c47b6c>@@AAV<lambda_b2ea41f6bbb362cd97d94c6828d90b61>@@V<lambda_abdedf541bb04549bc734292b4a045d4>@@@?$__crt_seh_guarded_call@X@@QAEX$$QAV<lambda_3518db117f0e7cdb002338c5d3c47b6c>@@AAV<lambda_b2ea41f6bbb362cd97d94c6828d90b61>@@$$QAV<lambda_abdedf541bb04549bc734292b4a045d4>@@@Z 0045724b f i libucrt:per_thread_data.obj
 0001:0005629b       ??$?RV<lambda_51b6e8b1eb166f2a3faf91f424b38130>@@AAV<lambda_6250bd4b2a391816dd638c3bf72b0bcb>@@V<lambda_0b5a4a3e68152e1d9b943535f5f47bed>@@@?$__crt_seh_guarded_call@X@@QAEX$$QAV<lambda_51b6e8b1eb166f2a3faf91f424b38130>@@AAV<lambda_6250bd4b2a391816dd638c3bf72b0bcb>@@$$QAV<lambda_0b5a4a3e68152e1d9b943535f5f47bed>@@@Z 0045729b f i libucrt:per_thread_data.obj
 0001:000562fc       ??$?RV<lambda_5b71d36f03204c0beab531769a5b5694>@@AAV<lambda_be2b3da3f62db62e9dad5dc70221a656>@@V<lambda_8f9ce462984622f9bf76b59e2aaaf805>@@@?$__crt_seh_guarded_call@X@@QAEX$$QAV<lambda_5b71d36f03204c0beab531769a5b5694>@@AAV<lambda_be2b3da3f62db62e9dad5dc70221a656>@@$$QAV<lambda_8f9ce462984622f9bf76b59e2aaaf805>@@@Z 004572fc f i libucrt:per_thread_data.obj
 0001:00056347       ??$?RV<lambda_9df27f884b057bc3edfc946cb5b7cf47>@@AAV<lambda_e69574bed617af4e071282c136b37893>@@V<lambda_cc0d902bcbbeb830f749456577db4721>@@@?$__crt_seh_guarded_call@X@@QAEX$$QAV<lambda_9df27f884b057bc3edfc946cb5b7cf47>@@AAV<lambda_e69574bed617af4e071282c136b37893>@@$$QAV<lambda_cc0d902bcbbeb830f749456577db4721>@@@Z 00457347 f i libucrt:per_thread_data.obj
 0001:0005638f       ??$__acrt_lock_and_call@V<lambda_6250bd4b2a391816dd638c3bf72b0bcb>@@@@YAXW4__acrt_lock_id@@$$QAV<lambda_6250bd4b2a391816dd638c3bf72b0bcb>@@@Z 0045738f f i libucrt:per_thread_data.obj
 0001:000563b7       ??$__acrt_lock_and_call@V<lambda_b2ea41f6bbb362cd97d94c6828d90b61>@@@@YAXW4__acrt_lock_id@@$$QAV<lambda_b2ea41f6bbb362cd97d94c6828d90b61>@@@Z 004573b7 f i libucrt:per_thread_data.obj
 0001:000563df       ??$__acrt_lock_and_call@V<lambda_be2b3da3f62db62e9dad5dc70221a656>@@@@YAXW4__acrt_lock_id@@$$QAV<lambda_be2b3da3f62db62e9dad5dc70221a656>@@@Z 004573df f i libucrt:per_thread_data.obj
 0001:00056407       ??$__acrt_lock_and_call@V<lambda_e69574bed617af4e071282c136b37893>@@@@YAXW4__acrt_lock_id@@$$QAV<lambda_e69574bed617af4e071282c136b37893>@@@Z 00457407 f i libucrt:per_thread_data.obj
 0001:000565bd       ___acrt_getptd             004575bd f   libucrt:per_thread_data.obj
 0001:00056641       ___acrt_getptd_noexit      00457641 f   libucrt:per_thread_data.obj
 0001:000566c6       ___acrt_initialize_ptd     004576c6 f   libucrt:per_thread_data.obj
 0001:000566f2       ___acrt_uninitialize_ptd   004576f2 f   libucrt:per_thread_data.obj
 0001:0005670c       ___acrt_update_locale_info 0045770c f   libucrt:locale_update.obj
 0001:00056739       ___acrt_update_multibyte_info 00457739 f   libucrt:locale_update.obj
 0001:00056766       ___acrt_initialize_locks   00457766 f   libucrt:locks.obj
 0001:000567a7       ___acrt_lock               004577a7 f   libucrt:locks.obj
 0001:000567be       ___acrt_uninitialize_locks 004577be f   libucrt:locks.obj
 0001:000567ef       ___acrt_unlock             004577ef f   libucrt:locks.obj
 0001:00056806       ??$?RV<lambda_61cee617f5178ae960314fd4d05640a0>@@AAV<lambda_6978c1fb23f02e42e1d9e99668cc68aa>@@V<lambda_9cd88cf8ad10232537feb2133f08c833>@@@?$__crt_seh_guarded_call@H@@QAEH$$QAV<lambda_61cee617f5178ae960314fd4d05640a0>@@AAV<lambda_6978c1fb23f02e42e1d9e99668cc68aa>@@$$QAV<lambda_9cd88cf8ad10232537feb2133f08c833>@@@Z 00457806 f i libucrt:commit.obj
 0001:0005689e       ??$__acrt_lowio_lock_fh_and_call@V<lambda_6978c1fb23f02e42e1d9e99668cc68aa>@@@@YAHH$$QAV<lambda_6978c1fb23f02e42e1d9e99668cc68aa>@@@Z 0045789e f i libucrt:commit.obj
 0001:000568c6       __commit                   004578c6 f   libucrt:commit.obj
 0001:00056ec5       __write                    00457ec5 f   libucrt:write.obj
 0001:00056fb0       __write_nolock             00457fb0 f   libucrt:write.obj
 0001:00057582       ___acrt_stdio_flush_and_write_narrow_nolock 00458582 f   libucrt:_flsbuf.obj
 0001:0005758d       ___acrt_stdio_flush_and_write_wide_nolock 0045858d f   libucrt:_flsbuf.obj
 0001:00057598       ___acrt_stdio_begin_temporary_buffering_nolock 00458598 f   libucrt:_sftbuf.obj
 0001:0005764d       ___acrt_stdio_end_temporary_buffering_nolock 0045864d f   libucrt:_sftbuf.obj
 0001:00057686       __mbtowc_l                 00458686 f   libucrt:mbtowc.obj
 0001:00057780       _mbtowc                    00458780 f   libucrt:mbtowc.obj
 0001:0005779a       __wctomb_s_l               0045879a f   libucrt:wctomb.obj
 0001:000578bb       _wctomb_s                  004588bb f   libucrt:wctomb.obj
 0001:000578d8       _strnlen                   004588d8 f   libucrt:strnlen.obj
 0001:000579ff       _wcsnlen                   004589ff f   libucrt:strnlen.obj
 0001:00057bb6       ?__acrt_fp_classify@@YA?AW4__acrt_fp_class@@ABN@Z 00458bb6 f i libucrt:cvt.obj
 0001:00057c22       ?__acrt_fp_is_negative@@YA_NABN@Z 00458c22 f i libucrt:cvt.obj
 0001:00058481       ___acrt_fp_format          00459481 f   libucrt:cvt.obj
 0001:000585fd       __fputwc_nolock            004595fd f   libucrt:fputwc.obj
 0001:00058723       __get_printf_count_output  00459723 f   libucrt:printf_count_output.obj
 0001:000588a4       ___acrt_initialize_lowio   004598a4 f   libucrt:ioinit.obj
 0001:000588fa       ___acrt_uninitialize_lowio 004598fa f   libucrt:ioinit.obj
 0001:00058926       __isleadbyte_l             00459926 f i libucrt:_wctype.obj
 0001:00058b7c       ___acrt_LCMapStringA       00459b7c f   libucrt:lcmapstringa.obj
 0001:00058bc7       __freea_crt                00459bc7 f i libucrt:lcmapstringa.obj
 0001:00058be7       ??$__crt_time_is_leap_year@H@@YA_NH@Z 00459be7 f i libucrt:wcsftime.obj
 0001:00059ddb       __Wcsftime_l               0045addb f   libucrt:wcsftime.obj
 0001:00059f5c       __realloc_base             0045af5c f   libucrt:realloc_base.obj
 0001:00059fd0       ___ascii_strnicmp          0045afd0 f   libucrt:_strnicm.obj
 0001:0005a031       _fegetround                0045b031 f   libucrt:fegetround.obj
 0001:0005a082       ??$?RV<lambda_9227be29367c048ad7fd93a717dcb1a1>@@AAV<lambda_a463b7b0560cfcaf9b17f27c6ef46564>@@V<lambda_ccea11b5727ccf69be64f5f5d9a08d9f>@@@?$__crt_seh_guarded_call@H@@QAEH$$QAV<lambda_9227be29367c048ad7fd93a717dcb1a1>@@AAV<lambda_a463b7b0560cfcaf9b17f27c6ef46564>@@$$QAV<lambda_ccea11b5727ccf69be64f5f5d9a08d9f>@@@Z 0045b082 f i libucrt:winapi_thunks.obj
 0001:0005a106       ??$__acrt_lock_and_call@V<lambda_a463b7b0560cfcaf9b17f27c6ef46564>@@@@YAHW4__acrt_lock_id@@$$QAV<lambda_a463b7b0560cfcaf9b17f27c6ef46564>@@@Z 0045b106 f i libucrt:winapi_thunks.obj
 0001:0005a293       ___acrt_AreFileApisANSI@0  0045b293 f   libucrt:winapi_thunks.obj
 0001:0005a2e1       ___acrt_CompareStringEx@36 0045b2e1 f   libucrt:winapi_thunks.obj
 0001:0005a355       ___acrt_EnumSystemLocalesEx@16 0045b355 f   libucrt:winapi_thunks.obj
 0001:0005a3c2       ___acrt_FlsAlloc@4         0045b3c2 f   libucrt:winapi_thunks.obj
 0001:0005a418       ___acrt_FlsFree@4          0045b418 f   libucrt:winapi_thunks.obj
 0001:0005a46e       ___acrt_FlsGetValue@4      0045b46e f   libucrt:winapi_thunks.obj
 0001:0005a4c4       ___acrt_FlsSetValue@8      0045b4c4 f   libucrt:winapi_thunks.obj
 0001:0005a51d       ___acrt_GetDateFormatEx@28 0045b51d f   libucrt:winapi_thunks.obj
 0001:0005a59f       ___acrt_GetLocaleInfoEx@16 0045b59f f   libucrt:winapi_thunks.obj
 0001:0005a609       ___acrt_GetSystemTimePreciseAsFileTime@4 0045b609 f   libucrt:winapi_thunks.obj
 0001:0005a65f       ___acrt_GetTimeFormatEx@24 0045b65f f   libucrt:winapi_thunks.obj
 0001:0005a6cf       ___acrt_GetUserDefaultLocaleName@8 0045b6cf f   libucrt:winapi_thunks.obj
 0001:0005a736       ___acrt_InitializeCriticalSectionEx@12 0045b736 f   libucrt:winapi_thunks.obj
 0001:0005a798       ___acrt_IsValidLocaleName@4 0045b798 f   libucrt:winapi_thunks.obj
 0001:0005a7fb       ___acrt_LCIDToLocaleName@16 0045b7fb f   libucrt:winapi_thunks.obj
 0001:0005a865       ___acrt_LCMapStringEx@36   0045b865 f   libucrt:winapi_thunks.obj
 0001:0005a8ed       ___acrt_LocaleNameToLCID@8 0045b8ed f   libucrt:winapi_thunks.obj
 0001:0005a949       ___acrt_MessageBoxW@16     0045b949 f   libucrt:winapi_thunks.obj
 0001:0005a992       ___acrt_can_show_message_box 0045b992 f   libucrt:winapi_thunks.obj
 0001:0005a9ab       ___acrt_can_use_vista_locale_apis 0045b9ab f   libucrt:winapi_thunks.obj
 0001:0005a9b7       ___acrt_get_parent_window  0045b9b7 f   libucrt:winapi_thunks.obj
 0001:0005aa36       ___acrt_initialize_winapi_thunks 0045ba36 f   libucrt:winapi_thunks.obj
 0001:0005aa5c       ___acrt_is_interactive     0045ba5c f   libucrt:winapi_thunks.obj
 0001:0005ab02       ___acrt_is_packaged_app    0045bb02 f   libucrt:winapi_thunks.obj
 0001:0005ab89       ___acrt_uninitialize_winapi_thunks 0045bb89 f   libucrt:winapi_thunks.obj
 0001:0005abbf       __fcloseall                0045bbbf f   libucrt:closeall.obj
 0001:0005ac5f       ??$?RV<lambda_eee62cb4a147bfbb98180ad682ce6e17>@@AAV<lambda_5056f36f92c185fae794536d1ce2027b>@@V<lambda_57c77e0e75d6a1e6f8ecaa6bd26c2518>@@@?$__crt_seh_guarded_call@_N@@QAE_N$$QAV<lambda_eee62cb4a147bfbb98180ad682ce6e17>@@AAV<lambda_5056f36f92c185fae794536d1ce2027b>@@$$QAV<lambda_57c77e0e75d6a1e6f8ecaa6bd26c2518>@@@Z 0045bc5f f i libucrt:spawnv.obj
 0001:0005acb0       ??$__acrt_lock_and_call@V<lambda_5056f36f92c185fae794536d1ce2027b>@@@@YA_NW4__acrt_lock_id@@$$QAV<lambda_5056f36f92c185fae794536d1ce2027b>@@@Z 0045bcb0 f i libucrt:spawnv.obj
 0001:0005b259       __spawnve                  0045c259 f   libucrt:spawnv.obj
 0001:0005b503       __spawnvpe                 0045c503 f   libucrt:spawnvp.obj
 0001:0005b50e       __waccess_s                0045c50e f   libucrt:waccess.obj
 0001:0005b5ce       __access_s                 0045c5ce f   libucrt:access.obj
 0001:0005b96c       __lseek                    0045c96c f   libucrt:lseek.obj
 0001:0005b977       __lseeki64                 0045c977 f   libucrt:lseek.obj
 0001:0005b992       __lseeki64_nolock          0045c992 f   libucrt:lseek.obj
 0001:0005b9ad       ___acrt_stdio_allocate_buffer_nolock 0045c9ad f   libucrt:_getbuf.obj
 0001:0005bb83       __mbstowcs_s_l             0045cb83 f   libucrt:mbstowcs.obj
 0001:0005bc66       _mbstowcs_s                0045cc66 f   libucrt:mbstowcs.obj
 0001:0005bf07       __wcstombs_s_l             0045cf07 f   libucrt:wcstombs.obj
 0001:0005bfd4       _calloc                    0045cfd4 f   libucrt:calloc.obj
 0001:0005bfdf       __strnicoll                0045cfdf f   libucrt:strnicol.obj
 0001:0005c008       __strnicoll_l              0045d008 f   libucrt:strnicol.obj
 0001:0005c19f       _wcsncpy_s                 0045d19f f   libucrt:wcsncpy_s.obj
 0001:0005c56c       ??1?$argument_list@D@?A0xb0e4b824@@QAE@XZ 0045d56c f i libucrt:argv_wildcards.obj
 0001:0005c591       ?append@?$argument_list@D@?A0xb0e4b824@@QAEHQAD@Z 0045d591 f i libucrt:argv_wildcards.obj
 0001:0005c5c6       ?expand_if_necessary@?$argument_list@D@?A0xb0e4b824@@AAEHXZ 0045d5c6 f i libucrt:argv_wildcards.obj
 0001:0005c64d       ___acrt_expand_narrow_argv_wildcards 0045d64d f   libucrt:argv_wildcards.obj
 0001:0005c658       ??$?RV<lambda_978dc153c237d78434369da87b74ff60>@@AAV<lambda_ad1ced32f4ac17aa236e5ef05d6b3b7c>@@V<lambda_4a8533e2866a575feecb8298ce776b0d>@@@?$__crt_seh_guarded_call@X@@QAEX$$QAV<lambda_978dc153c237d78434369da87b74ff60>@@AAV<lambda_ad1ced32f4ac17aa236e5ef05d6b3b7c>@@$$QAV<lambda_4a8533e2866a575feecb8298ce776b0d>@@@Z 0045d658 f i libucrt:mbctype.obj
 0001:0005c69b       ??$__acrt_lock_and_call@V<lambda_ad1ced32f4ac17aa236e5ef05d6b3b7c>@@@@YAXW4__acrt_lock_id@@$$QAV<lambda_ad1ced32f4ac17aa236e5ef05d6b3b7c>@@@Z 0045d69b f i libucrt:mbctype.obj
 0001:0005cb32       ___acrt_initialize_multibyte 0045db32 f   libucrt:mbctype.obj
 0001:0005cb50       ___acrt_update_thread_multibyte_data 0045db50 f   libucrt:mbctype.obj
 0001:0005cbf2       __setmbcp_nolock           0045dbf2 f   libucrt:mbctype.obj
 0001:0005cebd       __ismbblead                0045debd f   libucrt:ismbbyte.obj
 0001:0005cf0c       ___dcrt_get_narrow_environment_from_os 0045df0c f   libucrt:get_environment_from_os.obj
 0001:0005d2cf       ___dcrt_set_variable_in_narrow_environment_nolock 0045e2cf f   libucrt:setenv.obj
 0001:0005d2da       ___acrt_lowio_create_handle_array 0045e2da f   libucrt:osfinfo.obj
 0001:0005d354       ___acrt_lowio_destroy_handle_array 0045e354 f   libucrt:osfinfo.obj
 0001:0005d389       ___acrt_lowio_ensure_fh_exists 0045e389 f   libucrt:osfinfo.obj
 0001:0005d421       ___acrt_lowio_lock_fh      0045e421 f   libucrt:osfinfo.obj
 0001:0005d444       ___acrt_lowio_set_os_handle 0045e444 f   libucrt:osfinfo.obj
 0001:0005d4d8       ___acrt_lowio_unlock_fh    0045e4d8 f   libucrt:osfinfo.obj
 0001:0005d4fb       __alloc_osfhnd             0045e4fb f   libucrt:osfinfo.obj
 0001:0005d60d       __free_osfhnd              0045e60d f   libucrt:osfinfo.obj
 0001:0005d69e       __get_osfhandle            0045e69e f   libucrt:osfinfo.obj
 0001:0005d708       ____lc_codepage_func       0045e708 f   libucrt:initctype.obj
 0001:0005d72f       ___acrt_locale_initialize_ctype 0045e72f f   libucrt:initctype.obj
 0001:0005dacd       ___acrt_locale_free_monetary 0045eacd f   libucrt:initmon.obj
 0001:0005dbcb       ___acrt_locale_initialize_monetary 0045ebcb f   libucrt:initmon.obj
 0001:0005df87       ___acrt_locale_free_numeric 0045ef87 f   libucrt:initnum.obj
 0001:0005dff0       ___acrt_locale_initialize_numeric 0045eff0 f   libucrt:initnum.obj
 0001:0005e4c5       ___acrt_locale_free_time   0045f4c5 f   libucrt:inittime.obj
 0001:0005e5a9       ___acrt_locale_initialize_time 0045f5a9 f   libucrt:inittime.obj
 0001:0005e628       _wcscspn                   0045f628 f   libucrt:wcscspn.obj
 0001:0005e678       _wcsncmp                   0045f678 f   libucrt:wcsncmp.obj
 0001:0005e6b2       _wcspbrk                   0045f6b2 f   libucrt:wcspbrk.obj
 0001:0005e6f7       ___acrt_GetStringTypeA     0045f6f7 f   libucrt:getstringtypea.obj
 0001:0005e814       ___acrt_add_locale_ref     0045f814 f   libucrt:locale_refcounting.obj
 0001:0005e891       ___acrt_free_locale        0045f891 f   libucrt:locale_refcounting.obj
 0001:0005e9db       ___acrt_locale_add_lc_time_reference 0045f9db f   libucrt:locale_refcounting.obj
 0001:0005ea04       ___acrt_locale_free_lc_time_if_unreferenced 0045fa04 f   libucrt:locale_refcounting.obj
 0001:0005ea34       ___acrt_locale_release_lc_time_reference 0045fa34 f   libucrt:locale_refcounting.obj
 0001:0005ea5d       ___acrt_release_locale_ref 0045fa5d f   libucrt:locale_refcounting.obj
 0001:0005eade       ___acrt_update_thread_locale_data 0045fade f   libucrt:locale_refcounting.obj
 0001:0005eb55       __updatetlocinfoEx_nolock  0045fb55 f   libucrt:locale_refcounting.obj
 0001:0005f2a3       ___acrt_get_qualified_locale 004602a3 f   libucrt:get_qualified_locale.obj
 0001:0005fbdb       ___acrt_get_qualified_locale_downlevel 00460bdb f   libucrt:getqloc_downlevel.obj
 0001:0005fde2       __recalloc                 00460de2 f   libucrt:recalloc.obj
 0001:0005fded       __recalloc_base            00460ded f   libucrt:recalloc.obj
 0001:0005fe5a       ___acrt_initialize_heap    00460e5a f   libucrt:heap_handle.obj
 0001:0005fe6b       ___acrt_uninitialize_heap  00460e6b f   libucrt:heap_handle.obj
 0001:0005fe75       ___acrt_execute_initializers 00460e75 f   libucrt:shared_initialization.obj
 0001:0005fef8       ___acrt_execute_uninitializers 00460ef8 f   libucrt:shared_initialization.obj
 0001:0005ff45       ___acrt_initialize_new_handler 00460f45 f   libucrt:new_handler.obj
 0001:0005ff59       __callnewh                 00460f59 f   libucrt:new_handler.obj
 0001:0005ff9d       __query_new_handler        00460f9d f   libucrt:new_handler.obj
 0001:0006009a       __clearfp                  0046109a f   libucrt:ieee87.obj
 0001:00060178       __control87                00461178 f   libucrt:ieee87.obj
 0001:00060513       __wcsnicmp                 00461513 f   libucrt:wcsnicmp.obj
 0001:000605cb       __wcsnicmp_l               004615cb f   libucrt:wcsnicmp.obj
 0001:00060ca6       __sopen_nolock             00461ca6 f   libucrt:open.obj
 0001:00060cf7       __sopen_s                  00461cf7 f   libucrt:open.obj
 0001:00060d17       __wsopen_nolock            00461d17 f   libucrt:open.obj
 0001:00061040       __isatty                   00462040 f   libucrt:isatty.obj
 0001:00061096       __putwch_nolock            00462096 f   libucrt:putwch.obj
 0001:000610db       ___acrt_fp_strflt_to_string 004620db f   libucrt:_fptostr.obj
 0001:00061197       ??0scoped_fp_state_reset@?A0x48fbfdd4@@QAE@XZ 00462197 f i libucrt:cfout.obj
 0001:000611c1       ___acrt_fltout             004621c1 f   libucrt:cfout.obj
 0001:0006255d       ___strncnt                 0046355d f   libucrt:strncnt.obj
 0001:00062579       __wcsicmp                  00463579 f   libucrt:wcsicmp.obj
 0001:0006260e       __wcsicmp_l                0046360e f   libucrt:wcsicmp.obj
 0001:000626ee       ?initialize@?$dual_state_global@P6AXH@Z@__crt_state_management@@QAEXQ6AXH@Z@Z 004636ee f i libucrt:signal.obj
 0001:000626ee       ?initialize@?$dual_state_global@P6AXPB_W00II@Z@__crt_state_management@@QAEXQ6AXPB_W00II@Z@Z 004636ee f i libucrt:invalid_parameter.obj
 0001:000626ee       ?initialize@?$dual_state_global@P6AHI@Z@__crt_state_management@@QAEXQ6AHI@Z@Z 004636ee f i libucrt:new_handler.obj
 0001:000626ee       ?initialize@?$dual_state_global@J@__crt_state_management@@QAEXJ@Z 004636ee f i libucrt:timeset.obj
 0001:000626ee       ?initialize@?$dual_state_global@H@__crt_state_management@@QAEXH@Z 004636ee f i libucrt:timeset.obj
 0001:000626ee       ?initialize@?$dual_state_global@P6AHPAU_exception@@@Z@__crt_state_management@@QAEXQ6AHPAU_exception@@@Z@Z 004636ee f i libucrt:matherr.obj
 0001:000626ee       ?initialize@?$dual_state_global@PAPAD@__crt_state_management@@QAEXQAPAD@Z 004636ee f i libucrt:environment_initialization.obj
 0001:000626ee       ?initialize@?$dual_state_global@PAU__crt_locale_data@@@__crt_state_management@@QAEXQAU__crt_locale_data@@@Z 004636ee f i libucrt:initialization.obj
 0001:0006271f       ___acrt_initialize_timeset 0046371f f   libucrt:timeset.obj
 0001:00062756       ___daylight                00463756 f   libucrt:timeset.obj
 0001:0006275c       ___dstbias                 0046375c f   libucrt:timeset.obj
 0001:00062762       ___timezone                00463762 f   libucrt:timeset.obj
 0001:00062768       ___tzname                  00463768 f   libucrt:timeset.obj
 0001:0006276e       __get_daylight             0046376e f   libucrt:timeset.obj
 0001:0006279a       __get_dstbias              0046379a f   libucrt:timeset.obj
 0001:000627c6       __get_timezone             004637c6 f   libucrt:timeset.obj
 0001:00062c02       ___tzset                   00463c02 f   libucrt:tzset.obj
 0001:00062ef6       __getfpcontrolword         00463ef6 f   libucrt:_fenvutils.obj
 0001:00062f39       __getfpstatusword          00463f39 f   libucrt:_fenvutils.obj
 0001:00062fe1       __setfpcontrolword         00463fe1 f   libucrt:_fenvutils.obj
 0001:00063061       __setfpstatusword          00464061 f   libucrt:_fenvutils.obj
 0001:0006319d       ___acrt_DownlevelLCIDToLocaleName 0046419d f   libucrt:lcidtoname_downlevel.obj
 0001:00063247       ___acrt_DownlevelLocaleNameToLCID 00464247 f   libucrt:lcidtoname_downlevel.obj
 0001:000635ec       ___acrt_pack_narrow_command_line_and_environment 004645ec f   libucrt:cenvarg.obj
 0001:0006370e       ___acrt_getpath            0046470e f   libucrt:getpath.obj
 0001:00063719       ___acrt_copy_path_to_wide_string 00464719 f   libucrt:string_utilities.obj
 0001:00063a88       ___acrt_CompareStringA     00464a88 f   libucrt:comparestringa.obj
 0001:00063b81       _strncpy_s                 00464b81 f   libucrt:strncpy_s.obj
 0001:00063b90       _strpbrk                   00464b90 f   libucrt:strpbrk.obj
 0001:00063bd0       __mbsdec                   00464bd0 f   libucrt:mbsdec.obj
 0001:00063be7       __mbsdec_l                 00464be7 f   libucrt:mbsdec.obj
 0001:00063d7e       ___acrt_GetLocaleInfoA     00464d7e f   libucrt:getlocaleinfoa.obj
 0001:00063f30       __msize                    00464f30 f   libucrt:msize.obj
 0001:00063f63       ___set_fpsr_sse2           00464f63 f   libucrt:fpctrl.obj
 0001:00063fd9       __clrfp                    00464fd9 f   libucrt:fpctrl.obj
 0001:00063fec       __ctrlfp                   00464fec f   libucrt:fpctrl.obj
 0001:00064018       __set_statfp               00465018 f   libucrt:fpctrl.obj
 0001:00064073       __statfp                   00465073 f   libucrt:fpctrl.obj
 0001:00064085       __towlower_l               00465085 f   libucrt:towlower.obj
 0001:0006414e       __chsize_nolock            0046514e f   libucrt:chsize.obj
 0001:000642df       ___dcrt_lowio_initialize_console_output 004652df f   libucrt:initcon.obj
 0001:000642fe       ___dcrt_terminate_console_output 004652fe f   libucrt:initcon.obj
 0001:00064315       _fegetenv                  00465315 f   libucrt:fegetenv.obj
 0001:00064332       _fesetenv                  00465332 f   libucrt:fesetenv.obj
 0001:0006437b       _feholdexcept              0046537b f   libucrt:feholdexcept.obj
 0001:000643d0       _log10                     004653d0 f   libucrt:log10.obj
 0001:00064410       __CIlog10                  00465410 f   libucrt:log10.obj
 0001:0006444b       __CIlog10_default          0046544b f   libucrt:log10.obj
 0001:0006445f       __log10_default            0046545f     libucrt:log10.obj
 0001:00064520       _ceil                      00465520 f   libucrt:ceil_pentium4.obj
 0001:00064560       __ceil_pentium4            00465560 f   libucrt:ceil_pentium4.obj
 0001:0006463d       ___acrt_LCMapStringW       0046563d f   libucrt:lcmapstringw.obj
 0001:0006467b       ___acrt_initialize_sse2    0046567b f   libucrt:mathfcns.obj
 0001:00064690       __CIlog10_pentium4         00465690 f   libucrt:log10_pentium4.obj
 0001:000646a8       __log10_pentium4           004656a8     libucrt:log10_pentium4.obj
 0001:00064931       __fFEXP                    00465931     libucrt:87tran.obj
 0001:00064988       __rtinfpopse               00465988     libucrt:87tran.obj
 0001:0006498a       __rtinfnpopse              0046598a     libucrt:87tran.obj
 0001:0006499a       __fFLN                     0046599a     libucrt:87tran.obj
 0001:00064a4f       __rtinfpop                 00465a4f     libucrt:87tran.obj
 0001:00064a51       __rtinfnpop                00465a51     libucrt:87tran.obj
 0001:00064a6e       __ffexpm1                  00465a6e     libucrt:87tran.obj
 0001:00064b20       __trandisp1                00465b20 f   libucrt:87disp.obj
 0001:00064b87       __trandisp2                00465b87 f   libucrt:87disp.obj
 0001:00064c13       __rttospopde               00465c13     libucrt:87disp.obj
 0001:00064c18       __rttospop                 00465c18     libucrt:87disp.obj
 0001:00064c1a       __rtnospop                 00465c1a     libucrt:87disp.obj
 0001:00064c1c       __rttosnpop                00465c1c     libucrt:87disp.obj
 0001:00064c1d       __rtnospopde               00465c1d     libucrt:87disp.obj
 0001:00064c24       __rtzeropop                00465c24     libucrt:87disp.obj
 0001:00064c26       __rtzeronpop               00465c26     libucrt:87disp.obj
 0001:00064c2b       __rtzerospop               00465c2b     libucrt:87disp.obj
 0001:00064c38       __rtonepop                 00465c38     libucrt:87disp.obj
 0001:00064c3a       __rtonenpop                00465c3a     libucrt:87disp.obj
 0001:00064c3f       __tosnan1                  00465c3f     libucrt:87disp.obj
 0001:00064c6a       __nosnan2                  00465c6a     libucrt:87disp.obj
 0001:00064c6c       __tosnan2                  00465c6c     libucrt:87disp.obj
 0001:00064c94       __nan2                     00465c94     libucrt:87disp.obj
 0001:00064cd3       __rtindfpop                00465cd3     libucrt:87disp.obj
 0001:00064cd5       __rtindfnpop               00465cd5     libucrt:87disp.obj
 0001:00064ce6       __rttosnpopde              00465ce6     libucrt:87disp.obj
 0001:00064cf0       __rtatan2inf               00465cf0     libucrt:87disp.obj
 0001:00064d0d       __rtchsifneg               00465d0d     libucrt:87disp.obj
 0001:00064d20       __twoToTOS                 00465d20 f   libucrt:common.obj
 0001:00064d35       __load_CW                  00465d35 f   libucrt:common.obj
 0001:00064d4c       __convertTOStoQNaN         00465d4c f   libucrt:common.obj
 0001:00064d65       __fload_withFB             00465d65 f   libucrt:common.obj
 0001:00064da8       __checkTOS_withFB          00465da8 f   libucrt:common.obj
 0001:00064dbe       __fast_exit                00465dbe f   libucrt:common.obj
 0001:00064dcb       __math_exit                00465dcb f   libucrt:common.obj
 0001:00064df5       __check_overflow_exit      00465df5 f   libucrt:common.obj
 0001:00064e09       __check_range_exit         00465e09 f   libucrt:common.obj
 0001:00064eb0       __startTwoArgErrorHandling 00465eb0 f   libucrt:genexcep.obj
 0001:00064ec7       __startOneArgErrorHandling 00465ec7 f   libucrt:genexcep.obj
 0001:00064f03       ___libm_error_support      00465f03 f   libucrt:libm_error.obj
 0001:0006511b       __ceil_default             0046611b f   libucrt:ceil.obj
 0001:000651d4       __d_inttype                004661d4 f   libucrt:powhlp.obj
 0001:0006523e       __powhlp                   0046623e f   libucrt:powhlp.obj
 0001:00065369       __87except                 00466369 f   libucrt:87except.obj
 0001:00065474       __frnd                     00466474 f   libucrt:frnd.obj
 0001:0006548a       __errcode                  0046648a f   libucrt:fpexcept.obj
 0001:000654be       __except1                  004664be f   libucrt:fpexcept.obj
 0001:0006558c       __handle_exc               0046658c f   libucrt:fpexcept.obj
 0001:0006576c       __raise_exc                0046676c f   libucrt:fpexcept.obj
 0001:0006578f       __raise_exc_ex             0046678f f   libucrt:fpexcept.obj
 0001:00065a80       __set_errno_from_matherr   00466a80 f   libucrt:fpexcept.obj
 0001:00065aaf       __umatherr                 00466aaf f   libucrt:fpexcept.obj
 0001:00065b51       __decomp                   00466b51 f   libucrt:util.obj
 0001:00065c25       __set_exp                  00466c25 f   libucrt:util.obj
 0001:00065c54       __sptype                   00466c54 f   libucrt:util.obj
 0001:00065cb2       __fpclass                  00466cb2 f   libucrt:ieeemisc.obj
 0001:00065d60       __FindPESection            00466d60 f   LIBCMT:pesect.obj
 0001:00065db0       __IsNonwritableInCurrentImage 00466db0 f   LIBCMT:pesect.obj
 0001:00065e70       __ValidateImageBase        00466e70 f   LIBCMT:pesect.obj
 0001:00065eb0       __aulldvrm                 00466eb0 f   LIBCMT:ulldvrm.obj
 0001:00065f50       __SEH_prolog4_GS           00466f50 f   LIBCMT:_sehprolg4gs_.obj
 0001:00065f99       __SEH_epilog4_GS           00466f99 f   LIBCMT:_sehprolg4gs_.obj
 0001:00065fb0       __alldvrm                  00466fb0 f   LIBCMT:lldvrm.obj
 0001:00066090       __alloca_probe_16          00467090 f   LIBCMT:alloca16.obj
 0001:000660a6       __alloca_probe_8           004670a6     LIBCMT:alloca16.obj
 0001:000660c0       __ftol2_sse                004670c0 f   LIBCMT:_ftol2_.obj
 0001:000660c9       __ftol2_pentium4           004670c9 f   LIBCMT:_ftol2_.obj
 0001:000660dc       __ftol2_sse_excpt          004670dc f   LIBCMT:_ftol2_.obj
 0001:00066100       __ftol2                    00467100 f   LIBCMT:_ftol2_.obj
 0001:00066176       _RtlUnwind@16              00467176 f   kernel32:KERNEL32.dll
 0001:0006617c       _wcschr                    0046717c f   libvcruntime:wcschr.obj
 0002:00000000       __imp__RegCloseKey@4       00468000     advapi32:ADVAPI32.dll
 0002:00000004       __imp__RegOpenKeyA@12      00468004     advapi32:ADVAPI32.dll
 0002:00000008       __imp__RegQueryValueExA@24 00468008     advapi32:ADVAPI32.dll
 0002:0000000c       __imp__GetUserNameA@8      0046800c     advapi32:ADVAPI32.dll
 0002:00000010       __imp__RegCreateKeyA@12    00468010     advapi32:ADVAPI32.dll
 0002:00000014       __imp__EqualSid@8          00468014     advapi32:ADVAPI32.dll
 0002:00000018       __imp__AllocateAndInitializeSid@44 00468018     advapi32:ADVAPI32.dll
 0002:0000001c       __imp__CopySid@12          0046801c     advapi32:ADVAPI32.dll
 0002:00000020       __imp__GetLengthSid@4      00468020     advapi32:ADVAPI32.dll
 0002:00000024       __imp__InitializeSecurityDescriptor@8 00468024     advapi32:ADVAPI32.dll
 0002:00000028       __imp__SetSecurityDescriptorDacl@16 00468028     advapi32:ADVAPI32.dll
 0002:0000002c       __imp__SetSecurityDescriptorOwner@12 0046802c     advapi32:ADVAPI32.dll
 0002:00000030       __imp__RegSetValueExA@24   00468030     advapi32:ADVAPI32.dll
 0002:00000034       \177ADVAPI32_NULL_THUNK_DATA 00468034     advapi32:ADVAPI32.dll
 0002:00000038       __imp__DecodePointer@4     00468038     kernel32:KERNEL32.dll
 0002:0000003c       __imp__SetEndOfFile@4      0046803c     kernel32:KERNEL32.dll
 0002:00000040       __imp__HeapSize@12         00468040     kernel32:KERNEL32.dll
 0002:00000044       __imp__GetTimeZoneInformation@4 00468044     kernel32:KERNEL32.dll
 0002:00000048       __imp__CreateFileW@28      00468048     kernel32:KERNEL32.dll
 0002:0000004c       __imp__GetProcessHeap@0    0046804c     kernel32:KERNEL32.dll
 0002:00000050       __imp__SetStdHandle@8      00468050     kernel32:KERNEL32.dll
 0002:00000054       __imp__GetTickCount@0      00468054     kernel32:KERNEL32.dll
 0002:00000058       __imp__GetProcAddress@8    00468058     kernel32:KERNEL32.dll
 0002:0000005c       __imp__GetStdHandle@4      0046805c     kernel32:KERNEL32.dll
 0002:00000060       __imp__ReadFile@20         00468060     kernel32:KERNEL32.dll
 0002:00000064       __imp__WriteFile@20        00468064     kernel32:KERNEL32.dll
 0002:00000068       __imp__GetConsoleMode@8    00468068     kernel32:KERNEL32.dll
 0002:0000006c       __imp__SetConsoleMode@8    0046806c     kernel32:KERNEL32.dll
 0002:00000070       __imp__LocalFileTimeToFileTime@8 00468070     kernel32:KERNEL32.dll
 0002:00000074       __imp__GetSystemTimeAsFileTime@4 00468074     kernel32:KERNEL32.dll
 0002:00000078       __imp__FreeLibrary@4       00468078     kernel32:KERNEL32.dll
 0002:0000007c       __imp__LoadLibraryExA@12   0046807c     kernel32:KERNEL32.dll
 0002:00000080       __imp__CloseHandle@4       00468080     kernel32:KERNEL32.dll
 0002:00000084       __imp__GetLastError@0      00468084     kernel32:KERNEL32.dll
 0002:00000088       __imp__GetOverlappedResult@16 00468088     kernel32:KERNEL32.dll
 0002:0000008c       __imp__SetEvent@4          0046808c     kernel32:KERNEL32.dll
 0002:00000090       __imp__WaitForSingleObject@8 00468090     kernel32:KERNEL32.dll
 0002:00000094       __imp__CreateEventA@16     00468094     kernel32:KERNEL32.dll
 0002:00000098       __imp__CreateThread@24     00468098     kernel32:KERNEL32.dll
 0002:0000009c       __imp__GetFileAttributesExA@12 0046809c     kernel32:KERNEL32.dll
 0002:000000a0       __imp__GetSystemDirectoryA@8 004680a0     kernel32:KERNEL32.dll
 0002:000000a4       __imp__FormatMessageA@28   004680a4     kernel32:KERNEL32.dll
 0002:000000a8       __imp__LoadLibraryA@4      004680a8     kernel32:KERNEL32.dll
 0002:000000ac       __imp__SetHandleInformation@12 004680ac     kernel32:KERNEL32.dll
 0002:000000b0       __imp__FindClose@4         004680b0     kernel32:KERNEL32.dll
 0002:000000b4       __imp__FindFirstFileA@8    004680b4     kernel32:KERNEL32.dll
 0002:000000b8       __imp__FindNextFileA@8     004680b8     kernel32:KERNEL32.dll
 0002:000000bc       __imp__QueryPerformanceCounter@4 004680bc     kernel32:KERNEL32.dll
 0002:000000c0       __imp__GetProcessTimes@20  004680c0     kernel32:KERNEL32.dll
 0002:000000c4       __imp__GetCurrentProcess@0 004680c4     kernel32:KERNEL32.dll
 0002:000000c8       __imp__GetCurrentProcessId@0 004680c8     kernel32:KERNEL32.dll
 0002:000000cc       __imp__GetCurrentThread@0  004680cc     kernel32:KERNEL32.dll
 0002:000000d0       __imp__GetThreadTimes@20   004680d0     kernel32:KERNEL32.dll
 0002:000000d4       __imp__GetWindowsDirectoryA@8 004680d4     kernel32:KERNEL32.dll
 0002:000000d8       __imp__GlobalMemoryStatus@4 004680d8     kernel32:KERNEL32.dll
 0002:000000dc       __imp__CreateFileA@28      004680dc     kernel32:KERNEL32.dll
 0002:000000e0       __imp__LocalFree@4         004680e0     kernel32:KERNEL32.dll
 0002:000000e4       __imp__WaitNamedPipeA@8    004680e4     kernel32:KERNEL32.dll
 0002:000000e8       __imp__ConnectNamedPipe@8  004680e8     kernel32:KERNEL32.dll
 0002:000000ec       __imp__CreateNamedPipeA@32 004680ec     kernel32:KERNEL32.dll
 0002:000000f0       __imp__GetCurrentThreadId@0 004680f0     kernel32:KERNEL32.dll
 0002:000000f4       __imp__MapViewOfFile@20    004680f4     kernel32:KERNEL32.dll
 0002:000000f8       __imp__UnmapViewOfFile@4   004680f8     kernel32:KERNEL32.dll
 0002:000000fc       __imp__LocalAlloc@8        004680fc     kernel32:KERNEL32.dll
 0002:00000100       __imp__CreateFileMappingA@24 00468100     kernel32:KERNEL32.dll
 0002:00000104       __imp__CreatePipe@16       00468104     kernel32:KERNEL32.dll
 0002:00000108       __imp__CreateProcessA@40   00468108     kernel32:KERNEL32.dll
 0002:0000010c       __imp__OpenProcess@12      0046810c     kernel32:KERNEL32.dll
 0002:00000110       __imp__SetCurrentDirectoryA@4 00468110     kernel32:KERNEL32.dll
 0002:00000114       __imp__GetCurrentDirectoryA@8 00468114     kernel32:KERNEL32.dll
 0002:00000118       __imp__CreateDirectoryA@8  00468118     kernel32:KERNEL32.dll
 0002:0000011c       __imp__GetFileAttributesA@4 0046811c     kernel32:KERNEL32.dll
 0002:00000120       __imp__GetFileSize@8       00468120     kernel32:KERNEL32.dll
 0002:00000124       __imp__GetFileTime@16      00468124     kernel32:KERNEL32.dll
 0002:00000128       __imp__SetFilePointer@16   00468128     kernel32:KERNEL32.dll
 0002:0000012c       __imp__WaitForMultipleObjects@16 0046812c     kernel32:KERNEL32.dll
 0002:00000130       __imp__ReleaseMutex@4      00468130     kernel32:KERNEL32.dll
 0002:00000134       __imp__CreateMutexA@12     00468134     kernel32:KERNEL32.dll
 0002:00000138       __imp__GetEnvironmentVariableA@12 00468138     kernel32:KERNEL32.dll
 0002:0000013c       __imp__DeleteFileA@4       0046813c     kernel32:KERNEL32.dll
 0002:00000140       __imp__GetLocalTime@4      00468140     kernel32:KERNEL32.dll
 0002:00000144       __imp__MultiByteToWideChar@24 00468144     kernel32:KERNEL32.dll
 0002:00000148       __imp__WideCharToMultiByte@32 00468148     kernel32:KERNEL32.dll
 0002:0000014c       __imp__GetACP@0            0046814c     kernel32:KERNEL32.dll
 0002:00000150       __imp__GetOEMCP@0          00468150     kernel32:KERNEL32.dll
 0002:00000154       __imp__GetCPInfo@8         00468154     kernel32:KERNEL32.dll
 0002:00000158       __imp__UnhandledExceptionFilter@4 00468158     kernel32:KERNEL32.dll
 0002:0000015c       __imp__SetUnhandledExceptionFilter@4 0046815c     kernel32:KERNEL32.dll
 0002:00000160       __imp__TerminateProcess@8  00468160     kernel32:KERNEL32.dll
 0002:00000164       __imp__IsProcessorFeaturePresent@4 00468164     kernel32:KERNEL32.dll
 0002:00000168       __imp__InitializeSListHead@4 00468168     kernel32:KERNEL32.dll
 0002:0000016c       __imp__IsDebuggerPresent@0 0046816c     kernel32:KERNEL32.dll
 0002:00000170       __imp__GetStartupInfoW@4   00468170     kernel32:KERNEL32.dll
 0002:00000174       __imp__GetModuleHandleW@4  00468174     kernel32:KERNEL32.dll
 0002:00000178       __imp__RtlUnwind@16        00468178     kernel32:KERNEL32.dll
 0002:0000017c       __imp__SetLastError@4      0046817c     kernel32:KERNEL32.dll
 0002:00000180       __imp__EnterCriticalSection@4 00468180     kernel32:KERNEL32.dll
 0002:00000184       __imp__LeaveCriticalSection@4 00468184     kernel32:KERNEL32.dll
 0002:00000188       __imp__DeleteCriticalSection@4 00468188     kernel32:KERNEL32.dll
 0002:0000018c       __imp__InitializeCriticalSectionAndSpinCount@8 0046818c     kernel32:KERNEL32.dll
 0002:00000190       __imp__TlsAlloc@0          00468190     kernel32:KERNEL32.dll
 0002:00000194       __imp__TlsGetValue@4       00468194     kernel32:KERNEL32.dll
 0002:00000198       __imp__TlsSetValue@8       00468198     kernel32:KERNEL32.dll
 0002:0000019c       __imp__TlsFree@4           0046819c     kernel32:KERNEL32.dll
 0002:000001a0       __imp__LoadLibraryExW@12   004681a0     kernel32:KERNEL32.dll
 0002:000001a4       __imp__GetFileType@4       004681a4     kernel32:KERNEL32.dll
 0002:000001a8       __imp__GetModuleFileNameA@12 004681a8     kernel32:KERNEL32.dll
 0002:000001ac       __imp__GetModuleFileNameW@12 004681ac     kernel32:KERNEL32.dll
 0002:000001b0       __imp__GetModuleHandleExW@12 004681b0     kernel32:KERNEL32.dll
 0002:000001b4       __imp__WriteConsoleW@20    004681b4     kernel32:KERNEL32.dll
 0002:000001b8       __imp__ExitProcess@4       004681b8     kernel32:KERNEL32.dll
 0002:000001bc       __imp__GetStringTypeW@16   004681bc     kernel32:KERNEL32.dll
 0002:000001c0       __imp__GetCommandLineA@0   004681c0     kernel32:KERNEL32.dll
 0002:000001c4       __imp__GetCommandLineW@0   004681c4     kernel32:KERNEL32.dll
 0002:000001c8       __imp__HeapFree@12         004681c8     kernel32:KERNEL32.dll
 0002:000001cc       __imp__HeapAlloc@12        004681cc     kernel32:KERNEL32.dll
 0002:000001d0       __imp__OutputDebugStringW@4 004681d0     kernel32:KERNEL32.dll
 0002:000001d4       __imp__WaitForSingleObjectEx@12 004681d4     kernel32:KERNEL32.dll
 0002:000001d8       __imp__ReadConsoleW@20     004681d8     kernel32:KERNEL32.dll
 0002:000001dc       __imp__FlushFileBuffers@4  004681dc     kernel32:KERNEL32.dll
 0002:000001e0       __imp__GetConsoleCP@0      004681e0     kernel32:KERNEL32.dll
 0002:000001e4       __imp__HeapReAlloc@16      004681e4     kernel32:KERNEL32.dll
 0002:000001e8       __imp__GetDateFormatW@24   004681e8     kernel32:KERNEL32.dll
 0002:000001ec       __imp__GetTimeFormatW@24   004681ec     kernel32:KERNEL32.dll
 0002:000001f0       __imp__CompareStringW@24   004681f0     kernel32:KERNEL32.dll
 0002:000001f4       __imp__LCMapStringW@24     004681f4     kernel32:KERNEL32.dll
 0002:000001f8       __imp__GetLocaleInfoW@16   004681f8     kernel32:KERNEL32.dll
 0002:000001fc       __imp__IsValidLocale@8     004681fc     kernel32:KERNEL32.dll
 0002:00000200       __imp__GetUserDefaultLCID@0 00468200     kernel32:KERNEL32.dll
 0002:00000204       __imp__EnumSystemLocalesW@8 00468204     kernel32:KERNEL32.dll
 0002:00000208       __imp__GetExitCodeProcess@8 00468208     kernel32:KERNEL32.dll
 0002:0000020c       __imp__GetFileAttributesExW@12 0046820c     kernel32:KERNEL32.dll
 0002:00000210       __imp__SetFilePointerEx@20 00468210     kernel32:KERNEL32.dll
 0002:00000214       __imp__FindFirstFileExA@24 00468214     kernel32:KERNEL32.dll
 0002:00000218       __imp__IsValidCodePage@4   00468218     kernel32:KERNEL32.dll
 0002:0000021c       __imp__GetEnvironmentStringsW@0 0046821c     kernel32:KERNEL32.dll
 0002:00000220       __imp__FreeEnvironmentStringsW@4 00468220     kernel32:KERNEL32.dll
 0002:00000224       __imp__SetEnvironmentVariableA@8 00468224     kernel32:KERNEL32.dll
 0002:00000228       __imp__RaiseException@16   00468228     kernel32:KERNEL32.dll
 0002:0000022c       \177KERNEL32_NULL_THUNK_DATA 0046822c     kernel32:KERNEL32.dll
 0002:00000230       __imp__FindWindowA@8       00468230     user32:USER32.dll
 0002:00000234       __imp__SendMessageA@16     00468234     user32:USER32.dll
 0002:00000238       __imp__GetCursorPos@4      00468238     user32:USER32.dll
 0002:0000023c       __imp__GetForegroundWindow@0 0046823c     user32:USER32.dll
 0002:00000240       __imp__GetCapture@0        00468240     user32:USER32.dll
 0002:00000244       __imp__GetQueueStatus@4    00468244     user32:USER32.dll
 0002:00000248       __imp__GetClipboardOwner@0 00468248     user32:USER32.dll
 0002:0000024c       \177USER32_NULL_THUNK_DATA 0046824c     user32:USER32.dll
 0002:00000250       ___guard_check_icall_fptr  00468250     LIBCMT:guard_support.obj
 0002:00000254       ___xc_a                    00468254     LIBCMT:initializers.obj
 0002:0000025c       ___xc_z                    0046825c     LIBCMT:initializers.obj
 0002:00000260       ___xi_a                    00468260     LIBCMT:initializers.obj
 0002:0000026c       ___acrt_stdio_initializer  0046826c     libucrt:stdio_initializer.obj
 0002:00000270       ___acrt_multibyte_initializer 00468270     libucrt:multibyte_initializer.obj
 0002:00000274       ___acrt_timeset_initializer 00468274     libucrt:timeset_initializer.obj
 0002:00000278       ___acrt_tran_sse2_initializer 00468278     libucrt:sse2_initializer.obj
 0002:0000027c       ___xi_z                    0046827c     LIBCMT:initializers.obj
 0002:00000280       ___xp_a                    00468280     LIBCMT:initializers.obj
 0002:00000284       ___acrt_locale_terminator  00468284     libucrt:locale_initializer.obj
 0002:00000288       ___dcrt_console_output_terminator 00468288     libucrt:console_output_initializer.obj
 0002:0000028c       ___acrt_stdio_terminator   0046828c     libucrt:stdio_initializer.obj
 0002:00000290       ___xp_z                    00468290     LIBCMT:initializers.obj
 0002:00000294       ___xt_a                    00468294     LIBCMT:initializers.obj
 0002:00000298       ___xt_z                    00468298     LIBCMT:initializers.obj
 0002:000002f8       ??_C@_05DCIIMACO@?$AA?$AA?$AA?$AB?$AF?$AA@ 004682f8     agentf.obj
 0002:00000300       ??_C@_1BI@HNNCJILE@?$AA?4?$AA?4?$AA?2?$AAa?$AAg?$AAe?$AAn?$AAt?$AAf?$AA?4?$AAc?$AA?$AA@ 00468300     agentf.obj
 0002:00000318       ??_C@_1DM@BBBCHEJO@?$AAc?$AAh?$AAa?$AAn?$AA?9?$AA?$DO?$AAv?$AAt?$AA?5?$AA?$DN?$AA?$DN?$AA?5?$AA?$CG?$AAa?$AAg?$AAe?$AAn?$AAt?$AAf?$AA_?$AAc?$AAh?$AAa?$AAn?$AAn?$AAe?$AAl?$AAv?$AAt?$AA?$AA@ 00468318     agentf.obj
 0002:00000354       ??_C@_0CD@DPEIBDJB@Agent?9forwarding?5connection?5clos@ 00468354     agentf.obj
 0002:00000378       ??_C@_0BJ@PAKDEFEF@Connecting?5to?5?$CFs?5port?5?$CFd?$AA@ 00468378     be_misc.obj
 0002:00000394       ??_C@_0BB@NIDAOAIN@Connecting?5to?5?$CFs?$AA@ 00468394     be_misc.obj
 0002:000003a8       ??_C@_0BM@ECNDNCEG@Failed?5to?5connect?5to?5?$CFs?3?5?$CFs?$AA@ 004683a8     be_misc.obj
 0002:000003c4       ??_C@_04LLEBNMDN@?$CFs?$AN?6?$AA@ 004683c4     be_misc.obj
 0002:000003cc       ??_C@_1BK@NGDHMBJI@?$AA?4?$AA?4?$AA?2?$AAb?$AAe?$AA_?$AAm?$AAi?$AAs?$AAc?$AA?4?$AAc?$AA?$AA@ 004683cc     be_misc.obj
 0002:000003e8       ??_C@_1BC@EKMFBBBD@?$AAl?$AAe?$AAn?$AA?5?$AA?$DO?$AA?$DN?$AA?5?$AA2?$AA?$AA@ 004683e8     be_misc.obj
 0002:000003fc       ??_C@_1DI@PMABNCLH@?$AAp?$AAs?$AAb?$AA?9?$AA?$DO?$AAs?$AAi?$AAz?$AAe?$AA?5?$AA?$DM?$AA?5?$AAl?$AAe?$AAn?$AAo?$AAf?$AA?$CI?$AAp?$AAs?$AAb?$AA?9?$AA?$DO?$AAb?$AAu?$AAf?$AA?$CJ?$AA?$AA@ 004683fc     be_misc.obj
 0002:00000434       ??_C@_0M@KNBNIJIN@proxy?3?5?$CF?4?$CKs?$AA@ 00468434     be_misc.obj
 0002:00000440       ??_C@_1CC@GBNHNEOH@?$AAp?$AAo?$AAs?$AA?5?$AA?$DM?$AA?$DN?$AA?5?$AAp?$AAs?$AAb?$AA?9?$AA?$DO?$AAs?$AAi?$AAz?$AAe?$AA?$AA@ 00468440     be_misc.obj
 0002:00000464       ??_C@_0BL@ICDGDEJH@proxy?5?$CIpartial?5line?$CJ?3?5?$CF?4?$CKs?$AA@ 00468464     be_misc.obj
 0002:00000480       _backends                  00468480     be_ssh.obj
 0002:00000488       _be_default_protocol       00468488     be_ssh.obj
 0002:0000048c       ??_C@_00CNPNBAHC@?$AA@     0046848c     cmdline.obj
 0002:00000490       ??_C@_0CH@BBHEKEDE@option?5?$CC?$CFs?$CC?5not?5available?5in?5thi@ 00468490     cmdline.obj
 0002:000004b8       ??_C@_07EINEMDHH@telnet?3?$AA@ 004684b8     cmdline.obj
 0002:000004c0       ??_C@_02DLFOHOMG@?3?1?$AA@ 004684c0     cmdline.obj
 0002:000004c4       ??_C@_04EBNJJJJI@?$CF?4?$CKs?$AA@ 004684c4     cmdline.obj
 0002:000004cc       ??_C@_0CC@BOBAIGKF@unrecognised?5protocol?5prefix?5?8?$CFs@ 004684cc     cmdline.obj
 0002:000004f0       ??_C@_02OJDBNLEE@?5?7?$AA@ 004684f0     cmdline.obj
 0002:000004f4       ??_C@_02IKJAKOAK@?9P?$AA@  004684f4     cmdline.obj
 0002:000004f8       ??_C@_1BK@IGPCNICF@?$AA?4?$AA?4?$AA?2?$AAc?$AAm?$AAd?$AAl?$AAi?$AAn?$AAe?$AA?4?$AAc?$AA?$AA@ 004684f8     cmdline.obj
 0002:00000514       ??_C@_1BE@KOELLOBN@?$AAr?$AAe?$AAt?$AAd?$AA?5?$AA?$DN?$AA?$DN?$AA?5?$AA2?$AA?$AA@ 00468514     cmdline.obj
 0002:00000528       ??_C@_05ICAMDKBJ@?9load?$AA@ 00468528     cmdline.obj
 0002:00000530       ??_C@_04ICJFNLID@?9ssh?$AA@ 00468530     cmdline.obj
 0002:00000538       ??_C@_07DKMEJCIF@?9telnet?$AA@ 00468538     cmdline.obj
 0002:00000540       ??_C@_07PNIEMAJC@?9rlogin?$AA@ 00468540     cmdline.obj
 0002:00000548       ??_C@_04OINBMFGG@?9raw?$AA@ 00468548     cmdline.obj
 0002:00000550       ??_C@_07DIHGINNE@?9serial?$AA@ 00468550     cmdline.obj
 0002:00000558       ??_C@_02EJEOCNCO@?9v?$AA@  00468558     cmdline.obj
 0002:0000055c       ??_C@_02PJGDNHPF@?9l?$AA@  0046855c     cmdline.obj
 0002:00000560       ??_C@_08FCOAIJJN@?9loghost?$AA@ 00468560     cmdline.obj
 0002:0000056c       ??_C@_08MJJKILLB@?9hostkey?$AA@ 0046856c     cmdline.obj
 0002:00000578       ??_C@_0DP@FIONBLOO@?8?$CFs?8?5is?5not?5a?5valid?5format?5for?5a@ 00468578     cmdline.obj
 0002:000005b8       ??_C@_02GMOHPDFH@?9L?$AA@  004685b8     cmdline.obj
 0002:000005bc       ??_C@_02LIKGMMII@?9R?$AA@  004685bc     cmdline.obj
 0002:000005c0       ??_C@_02KEDOHJFP@?9D?$AA@  004685c0     cmdline.obj
 0002:000005c4       ??_C@_0DA@NDNLCDCP@?9?$CFc?5expects?5at?5least?5two?5colons?5@ 004685c4     cmdline.obj
 0002:000005f4       ??_C@_06JHCNKDE@?$CFc?$CF?4?$CKs?$AA@ 004685f4     cmdline.obj
 0002:000005fc       ??_C@_03DFONGJFI@L?$CFs?$AA@ 004685fc     cmdline.obj
 0002:00000600       ??_C@_01CKDDGHAB@D?$AA@    00468600     cmdline.obj
 0002:00000604       ??_C@_03IAHKIJEO@?9nc?$AA@ 00468604     cmdline.obj
 0002:00000608       ??_C@_0CJ@EADAEIPK@?9nc?5expects?5argument?5of?5form?5?8ho@ 00468608     cmdline.obj
 0002:00000634       ??_C@_02OAHIOGLE@?9m?$AA@  00468634     cmdline.obj
 0002:00000638       ??_C@_01KDCPPGHE@r?$AA@    00468638     cmdline.obj
 0002:0000063c       ??_C@_0CB@LNEDGKNN@unable?5to?5open?5command?5file?5?$CC?$CFs?$CC@ 0046863c     cmdline.obj
 0002:00000660       ??_C@_03LIGMNAGB@?9pw?$AA@ 00468660     cmdline.obj
 0002:00000664       ??_C@_0DG@HOAILDLM@the?5?9pw?5option?5can?5only?5be?5used?5@ 00468664     cmdline.obj
 0002:0000069c       ??_C@_06CBKBFCJG@?9agent?$AA@ 0046869c     cmdline.obj
 0002:000006a4       ??_C@_07PJJOKNHB@?9pagent?$AA@ 004686a4     cmdline.obj
 0002:000006ac       ??_C@_08CFHKFFAF@?9pageant?$AA@ 004686ac     cmdline.obj
 0002:000006b8       ??_C@_08DPIPCKGL@?9noagent?$AA@ 004686b8     cmdline.obj
 0002:000006c4       ??_C@_09DKIMANKI@?9nopagent?$AA@ 004686c4     cmdline.obj
 0002:000006d0       ??_C@_0L@NKLGCNNF@?9nopageant?$AA@ 004686d0     cmdline.obj
 0002:000006dc       ??_C@_06CEGIIIIE@?9share?$AA@ 004686dc     cmdline.obj
 0002:000006e4       ??_C@_08DKEGPAHJ@?9noshare?$AA@ 004686e4     cmdline.obj
 0002:000006f0       ??_C@_02NJEJINBK@?9A?$AA@  004686f0     cmdline.obj
 0002:000006f4       ??_C@_02EMMNKJLI@?9a?$AA@  004686f4     cmdline.obj
 0002:000006f8       ??_C@_02ECEJCEAC@?9X?$AA@  004686f8     cmdline.obj
 0002:000006fc       ??_C@_02NHMNAAKA@?9x?$AA@  004686fc     cmdline.obj
 0002:00000700       ??_C@_02HLHIEPKM@?9t?$AA@  00468700     cmdline.obj
 0002:00000704       ??_C@_02OOPMGLAO@?9T?$AA@  00468704     cmdline.obj
 0002:00000708       ??_C@_02FONBJBNF@?9N?$AA@  00468708     cmdline.obj
 0002:0000070c       ??_C@_02OLHPOPJI@?9C?$AA@  0046870c     cmdline.obj
 0002:00000710       ??_C@_02PGHGPEOM@?91?$AA@  00468710     cmdline.obj
 0002:00000714       ??_C@_02NNFLKHCP@?92?$AA@  00468714     cmdline.obj
 0002:00000718       ??_C@_02IEBECDLA@?9i?$AA@  00468718     cmdline.obj
 0002:0000071c       ??_C@_02ILABAAKJ@?94?$AA@  0046871c     cmdline.obj
 0002:00000720       ??_C@_05OBEEBKAB@?9ipv4?$AA@ 00468720     cmdline.obj
 0002:00000728       ??_C@_02LJDHGCCL@?96?$AA@  00468728     cmdline.obj
 0002:0000072c       ??_C@_05NDHCHIID@?9ipv6?$AA@ 0046872c     cmdline.obj
 0002:00000734       ??_C@_07LBHAKCPO@?9sercfg?$AA@ 00468734     cmdline.obj
 0002:0000073c       ??_C@_0DN@IIMHHOGI@the?5?9sercfg?5option?5can?5only?5be?5u@ 0046873c     cmdline.obj
 0002:0000077c       ??_C@_0CE@OGBPPBHP@Unrecognised?5suboption?5?$CC?9sercfg?5@ 0046877c     cmdline.obj
 0002:000007a0       ??_C@_03GMOBGHL@1?45?$AA@  004687a0     cmdline.obj
 0002:000007a4       ??_C@_0CE@PKDJFCAP@Unrecognised?5suboption?5?$CC?9sercfg?5@ 004687a4     cmdline.obj
 0002:000007c8       ??_C@_0M@GAACDFHA@?9sessionlog?$AA@ 004687c8     cmdline.obj
 0002:000007d4       ??_C@_07BJBNOHIC@?9sshlog?$AA@ 004687d4     cmdline.obj
 0002:000007dc       ??_C@_0L@OFEEOOKC@?9sshrawlog?$AA@ 004687dc     cmdline.obj
 0002:000007e8       ??_C@_09LOEANFPC@?9proxycmd?$AA@ 004687e8     cmdline.obj
 0002:000007f4       ??_C@_0O@KEOPCOBB@?9restrict?9acl?$AA@ 004687f4     cmdline.obj
 0002:00000804       ??_C@_0O@CHPNJNLO@?9restrict_acl?$AA@ 00468804     cmdline.obj
 0002:00000814       ??_C@_0N@CPDAHODB@?9restrictacl?$AA@ 00468814     cmdline.obj
 0002:00000824       ??_C@_1BE@LPNLDGNE@?$AA?4?$AA?4?$AA?2?$AAc?$AAo?$AAn?$AAf?$AA?4?$AAc?$AA?$AA@ 00468824     conf.obj
 0002:00000838       ??_C@_1CE@CCKFHKHB@?$AAo?$AAl?$AAd?$AAe?$AAn?$AAt?$AAr?$AAy?$AA?5?$AA?$DN?$AA?$DN?$AA?5?$AAe?$AAn?$AAt?$AAr?$AAy?$AA?$AA@ 00468838     conf.obj
 0002:00000860       ??_C@_1EE@EEKAMFKN@?$AAs?$AAu?$AAb?$AAk?$AAe?$AAy?$AAt?$AAy?$AAp?$AAe?$AAs?$AA?$FL?$AAp?$AAr?$AAi?$AAm?$AAa?$AAr?$AAy?$AA?$FN?$AA?5?$AA?$DN?$AA?$DN?$AA?5?$AAT?$AAY?$AAP?$AAE?$AA_?$AAN?$AAO?$AAN@ 00468860     conf.obj
 0002:000008a8       ??_C@_1EC@BPLFDJAM@?$AAv?$AAa?$AAl?$AAu?$AAe?$AAt?$AAy?$AAp?$AAe?$AAs?$AA?$FL?$AAp?$AAr?$AAi?$AAm?$AAa?$AAr?$AAy?$AA?$FN?$AA?5?$AA?$DN?$AA?$DN?$AA?5?$AAT?$AAY?$AAP?$AAE?$AA_?$AAB?$AAO?$AAO?$AAL@ 004688a8     conf.obj
 0002:000008ec       ??_C@_1M@IDDCMKPN@?$AAe?$AAn?$AAt?$AAr?$AAy?$AA?$AA@ 004688ec     conf.obj
 0002:000008f8       ??_C@_1EA@EHPHCNLC@?$AAv?$AAa?$AAl?$AAu?$AAe?$AAt?$AAy?$AAp?$AAe?$AAs?$AA?$FL?$AAp?$AAr?$AAi?$AAm?$AAa?$AAr?$AAy?$AA?$FN?$AA?5?$AA?$DN?$AA?$DN?$AA?5?$AAT?$AAY?$AAP?$AAE?$AA_?$AAI?$AAN?$AAT?$AA?$AA@ 004688f8     conf.obj
 0002:00000938       ??_C@_1EC@EKCJNHGB@?$AAs?$AAu?$AAb?$AAk?$AAe?$AAy?$AAt?$AAy?$AAp?$AAe?$AAs?$AA?$FL?$AAp?$AAr?$AAi?$AAm?$AAa?$AAr?$AAy?$AA?$FN?$AA?5?$AA?$DN?$AA?$DN?$AA?5?$AAT?$AAY?$AAP?$AAE?$AA_?$AAI?$AAN?$AAT@ 00468938     conf.obj
 0002:00000980       ??_C@_1EA@CNKKHOHA@?$AAv?$AAa?$AAl?$AAu?$AAe?$AAt?$AAy?$AAp?$AAe?$AAs?$AA?$FL?$AAp?$AAr?$AAi?$AAm?$AAa?$AAr?$AAy?$AA?$FN?$AA?5?$AA?$DN?$AA?$DN?$AA?5?$AAT?$AAY?$AAP?$AAE?$AA_?$AAS?$AAT?$AAR?$AA?$AA@ 00468980     conf.obj
 0002:000009c0       ??_C@_1EC@CAHEIEKD@?$AAs?$AAu?$AAb?$AAk?$AAe?$AAy?$AAt?$AAy?$AAp?$AAe?$AAs?$AA?$FL?$AAp?$AAr?$AAi?$AAm?$AAa?$AAr?$AAy?$AA?$FN?$AA?5?$AA?$DN?$AA?$DN?$AA?5?$AAT?$AAY?$AAP?$AAE?$AA_?$AAS?$AAT?$AAR@ 004689c0     conf.obj
 0002:00000a04       ??_C@_17MIMMBPFJ@?$AAr?$AAe?$AAt?$AA?$AA@ 00468a04     conf.obj
 0002:00000a10       ??_C@_1EK@BFKJCCO@?$AAv?$AAa?$AAl?$AAu?$AAe?$AAt?$AAy?$AAp?$AAe?$AAs?$AA?$FL?$AAp?$AAr?$AAi?$AAm?$AAa?$AAr?$AAy?$AA?$FN?$AA?5?$AA?$DN?$AA?$DN?$AA?5?$AAT?$AAY?$AAP?$AAE?$AA_?$AAF?$AAI?$AAL?$AAE@ 00468a10     conf.obj
 0002:00000a60       ??_C@_1EC@EIKPDFKD@?$AAv?$AAa?$AAl?$AAu?$AAe?$AAt?$AAy?$AAp?$AAe?$AAs?$AA?$FL?$AAp?$AAr?$AAi?$AAm?$AAa?$AAr?$AAy?$AA?$FN?$AA?5?$AA?$DN?$AA?$DN?$AA?5?$AAT?$AAY?$AAP?$AAE?$AA_?$AAF?$AAO?$AAN?$AAT@ 00468a60     conf.obj
 0002:00000aa4       ??_C@_0DI@KPPHJCFH@Proxy?5error?3?5SOCKS?5proxy?5wants?5a@ 00468aa4     cproxy.obj
 0002:00000adc       ??_C@_0DG@GODOGCME@Proxy?5error?3?5SOCKS?5proxy?5won?8t?5n@ 00468adc     cproxy.obj
 0002:00000b14       ??_C@_0DF@CKPHGFEO@Proxy?5error?3?5SOCKS?5proxy?5refused@ 00468b14     cproxy.obj
 0002:00000b50       ??_C@_0EO@DJFMIEOP@Proxy?5error?3?5Server?5chose?5CHAP?5o@ 00468b50     cproxy.obj
 0002:00000ba0       ??_C@_0EG@HFGGNNBB@Proxy?5error?3?5Server?5chose?5CHAP?5a@ 00468ba0     cproxy.obj
 0002:00000be8       ??_C@_1BC@CGLMHCPF@?$AA?4?$AA?4?$AA?2?$AAe?$AAc?$AAc?$AA?4?$AAc?$AA?$AA@ 00468be8     ecc.obj
 0002:00000bfc       ??_C@_1O@HAOLMPOI@?$AAw?$AAc?$AA?9?$AA?$DO?$AAs?$AAc?$AA?$AA@ 00468bfc     ecc.obj
 0002:00000c0c       ??_C@_1BI@DJNJMABL@?$AAQ?$AA?9?$AA?$DO?$AAw?$AAc?$AA?5?$AA?$DN?$AA?$DN?$AA?5?$AAw?$AAc?$AA?$AA@ 00468c0c     ecc.obj
 0002:00000c24       ??_C@_1DI@NAHPADHE@?$AA?$CB?$AAm?$AAp?$AA_?$AAe?$AAq?$AA_?$AAi?$AAn?$AAt?$AAe?$AAg?$AAe?$AAr?$AA?$CI?$AAl?$AAa?$AAm?$AAb?$AAd?$AAa?$AA_?$AAn?$AA?0?$AA?5?$AA0?$AA?$CJ?$AA?$AA@ 00468c24     ecc.obj
 0002:00000c5c       ??_C@_1BI@KHLCHIHB@?$AAQ?$AA?9?$AA?$DO?$AAm?$AAc?$AA?5?$AA?$DN?$AA?$DN?$AA?5?$AAm?$AAc?$AA?$AA@ 00468c5c     ecc.obj
 0002:00000c74       ??_C@_1CE@GJPMPIEA@?$AAP?$AAm?$AAi?$AAn?$AAu?$AAs?$AAQ?$AA?9?$AA?$DO?$AAm?$AAc?$AA?5?$AA?$DN?$AA?$DN?$AA?5?$AAm?$AAc?$AA?$AA@ 00468c74     ecc.obj
 0002:00000c98       ??_C@_1O@PHDHDHCJ@?$AAe?$AAc?$AA?9?$AA?$DO?$AAs?$AAc?$AA?$AA@ 00468c98     ecc.obj
 0002:00000ca8       ??_C@_1BI@FMLAFEBA@?$AAQ?$AA?9?$AA?$DO?$AAe?$AAc?$AA?5?$AA?$DN?$AA?$DN?$AA?5?$AAe?$AAc?$AA?$AA@ 00468ca8     ecc.obj
 0002:00000ce0       ??_C@_1BK@NLGMELOF@?$AA?4?$AA?4?$AA?2?$AAl?$AAo?$AAg?$AAg?$AAi?$AAn?$AAg?$AA?4?$AAc?$AA?$AA@ 00468ce0     logging.obj
 0002:00000cfc       ??_C@_1BE@DNNDFKKD@?$AAc?$AAt?$AAx?$AA?9?$AA?$DO?$AAl?$AAg?$AAf?$AAp?$AA?$AA@ 00468cfc     logging.obj
 0002:00000d10       ??_C@_0DI@LDOGMIFP@Disabled?5writing?5session?5log?5due@ 00468d10     logging.obj
 0002:00000d48       ??_C@_02BOGAIONP@ab?$AA@   00468d48     logging.obj
 0002:00000d4c       ??_C@_02GMLFBBN@wb?$AA@    00468d4c     logging.obj
 0002:00000d50       ??_C@_0BC@CCPCBAML@?$CFY?4?$CFm?4?$CFd?5?$CFH?3?$CFM?3?$CFS?$AA@ 00468d50     logging.obj
 0002:00000d64       ??_C@_0DP@OEIPDIOF@?$DN?$HO?$DN?$HO?$DN?$HO?$DN?$HO?$DN?$HO?$DN?$HO?$DN?$HO?$DN?$HO?$DN?$HO?$DN?$HO?$DN?$HO?$DN?5PuTTY?5lo@ 00468d64     logging.obj
 0002:00000da4       ??_C@_05CCNLIHFO@ASCII?$AA@ 00468da4     logging.obj
 0002:00000dac       ??_C@_03DGOGAGNC@raw?$AA@  00468dac     logging.obj
 0002:00000db0       ??_C@_0M@JLAOMPFP@SSH?5packets?$AA@ 00468db0     logging.obj
 0002:00000dbc       ??_C@_0N@LJOKCA@SSH?5raw?5data?$AA@ 00468dbc     logging.obj
 0002:00000dcc       ??_C@_07CIFAGBMG@unknown?$AA@ 00468dcc     logging.obj
 0002:00000dd4       ??_C@_0BB@BCAOKBDA@Disabled?5writing?$AA@ 00468dd4     logging.obj
 0002:00000de8       ??_C@_0O@JKPGJOCN@Error?5writing?$AA@ 00468de8     logging.obj
 0002:00000df8       ??_C@_09JIOHNGHE@Appending?$AA@ 00468df8     logging.obj
 0002:00000e04       ??_C@_0M@NPLMCGEG@Writing?5new?$AA@ 00468e04     logging.obj
 0002:00000e10       ??_C@_0CF@BIBDBDMF@?$CFs?5session?5log?5?$CI?$CFs?5mode?$CJ?5to?5file@ 00468e10     logging.obj
 0002:00000e38       ??_C@_1DA@DBJCFJHK@?$AAc?$AAt?$AAx?$AA?9?$AA?$DO?$AAs?$AAt?$AAa?$AAt?$AAe?$AA?5?$AA?$CB?$AA?$DN?$AA?5?$AAL?$AA_?$AAO?$AAP?$AAE?$AAN?$AAI?$AAN?$AAG?$AA?$AA@ 00468e38     logging.obj
 0002:00000e68       ??_C@_0BA@GKCPLIOC@Event?5Log?3?5?$CFs?$AN?6?$AA@ 00468e68     logging.obj
 0002:00000e78       ??_C@_08KCCDBHEM@Incoming?$AA@ 00468e78     logging.obj
 0002:00000e84       ??_C@_08MEACDAPG@Outgoing?$AA@ 00468e84     logging.obj
 0002:00000e90       ??_C@_0L@NHKLNPMI@?$CFs?5packet?5?$AA@ 00468e90     logging.obj
 0002:00000e9c       ??_C@_08PJDLIFJK@?$CD0x?$CFlx?0?5?$AA@ 00468e9c     logging.obj
 0002:00000ea8       ??_C@_0BG@JOOCLEGP@type?5?$CFd?5?1?50x?$CF02x?5?$CI?$CFs?$CJ?$AA@ 00468ea8     logging.obj
 0002:00000ec0       ??_C@_0BN@CBGBOOME@?5on?5behalf?5of?5downstream?5?$CD?$CFu?$AA@ 00468ec0     logging.obj
 0002:00000ee0       ??_C@_05DNDNCJEB@?5?$CI?$CFs?$CJ?$AA@ 00468ee0     logging.obj
 0002:00000ee8       ??_C@_02PCIJFNDE@?$AN?6?$AA@ 00468ee8     logging.obj
 0002:00000eec       ??_C@_0BC@LGPAMIPH@?$CFY?9?$CFm?9?$CFd?5?$CFH?3?$CFM?3?$CFS?$AA@ 00468eec     logging.obj
 0002:00000f00       ??_C@_0BE@DONOENMC@?$CFs?5raw?5data?5at?5?$CFs?$AN?6?$AA@ 00468f00     logging.obj
 0002:00000f14       ??_C@_01LKDEMHDF@s?$AA@    00468f14     logging.obj
 0002:00000f18       ??_C@_0BJ@EFMALBIA@?5?5?$CI?$CFzu?5byte?$CFs?5omitted?$CJ?$AN?6?$AA@ 00468f18     logging.obj
 0002:00000f34       ??_C@_0N@OEKPCOII@?5?5?$CF08zx?$CF?$CKs?$AN?6?$AA@ 00468f34     logging.obj
 0002:00000f44       ??_C@_02BAHDIOLJ@XX?$AA@   00468f44     logging.obj
 0002:00000f48       ??_C@_04NOJCDH@?$CF02x?$AA@ 00468f48     logging.obj
 0002:00000f50       ??_C@_02FFEBEEPL@?$CFY?$AA@ 00468f50     logging.obj
 0002:00000f54       ??_C@_02OOGLLHAM@?$CFm?$AA@ 00468f54     logging.obj
 0002:00000f58       ??_C@_02DPKJAMEF@?$CFd?$AA@ 00468f58     logging.obj
 0002:00000f5c       ??_C@_06NDFCBELD@?$CFH?$CFM?$CFS?$AA@ 00468f5c     logging.obj
 0002:00000fc0       ??_C@_0N@DDNPCALO@main?5channel?$AA@ 00468fc0     mainchan.obj
 0002:00000fd0       ??_C@_1BM@ILFNPLKD@?$AA?4?$AA?4?$AA?2?$AAm?$AAa?$AAi?$AAn?$AAc?$AAh?$AAa?$AAn?$AA?4?$AAc?$AA?$AA@ 00468fd0     mainchan.obj
 0002:00000ff0       ??_C@_1EA@BLNALFEN@?$AAc?$AAh?$AAa?$AAn?$AA?9?$AA?$DO?$AAv?$AAt?$AA?5?$AA?$DN?$AA?$DN?$AA?5?$AA?$CG?$AAm?$AAa?$AAi?$AAn?$AAc?$AAh?$AAa?$AAn?$AA_?$AAc?$AAh?$AAa?$AAn?$AAn?$AAe?$AAl?$AAv?$AAt?$AA?$AA@ 00468ff0     mainchan.obj
 0002:00001030       ??_C@_0BE@HFBJICFG@Opened?5main?5channel?$AA@ 00469030     mainchan.obj
 0002:00001044       ??_C@_0DP@EPJNCDJO@X11?5forwarding?5not?5enabled?3?5unab@ 00469044     mainchan.obj
 0002:00001084       ??_C@_0BO@HIHEGAAJ@Sent?5?$CFd?5environment?5variables?$AA@ 00469084     mainchan.obj
 0002:000010a4       ??_C@_0BH@PGFPBGIN@X11?5forwarding?5enabled?$AA@ 004690a4     mainchan.obj
 0002:000010bc       ??_C@_0BH@EFJJEGKG@X11?5forwarding?5refused?$AA@ 004690bc     mainchan.obj
 0002:000010d4       ??_C@_0BJ@MEGEDNKO@Agent?5forwarding?5enabled?$AA@ 004690d4     mainchan.obj
 0002:000010f0       ??_C@_0BJ@HHKCGNIF@Agent?5forwarding?5refused?$AA@ 004690f0     mainchan.obj
 0002:0000110c       ??_C@_0O@JMANKGDG@Allocated?5pty?$AA@ 0046910c     mainchan.obj
 0002:0000111c       ??_C@_0BP@EKKAENDO@Server?5refused?5to?5allocate?5pty?$AA@ 0046911c     mainchan.obj
 0002:0000113c       ??_C@_0CB@LLJPBHCJ@Server?5refused?5to?5allocate?5pty?$AN?6@ 0046913c     mainchan.obj
 0002:00001160       ??_C@_0CO@IEEHGPFK@Server?5refused?5to?5set?5environmen@ 00469160     mainchan.obj
 0002:00001190       ??_C@_0CL@GINABBJG@All?5environment?5variables?5succes@ 00469190     mainchan.obj
 0002:000011bc       ??_C@_0CC@PMCIAKHB@All?5environment?5variables?5refuse@ 004691bc     mainchan.obj
 0002:000011e0       ??_C@_0CO@JFFMBKPB@Server?5refused?5to?5set?5environmen@ 004691e0     mainchan.obj
 0002:00001210       ??_C@_0DC@OIIOIOKD@Server?5refused?5to?5set?5all?5enviro@ 00469210     mainchan.obj
 0002:00001244       ??_C@_0BI@EDCBOILC@Started?5a?5shell?1command?$AA@ 00469244     mainchan.obj
 0002:0000125c       ??_C@_0CM@BGEKHIMM@Primary?5command?5failed?$DL?5attempti@ 0046925c     mainchan.obj
 0002:00001288       ??_C@_0CI@OLBEMKMK@Server?5refused?5to?5start?5a?5shell?1@ 00469288     mainchan.obj
 0002:000012b0       ??_C@_0CI@BFKCLHOH@Server?5refused?5to?5open?5main?5chan@ 004692b0     mainchan.obj
 0002:000012d8       ??_C@_0BB@IHMOKBH@Sent?5EOF?5message?$AA@ 004692d8     mainchan.obj
 0002:000012ec       ??_C@_0BM@IIJJEMFA@Main?5session?5channel?5closed?$AA@ 004692ec     mainchan.obj
 0002:00001308       ??_C@_0CE@KHDPCFAF@Session?5sent?5command?5exit?5status@ 00469308     mainchan.obj
 0002:0000132c       ??_C@_0P@EHDBBIE@?5?$CIcore?5dumped?$CJ?$AA@ 0046932c     mainchan.obj
 0002:0000133c       ??_C@_02GFKOMOKH@?5?$CI?$AA@ 0046933c     mainchan.obj
 0002:00001340       ??_C@_01PKGAHCOL@?$CJ?$AA@ 00469340     mainchan.obj
 0002:00001344       ??_C@_0BP@BGPMIKGP@Session?5exited?5on?5?$CFs?$CFs?$CFs?$CF?4?$CKs?$CFs?$AA@ 00469344     mainchan.obj
 0002:00001364       ??_C@_0BL@KMIFKOIO@unrecognised?5signal?5?$CC?$CF?4?$CKs?$CC?$AA@ 00469364     mainchan.obj
 0002:00001380       ??_C@_09PACDMDNC@signal?5?$CFd?$AA@ 00469380     mainchan.obj
 0002:0000138c       ??_C@_05EMFLFCNO@Break?$AA@ 0046938c     mainchan.obj
 0002:00001394       ??_C@_0BD@IHBJPNFD@SIGINT?5?$CIInterrupt?$CJ?$AA@ 00469394     mainchan.obj
 0002:000013a8       ??_C@_0BE@FOOFEKIL@SIGTERM?5?$CITerminate?$CJ?$AA@ 004693a8     mainchan.obj
 0002:000013bc       ??_C@_0P@EIOPNBJC@SIGKILL?5?$CIKill?$CJ?$AA@ 004693bc     mainchan.obj
 0002:000013cc       ??_C@_0P@NJKLPAKK@SIGQUIT?5?$CIQuit?$CJ?$AA@ 004693cc     mainchan.obj
 0002:000013dc       ??_C@_0BA@KFLHJEOB@SIGHUP?5?$CIHangup?$CJ?$AA@ 004693dc     mainchan.obj
 0002:000013ec       ??_C@_0N@IKNKPMOI@More?5signals?$AA@ 004693ec     mainchan.obj
 0002:000013fc       ??_C@_07GHNLFNAM@SIGABRT?$AA@ 004693fc     mainchan.obj
 0002:00001404       ??_C@_07BMAEIDCH@SIGALRM?$AA@ 00469404     mainchan.obj
 0002:0000140c       ??_C@_06ONOHJOEH@SIGFPE?$AA@ 0046940c     mainchan.obj
 0002:00001414       ??_C@_06HBHKGPEM@SIGILL?$AA@ 00469414     mainchan.obj
 0002:0000141c       ??_C@_07LNAHJDEB@SIGPIPE?$AA@ 0046941c     mainchan.obj
 0002:00001424       ??_C@_07MIPHKCEO@SIGSEGV?$AA@ 00469424     mainchan.obj
 0002:0000142c       ??_C@_07CJEMDFG@SIGUSR1?$AA@ 0046942c     mainchan.obj
 0002:00001434       ??_C@_07CJLJJAJF@SIGUSR2?$AA@ 00469434     mainchan.obj
 0002:0000143c       ??_C@_03JMHEAPMO@INT?$AA@  0046943c     mainchan.obj
 0002:00001440       ??_C@_04HCGLACHA@TERM?$AA@ 00469440     mainchan.obj
 0002:00001448       ??_C@_04NFKOACKA@KILL?$AA@ 00469448     mainchan.obj
 0002:00001450       ??_C@_04GBOBDPBG@QUIT?$AA@ 00469450     mainchan.obj
 0002:00001458       ??_C@_03FANHOBDO@HUP?$AA@  00469458     mainchan.obj
 0002:0000145c       ??_C@_04NMLMILCD@ABRT?$AA@ 0046945c     mainchan.obj
 0002:00001464       ??_C@_04KHGDFFAI@ALRM?$AA@ 00469464     mainchan.obj
 0002:0000146c       ??_C@_03IBHGLCPC@FPE?$AA@  0046946c     mainchan.obj
 0002:00001470       ??_C@_03BNOLEDPJ@ILL?$AA@  00469470     mainchan.obj
 0002:00001474       ??_C@_04GGAEFGO@PIPE?$AA@  00469474     mainchan.obj
 0002:0000147c       ??_C@_04HDJAHEGB@SEGV?$AA@ 0046947c     mainchan.obj
 0002:00001484       ??_C@_04LJPDBFHJ@USR1?$AA@ 00469484     mainchan.obj
 0002:0000148c       ??_C@_04JCNOEGLK@USR2?$AA@ 0046948c     mainchan.obj
 0002:00001494       ??_C@_0BC@NNMLKAOO@Sent?5signal?5SIG?$CFs?$AA@ 00469494     mainchan.obj
 0002:000014a8       ??_C@_1BI@OGPCMFEE@?$AA?4?$AA?4?$AA?2?$AAm?$AAe?$AAm?$AAo?$AAr?$AAy?$AA?4?$AAc?$AA?$AA@ 004694a8     memory.obj
 0002:000014c0       ??_C@_1BI@CNOLHJLA@?$AAe?$AAl?$AAt?$AAs?$AAi?$AAz?$AAe?$AA?5?$AA?$DO?$AA?5?$AA0?$AA?$AA@ 004694c0     memory.obj
 0002:000014d8       ??_C@_1CG@BCBMGELK@?$AAo?$AAl?$AAd?$AAs?$AAi?$AAz?$AAe?$AA?5?$AA?$DM?$AA?$DN?$AA?5?$AAm?$AAa?$AAx?$AAs?$AAi?$AAz?$AAe?$AA?$AA@ 004694d8     memory.obj
 0002:00001500       ??_C@_1CE@MANIAPO@?$AAo?$AAl?$AAd?$AAl?$AAe?$AAn?$AA?5?$AA?$DM?$AA?$DN?$AA?5?$AAm?$AAa?$AAx?$AAs?$AAi?$AAz?$AAe?$AA?$AA@ 00469500     memory.obj
 0002:00001524       ??_C@_1DK@NCGJAGIA@?$AAe?$AAx?$AAt?$AAr?$AAa?$AAl?$AAe?$AAn?$AA?5?$AA?$DM?$AA?$DN?$AA?5?$AAm?$AAa?$AAx?$AAs?$AAi?$AAz?$AAe?$AA?5?$AA?9?$AA?5?$AAo?$AAl?$AAd?$AAl?$AAe?$AAn?$AA?$AA@ 00469524     memory.obj
 0002:00001560       ??_C@_0BI@DJLCIJJD@0123456789abcdefABCDEF?3?$AA@ 00469560     misc.obj
 0002:00001578       ??_C@_0EC@FGCAEFNK@0123456789ABCDEFGHIJKLMNOPQRSTUV@ 00469578     misc.obj
 0002:000015bc       ??_C@_0M@PKLBOLOE@x86?5Windows?$AA@ 004695bc     misc.obj
 0002:000015c8       ??_C@_0BK@PLMHHLEL@Build?5platform?3?5?$CFd?9bit?5?$CFs?$AA@ 004695c8     misc.obj
 0002:000015e4       ??_C@_0N@COLANHDG@?$CFsCompiler?3?5?$AA@ 004695e4     misc.obj
 0002:000015f4       ??_C@_0O@HLNFDAGJ@Visual?5Studio?$AA@ 004695f4     misc.obj
 0002:00001604       ??_C@_0N@MOHJAAAB@?52015?5?$CI14?40?$CJ?$AA@ 00469604     misc.obj
 0002:00001614       ??_C@_0O@HALHIHGD@?0?5_MSC_VER?$DN?$CFd?$AA@ 00469614     misc.obj
 0002:00001624       ??_C@_03ICICOMAL@yes?$AA@  00469624     misc.obj
 0002:00001628       ??_C@_02KAJCLHKP@no?$AA@   00469628     misc.obj
 0002:0000162c       ??_C@_0BO@NLKCLNAI@?$CFsEmbedded?5HTML?5Help?5file?3?5?$CFs?$AA@ 0046962c     misc.obj
 0002:0000164c       ??_C@_0BE@NBANNANG@?$CFsSource?5commit?3?5?$CFs?$AA@ 0046964c     misc.obj
 0002:00001660       ??_C@_0O@NALGGDJF@Out?5of?5memory?$AA@ 00469660     misc.obj
 0002:00001670       ??_C@_1BG@DLGFDEC@?$AA?4?$AA?4?$AA?2?$AAm?$AAp?$AAi?$AAn?$AAt?$AA?4?$AAc?$AA?$AA@ 00469670     mpint.obj
 0002:00001688       ??_C@_15IKCLKIFD@?$AAn?$AAw?$AA?$AA@ 00469688     mpint.obj
 0002:00001690       ??_C@_1CC@PDPGMCFB@?$AAx?$AA0?$AA?9?$AA?$DO?$AAn?$AAw?$AA?5?$AA?$DN?$AA?$DN?$AA?5?$AAx?$AA1?$AA?9?$AA?$DO?$AAn?$AAw?$AA?$AA@ 00469690     mpint.obj
 0002:000016b8       ??_C@_1EC@JCINCOAC@?$AAd?$AAe?$AAc?$AAi?$AAm?$AAa?$AAl?$AA?4?$AAl?$AAe?$AAn?$AA?5?$AA?$DM?$AA?5?$AA?$CI?$AA?$HO?$AA?$CI?$AAs?$AAi?$AAz?$AAe?$AA_?$AAt?$AA?$CJ?$AA0?$AA?$CJ?$AA?5?$AA?1?$AA?5?$AA1?$AA9?$AA6@ 004696b8     mpint.obj
 0002:000016fc       ??_C@_1DI@NBGMJNJD@?$AAh?$AAe?$AAx?$AA?4?$AAl?$AAe?$AAn?$AA?5?$AA?$DM?$AA?$DN?$AA?5?$AA?$CI?$AA?$HO?$AA?$CI?$AAs?$AAi?$AAz?$AAe?$AA_?$AAt?$AA?$CJ?$AA0?$AA?$CJ?$AA?5?$AA?1?$AA?5?$AA4?$AA?$AA@ 004696fc     mpint.obj
 0002:00001734       ??_C@_1BK@PMKBAOGP@?$AAw?$AAo?$AAr?$AAd?$AA?5?$AA?$DM?$AA?5?$AAx?$AA?9?$AA?$DO?$AAn?$AAw?$AA?$AA@ 00469734     mpint.obj
 0002:00001750       ??_C@_1BO@FPFHOAGI@?$AAb?$AAi?$AAt?$AAs?$AA?5?$AA?$DM?$AA?5?$AA0?$AAx?$AA1?$AA0?$AA0?$AA0?$AA0?$AA?$AA@ 00469750     mpint.obj
 0002:00001770       ??_C@_1CA@EHIIJAKE@?$AAl?$AAe?$AAn?$AA?5?$AA?$DM?$AA?$DN?$AA?5?$AAp?$AAo?$AAo?$AAl?$AA?9?$AA?$DO?$AAn?$AAw?$AA?$AA@ 00469770     mpint.obj
 0002:00001790       ??_C@_1O@KBGOBLBB@?$AA?$CB?$AAc?$AAa?$AAr?$AAr?$AAy?$AA?$AA@ 00469790     mpint.obj
 0002:000017a0       ??_C@_1FO@LGKPJJAD@?$AAs?$AAc?$AAr?$AAa?$AAt?$AAc?$AAh?$AA?4?$AAn?$AAw?$AA?5?$AA?$DO?$AA?$DN?$AA?5?$AAm?$AAp?$AA_?$AAm?$AAu?$AAl?$AA_?$AAs?$AAc?$AAr?$AAa?$AAt?$AAc?$AAh?$AAs?$AAp?$AAa?$AAc@ 004697a0     mpint.obj
 0002:00001800       ??_C@_1BE@OCENCALB@?$AAx?$AA?9?$AA?$DO?$AAn?$AAw?$AA?5?$AA?$DO?$AA?5?$AA0?$AA?$AA@ 00469800     mpint.obj
 0002:00001814       ??_C@_1BI@DMHMBBIJ@?$AAx?$AA?9?$AA?$DO?$AAw?$AA?$FL?$AA0?$AA?$FN?$AA?5?$AA?$CG?$AA?5?$AA1?$AA?$AA@ 00469814     mpint.obj
 0002:0000182c       ??_C@_1M@IIPNAHGM@?$AAp?$AA?5?$AA?$DO?$AA?5?$AA0?$AA?$AA@ 0046982c     mpint.obj
 0002:00001838       ??_C@_1CA@BJLPNIIK@?$AAx?$AA?9?$AA?$DO?$AAn?$AAw?$AA?5?$AA?$DM?$AA?$DN?$AA?5?$AAm?$AAc?$AA?9?$AA?$DO?$AAr?$AAw?$AA?$AA@ 00469838     mpint.obj
 0002:00001858       ??_C@_1CA@OIGFNNCA@?$AAy?$AA?9?$AA?$DO?$AAn?$AAw?$AA?5?$AA?$DM?$AA?$DN?$AA?5?$AAm?$AAc?$AA?9?$AA?$DO?$AAr?$AAw?$AA?$AA@ 00469858     mpint.obj
 0002:00001878       ??_C@_1CE@LKLOMEKL@?$AAx?$AA?9?$AA?$DO?$AAn?$AAw?$AA?5?$AA?$DM?$AA?$DN?$AA?5?$AA2?$AA?$CK?$AAm?$AAc?$AA?9?$AA?$DO?$AAr?$AAw?$AA?$AA@ 00469878     mpint.obj
 0002:0000189c       ??_C@_1CA@CMFDAHKD@?$AAm?$AAo?$AAd?$AAu?$AAl?$AAu?$AAs?$AA?9?$AA?$DO?$AAn?$AAw?$AA?5?$AA?$DO?$AA?5?$AA0?$AA?$AA@ 0046989c     mpint.obj
 0002:000018bc       ??_C@_1CE@FDPDAOJA@?$AAm?$AAo?$AAd?$AAu?$AAl?$AAu?$AAs?$AA?9?$AA?$DO?$AAw?$AA?$FL?$AA0?$AA?$FN?$AA?5?$AA?$CG?$AA?5?$AA1?$AA?$AA@ 004698bc     mpint.obj
 0002:000018e0       ??_C@_1FA@LPLBDJBP@?$AAm?$AAp?$AA_?$AAc?$AAm?$AAp?$AA_?$AAe?$AAq?$AA?$CI?$AAa?$AA?0?$AA?5?$AAa?$AA_?$AAi?$AAn?$AA?$CJ?$AA?5?$AA?$CG?$AA?5?$AAm?$AAp?$AA_?$AAc?$AAm?$AAp?$AA_?$AAe?$AAq?$AA?$CI?$AAb@ 004698e0     mpint.obj
 0002:00001930       ??_C@_1CK@CHHMAJLF@?$AA?$CB?$AAm?$AAp?$AA_?$AAe?$AAq?$AA_?$AAi?$AAn?$AAt?$AAe?$AAg?$AAe?$AAr?$AA?$CI?$AAd?$AA?0?$AA?5?$AA0?$AA?$CJ?$AA?$AA@ 00469930     mpint.obj
 0002:00001960       ??_C@_1FA@EMKFMKIH@?$AAo?$AAu?$AAt?$AAp?$AAu?$AAt?$AA_?$AAb?$AAi?$AAt?$AA_?$AAi?$AAn?$AAd?$AAe?$AAx?$AA?5?$AA?$CF?$AA?5?$AAB?$AAI?$AAG?$AAN?$AAU?$AAM?$AA_?$AAI?$AAN?$AAT?$AA_?$AAB?$AAI@ 00469960     mpint.obj
 0002:000019b0       ??_C@_1DC@JPFGKKME@?$AA?$CB?$AAm?$AAp?$AA_?$AAc?$AAm?$AAp?$AA_?$AAh?$AAs?$AA?$CI?$AAr?$AAe?$AAm?$AAa?$AAi?$AAn?$AAd?$AAe?$AAr?$AA?0?$AA?5?$AAd?$AA?$CJ?$AA?$AA@ 004699b0     mpint.obj
 0002:000019f8       _nullplug                  004699f8     nullplug.obj
 0002:000019fc       _GSS_MECH_KRB5             004699fc     pgssapi.obj
 0002:00001a38       ??_C@_0L@ILDJNAMO@?$CK?$IGH?$IG?w?$BC?$AB?$AC?$AB?$AB?$AA@ 00469a38     pgssapi.obj
 0002:00001a44       ??_C@_0L@KABEIDAN@?$CK?$IGH?$IG?w?$BC?$AB?$AC?$AB?$AC?$AA@ 00469a44     pgssapi.obj
 0002:00001a50       ??_C@_0L@LJAPLCEM@?$CK?$IGH?$IG?w?$BC?$AB?$AC?$AB?$AD?$AA@ 00469a50     pgssapi.obj
 0002:00001a5c       ??_C@_06EFHFGJEI@?$CL?$AG?$AB?$AF?$AG?$AC?$AA@ 00469a5c     pgssapi.obj
 0002:00001a64       ??_C@_0L@PGEOCEIL@?$CK?$IGH?$IG?w?$BC?$AB?$AC?$AB?$AE?$AA@ 00469a64     pgssapi.obj
 0002:00001a70       ??_C@_06FMGOFIAJ@?$CL?$AG?$AB?$AF?$AG?$AD?$AA@ 00469a70     pgssapi.obj
 0002:00001a78       ??_C@_06BDCPMOMO@?$CL?$AG?$AB?$AF?$AG?$AE?$AA@ 00469a78     pgssapi.obj
 0002:00001a80       ??_C@_09NLECEHAP@?$CK?$IGH?$IG?w?$BC?$AB?$AC?$AC?$AA@ 00469a80     pgssapi.obj
 0002:00001b10       ??_C@_0BD@HMMJGDE@forwarding?5from?5?$CFs?$AA@ 00469b10     portfwd.obj
 0002:00001b24       ??_C@_0L@FNHHKHJK@forwarding?$AA@ 00469b24     portfwd.obj
 0002:00001b30       ??_C@_0M@CDHNGIPM@?$CFu?4?$CFu?4?$CFu?4?$CFu?$AA@ 00469b30     portfwd.obj
 0002:00001b3c       ??_C@_1BK@EJJBBFKE@?$AA?4?$AA?4?$AA?2?$AAp?$AAo?$AAr?$AAt?$AAf?$AAw?$AAd?$AA?4?$AAc?$AA?$AA@ 00469b3c     portfwd.obj
 0002:00001b58       ??_C@_1BO@DBHKKDMF@?$AAi?$AAp?$AAv?$AA6?$AA?4?$AAl?$AAe?$AAn?$AA?5?$AA?$DN?$AA?$DN?$AA?5?$AA1?$AA6?$AA?$AA@ 00469b58     portfwd.obj
 0002:00001b78       ??_C@_0CI@HJHCONDA@?$CF04x?3?$CF04x?3?$CF04x?3?$CF04x?3?$CF04x?3?$CF04x?3?$CF0@ 00469b78     portfwd.obj
 0002:00001ba0       ??_C@_1FG@BGEBNNDC@?$AAf?$AAa?$AAl?$AAs?$AAe?$AA?5?$AA?$CG?$AA?$CG?$AA?5?$AA?$CC?$AAT?$AAh?$AAe?$AAs?$AAe?$AA?5?$AAc?$AAa?$AAs?$AAe?$AA?5?$AAv?$AAa?$AAl?$AAu?$AAe?$AAs?$AA?5?$AAc?$AAa?$AAn?$AAn@ 00469ba0     portfwd.obj
 0002:00001bf8       ??_C@_1FA@LGPPGDDD@?$AAp?$AAf?$AAc?$AAh?$AAa?$AAn?$AA?9?$AA?$DO?$AAv?$AAt?$AA?5?$AA?$DN?$AA?$DN?$AA?5?$AA?$CG?$AAP?$AAo?$AAr?$AAt?$AAF?$AAo?$AAr?$AAw?$AAa?$AAr?$AAd?$AAi?$AAn?$AAg?$AA_?$AAc?$AAh@ 00469bf8     portfwd.obj
 0002:00001c48       ??_C@_0BG@FMJABBMD@Forwarded?5port?5closed?$AA@ 00469c48     portfwd.obj
 0002:00001c60       ??_C@_1EM@EEKEMPLD@?$AAc?$AAh?$AAa?$AAn?$AA?9?$AA?$DO?$AAv?$AAt?$AA?5?$AA?$DN?$AA?$DN?$AA?5?$AA?$CG?$AAP?$AAo?$AAr?$AAt?$AAF?$AAo?$AAr?$AAw?$AAa?$AAr?$AAd?$AAi?$AAn?$AAg?$AA_?$AAc?$AAh?$AAa?$AAn@ 00469c60     portfwd.obj
 0002:00001cac       ??_C@_02LMMGGCAJ@?3?5?$AA@ 00469cac     portfwd.obj
 0002:00001cb0       ??_C@_0CL@LIEOFAGJ@Forwarded?5connection?5refused?5by?5@ 00469cb0     portfwd.obj
 0002:00001cdc       ??_C@_0CL@OAHHEDDM@Service?5lookup?5failed?5for?5source@ 00469cdc     portfwd.obj
 0002:00001d08       ??_C@_01JLIPDDHJ@?3?$AA@   00469d08     portfwd.obj
 0002:00001d0c       ??_C@_0DA@BGECCLDL@Service?5lookup?5failed?5for?5destin@ 00469d0c     portfwd.obj
 0002:00001d3c       ??_C@_05IDKHKMLA@local?$AA@ 00469d3c     portfwd.obj
 0002:00001d44       ??_C@_06IMIHEKN@remote?$AA@ 00469d44     portfwd.obj
 0002:00001d4c       ??_C@_07OBLKMMON@dynamic?$AA@ 00469d4c     portfwd.obj
 0002:00001d54       ??_C@_0BP@OOEDKOCL@?$CFs?5port?5forwarding?5from?5?$CFs?$CFs?$CFd?$AA@ 00469d54     portfwd.obj
 0002:00001d74       ??_C@_0M@OIOIHPP@?$CFs?5to?5?$CFs?3?$CFd?$AA@ 00469d74     portfwd.obj
 0002:00001d80       ??_C@_0O@FPBFNNNH@Cancelling?5?$CFs?$AA@ 00469d80     portfwd.obj
 0002:00001d90       ??_C@_01ODHLEDKK@?$CI?$AA@ 00469d90     portfwd.obj
 0002:00001d94       ??_C@_0N@JKMAFJEE@?$CFs?$CFs?$CFs?$CFs?$CFd?$CFs?$AA@ 00469d94     portfwd.obj
 0002:00001da4       ??_C@_0M@GBNCOFKO@?$CFs?3?$CFs?$CFs?$CFd?$CFs?$AA@ 00469da4     portfwd.obj
 0002:00001db0       ??_C@_09FIOGNGMI@?5failed?3?5?$AA@ 00469db0     portfwd.obj
 0002:00001dbc       ??_C@_05KGMLFMJN@IPv4?5?$AA@ 00469dbc     portfwd.obj
 0002:00001dc4       ??_C@_05KFEPIIPD@IPv6?5?$AA@ 00469dc4     portfwd.obj
 0002:00001dcc       ??_C@_0CF@NHJAMJBJ@Local?5?$CFsport?5?$CFs?5forwarding?5to?5?$CFs@ 00469dcc     portfwd.obj
 0002:00001df4       ??_C@_0CN@FMCCPJAP@Local?5?$CFsport?5?$CFs?5SOCKS?5dynamic?5fo@ 00469df4     portfwd.obj
 0002:00001e24       ??_C@_09IPAEKDAI@localhost?$AA@ 00469e24     portfwd.obj
 0002:00001e30       ??_C@_0CK@DGMHOJIG@Duplicate?5remote?5port?5forwarding@ 00469e30     portfwd.obj
 0002:00001e5c       ??_C@_0CI@LPFOCNO@Requesting?5remote?5port?5?$CFs?5forwar@ 00469e5c     portfwd.obj
 0002:00001eb8       ??_C@_07KGMNIMLD@?5?$CIIPv4?$CJ?$AA@ 00469eb8     proxy.obj
 0002:00001ec0       ??_C@_07KFEJFINN@?5?$CIIPv6?$CJ?$AA@ 00469ec0     proxy.obj
 0002:00001ec8       ??_C@_0BO@HKJJGADA@Looking?5up?5host?5?$CC?$CFs?$CC?$CFs?5for?5?$CFs?$AA@ 00469ec8     proxy.obj
 0002:00001ee8       ??_C@_0CO@HOGLODGH@Leaving?5host?5lookup?5to?5proxy?5of?5@ 00469ee8     proxy.obj
 0002:00001f18       ??_C@_04MEDPFIKH@HTTP?$AA@ 00469f18     proxy.obj
 0002:00001f20       ??_C@_07PAHNFOC@SOCKS?54?$AA@ 00469f20     proxy.obj
 0002:00001f28       ??_C@_07BGBMOEKD@SOCKS?55?$AA@ 00469f28     proxy.obj
 0002:00001f30       ??_C@_06GPEENMIJ@Telnet?$AA@ 00469f30     proxy.obj
 0002:00001f38       ??_C@_0CC@CHIEJHHN@Proxy?5error?3?5Unknown?5proxy?5metho@ 00469f38     proxy.obj
 0002:00001f5c       ??_C@_0CP@PLLHJOLH@Will?5use?5?$CFs?5proxy?5at?5?$CFs?3?$CFd?5to?5co@ 00469f5c     proxy.obj
 0002:00001f8c       ??_C@_05BFHPMDA@proxy?$AA@ 00469f8c     proxy.obj
 0002:00001f94       ??_C@_0CP@GFIKKOPL@Proxy?5error?3?5Unable?5to?5resolve?5p@ 00469f94     proxy.obj
 0002:00001fc4       ??_C@_0CF@BLDCNBEG@Connecting?5to?5?$CFs?5proxy?5at?5?$CFs?5por@ 00469fc4     proxy.obj
 0002:00001fec       ??_C@_0CG@CPJGCIDJ@CONNECT?5?$CFs?3?$CFi?5HTTP?11?41?$AN?6Host?3?5?$CFs@ 00469fec     proxy.obj
 0002:00002014       ??_C@_05CCMOGDN@?$CFs?3?$CFs?$AA@ 0046a014     proxy.obj
 0002:0000201c       ??_C@_0BM@FIOMLIMJ@Proxy?9Authorization?3?5Basic?5?$AA@ 0046a01c     proxy.obj
 0002:00002038       ??_C@_1BG@FDDNKKLG@?$AA?4?$AA?4?$AA?2?$AAp?$AAr?$AAo?$AAx?$AAy?$AA?4?$AAc?$AA?$AA@ 0046a038     proxy.obj
 0002:00002050       ??_C@_1BA@GMKHALLP@?$AAl?$AAe?$AAn?$AA?5?$AA?$DO?$AA?5?$AA0?$AA?$AA@ 0046a050     proxy.obj
 0002:00002060       ??_C@_0O@FCMLAEAK@HTTP?1?$CFi?4?$CFi?5?$CFn?$AA@ 0046a060     proxy.obj
 0002:00002070       ??_C@_0CG@DCGPPIJD@Proxy?5error?3?5HTTP?5response?5was?5a@ 0046a070     proxy.obj
 0002:00002098       ??_C@_0BA@DNMLDEBM@Proxy?5error?3?5?$CFs?$AA@ 0046a098     proxy.obj
 0002:000020a8       ??_C@_0CE@BIHKCDIA@Proxy?5error?3?5unexpected?5proxy?5er@ 0046a0a8     proxy.obj
 0002:000020cc       ??_C@_0DD@NJPCDHJC@Proxy?5error?3?5SOCKS?5version?54?5doe@ 0046a0cc     proxy.obj
 0002:00002100       ??_C@_0EG@HCDALBAJ@Proxy?5error?3?5SOCKS?5proxy?5respond@ 0046a100     proxy.obj
 0002:00002148       ??_C@_0DC@EMGNIPAC@Proxy?5error?3?5SOCKS?5server?5wanted@ 0046a148     proxy.obj
 0002:0000217c       ??_C@_0DH@PKGOJMHG@Proxy?5error?3?5Username?5and?5IDENTD@ 0046a17c     proxy.obj
 0002:000021b4       ??_C@_0DC@DJNHKOKE@Proxy?5error?3?5Error?5while?5communi@ 0046a1b4     proxy.obj
 0002:000021e8       ??_C@_0DF@FODBGJHO@Proxy?5error?3?5SOCKS?5proxy?5returne@ 0046a1e8     proxy.obj
 0002:00002220       ??_C@_0DL@NOOPLEPN@Proxy?5error?3?5SOCKS?5proxy?5did?5not@ 0046a220     proxy.obj
 0002:00002260       ??_C@_0EK@FGDFPEDC@Proxy?5error?3?5SOCKS?5password?5subn@ 0046a260     proxy.obj
 0002:000022ac       ??_C@_0DJ@PIHELBJP@Proxy?5error?3?5SOCKS?5proxy?5refused@ 0046a2ac     proxy.obj
 0002:000022e8       ??_C@_0EF@EENJHGFK@Proxy?5error?3?5SOCKS?55?5cannot?5supp@ 0046a2e8     proxy.obj
 0002:00002330       ??_C@_0DH@KDJCAPLN@Proxy?5error?3?5SOCKS?5proxy?5returne@ 0046a330     proxy.obj
 0002:00002368       ??_C@_0O@IGFHOHCM@Proxy?5error?3?5?$AA@ 0046a368     proxy.obj
 0002:00002378       ??_C@_0BN@PBCHBBPC@General?5SOCKS?5server?5failure?$AA@ 0046a378     proxy.obj
 0002:00002398       ??_C@_0CC@JOGFEKLK@Connection?5not?5allowed?5by?5rulese@ 0046a398     proxy.obj
 0002:000023bc       ??_C@_0BE@BCKBHKGP@Network?5unreachable?$AA@ 0046a3bc     proxy.obj
 0002:000023d0       ??_C@_0BB@BJPAGEMG@Host?5unreachable?$AA@ 0046a3d0     proxy.obj
 0002:000023e4       ??_C@_0BD@NPDMPPFP@Connection?5refused?$AA@ 0046a3e4     proxy.obj
 0002:000023f8       ??_C@_0M@CDHAHENJ@TTL?5expired?$AA@ 0046a3f8     proxy.obj
 0002:00002404       ??_C@_0BG@OIMEHCDM@Command?5not?5supported?$AA@ 0046a404     proxy.obj
 0002:0000241c       ??_C@_0BL@DHAHNDBK@Address?5type?5not?5supported?$AA@ 0046a41c     proxy.obj
 0002:00002438       ??_C@_0CB@OKKMDHPE@Unrecognised?5SOCKS?5error?5code?5?$CFd@ 0046a438     proxy.obj
 0002:0000245c       ??_C@_0DO@BMJANFCJ@Proxy?5error?3?5SOCKS?5proxy?5returne@ 0046a45c     proxy.obj
 0002:0000249c       ??_C@_0DE@KPEONOBG@Proxy?5error?3?5We?5don?8t?5support?5GS@ 0046a49c     proxy.obj
 0002:000024d0       ??_C@_0FD@PEHNLFO@Proxy?5error?3?5SOCKS?55?5authenticat@ 0046a4d0     proxy.obj
 0002:00002528       ??_C@_0FD@NKCOFPO@Proxy?5error?3?5SOCKS?55?5authenticat@ 0046a528     proxy.obj
 0002:00002580       ??_C@_0FD@HKOFFKHP@Proxy?5error?3?5Server?5chose?5userna@ 0046a580     proxy.obj
 0002:000025d4       ??_C@_0CE@BKJPCPBI@Proxy?5error?3?5Unexpected?5proxy?5er@ 0046a5d4     proxy.obj
 0002:000025f8       ??_C@_04OODOLJMA@host?$AA@ 0046a5f8     proxy.obj
 0002:00002600       ??_C@_04LPGMAPLE@port?$AA@ 0046a600     proxy.obj
 0002:00002608       ??_C@_04CCHAHKJA@user?$AA@ 0046a608     proxy.obj
 0002:00002610       ??_C@_04BBDAIEHH@pass?$AA@ 0046a610     proxy.obj
 0002:00002618       ??_C@_09BJOLDIDC@proxyhost?$AA@ 0046a618     proxy.obj
 0002:00002624       ??_C@_09EILJIOEG@proxyport?$AA@ 0046a624     proxy.obj
 0002:00002630       ??_C@_06MNBAJCJJ@?2x?$CF02X?$AA@ 0046a630     proxy.obj
 0002:00002638       ??_C@_0CB@BKFEEMHP@Sending?5Telnet?5proxy?5command?3?5?$CFs@ 0046a638     proxy.obj
 0002:0000265c       ??_C@_01DCLJPIOD@?$CB?$AA@ 0046a65c     psftp.obj
 0002:00002660       ??_C@_0BE@ECMMMDBA@run?5a?5local?5command?$AA@ 0046a660     psftp.obj
 0002:00002674       ??_C@_0DP@BCFDBGBB@?$DMcommand?$DO?6?5?5Runs?5a?5local?5command@ 0046a674     psftp.obj
 0002:000026b4       ??_C@_03MDONDFG@bye?$AA@   0046a6b4     psftp.obj
 0002:000026b8       ??_C@_0BJ@NAPLHOIC@finish?5your?5SFTP?5session?$AA@ 0046a6b8     psftp.obj
 0002:000026d4       ??_C@_0DO@JCILCJAP@?6?5?5Terminates?5your?5SFTP?5session?5@ 0046a6d4     psftp.obj
 0002:00002714       ??_C@_02ELLOPNDH@cd?$AA@   0046a714     psftp.obj
 0002:00002718       ??_C@_0CF@DPGILJLP@change?5your?5remote?5working?5direc@ 0046a718     psftp.obj
 0002:00002740       ??_C@_0LI@LGGKCMIF@?5?$FL?5?$DMnew?5working?5directory?$DO?5?$FN?6?5?5C@ 0046a740     psftp.obj
 0002:000027f8       ??_C@_05OCEJBCEE@chmod?$AA@ 0046a7f8     psftp.obj
 0002:00002800       ??_C@_0CC@EKCGNFPP@change?5file?5permissions?5and?5mode@ 0046a800     psftp.obj
 0002:00002828       ??_C@_0EHK@MPJLAHCM@?5?$DMmodes?$DO?5?$DMfilename?9or?9wildcard?$DO?5@ 0046a828     psftp.obj
 0002:00002ca4       ??_C@_05LBOHBHFK@close?$AA@ 0046aca4     psftp.obj
 0002:00002cac       ??_C@_0CP@NJCAKGCN@finish?5your?5SFTP?5session?5but?5do?5@ 0046acac     psftp.obj
 0002:00002ce0       ??_C@_0KM@GIGHLOFF@?6?5?5Terminates?5your?5SFTP?5session?0@ 0046ace0     psftp.obj
 0002:00002d8c       ??_C@_03ONKLGNNH@del?$AA@  0046ad8c     psftp.obj
 0002:00002d90       ??_C@_0CC@BFIPMBFP@delete?5files?5on?5the?5remote?5serve@ 0046ad90     psftp.obj
 0002:00002db8       ??_C@_0GB@FCJEMNCD@?5?$DMfilename?9or?9wildcard?$DO?5?$FL?5?$DMfilen@ 0046adb8     psftp.obj
 0002:00002e1c       ??_C@_06FOBLBEIN@delete?$AA@ 0046ae1c     psftp.obj
 0002:00002e24       ??_C@_03DAPAKLGM@dir?$AA@  0046ae24     psftp.obj
 0002:00002e28       ??_C@_0BC@JMBCFDHG@list?5remote?5files?$AA@ 0046ae28     psftp.obj
 0002:00002e40       ??_C@_0BBI@IBDMJEPA@?5?$FL?5?$DMdirectory?9name?$DO?5?$FN?1?$FL?5?$DMwildcar@ 0046ae40     psftp.obj
 0002:00002f58       ??_C@_04MKNBDEPB@exit?$AA@ 0046af58     psftp.obj
 0002:00002f60       ??_C@_03HNAFFKGA@get?$AA@  0046af60     psftp.obj
 0002:00002f64       ??_C@_05FCHBDPGJ@PSFTP?$AA@ 0046af64     psftp.obj
 0002:00002f6c       ??_C@_0DG@PAFCPEBK@download?5a?5file?5from?5the?5server?5@ 0046af6c     psftp.obj
 0002:00002fa8       ??_C@_0PI@CANKFCLO@?5?$FL?5?9r?5?$FN?5?$FL?5?9?9?5?$FN?5?$DMfilename?$DO?5?$FL?5?$DMloc@ 0046afa8     psftp.obj
 0002:000030a0       ??_C@_04PCJFHION@help?$AA@ 0046b0a0     psftp.obj
 0002:000030a8       ??_C@_09KANLDBBD@give?5help?$AA@ 0046b0a8     psftp.obj
 0002:000030b8       ??_C@_0LA@LMCJACLD@?5?$FL?5?$DMcommand?$DO?5?$FL?5?$DMcommand?$DO?5?4?4?4?5?$FN?5?$FN@ 0046b0b8     psftp.obj
 0002:00003168       ??_C@_03OEELLDIC@lcd?$AA@  0046b168     psftp.obj
 0002:0000316c       ??_C@_0BP@GLHIPGDO@change?5local?5working?5directory?$AA@ 0046b16c     psftp.obj
 0002:00003190       ??_C@_0JF@FADGBPPO@?5?$DMlocal?9directory?9name?$DO?6?5?5Change@ 0046b190     psftp.obj
 0002:00003228       ??_C@_04FOAPOCEE@lpwd?$AA@ 0046b228     psftp.obj
 0002:00003230       ??_C@_0BO@JHNLHOPG@print?5local?5working?5directory?$AA@ 0046b230     psftp.obj
 0002:00003250       ??_C@_0HN@ELFEDLLH@?6?5?5Print?5the?5local?5working?5direc@ 0046b250     psftp.obj
 0002:000032d0       ??_C@_02EFGBDOJM@ls?$AA@   0046b2d0     psftp.obj
 0002:000032d4       ??_C@_04PLMBMBJN@mget?$AA@ 0046b2d4     psftp.obj
 0002:000032dc       ??_C@_0CA@JHKLOJGC@download?5multiple?5files?5at?5once?$AA@ 0046b2dc     psftp.obj
 0002:00003300       ??_C@_0BDD@BMIHEGBE@?5?$FL?5?9r?5?$FN?5?$FL?5?9?9?5?$FN?5?$DMfilename?9or?9wild@ 0046b300     psftp.obj
 0002:00003434       ??_C@_05PKPOIPAL@mkdir?$AA@ 0046b434     psftp.obj
 0002:0000343c       ??_C@_0CI@OENJHIAK@create?5directories?5on?5the?5remote@ 0046b43c     psftp.obj
 0002:00003468       ??_C@_0GF@CGKDPDHG@?5?$DMdirectory?9name?$DO?5?$FL?5?$DMdirectory?9n@ 0046b468     psftp.obj
 0002:000034d0       ??_C@_04CKCJANML@mput?$AA@ 0046b4d0     psftp.obj
 0002:000034d8       ??_C@_0BO@CGFAFIBE@upload?5multiple?5files?5at?5once?$AA@ 0046b4d8     psftp.obj
 0002:000034f8       ??_C@_0BCP@IJJILLCA@?5?$FL?5?9r?5?$FN?5?$FL?5?9?9?5?$FN?5?$DMfilename?9or?9wild@ 0046b4f8     psftp.obj
 0002:00003628       ??_C@_02DJNEKAOO@mv?$AA@   0046b628     psftp.obj
 0002:0000362c       ??_C@_0CM@DILNCBPM@move?5or?5rename?5file?$CIs?$CJ?5on?5the?5re@ 0046b62c     psftp.obj
 0002:00003658       ??_C@_0BLA@LLAJPAPD@?5?$DMsource?$DO?5?$FL?5?$DMsource?$DO?4?4?4?5?$FN?5?$DMdesti@ 0046b658     psftp.obj
 0002:00003808       ??_C@_04PMOCAHAA@open?$AA@ 0046b808     psftp.obj
 0002:00003858       _share_can_be_downstream   0046b858     psftp.obj
 0002:00003859       _share_can_be_upstream     0046b859     psftp.obj
 0002:0000385c       _appname                   0046b85c     psftp.obj
 0002:00003860       ??_C@_0BC@PEFHPPON@connect?5to?5a?5host?$AA@ 0046b860     psftp.obj
 0002:00003878       ??_C@_0IP@NHGONDDM@?5?$FL?$DMuser?$DO?$EA?$FN?$DMhostname?$DO?5?$FL?$DMport?$DO?$FN?6?5?5@ 0046b878     psftp.obj
 0002:00003908       ??_C@_03KMONJGDG@put?$AA@  0046b908     psftp.obj
 0002:0000390c       ??_C@_0DE@KIPNKOBB@upload?5a?5file?5from?5your?5local?5ma@ 0046b90c     psftp.obj
 0002:00003940       ??_C@_0PG@EKGFICGF@?5?$FL?5?9r?5?$FN?5?$FL?5?9?9?5?$FN?5?$DMfilename?$DO?5?$FL?5?$DMrem@ 0046b940     psftp.obj
 0002:00003a38       ??_C@_03OFKLFAAJ@pwd?$AA@  0046ba38     psftp.obj
 0002:00003a3c       ??_C@_0CE@KAEFOCGK@print?5your?5remote?5working?5direct@ 0046ba3c     psftp.obj
 0002:00003a60       ??_C@_0EG@HDDIPJCD@?6?5?5Print?5the?5current?5remote?5work@ 0046ba60     psftp.obj
 0002:00003aa8       ??_C@_04KNNLNNGO@quit?$AA@ 0046baa8     psftp.obj
 0002:00003ab0       ??_C@_05PKLLHACI@reget?$AA@ 0046bab0     psftp.obj
 0002:00003ab8       ??_C@_0BL@ELFOCHMA@continue?5downloading?5files?$AA@ 0046bab8     psftp.obj
 0002:00003ad8       ??_C@_0BBJ@PLFKGDKK@?5?$FL?5?9r?5?$FN?5?$FL?5?9?9?5?$FN?5?$DMfilename?$DO?5?$FL?5?$DMloc@ 0046bad8     psftp.obj
 0002:00003bf4       ??_C@_03KKOPAHBG@ren?$AA@  0046bbf4     psftp.obj
 0002:00003bf8       ??_C@_06LMEAOBLB@rename?$AA@ 0046bbf8     psftp.obj
 0002:00003c00       ??_C@_05CLFDLMHO@reput?$AA@ 0046bc00     psftp.obj
 0002:00003c08       ??_C@_0BJ@GILCCIFG@continue?5uploading?5files?$AA@ 0046bc08     psftp.obj
 0002:00003c28       ??_C@_0BBI@MOBDPGLF@?5?$FL?5?9r?5?$FN?5?$FL?5?9?9?5?$FN?5?$DMfilename?$DO?5?$FL?5?$DMrem@ 0046bc28     psftp.obj
 0002:00003d40       ??_C@_02IHJIIPDJ@rm?$AA@   0046bd40     psftp.obj
 0002:00003d44       ??_C@_05IHDOMKOF@rmdir?$AA@ 0046bd44     psftp.obj
 0002:00003d4c       ??_C@_0CI@JAJHPEPI@remove?5directories?5on?5the?5remote@ 0046bd4c     psftp.obj
 0002:00003d78       ??_C@_0NH@FOEDPDBI@?5?$DMdirectory?9name?$DO?5?$FL?5?$DMdirectory?9n@ 0046bd78     psftp.obj
 0002:00003e50       ??_C@_0DB@HKKNPFJ@did?5not?5receive?5SFTP?5response?5pa@ 0046be50     psftp.obj
 0002:00003e84       ??_C@_0DK@IGMAFOKA@unable?5to?5understand?5SFTP?5respon@ 0046be84     psftp.obj
 0002:00003ec0       ??_C@_01KMDKNFGN@?1?$AA@   0046bec0     psftp.obj
 0002:00003ec4       ??_C@_02DIKICOBM@?1?4?$AA@ 0046bec4     psftp.obj
 0002:00003ec8       ??_C@_03BPDOPNEN@?1?4?4?$AA@ 0046bec8     psftp.obj
 0002:00003ecc       ??_C@_0DG@JAIAEKCF@psftp?3?5not?5connected?5to?5a?5host?$DL?5@ 0046becc     psftp.obj
 0002:00003f04       ??_C@_0BN@DNBHCIHM@?$CFs?3?5Cannot?5create?5directory?6?$AA@ 0046bf04     psftp.obj
 0002:00003f24       ??_C@_0CC@KBHBKFIC@?$CFs?3?5unable?5to?5open?5directory?3?5?$CFs@ 0046bf24     psftp.obj
 0002:00003f48       ??_C@_0BL@GCAOMDCN@?$CFs?3?5reading?5directory?3?5?$CFs?6?$AA@ 0046bf48     psftp.obj
 0002:00003f64       ??_C@_01LFCBOECM@?4?$AA@   0046bf64     psftp.obj
 0002:00003f68       ??_C@_02DJGKEECL@?4?4?$AA@ 0046bf68     psftp.obj
 0002:00003f6c       ??_C@_0DO@HKFBPDKN@ignoring?5potentially?5dangerous?5s@ 0046bf6c     psftp.obj
 0002:00003fac       ??_C@_0BH@PNAOKLEK@?$CFs?3?5open?5for?5read?3?5?$CFs?6?$AA@ 0046bfac     psftp.obj
 0002:00003fc4       ??_C@_0BK@OKBNGNEF@local?3?5unable?5to?5open?5?$CFs?6?$AA@ 0046bfc4     psftp.obj
 0002:00003fe0       ??_C@_0CL@OJPAHMHM@reget?3?5cannot?5restart?5?$CFs?5?9?5file?5@ 0046bfe0     psftp.obj
 0002:0000400c       ??_C@_0CJ@CBOLKBPP@reget?3?5restarting?5at?5file?5positi@ 0046c00c     psftp.obj
 0002:00004038       ??_C@_0BH@HGKDAHHI@remote?3?$CFs?5?$DN?$DO?5local?3?$CFs?6?$AA@ 0046c038     psftp.obj
 0002:00004050       ??_C@_0BJ@GLIGGLNC@error?5while?5reading?3?5?$CFs?6?$AA@ 0046c050     psftp.obj
 0002:0000406c       ??_C@_0CA@EPCDLGHE@error?5while?5writing?5local?5file?6?$AA@ 0046c06c     psftp.obj
 0002:0000408c       ??_C@_0BK@FMODFGKN@?$CFs?3?5create?5directory?3?5?$CFs?6?$AA@ 0046c08c     psftp.obj
 0002:000040a8       ??_C@_0BI@BFCLNPDN@?$CFs?3?5open?5for?5write?3?5?$CFs?6?$AA@ 0046c0a8     psftp.obj
 0002:000040c0       ??_C@_0BF@FHCDIAKE@read?5size?5of?5?$CFs?3?5?$CFs?6?$AA@ 0046c0c0     psftp.obj
 0002:000040d8       ??_C@_0CF@DEAPPGKA@read?5size?5of?5?$CFs?3?5size?5was?5not?5gi@ 0046c0d8     psftp.obj
 0002:00004100       ??_C@_0CJ@JFCBMJJK@reput?3?5restarting?5at?5file?5positi@ 0046c100     psftp.obj
 0002:0000412c       ??_C@_0BH@FEBHLNJP@local?3?$CFs?5?$DN?$DO?5remote?3?$CFs?6?$AA@ 0046c12c     psftp.obj
 0002:00004144       ??_C@_0CA@DNNFOBFL@error?5while?5reading?5local?5file?6?$AA@ 0046c144     psftp.obj
 0002:00004164       ??_C@_0BJ@JDEELMBP@error?5while?5writing?3?5?$CFs?6?$AA@ 0046c164     psftp.obj
 0002:00004180       ??_C@_0BI@DHHHEPFD@error?5while?5closing?3?5?$CFs?$AA@ 0046c180     psftp.obj
 0002:00004198       ??_C@_0CM@CHALKDIC@Multiple?9level?5wildcards?5are?5not@ 0046c198     psftp.obj
 0002:000041c4       ??_C@_0BH@KGNHHBEN@Unable?5to?5open?5?$CFs?3?5?$CFs?6?$AA@ 0046c1c4     psftp.obj
 0002:000041dc       ??_C@_1BG@FGOIIKPE@?$AA?4?$AA?4?$AA?2?$AAp?$AAs?$AAf?$AAt?$AAp?$AA?4?$AAc?$AA?$AA@ 0046c1dc     psftp.obj
 0002:000041f8       ??_C@_1GG@BOAACDCI@?$AAs?$AAw?$AAc?$AAm?$AA?9?$AA?$DO?$AAn?$AAa?$AAm?$AAe?$AAs?$AA?5?$AA?$CG?$AA?$CG?$AA?5?$AAs?$AAw?$AAc?$AAm?$AA?9?$AA?$DO?$AAn?$AAa?$AAm?$AAe?$AAp?$AAo?$AAs?$AA?5?$AA?$DM?$AA?5?$AAs@ 0046c1f8     psftp.obj
 0002:00004260       ??_C@_06DIJPEION@?$CFs?$CFs?$CFs?$AA@ 0046c260     psftp.obj
 0002:00004268       ??_C@_0BF@CODGBLMO@?$CFs?3?5nothing?5matched?6?$AA@ 0046c268     psftp.obj
 0002:00004280       ??_C@_0BN@CKHKEGIF@psftp?3?5unknown?5command?5?$CC?$CFs?$CC?6?$AA@ 0046c280     psftp.obj
 0002:000042a0       ??_C@_0DN@MHKBCNFE@Directory?5is?5too?5large?5to?5sort?$DL?5@ 0046c2a0     psftp.obj
 0002:000042e0       ??_C@_03OFAPEBGM@?$CFs?6?$AA@ 0046c2e0     psftp.obj
 0002:000042e4       ??_C@_0BG@PHNMANNO@Listing?5directory?5?$CFs?6?$AA@ 0046c2e4     psftp.obj
 0002:000042fc       ??_C@_0BK@IODJLODE@Reading?5directory?5?$CFs?3?5?$CFs?6?$AA@ 0046c2fc     psftp.obj
 0002:00004318       ??_C@_0BC@NPLLGNIL@Directory?5?$CFs?3?5?$CFs?6?$AA@ 0046c318     psftp.obj
 0002:0000432c       ??_C@_0BM@KBHLAJDE@Remote?5directory?5is?5now?5?$CFs?6?$AA@ 0046c32c     psftp.obj
 0002:00004348       ??_C@_0BI@HNPHNHAI@Remote?5directory?5is?5?$CFs?6?$AA@ 0046c348     psftp.obj
 0002:00004360       ??_C@_02BAABKJLB@?9?9?$AA@ 0046c360     psftp.obj
 0002:00004364       ??_C@_02CNCCOICK@?9r?$AA@  0046c364     psftp.obj
 0002:00004368       ??_C@_0BO@MBEFAKJ@?$CFs?3?5unrecognised?5option?5?8?$CFs?8?6?$AA@ 0046c368     psftp.obj
 0002:00004388       ??_C@_0BI@DFFAKEPC@?$CFs?3?5expects?5a?5filename?6?$AA@ 0046c388     psftp.obj
 0002:000043a0       ??_C@_0BM@JNLJAPLE@mkdir?3?5expects?5a?5directory?6?$AA@ 0046c3a0     psftp.obj
 0002:000043bc       ??_C@_0O@LPFLPILP@mkdir?5?$CFs?3?5?$CFs?6?$AA@ 0046c3bc     psftp.obj
 0002:000043cc       ??_C@_0O@MBLIFLPA@mkdir?5?$CFs?3?5OK?6?$AA@ 0046c3cc     psftp.obj
 0002:000043dc       ??_C@_0O@CPJIKPPI@rmdir?5?$CFs?3?5?$CFs?6?$AA@ 0046c3dc     psftp.obj
 0002:000043ec       ??_C@_0O@FBHLAMLH@rmdir?5?$CFs?3?5OK?6?$AA@ 0046c3ec     psftp.obj
 0002:000043fc       ??_C@_0BM@DDBJJIBI@rmdir?3?5expects?5a?5directory?6?$AA@ 0046c3fc     psftp.obj
 0002:00004418       ??_C@_0L@KHFMGEIG@rm?5?$CFs?3?5?$CFs?6?$AA@ 0046c418     psftp.obj
 0002:00004424       ??_C@_0L@NJLPMHMJ@rm?5?$CFs?3?5OK?6?$AA@ 0046c424     psftp.obj
 0002:00004430       ??_C@_0BI@LBPOKBBN@rm?3?5expects?5a?5filename?6?$AA@ 0046c430     psftp.obj
 0002:00004448       ??_C@_0O@EMIFFCIC@mv?5?$CFs?5?$CFs?3?5?$CFs?6?$AA@ 0046c448     psftp.obj
 0002:00004458       ??_C@_09OPDGLCFB@?$CFs?5?9?$DO?5?$CFs?6?$AA@ 0046c458     psftp.obj
 0002:00004464       ??_C@_0BL@NGHAFBEG@mv?3?5expects?5two?5filenames?6?$AA@ 0046c464     psftp.obj
 0002:00004480       ??_C@_0EO@BDIDJMJA@mv?3?5multiple?5or?5wildcard?5argumen@ 0046c480     psftp.obj
 0002:000044d0       ??_C@_0BO@GBDLFFFL@file?5permissions?5not?5provided?$AA@ 0046c4d0     psftp.obj
 0002:000044f0       ??_C@_0BG@OBCLIGDD@get?5attrs?5for?5?$CFs?3?5?$CFs?6?$AA@ 0046c4f0     psftp.obj
 0002:00004508       ??_C@_0BG@BEHNFPHC@set?5attrs?5for?5?$CFs?3?5?$CFs?6?$AA@ 0046c508     psftp.obj
 0002:00004520       ??_C@_0BC@FCNBBAEJ@?$CFs?3?5?$CF04o?5?9?$DO?5?$CF04o?6?$AA@ 0046c520     psftp.obj
 0002:00004534       ??_C@_0DA@HHMOLLBF@chmod?3?5expects?5a?5mode?5specifier?5@ 0046c534     psftp.obj
 0002:00004564       ??_C@_08OAAHJGNL@01234567?$AA@ 0046c564     psftp.obj
 0002:00004570       ??_C@_0DK@HBKMOCD@chmod?3?5numeric?5file?5modes?5should@ 0046c570     psftp.obj
 0002:000045ac       ??_C@_02NMFNNFIO@?$CFo?$AA@ 0046c5ac     psftp.obj
 0002:000045b0       ??_C@_01IHBHIGKO@?0?$AA@   0046c5b0     psftp.obj
 0002:000045b8       ??_C@_0EP@EEFHJPLB@chmod?3?5file?5mode?5?8?$CF?4?$CKs?8?5contains@ 0046c5b8     psftp.obj
 0002:00004608       ??_C@_0CH@DIAPGIKI@chmod?3?5file?5mode?5?8?$CF?4?$CKs?8?5is?5incom@ 0046c608     psftp.obj
 0002:00004630       ??_C@_0FH@BLBEPIHK@chmod?3?5file?5mode?5?8?$CF?4?$CKs?8?3?5set?$FLug?$FN@ 0046c630     psftp.obj
 0002:00004688       ??_C@_0EJ@HAPCCNKN@chmod?3?5file?5mode?5?8?$CF?4?$CKs?8?5contains@ 0046c688     psftp.obj
 0002:000046d8       ??_C@_0GA@BBMINICL@chmod?3?5file?5mode?5?8?$CF?4?$CKs?8?5contains@ 0046c6d8     psftp.obj
 0002:00004738       ??_C@_0BK@PAAGHMJF@psftp?3?5already?5connected?6?$AA@ 0046c738     psftp.obj
 0002:00004754       ??_C@_0BL@HBFJKHCP@open?3?5expects?5a?5host?5name?6?$AA@ 0046c754     psftp.obj
 0002:00004770       ??_C@_0BL@DAJOCNOK@open?3?5invalid?5port?5number?6?$AA@ 0046c770     psftp.obj
 0002:0000478c       ??_C@_0CF@OIOIENCI@lcd?3?5expects?5a?5local?5directory?5n@ 0046c78c     psftp.obj
 0002:000047b4       ??_C@_0CF@GHHOIMJL@lcd?3?5unable?5to?5change?5directory?3@ 0046c7b4     psftp.obj
 0002:000047dc       ??_C@_0BL@OKDCLKFO@New?5local?5directory?5is?5?$CFs?6?$AA@ 0046c7dc     psftp.obj
 0002:000047f8       ??_C@_0BP@DNGJJBKE@Current?5local?5directory?5is?5?$CFs?6?$AA@ 0046c7f8     psftp.obj
 0002:00004818       ??_C@_04FDGMDGHG@?$CF?9?$CKs?$AA@ 0046c818     psftp.obj
 0002:00004820       ??_C@_0BN@MGCPHGCA@help?3?5?$CFs?3?5command?5not?5found?6?$AA@ 0046c820     psftp.obj
 0002:00004840       ??_C@_02DKCKIIND@?$CFs?$AA@ 0046c840     psftp.obj
 0002:00004844       ??_C@_07OJLMJNFM@psftp?$DO?5?$AA@ 0046c844     psftp.obj
 0002:0000484c       ??_C@_05FAEIHPAI@quit?6?$AA@ 0046c84c     psftp.obj
 0002:00004854       ??_C@_0CG@MKJIBDHJ@Fatal?3?5unable?5to?5initialise?5SFTP@ 0046c854     psftp.obj
 0002:0000487c       ??_C@_0CP@NJONIMNM@Warning?3?5failed?5to?5resolve?5home?5@ 0046c87c     psftp.obj
 0002:000048ac       ??_C@_0CA@JEODBGGO@Remote?5working?5directory?5is?5?$CFs?6?$AA@ 0046c8ac     psftp.obj
 0002:000048cc       ??_C@_0BK@CMAIAMHM@Fatal?3?5unable?5to?5open?5?$CFs?6?$AA@ 0046c8cc     psftp.obj
 0002:000048e8       ??_C@_0DB@LHEFEPOH@Received?5unexpected?5end?9of?9file?5@ 0046c8e8     psftp.obj
 0002:0000491c       ??_C@_0CK@BHODGFAM@PuTTY?5Secure?5File?5Transfer?5?$CISFTP@ 0046c91c     psftp.obj
 0002:00004948       ??_C@_0CE@JKEJNPBC@Usage?3?5psftp?5?$FLoptions?$FN?5?$FLuser?$EA?$FNho@ 0046c948     psftp.obj
 0002:0000496c       ??_C@_09MAGKGNDA@Options?3?6?$AA@ 0046c96c     psftp.obj
 0002:00004978       ??_C@_0DA@LLOCJCBI@?5?5?9V?5?5?5?5?5?5?5?5print?5version?5inform@ 0046c978     psftp.obj
 0002:000049a8       ??_C@_0DB@NGALBONC@?5?5?9pgpfp?5?5?5?5print?5PGP?5key?5finger@ 0046c9a8     psftp.obj
 0002:000049dc       ??_C@_0CF@HMPFAEPA@?5?5?9b?5file?5?5?5use?5specified?5batchf@ 0046c9dc     psftp.obj
 0002:00004a04       ??_C@_0CH@OCNOPLL@?5?5?9bc?5?5?5?5?5?5?5output?5batchfile?5com@ 0046ca04     psftp.obj
 0002:00004a2c       ??_C@_0DH@DKACDJMH@?5?5?9be?5?5?5?5?5?5?5don?8t?5stop?5batchfile@ 0046ca2c     psftp.obj
 0002:00004a64       ??_C@_0CD@JLCMJEMO@?5?5?9v?5?5?5?5?5?5?5?5show?5verbose?5message@ 0046ca64     psftp.obj
 0002:00004a88       ??_C@_0DE@CKENBPAA@?5?5?9load?5sessname?5?5Load?5settings?5@ 0046ca88     psftp.obj
 0002:00004abc       ??_C@_0CN@MKHKOEFP@?5?5?9l?5user?5?5?5connect?5with?5specifi@ 0046cabc     psftp.obj
 0002:00004aec       ??_C@_0CH@GCKHKFHI@?5?5?9P?5port?5?5?5connect?5to?5specified@ 0046caec     psftp.obj
 0002:00004b14       ??_C@_0CL@HHFCCNKD@?5?5?9pw?5passw?5login?5with?5specified@ 0046cb14     psftp.obj
 0002:00004b40       ??_C@_0DK@CFDOEFDO@?5?5?91?5?92?5?5?5?5?5force?5use?5of?5particu@ 0046cb40     psftp.obj
 0002:00004b7c       ??_C@_0CH@ENGOOKOG@?5?5?94?5?96?5?5?5?5?5force?5use?5of?5IPv4?5or@ 0046cb7c     psftp.obj
 0002:00004ba4       ??_C@_0CA@OBCIKGBE@?5?5?9C?5?5?5?5?5?5?5?5enable?5compression?6?$AA@ 0046cba4     psftp.obj
 0002:00004bc4       ??_C@_0DG@ENNIIIIJ@?5?5?9i?5key?5?5?5?5private?5key?5file?5for@ 0046cbc4     psftp.obj
 0002:00004bfc       ??_C@_0CE@LPGCJCIB@?5?5?9noagent?5?5disable?5use?5of?5Pagea@ 0046cbfc     psftp.obj
 0002:00004c20       ??_C@_0CD@GFPPBAFA@?5?5?9agent?5?5?5?5enable?5use?5of?5Pagean@ 0046cc20     psftp.obj
 0002:00004c44       ??_C@_0BJ@BOLABBBF@?5?5?9hostkey?5aa?3bb?3cc?3?4?4?4?6?$AA@ 0046cc44     psftp.obj
 0002:00004c60       ??_C@_0DL@IDDFIMDK@?5?5?5?5?5?5?5?5?5?5?5?5manually?5specify?5a?5h@ 0046cc60     psftp.obj
 0002:00004c9c       ??_C@_0CN@KCKOOPHP@?5?5?9batch?5?5?5?5disable?5all?5interact@ 0046cc9c     psftp.obj
 0002:00004cd0       ??_C@_0EG@IKPNJEPO@?5?5?9no?9sanitise?9stderr?5?5don?8t?5str@ 0046ccd0     psftp.obj
 0002:00004d18       ??_C@_0BF@DDOHIFJD@?5?5?9proxycmd?5command?6?$AA@ 0046cd18     psftp.obj
 0002:00004d30       ??_C@_0CK@DLMOJBMM@?5?5?5?5?5?5?5?5?5?5?5?5use?5?8command?8?5as?5loc@ 0046cd30     psftp.obj
 0002:00004d5c       ??_C@_0BA@JKMDKHMN@?5?5?9sshlog?5file?6?$AA@ 0046cd5c     psftp.obj
 0002:00004d6c       ??_C@_0BD@FAHLILJB@?5?5?9sshrawlog?5file?6?$AA@ 0046cd6c     psftp.obj
 0002:00004d80       ??_C@_0CM@KEPCIJMF@?5?5?5?5?5?5?5?5?5?5?5?5log?5protocol?5details@ 0046cd80     psftp.obj
 0002:00004dac       ??_C@_01EEMJAFIK@?6?$AA@   0046cdac     psftp.obj
 0002:00004db0       ??_C@_0O@JPJGHAFG@psftp?3?5?$CFs?6?$CFs?6?$AA@ 0046cdb0     psftp.obj
 0002:00004dc0       ??_C@_0DB@NAIOENLM@psftp?3?5multiple?5usernames?5specif@ 0046cdc0     psftp.obj
 0002:00004df4       ??_C@_04OFCFIDFI@sftp?$AA@ 0046cdf4     psftp.obj
 0002:00004e00       ??_C@_0JB@JOCCJJFO@test?5?9x?5?1usr?1lib?1sftp?9server?5?$CG?$CG?5@ 0046ce00     psftp.obj
 0002:00004e94       ??_C@_0O@ELCIGDJM@ssh_init?3?5?$CFs?6?$AA@ 0046ce94     psftp.obj
 0002:00004ea4       ??_C@_0CN@DFENLPMH@ssh_init?3?5error?5during?5SSH?5conne@ 0046cea4     psftp.obj
 0002:00004ed4       ??_C@_0BB@LBEANBIC@Connected?5to?5?$CFs?6?$AA@ 0046ced4     psftp.obj
 0002:00004ee8       ??_C@_07OOLFDFIA@psftp?3?5?$AA@ 0046cee8     psftp.obj
 0002:00004ef0       ??_C@_0CI@NANEPJFF@?6?5?5?5?5?5?5?5try?5typing?5?$CCpsftp?5?9h?$CC?5fo@ 0046cef0     psftp.obj
 0002:00004f18       ??_C@_0CB@CDBNPPJP@option?5?$CC?$CFs?$CC?5requires?5an?5argument@ 0046cf18     psftp.obj
 0002:00004f3c       ??_C@_02JNAPBCPB@?9h?$AA@  0046cf3c     psftp.obj
 0002:00004f40       ??_C@_02GIPFNJGC@?9?$DP?$AA@ 0046cf40     psftp.obj
 0002:00004f44       ??_C@_06LMIDBODK@?9?9help?$AA@ 0046cf44     psftp.obj
 0002:00004f4c       ??_C@_06OEJDLALJ@?9pgpfp?$AA@ 0046cf4c     psftp.obj
 0002:00004f54       ??_C@_02NMMKAJIM@?9V?$AA@  0046cf54     psftp.obj
 0002:00004f58       ??_C@_09GAJKMFCA@?9?9version?$AA@ 0046cf58     psftp.obj
 0002:00004f64       ??_C@_06COHPCLGM@?9batch?$AA@ 0046cf64     psftp.obj
 0002:00004f6c       ??_C@_02GHOAPKHL@?9b?$AA@  0046cf6c     psftp.obj
 0002:00004f70       ??_C@_03IJGAHACK@?9bc?$AA@ 0046cf70     psftp.obj
 0002:00004f74       ??_C@_03NPDKNHKM@?9be?$AA@ 0046cf74     psftp.obj
 0002:00004f78       ??_C@_0BB@MLGPGHAD@?9sanitise?9stderr?$AA@ 0046cf78     psftp.obj
 0002:00004f8c       ??_C@_0BE@EPLNLLAH@?9no?9sanitise?9stderr?$AA@ 0046cf8c     psftp.obj
 0002:00004fa0       ??_C@_0BE@LOAAFJEB@unknown?5option?5?$CC?$CFs?$CC?$AA@ 0046cfa0     psftp.obj
 0002:00004fb4       ??_C@_0DP@FPABBPAN@psftp?3?5no?5hostname?5specified?$DL?5us@ 0046cfb4     psftp.obj
 0002:00004ff4       ??_C@_1CC@GFNOOCAB@?$AA?4?$AA?4?$AA?2?$AAp?$AAs?$AAf?$AAt?$AAp?$AAc?$AAo?$AAm?$AAm?$AAo?$AAn?$AA?4?$AAc?$AA?$AA@ 0046cff4     psftpcommon.obj
 0002:00005018       ??_C@_1BK@PDLDPPPF@?$AAc?$AAt?$AAx?$AA?9?$AA?$DO?$AAs?$AAo?$AAr?$AAt?$AAi?$AAn?$AAg?$AA?$AA@ 0046d018     psftpcommon.obj
 0002:000051d0       _ttymodes                  0046d1d0     settings.obj
 0002:000052ac       ??_C@_0M@EKKIMHEK@187?0187?0187?$AA@ 0046d2ac     settings.obj
 0002:000052b8       ??_C@_0M@HIJMBBJH@255?0255?0255?$AA@ 0046d2b8     settings.obj
 0002:000052c4       ??_C@_05FAEMOKCC@0?00?00?$AA@ 0046d2c4     settings.obj
 0002:000052cc       ??_C@_08KKGKFDEE@85?085?085?$AA@ 0046d2cc     settings.obj
 0002:000052d8       ??_C@_07BOJKDALH@0?0255?00?$AA@ 0046d2d8     settings.obj
 0002:000052e0       ??_C@_07ELECBMIG@187?00?00?$AA@ 0046d2e0     settings.obj
 0002:000052e8       ??_C@_09DCKAJKMO@255?085?085?$AA@ 0046d2e8     settings.obj
 0002:000052f4       ??_C@_07MKJHEOCD@0?0187?00?$AA@ 0046d2f4     settings.obj
 0002:000052fc       ??_C@_09MNAJNEEK@85?0255?085?$AA@ 0046d2fc     settings.obj
 0002:00005308       ??_C@_09FECCHLOJ@187?0187?00?$AA@ 0046d308     settings.obj
 0002:00005314       ??_C@_0L@MAPMHELN@255?0255?085?$AA@ 0046d314     settings.obj
 0002:00005320       ??_C@_07OFKOGOHD@0?00?0187?$AA@ 0046d320     settings.obj
 0002:00005328       ??_C@_09LMJHMNAI@85?085?0255?$AA@ 0046d328     settings.obj
 0002:00005334       ??_C@_09HLBLFLLJ@187?00?0187?$AA@ 0046d334     settings.obj
 0002:00005340       ??_C@_0L@LBGCGNPP@255?085?0255?$AA@ 0046d340     settings.obj
 0002:0000534c       ??_C@_09CNAOKCBI@0?0187?0187?$AA@ 0046d34c     settings.obj
 0002:00005358       ??_C@_0L@FLEIIDII@85?0255?0255?$AA@ 0046d358     settings.obj
 0002:00005368       ??_C@_0EA@NIIBGEKA@0?00?00?00?00?00?00?00?00?00?00?00?00?00?00?00?0@ 0046d368     settings.obj
 0002:000053a8       ??_C@_0EA@FPDDEHNH@0?01?02?01?01?01?01?01?01?01?01?01?01?02?02?02?0@ 0046d3a8     settings.obj
 0002:000053e8       ??_C@_0EA@DBPANBHP@1?02?02?02?02?02?02?02?02?02?02?02?02?02?02?02?0@ 0046d3e8     settings.obj
 0002:00005428       ??_C@_0EA@BKNNICLM@1?02?02?02?02?02?02?02?02?02?02?02?02?02?02?02?0@ 0046d428     settings.obj
 0002:00005468       ??_C@_0EA@BMFKLFMA@1?01?01?01?01?01?01?01?01?01?01?01?01?01?01?01?0@ 0046d468     settings.obj
 0002:000054a8       ??_C@_0EA@GAMBBNED@2?02?02?02?02?02?02?02?02?02?02?02?02?02?02?02?0@ 0046d4a8     settings.obj
 0002:000054e8       ??_C@_03BHCPJDHL@aes?$AA@  0046d4e8     settings.obj
 0002:000054ec       ??_C@_08OMGHMHM@chacha20?$AA@ 0046d4ec     settings.obj
 0002:000054f8       ??_C@_04CBBGIJBO@3des?$AA@ 0046d4f8     settings.obj
 0002:00005500       ??_C@_04JBIELMDE@WARN?$AA@ 0046d500     settings.obj
 0002:00005508       ??_C@_03CAPBGDEJ@des?$AA@  0046d508     settings.obj
 0002:0000550c       ??_C@_08CMDBPLDA@blowfish?$AA@ 0046d50c     settings.obj
 0002:00005518       ??_C@_07EJAPOIDC@arcfour?$AA@ 0046d518     settings.obj
 0002:00005520       ??_C@_04KDGGCKGB@ecdh?$AA@ 0046d520     settings.obj
 0002:00005528       ??_C@_0M@PENOLILK@dh?9gex?9sha1?$AA@ 0046d528     settings.obj
 0002:00005534       ??_C@_0BA@PANCPPML@dh?9group14?9sha1?$AA@ 0046d534     settings.obj
 0002:00005544       ??_C@_0P@BNDKBLBG@dh?9group1?9sha1?$AA@ 0046d544     settings.obj
 0002:00005554       ??_C@_03DFNMMEBL@rsa?$AA@  0046d554     settings.obj
 0002:00005558       ??_C@_07LBIEHNGB@ed25519?$AA@ 0046d558     settings.obj
 0002:00005560       ??_C@_05FGIDCBJD@ecdsa?$AA@ 0046d560     settings.obj
 0002:00005568       ??_C@_03EAKOMMFI@dsa?$AA@  0046d568     settings.obj
 0002:0000556c       ??_C@_04PEMNKEGO@INTR?$AA@ 0046d56c     settings.obj
 0002:00005574       ??_C@_05JDCHENNJ@ERASE?$AA@ 0046d574     settings.obj
 0002:0000557c       ??_C@_03KPJEKKJC@EOF?$AA@  0046d57c     settings.obj
 0002:00005580       ??_C@_03FFHLECBI@EOL?$AA@  0046d580     settings.obj
 0002:00005584       ??_C@_04POEJLHGF@EOL2?$AA@ 0046d584     settings.obj
 0002:0000558c       ??_C@_05JLPDBANI@START?$AA@ 0046d58c     settings.obj
 0002:00005594       ??_C@_04MDHMLCKF@STOP?$AA@ 0046d594     settings.obj
 0002:0000559c       ??_C@_04GOPMIPNE@SUSP?$AA@ 0046d59c     settings.obj
 0002:000055a4       ??_C@_05INNFJBBA@DSUSP?$AA@ 0046d5a4     settings.obj
 0002:000055ac       ??_C@_07JHHPDFIC@REPRINT?$AA@ 0046d5ac     settings.obj
 0002:000055b4       ??_C@_06FJPLOEDN@WERASE?$AA@ 0046d5b4     settings.obj
 0002:000055bc       ??_C@_05MBNGDNDE@LNEXT?$AA@ 0046d5bc     settings.obj
 0002:000055c4       ??_C@_05KALGKIBB@FLUSH?$AA@ 0046d5c4     settings.obj
 0002:000055cc       ??_C@_05EAAHFJLP@SWTCH?$AA@ 0046d5cc     settings.obj
 0002:000055d4       ??_C@_06DNKMJCIK@STATUS?$AA@ 0046d5d4     settings.obj
 0002:000055dc       ??_C@_07KLFFMLGM@DISCARD?$AA@ 0046d5dc     settings.obj
 0002:000055e4       ??_C@_06HEEGBLFE@IGNPAR?$AA@ 0046d5e4     settings.obj
 0002:000055ec       ??_C@_06NCFKGAKE@PARMRK?$AA@ 0046d5ec     settings.obj
 0002:000055f4       ??_C@_05CLPFEJCF@INPCK?$AA@ 0046d5f4     settings.obj
 0002:000055fc       ??_C@_06FAHNCPEL@ISTRIP?$AA@ 0046d5fc     settings.obj
 0002:00005604       ??_C@_05KKDKAIBK@INLCR?$AA@ 0046d604     settings.obj
 0002:0000560c       ??_C@_05NCDKCOA@IGNCR?$AA@ 0046d60c     settings.obj
 0002:00005614       ??_C@_05DOPFEAIL@ICRNL?$AA@ 0046d614     settings.obj
 0002:0000561c       ??_C@_05LNOMNKPC@IUCLC?$AA@ 0046d61c     settings.obj
 0002:00005624       ??_C@_04HHLLLNOB@IXON?$AA@ 0046d624     settings.obj
 0002:0000562c       ??_C@_05FMNMPIHN@IXANY?$AA@ 0046d62c     settings.obj
 0002:00005634       ??_C@_05HPEKNAGI@IXOFF?$AA@ 0046d634     settings.obj
 0002:0000563c       ??_C@_07FODEGPLO@IMAXBEL?$AA@ 0046d63c     settings.obj
 0002:00005644       ??_C@_05LBHOJADP@IUTF8?$AA@ 0046d644     settings.obj
 0002:0000564c       ??_C@_04HFPFPNBL@ISIG?$AA@ 0046d64c     settings.obj
 0002:00005654       ??_C@_06DBKIJOGI@ICANON?$AA@ 0046d654     settings.obj
 0002:0000565c       ??_C@_05HBOPOCKO@XCASE?$AA@ 0046d65c     settings.obj
 0002:00005664       ??_C@_04CJAHKHLK@ECHO?$AA@ 0046d664     settings.obj
 0002:0000566c       ??_C@_05KGJDOGHF@ECHOE?$AA@ 0046d66c     settings.obj
 0002:00005674       ??_C@_05DIBAMLPL@ECHOK?$AA@ 0046d674     settings.obj
 0002:0000567c       ??_C@_06HAFAPJLN@ECHONL?$AA@ 0046d67c     settings.obj
 0002:00005684       ??_C@_06NIICIJJE@NOFLSH?$AA@ 0046d684     settings.obj
 0002:0000568c       ??_C@_06LBKGOPNL@TOSTOP?$AA@ 0046d68c     settings.obj
 0002:00005694       ??_C@_06LIDCLKKL@IEXTEN?$AA@ 0046d694     settings.obj
 0002:0000569c       ??_C@_07JDDLFNE@ECHOCTL?$AA@ 0046d69c     settings.obj
 0002:000056a4       ??_C@_06KHFJIABP@ECHOKE?$AA@ 0046d6a4     settings.obj
 0002:000056ac       ??_C@_06PMNHKPGP@PENDIN?$AA@ 0046d6ac     settings.obj
 0002:000056b4       ??_C@_05PLHKGJPM@OPOST?$AA@ 0046d6b4     settings.obj
 0002:000056bc       ??_C@_05BFLCFEOD@OLCUC?$AA@ 0046d6bc     settings.obj
 0002:000056c4       ??_C@_05HMGDOLAH@ONLCR?$AA@ 0046d6c4     settings.obj
 0002:000056cc       ??_C@_05OIKMKDJG@OCRNL?$AA@ 0046d6cc     settings.obj
 0002:000056d4       ??_C@_05GONGEEOJ@ONOCR?$AA@ 0046d6d4     settings.obj
 0002:000056dc       ??_C@_06LBADOLBH@ONLRET?$AA@ 0046d6dc     settings.obj
 0002:000056e4       ??_C@_03KJOHOHON@CS7?$AA@  0046d6e4     settings.obj
 0002:000056e8       ??_C@_03COHPPLCC@CS8?$AA@  0046d6e8     settings.obj
 0002:000056ec       ??_C@_06NDBAKJBG@PARENB?$AA@ 0046d6ec     settings.obj
 0002:000056f4       ??_C@_06OHGAGLCC@PARODD?$AA@ 0046d6f4     settings.obj
 0002:000056fc       ??_C@_1BM@LPMDBKLM@?$AA?4?$AA?4?$AA?2?$AAs?$AAe?$AAt?$AAt?$AAi?$AAn?$AAg?$AAs?$AA?4?$AAc?$AA?$AA@ 0046d6fc     settings.obj
 0002:00005718       ??_C@_1CE@COELNHMC@?$AAm?$AAa?$AAp?$AAp?$AAi?$AAn?$AAg?$AA?$FL?$AAi?$AA?$FN?$AA?4?$AAv?$AA?5?$AA?$DO?$AA?$DN?$AA?5?$AA0?$AA?$AA@ 0046d718     settings.obj
 0002:0000573c       ??_C@_1CE@OCELJLLL@?$AAm?$AAa?$AAp?$AAp?$AAi?$AAn?$AAg?$AA?$FL?$AAi?$AA?$FN?$AA?4?$AAv?$AA?5?$AA?$DM?$AA?5?$AA3?$AA2?$AA?$AA@ 0046d73c     settings.obj
 0002:00005760       ??_C@_1M@HCFHNBN@?$AAj?$AA?5?$AA?$DM?$AA?5?$AAn?$AA?$AA@ 0046d760     settings.obj
 0002:0000576c       ??_C@_04HDOCAJNK@?$CFs?$CFs?$AA@ 0046d76c     settings.obj
 0002:00005774       ??_C@_04CGFJFPFD@none?$AA@ 0046d774     settings.obj
 0002:0000577c       ??_C@_08IAGCHHEC@implicit?$AA@ 0046d77c     settings.obj
 0002:00005788       ??_C@_08FCANLLBJ@explicit?$AA@ 0046d788     settings.obj
 0002:00005794       ??_C@_07PNOOCAHN@custom?3?$AA@ 0046d794     settings.obj
 0002:0000579c       ??_C@_08EJIMMOH@HostName?$AA@ 0046d79c     settings.obj
 0002:000057a8       ??_C@_0M@LILHGKM@LogFileName?$AA@ 0046d7a8     settings.obj
 0002:000057b4       ??_C@_07BLDPIFHF@LogType?$AA@ 0046d7b4     settings.obj
 0002:000057bc       ??_C@_0N@GEDMDCAP@LogFileClash?$AA@ 0046d7bc     settings.obj
 0002:000057cc       ??_C@_08EEDLMPAL@LogFlush?$AA@ 0046d7cc     settings.obj
 0002:000057d8       ??_C@_09KNNJBOJB@LogHeader?$AA@ 0046d7d8     settings.obj
 0002:000057e4       ??_C@_0BE@FDKJDNBD@SSHLogOmitPasswords?$AA@ 0046d7e4     settings.obj
 0002:000057f8       ??_C@_0P@LPNJCIN@SSHLogOmitData?$AA@ 0046d7f8     settings.obj
 0002:00005808       ??_C@_08NAKOFPNG@Protocol?$AA@ 0046d808     settings.obj
 0002:00005814       ??_C@_0L@NGCGLEGO@PortNumber?$AA@ 0046d814     settings.obj
 0002:00005820       ??_C@_0M@FKKACOPA@CloseOnExit?$AA@ 0046d820     settings.obj
 0002:0000582c       ??_C@_0M@OIMMGHLB@WarnOnClose?$AA@ 0046d82c     settings.obj
 0002:00005838       ??_C@_0N@MHDGNOPF@PingInterval?$AA@ 0046d838     settings.obj
 0002:00005848       ??_C@_0BB@IHHLNFKP@PingIntervalSecs?$AA@ 0046d848     settings.obj
 0002:0000585c       ??_C@_0L@BJCKGKOH@TCPNoDelay?$AA@ 0046d85c     settings.obj
 0002:00005868       ??_C@_0O@JGFDCAMB@TCPKeepalives?$AA@ 0046d868     settings.obj
 0002:00005878       ??_C@_0N@PLJHOHNJ@TerminalType?$AA@ 0046d878     settings.obj
 0002:00005888       ??_C@_0O@IJLHKGFA@TerminalSpeed?$AA@ 0046d888     settings.obj
 0002:00005898       ??_C@_0O@OPOECGBL@TerminalModes?$AA@ 0046d898     settings.obj
 0002:000058a8       ??_C@_0O@BBFCFNFH@AddressFamily?$AA@ 0046d8a8     settings.obj
 0002:000058b8       ??_C@_0BB@LPDPIJJE@ProxyExcludeList?$AA@ 0046d8b8     settings.obj
 0002:000058cc       ??_C@_08BEHIGMOD@ProxyDNS?$AA@ 0046d8cc     settings.obj
 0002:000058d8       ??_C@_0P@PPDCMMIE@ProxyLocalhost?$AA@ 0046d8d8     settings.obj
 0002:000058e8       ??_C@_0M@LKIANCI@ProxyMethod?$AA@ 0046d8e8     settings.obj
 0002:000058f4       ??_C@_09JHHHBEOG@ProxyHost?$AA@ 0046d8f4     settings.obj
 0002:00005900       ??_C@_09MGCFKCJC@ProxyPort?$AA@ 0046d900     settings.obj
 0002:0000590c       ??_C@_0O@LPPPKJOO@ProxyUsername?$AA@ 0046d90c     settings.obj
 0002:0000591c       ??_C@_0O@IHOKPHGK@ProxyPassword?$AA@ 0046d91c     settings.obj
 0002:0000592c       ??_C@_0BD@IJFLPJDD@ProxyTelnetCommand?$AA@ 0046d92c     settings.obj
 0002:00005940       ??_C@_0P@JGBJEMOJ@ProxyLogToTerm?$AA@ 0046d940     settings.obj
 0002:00005950       ??_C@_0M@OAOKKMLA@Environment?$AA@ 0046d950     settings.obj
 0002:0000595c       ??_C@_08KAFEAHEM@UserName?$AA@ 0046d95c     settings.obj
 0002:00005968       ??_C@_0BI@HPGFHBFK@UserNameFromEnvironment?$AA@ 0046d968     settings.obj
 0002:00005980       ??_C@_0O@NAGEBAGM@LocalUserName?$AA@ 0046d980     settings.obj
 0002:00005990       ??_C@_05KLMMLKAP@NoPTY?$AA@ 0046d990     settings.obj
 0002:00005998       ??_C@_0M@COKFBABJ@Compression?$AA@ 0046d998     settings.obj
 0002:000059a4       ??_C@_08ELDJNHED@TryAgent?$AA@ 0046d9a4     settings.obj
 0002:000059b0       ??_C@_08DEDMJEH@AgentFwd?$AA@ 0046d9b0     settings.obj
 0002:000059bc       ??_C@_09NHHDGKAI@GssapiFwd?$AA@ 0046d9bc     settings.obj
 0002:000059c8       ??_C@_0P@GIGKEPFI@ChangeUsername?$AA@ 0046d9c8     settings.obj
 0002:000059d8       ??_C@_06GMNODMGL@Cipher?$AA@ 0046d9d8     settings.obj
 0002:000059e0       ??_C@_03JGJNGHKI@KEX?$AA@  0046d9e0     settings.obj
 0002:000059e4       ??_C@_07GAELOIOK@HostKey?$AA@ 0046d9e4     settings.obj
 0002:000059ec       ??_C@_0BE@PGHCKBEJ@PreferKnownHostKeys?$AA@ 0046d9ec     settings.obj
 0002:00005a00       ??_C@_09BMHKJAKC@RekeyTime?$AA@ 0046da00     settings.obj
 0002:00005a0c       ??_C@_0M@PFLIKHA@GssapiRekey?$AA@ 0046da0c     settings.obj
 0002:00005a18       ??_C@_0L@KEKIPMHA@RekeyBytes?$AA@ 0046da18     settings.obj
 0002:00005a24       ??_C@_09KOEOFNAD@SshNoAuth?$AA@ 0046da24     settings.obj
 0002:00005a30       ??_C@_09DKKEANNA@SshBanner?$AA@ 0046da30     settings.obj
 0002:00005a3c       ??_C@_07FCPJEOBP@AuthTIS?$AA@ 0046da3c     settings.obj
 0002:00005a44       ??_C@_06HELEMNLA@AuthKI?$AA@ 0046da44     settings.obj
 0002:00005a4c       ??_C@_0L@CHDFIOCG@AuthGSSAPI?$AA@ 0046da4c     settings.obj
 0002:00005a58       ??_C@_0O@IHFFAMNI@AuthGSSAPIKEX?$AA@ 0046da58     settings.obj
 0002:00005a68       ??_C@_07LFMOFKKL@GSSLibs?$AA@ 0046da68     settings.obj
 0002:00005a70       ??_C@_09BHJOMFHD@GSSCustom?$AA@ 0046da70     settings.obj
 0002:00005a7c       ??_C@_0L@GJCNFDMJ@SshNoShell?$AA@ 0046da7c     settings.obj
 0002:00005a88       ??_C@_07IJKOAEAB@SshProt?$AA@ 0046da88     settings.obj
 0002:00005a90       ??_C@_07JKMCGKPM@LogHost?$AA@ 0046da90     settings.obj
 0002:00005a98       ??_C@_07JIBCMKKI@SSH2DES?$AA@ 0046da98     settings.obj
 0002:00005aa0       ??_C@_0O@DBKBLPLH@PublicKeyFile?$AA@ 0046daa0     settings.obj
 0002:00005ab0       ??_C@_0O@KIBMIAMB@RemoteCommand?$AA@ 0046dab0     settings.obj
 0002:00005ac0       ??_C@_0L@EKHPMACB@RFCEnviron?$AA@ 0046dac0     settings.obj
 0002:00005acc       ??_C@_0O@NFKJOOLK@PassiveTelnet?$AA@ 0046dacc     settings.obj
 0002:00005adc       ??_C@_0BC@JNJDLGLL@BackspaceIsDelete?$AA@ 0046dadc     settings.obj
 0002:00005af0       ??_C@_0M@IAIPMGHM@RXVTHomeEnd?$AA@ 0046daf0     settings.obj
 0002:00005afc       ??_C@_0BC@BBBMIOEA@LinuxFunctionKeys?$AA@ 0046dafc     settings.obj
 0002:00005b10       ??_C@_0BC@GFKFPOKF@NoApplicationKeys?$AA@ 0046db10     settings.obj
 0002:00005b24       ??_C@_0BF@BNOOACFM@NoApplicationCursors?$AA@ 0046db24     settings.obj
 0002:00005b3c       ??_C@_0BB@LKDBJLNO@NoMouseReporting?$AA@ 0046db3c     settings.obj
 0002:00005b50       ??_C@_0P@NHOBLDKM@NoRemoteResize?$AA@ 0046db50     settings.obj
 0002:00005b60       ??_C@_0M@NLLEMLGG@NoAltScreen?$AA@ 0046db60     settings.obj
 0002:00005b6c       ??_C@_0BB@GFKNAPEB@NoRemoteWinTitle?$AA@ 0046db6c     settings.obj
 0002:00005b80       ??_C@_0BE@FPDFACDB@NoRemoteClearScroll?$AA@ 0046db80     settings.obj
 0002:00005b94       ??_C@_0BD@NNAFOHOC@RemoteQTitleAction?$AA@ 0046db94     settings.obj
 0002:00005ba8       ??_C@_0N@CINAKFBC@NoDBackspace?$AA@ 0046dba8     settings.obj
 0002:00005bb8       ??_C@_0BA@GBAEKIHO@NoRemoteCharset?$AA@ 0046dbb8     settings.obj
 0002:00005bc8       ??_C@_0BG@OMJCNGBD@ApplicationCursorKeys?$AA@ 0046dbc8     settings.obj
 0002:00005be0       ??_C@_0BC@LPJJOBAL@ApplicationKeypad?$AA@ 0046dbe0     settings.obj
 0002:00005bf4       ??_C@_0O@ODHLPDBL@NetHackKeypad?$AA@ 0046dbf4     settings.obj
 0002:00005c04       ??_C@_05PNJLCIJH@AltF4?$AA@ 0046dc04     settings.obj
 0002:00005c0c       ??_C@_08ONDFFNLC@AltSpace?$AA@ 0046dc0c     settings.obj
 0002:00005c18       ??_C@_07BNCFDEPA@AltOnly?$AA@ 0046dc18     settings.obj
 0002:00005c20       ??_C@_0L@KHCMDGHF@ComposeKey?$AA@ 0046dc20     settings.obj
 0002:00005c2c       ??_C@_0M@IALMOGEC@CtrlAltKeys?$AA@ 0046dc2c     settings.obj
 0002:00005c38       ??_C@_09EOCMDLLC@TelnetKey?$AA@ 0046dc38     settings.obj
 0002:00005c44       ??_C@_09NGJDFNOK@TelnetRet?$AA@ 0046dc44     settings.obj
 0002:00005c50       ??_C@_09KJLHDNO@LocalEcho?$AA@ 0046dc50     settings.obj
 0002:00005c5c       ??_C@_09DPLIOKMK@LocalEdit?$AA@ 0046dc5c     settings.obj
 0002:00005c68       ??_C@_0L@BALPGHLA@Answerback?$AA@ 0046dc68     settings.obj
 0002:00005c74       ??_C@_0M@LEOHJBHA@AlwaysOnTop?$AA@ 0046dc74     settings.obj
 0002:00005c80       ??_C@_0BF@EHMMPINK@FullScreenOnAltEnter?$AA@ 0046dc80     settings.obj
 0002:00005c98       ??_C@_0N@LEODHNGP@HideMousePtr?$AA@ 0046dc98     settings.obj
 0002:00005ca8       ??_C@_0L@OGFBKFHD@SunkenEdge?$AA@ 0046dca8     settings.obj
 0002:00005cb4       ??_C@_0N@IABNAJJO@WindowBorder?$AA@ 0046dcb4     settings.obj
 0002:00005cc4       ??_C@_07FCKKMHHB@CurType?$AA@ 0046dcc4     settings.obj
 0002:00005ccc       ??_C@_08GKHGBCHI@BlinkCur?$AA@ 0046dccc     settings.obj
 0002:00005cd8       ??_C@_04HGDFHEMH@Beep?$AA@ 0046dcd8     settings.obj
 0002:00005ce0       ??_C@_07CMMEKHFM@BeepInd?$AA@ 0046dce0     settings.obj
 0002:00005ce8       ??_C@_0N@BJJHCJCA@BellWaveFile?$AA@ 0046dce8     settings.obj
 0002:00005cf8       ??_C@_0N@IPMNIPGA@BellOverload?$AA@ 0046dcf8     settings.obj
 0002:00005d08       ??_C@_0O@CDMHMOFM@BellOverloadN?$AA@ 0046dd08     settings.obj
 0002:00005d18       ??_C@_0O@JDOKDEIH@BellOverloadT?$AA@ 0046dd18     settings.obj
 0002:00005d28       ??_C@_0O@NMKLKCEA@BellOverloadS?$AA@ 0046dd28     settings.obj
 0002:00005d38       ??_C@_0BA@MABCDIFL@ScrollbackLines?$AA@ 0046dd38     settings.obj
 0002:00005d48       ??_C@_0O@LEEOHPBE@DECOriginMode?$AA@ 0046dd48     settings.obj
 0002:00005d58       ??_C@_0N@ILJAOEK@AutoWrapMode?$AA@ 0046dd58     settings.obj
 0002:00005d68       ??_C@_0M@FNIJEIEH@LFImpliesCR?$AA@ 0046dd68     settings.obj
 0002:00005d74       ??_C@_0M@BEMAPABH@CRImpliesLF?$AA@ 0046dd74     settings.obj
 0002:00005d80       ??_C@_0BF@JGEFHOEO@DisableArabicShaping?$AA@ 0046dd80     settings.obj
 0002:00005d98       ??_C@_0M@NDKNKJNC@DisableBidi?$AA@ 0046dd98     settings.obj
 0002:00005da4       ??_C@_0O@KBKLHJPB@WinNameAlways?$AA@ 0046dda4     settings.obj
 0002:00005db4       ??_C@_08KFMPIOHG@WinTitle?$AA@ 0046ddb4     settings.obj
 0002:00005dc0       ??_C@_09HBFLKCJM@TermWidth?$AA@ 0046ddc0     settings.obj
 0002:00005dcc       ??_C@_0L@OOPDCIKD@TermHeight?$AA@ 0046ddcc     settings.obj
 0002:00005dd8       ??_C@_04IEDBBIIG@Font?$AA@ 0046ddd8     settings.obj
 0002:00005de0       ??_C@_0M@KJKEBPLJ@FontQuality?$AA@ 0046dde0     settings.obj
 0002:00005dec       ??_C@_0L@HFLKBGMB@FontVTMode?$AA@ 0046ddec     settings.obj
 0002:00005df8       ??_C@_0BB@FPEGLBEG@UseSystemColours?$AA@ 0046ddf8     settings.obj
 0002:00005e0c       ??_C@_0L@LIPCLLA@TryPalette?$AA@ 0046de0c     settings.obj
 0002:00005e18       ??_C@_0L@ICDFAFOH@ANSIColour?$AA@ 0046de18     settings.obj
 0002:00005e24       ??_C@_0P@GNOFNGDF@Xterm256Colour?$AA@ 0046de24     settings.obj
 0002:00005e34       ??_C@_0L@HAGJIDOI@TrueColour?$AA@ 0046de34     settings.obj
 0002:00005e40       ??_C@_0N@OCJNFBJL@BoldAsColour?$AA@ 0046de40     settings.obj
 0002:00005e50       ??_C@_08INIFNAJK@Colour?$CFd?$AA@ 0046de50     settings.obj
 0002:00005e5c       ??_C@_08GDAMKODC@?$CFd?0?$CFd?0?$CFd?$AA@ 0046de5c     settings.obj
 0002:00005e68       ??_C@_06BHJNDCHC@RawCNP?$AA@ 0046de68     settings.obj
 0002:00005e70       ??_C@_0N@OMCGNKMB@UTF8linedraw?$AA@ 0046de70     settings.obj
 0002:00005e80       ??_C@_08MHJGNOJI@PasteRTF?$AA@ 0046de80     settings.obj
 0002:00005e8c       ??_C@_0N@FIBAMOBA@MouseIsXterm?$AA@ 0046de8c     settings.obj
 0002:00005e9c       ??_C@_0L@NFGMPOPM@RectSelect?$AA@ 0046de9c     settings.obj
 0002:00005ea8       ??_C@_0O@PAKNEKAO@PasteControls?$AA@ 0046dea8     settings.obj
 0002:00005eb8       ??_C@_0O@HLHLGPKK@MouseOverride?$AA@ 0046deb8     settings.obj
 0002:00005ec8       ??_C@_0L@BELKIKMP@Wordness?$CFd?$AA@ 0046dec8     settings.obj
 0002:00005ed4       ??_C@_0O@MGGEICPL@MouseAutocopy?$AA@ 0046ded4     settings.obj
 0002:00005ee4       ??_C@_0L@HCAJDALL@MousePaste?$AA@ 0046dee4     settings.obj
 0002:00005ef0       ??_C@_0N@JOFCEPDE@CtrlShiftIns?$AA@ 0046def0     settings.obj
 0002:00005f00       ??_C@_0M@OFNOIOKM@CtrlShiftCV?$AA@ 0046df00     settings.obj
 0002:00005f0c       ??_C@_0N@HAKENDJO@LineCodePage?$AA@ 0046df0c     settings.obj
 0002:00005f1c       ??_C@_0N@BPNEJBB@CJKAmbigWide?$AA@ 0046df1c     settings.obj
 0002:00005f2c       ??_C@_0N@PIJCCBHN@UTF8Override?$AA@ 0046df2c     settings.obj
 0002:00005f3c       ??_C@_07KLNKAJI@Printer?$AA@ 0046df3c     settings.obj
 0002:00005f44       ??_C@_0M@MBCMAAJO@CapsLockCyr?$AA@ 0046df44     settings.obj
 0002:00005f50       ??_C@_09POMGMCPK@ScrollBar?$AA@ 0046df50     settings.obj
 0002:00005f5c       ??_C@_0BE@KMIMBHDM@ScrollBarFullScreen?$AA@ 0046df5c     settings.obj
 0002:00005f70       ??_C@_0M@JIDFKMDN@ScrollOnKey?$AA@ 0046df70     settings.obj
 0002:00005f7c       ??_C@_0N@LCNOKNPE@ScrollOnDisp?$AA@ 0046df7c     settings.obj
 0002:00005f8c       ??_C@_0BC@POFKFLGE@EraseToScrollback?$AA@ 0046df8c     settings.obj
 0002:00005fa0       ??_C@_08IIIHHPEC@LockSize?$AA@ 0046dfa0     settings.obj
 0002:00005fac       ??_C@_03BAHEDIIM@BCE?$AA@  0046dfac     settings.obj
 0002:00005fb0       ??_C@_09JKKJKKDF@BlinkText?$AA@ 0046dfb0     settings.obj
 0002:00005fbc       ??_C@_0L@KCBEKKGN@X11Forward?$AA@ 0046dfbc     settings.obj
 0002:00005fc8       ??_C@_0L@OJPLDOHH@X11Display?$AA@ 0046dfc8     settings.obj
 0002:00005fd4       ??_C@_0M@JGIOOIKI@X11AuthType?$AA@ 0046dfd4     settings.obj
 0002:00005fe0       ??_C@_0M@MJILCBMB@X11AuthFile?$AA@ 0046dfe0     settings.obj
 0002:00005fec       ??_C@_0BD@JODMNHAM@LocalPortAcceptAll?$AA@ 0046dfec     settings.obj
 0002:00006000       ??_C@_0BE@NGBGOEKN@RemotePortAcceptAll?$AA@ 0046e000     settings.obj
 0002:00006014       ??_C@_0BA@DEGJFOOK@PortForwardings?$AA@ 0046e014     settings.obj
 0002:00006024       ??_C@_0L@CKBGAPPJ@BugIgnore1?$AA@ 0046e024     settings.obj
 0002:00006030       ??_C@_0M@FBLBOFAP@BugPlainPW1?$AA@ 0046e030     settings.obj
 0002:0000603c       ??_C@_07HGKKPJMK@BugRSA1?$AA@ 0046e03c     settings.obj
 0002:00006044       ??_C@_0L@BDLFMDK@BugIgnore2?$AA@ 0046e044     settings.obj
 0002:00006050       ??_C@_08LMFPGBAG@BugHMAC2?$AA@ 0046e050     settings.obj
 0002:0000605c       ??_C@_0O@HHCGBINB@BugDeriveKey2?$AA@ 0046e05c     settings.obj
 0002:0000606c       ??_C@_0L@OKCDPKPE@BugRSAPad2?$AA@ 0046e06c     settings.obj
 0002:00006078       ??_C@_0N@EAJDOHJN@BugPKSessID2?$AA@ 0046e078     settings.obj
 0002:00006088       ??_C@_09FOBJEPJI@BugRekey2?$AA@ 0046e088     settings.obj
 0002:00006094       ??_C@_0L@CAKKHIHJ@BugMaxPkt2?$AA@ 0046e094     settings.obj
 0002:000060a0       ??_C@_0L@EMEJBJOB@BugOldGex2?$AA@ 0046e0a0     settings.obj
 0002:000060ac       ??_C@_09FKPNFPBM@BugWinadj?$AA@ 0046e0ac     settings.obj
 0002:000060b8       ??_C@_0L@NBODBIIG@BugChanReq?$AA@ 0046e0b8     settings.obj
 0002:000060c4       ??_C@_09GFIFOOCP@StampUtmp?$AA@ 0046e0c4     settings.obj
 0002:000060d0       ??_C@_0L@ODMMKNII@LoginShell?$AA@ 0046e0d0     settings.obj
 0002:000060dc       ??_C@_0BA@JCLCLPLH@ScrollbarOnLeft?$AA@ 0046e0dc     settings.obj
 0002:000060ec       ??_C@_08ICMGAJHO@BoldFont?$AA@ 0046e0ec     settings.obj
 0002:000060f8       ??_C@_08FKENJKAF@WideFont?$AA@ 0046e0f8     settings.obj
 0002:00006104       ??_C@_0N@HNHKBGGM@WideBoldFont?$AA@ 0046e104     settings.obj
 0002:00006114       ??_C@_0L@MCFOPLPK@ShadowBold?$AA@ 0046e114     settings.obj
 0002:00006120       ??_C@_0BB@DEENLAPN@ShadowBoldOffset?$AA@ 0046e120     settings.obj
 0002:00006134       ??_C@_0L@IAACJGLI@SerialLine?$AA@ 0046e134     settings.obj
 0002:00006140       ??_C@_0M@IMNKFFDH@SerialSpeed?$AA@ 0046e140     settings.obj
 0002:0000614c       ??_C@_0P@PNCDCCLH@SerialDataBits?$AA@ 0046e14c     settings.obj
 0002:0000615c       ??_C@_0BD@GNGKCION@SerialStopHalfbits?$AA@ 0046e15c     settings.obj
 0002:00006170       ??_C@_0N@DLJOCBBM@SerialParity?$AA@ 0046e170     settings.obj
 0002:00006180       ??_C@_0BC@BGBNEFKO@SerialFlowControl?$AA@ 0046e180     settings.obj
 0002:00006194       ??_C@_0M@NMEBEKD@WindowClass?$AA@ 0046e194     settings.obj
 0002:000061a0       ??_C@_0BC@MFEIKFMM@ConnectionSharing?$AA@ 0046e1a0     settings.obj
 0002:000061b4       ??_C@_0BK@DFGOFBLA@ConnectionSharingUpstream?$AA@ 0046e1b4     settings.obj
 0002:000061d0       ??_C@_0BM@OEKMOMPP@ConnectionSharingDownstream?$AA@ 0046e1d0     settings.obj
 0002:000061ec       ??_C@_0BC@MKKNGENI@SSHManualHostKeys?$AA@ 0046e1ec     settings.obj
 0002:00006200       ??_C@_07DLHCIBDH@default?$AA@ 0046e200     settings.obj
 0002:00006208       ??_C@_05COMADJBK@xterm?$AA@ 0046e208     settings.obj
 0002:00006210       ??_C@_0M@CABGKPOJ@38400?038400?$AA@ 0046e210     settings.obj
 0002:0000621c       ??_C@_01FHEEJDEE@A?$AA@    0046e21c     settings.obj
 0002:00006220       ??_C@_01NANMIPIL@N?$AA@    0046e220     settings.obj
 0002:00006224       ??_C@_09BGIKPLGP@ProxyType?$AA@ 0046e224     settings.obj
 0002:00006230       ??_C@_0BC@FOBJKCLC@ProxySOCKSVersion?$AA@ 0046e230     settings.obj
 0002:00006244       ??_C@_0BG@GKDLINPC@connect?5?$CFhost?5?$CFport?2n?$AA@ 0046e244     settings.obj
 0002:0000625c       ??_C@_01LOCGONAA@?$AA?$AA@ 0046e25c     settings.obj
 0002:00006260       ??_C@_0DJ@MPKBJJ@ecdh?0dh?9gex?9sha1?0dh?9group14?9sha1@ 0046e260     settings.obj
 0002:0000629c       ??_C@_0DJ@EABHHLNC@ecdh?0dh?9group14?9sha1?0rsa?0WARN?0dh@ 0046e29c     settings.obj
 0002:000062d8       ??_C@_09EEOEPHII@BugDHGEx2?$AA@ 0046e2d8     settings.obj
 0002:000062e4       ??_C@_1BI@INPKPAKF@?$AAr?$AAa?$AAw?$AA?5?$AA?$CB?$AA?$DN?$AA?5?$AAN?$AAU?$AAL?$AAL?$AA?$AA@ 0046e2e4     settings.obj
 0002:000062fc       ??_C@_0DE@IBDFHALG@dh?9group14?9sha1?0dh?9group1?9sha1?0r@ 0046e2fc     settings.obj
 0002:00006330       ??_C@_0DE@HLPMGGDH@dh?9gex?9sha1?0dh?9group14?9sha1?0dh?9g@ 0046e330     settings.obj
 0002:00006364       ??_C@_0BL@KMNDLLJK@ed25519?0ecdsa?0rsa?0dsa?0WARN?$AA@ 0046e364     settings.obj
 0002:00006380       ??_C@_02JKCPHAII@1G?$AA@   0046e380     settings.obj
 0002:00006384       ??_C@_0P@LJKHKCJK@NoRemoteQTitle?$AA@ 0046e384     settings.obj
 0002:00006394       ??_C@_05DHCCMBJA@PuTTY?$AA@ 0046e394     settings.obj
 0002:0000639c       ??_C@_08GBHCOLMC@BuggyMAC?$AA@ 0046e39c     settings.obj
 0002:000063a8       ??_C@_0BB@PMGECFAG@Default?5Settings?$AA@ 0046e3a8     settings.obj
 0002:000063e0       ??_C@_0BH@MEKFPJGG@unexpected?5OK?5response?$AA@ 0046e3e0     sftp.obj
 0002:000063f8       ??_C@_0M@IDJOOACD@end?5of?5file?$AA@ 0046e3f8     sftp.obj
 0002:00006404       ??_C@_0BK@NDOCBPGE@no?5such?5file?5or?5directory?$AA@ 0046e404     sftp.obj
 0002:00006420       ??_C@_0BC@CIJDGCDI@permission?5denied?$AA@ 0046e420     sftp.obj
 0002:00006434       ??_C@_07MBLPHJFH@failure?$AA@ 0046e434     sftp.obj
 0002:0000643c       ??_C@_0M@PMMIEFCP@bad?5message?$AA@ 0046e43c     sftp.obj
 0002:00006448       ??_C@_0O@EFMNOFHN@no?5connection?$AA@ 0046e448     sftp.obj
 0002:00006458       ??_C@_0BA@CHAAGJKB@connection?5lost?$AA@ 0046e458     sftp.obj
 0002:00006468       ??_C@_0BG@HIGMDFMO@operation?5unsupported?$AA@ 0046e468     sftp.obj
 0002:00006480       ??_C@_1BE@MOJIBJKE@?$AA?4?$AA?4?$AA?2?$AAs?$AAf?$AAt?$AAp?$AA?4?$AAc?$AA?$AA@ 0046e480     sftp.obj
 0002:00006498       ??_C@_1GC@BPHOKDPD@?$AAN?$AAU?$AAL?$AAL?$AA?5?$AA?$DN?$AA?$DN?$AA?5?$AAf?$AAi?$AAn?$AAd?$AA2?$AA3?$AA4?$AA?$CI?$AAs?$AAf?$AAt?$AAp?$AA_?$AAr?$AAe?$AAq?$AAu?$AAe?$AAs?$AAt?$AAs?$AA?0?$AA?5?$AA?$CG@ 0046e498     sftp.obj
 0002:000064fc       ??_C@_0CF@NIOKEKLL@did?5not?5receive?5a?5valid?5SFTP?5pac@ 0046e4fc     sftp.obj
 0002:00006524       ??_C@_0BF@NKHOFAM@request?5ID?5mismatch?6?$AA@ 0046e524     sftp.obj
 0002:0000653c       ??_C@_0BL@ECIJKKOL@expected?5FXP_STATUS?5packet?$AA@ 0046e53c     sftp.obj
 0002:00006558       ??_C@_0BM@MNGOPDFD@malformed?5FXP_STATUS?5packet?$AA@ 0046e558     sftp.obj
 0002:00006574       ??_C@_0BD@KFLAIOGJ@unknown?5error?5code?$AA@ 0046e574     sftp.obj
 0002:00006588       ??_C@_0BC@OBHFAANF@could?5not?5connect?$AA@ 0046e588     sftp.obj
 0002:0000659c       ??_C@_0BM@EKNANIOJ@did?5not?5receive?5FXP_VERSION?$AA@ 0046e59c     sftp.obj
 0002:000065b8       ??_C@_0BN@BFEAMPBL@malformed?5FXP_VERSION?5packet?$AA@ 0046e5b8     sftp.obj
 0002:000065d8       ??_C@_0DB@DKEFLDEL@remote?5protocol?5is?5more?5advanced@ 0046e5d8     sftp.obj
 0002:0000660c       ??_C@_0CJ@CHLGLDNK@REALPATH?5did?5not?5return?5name?5cou@ 0046e60c     sftp.obj
 0002:00006638       ??_C@_0CG@OEAFCPKG@REALPATH?5returned?5malformed?5FXP_@ 0046e638     sftp.obj
 0002:00006660       ??_C@_0BO@BMBDHEPD@received?5malformed?5FXP_HANDLE?$AA@ 0046e660     sftp.obj
 0002:00006680       ??_C@_0BP@IEALGBMG@malformed?5SSH_FXP_ATTRS?5packet?$AA@ 0046e680     sftp.obj
 0002:000066a0       ??_C@_0CM@HCLNKABL@READ?5returned?5malformed?5SSH_FXP_@ 0046e6a0     sftp.obj
 0002:000066cc       ??_C@_0CI@EHDIHHKI@READ?5returned?5more?5bytes?5than?5re@ 0046e6cc     sftp.obj
 0002:000066f4       ??_C@_0BK@BNJGEBNE@malformed?5FXP_NAME?5packet?$AA@ 0046e6f4     sftp.obj
 0002:00006710       ??_C@_0CD@GJDBKENL@unreasonably?5large?5FXP_NAME?5pack@ 0046e710     sftp.obj
 0002:00006734       ??_C@_0CP@MAHLIIBK@request?5ID?5is?5not?5part?5of?5the?5cu@ 0046e734     sftp.obj
 0002:00006764       ??_C@_0DG@MNLJKCBN@received?5a?5short?5buffer?5from?5FXP@ 0046e764     sftp.obj
 0002:0000679c       ??_C@_0CN@MIJGCJMO@request?5ID?5is?5not?5part?5of?5the?5cu@ 0046e79c     sftp.obj
 0002:000067d0       _no_attrs                  0046e7d0     sftpcommon.obj
 0002:000067f8       ??_C@_1CA@JOFEEKOG@?$AA?4?$AA?4?$AA?2?$AAs?$AAf?$AAt?$AAp?$AAc?$AAo?$AAm?$AAm?$AAo?$AAn?$AA?4?$AAc?$AA?$AA@ 0046e7f8     sftpcommon.obj
 0002:00006818       ??_C@_1EI@JOJHJBKB@?$AAl?$AAe?$AAn?$AAg?$AAt?$AAh?$AA?5?$AA?$DM?$AA?$DN?$AA?5?$AA0?$AAx?$AAF?$AAF?$AAF?$AAF?$AAF?$AAF?$AAF?$AAF?$AAU?$AA?5?$AA?9?$AA?5?$AAp?$AAk?$AAt?$AA?9?$AA?$DO?$AAl?$AAe?$AAn@ 0046e818     sftpcommon.obj
 0002:00006878       _ssh_backend               0046e878     ssh.obj
 0002:000068c4       ??_C@_03FMKCBIDH@ssh?$AA@  0046e8c4     ssh.obj
 0002:000068c8       ??_C@_1BC@LPFNKHFH@?$AA?4?$AA?4?$AA?2?$AAs?$AAs?$AAh?$AA?4?$AAc?$AA?$AA@ 0046e8c8     ssh.obj
 0002:000068dc       ??_C@_1DM@JCOBHOGK@?$AAs?$AAs?$AAh?$AA?9?$AA?$DO?$AAv?$AAe?$AAr?$AAs?$AAi?$AAo?$AAn?$AA?5?$AA?$DN?$AA?$DN?$AA?5?$AAm?$AAa?$AAj?$AAo?$AAr?$AA_?$AAv?$AAe?$AAr?$AAs?$AAi?$AAo?$AAn?$AA?$AA@ 0046e8dc     ssh.obj
 0002:00006918       ??_C@_1CG@HCKPIONF@?$AAs?$AAs?$AAh?$AA?9?$AA?$DO?$AAg?$AAs?$AAs?$AA_?$AAs?$AAt?$AAa?$AAt?$AAe?$AA?4?$AAl?$AAi?$AAb?$AA?$AA@ 0046e918     ssh.obj
 0002:00006940       ??_C@_0CO@FHIPNKID@Reusing?5a?5shared?5connection?5to?5t@ 0046e940     ssh.obj
 0002:00006970       ??_C@_0P@OGAGIFE@SSH?5connection?$AA@ 0046e970     ssh.obj
 0002:00006980       ??_C@_1DK@PDHAMBLG@?$AAs?$AAs?$AAh?$AAp?$AAr?$AAo?$AAt?$AA?5?$AA?$DN?$AA?$DN?$AA?5?$AA0?$AA?5?$AA?$HM?$AA?$HM?$AA?5?$AAs?$AAs?$AAh?$AAp?$AAr?$AAo?$AAt?$AA?5?$AA?$DN?$AA?$DN?$AA?5?$AA3?$AA?$AA@ 0046e980     ssh.obj
 0002:000069bc       ??_C@_03GJAMENNA@2?40?$AA@ 0046e9bc     ssh.obj
 0002:000069c0       ??_C@_1DM@ICDCJA@?$AAs?$AAs?$AAh?$AA?9?$AA?$DO?$AAc?$AAo?$AAn?$AAn?$AA_?$AAt?$AAh?$AAr?$AAo?$AAt?$AAt?$AAl?$AAe?$AA_?$AAc?$AAo?$AAu?$AAn?$AAt?$AA?5?$AA?$DO?$AA?$DN?$AA?5?$AA0?$AA?$AA@ 0046e9c0     ssh.obj
 0002:00006a14       ??_C@_1BK@BKMHHPIF@?$AA?4?$AA?4?$AA?2?$AAs?$AAs?$AAh?$AA1?$AAb?$AAp?$AAp?$AA?4?$AAc?$AA?$AA@ 0046ea14     ssh1bpp.obj
 0002:00006a30       ??_C@_1DI@FMCFLIEP@?$AAb?$AAp?$AAp?$AA?9?$AA?$DO?$AAv?$AAt?$AA?5?$AA?$DN?$AA?$DN?$AA?5?$AA?$CG?$AAs?$AAs?$AAh?$AA1?$AA_?$AAb?$AAp?$AAp?$AA_?$AAv?$AAt?$AAa?$AAb?$AAl?$AAe?$AA?$AA@ 0046ea30     ssh1bpp.obj
 0002:00006a68       ??_C@_1BM@LAGDBEBO@?$AA?$CB?$AAs?$AA?9?$AA?$DO?$AAc?$AAi?$AAp?$AAh?$AAe?$AAr?$AA_?$AAi?$AAn?$AA?$AA@ 0046ea68     ssh1bpp.obj
 0002:00006a84       ??_C@_1BO@IFLIJHNF@?$AA?$CB?$AAs?$AA?9?$AA?$DO?$AAc?$AAi?$AAp?$AAh?$AAe?$AAr?$AA_?$AAo?$AAu?$AAt?$AA?$AA@ 0046ea84     ssh1bpp.obj
 0002:00006aa4       ??_C@_1BM@CHPAMMAC@?$AA?$CB?$AAs?$AA?9?$AA?$DO?$AAc?$AAr?$AAc?$AAd?$AAa?$AA_?$AAc?$AAt?$AAx?$AA?$AA@ 0046eaa4     ssh1bpp.obj
 0002:00006ac0       ??_C@_0BK@MMAMGDDL@Initialised?5?$CFs?5encryption?$AA@ 0046eac0     ssh1bpp.obj
 0002:00006ae0       ??_C@_1EC@EIPIILIJ@?$AAc?$AAi?$AAp?$AAh?$AAe?$AAr?$AA?9?$AA?$DO?$AAb?$AAl?$AAk?$AAs?$AAi?$AAz?$AAe?$AA?5?$AA?$DM?$AA?$DN?$AA?5?$AAs?$AAi?$AAz?$AAe?$AAo?$AAf?$AA?$CI?$AAs?$AA?9?$AA?$DO?$AAi?$AAv?$AA?$CJ@ 0046eae0     ssh1bpp.obj
 0002:00006b24       ??_C@_1BI@NNNONCKI@?$AA?$CB?$AAs?$AA?9?$AA?$DO?$AAc?$AAo?$AAm?$AAp?$AAc?$AAt?$AAx?$AA?$AA@ 0046eb24     ssh1bpp.obj
 0002:00006b3c       ??_C@_1BM@PNFNBCNM@?$AA?$CB?$AAs?$AA?9?$AA?$DO?$AAd?$AAe?$AAc?$AAo?$AAm?$AAp?$AAc?$AAt?$AAx?$AA?$AA@ 0046eb3c     ssh1bpp.obj
 0002:00006b58       ??_C@_0CD@EPBMFMLD@Started?5zlib?5?$CIRFC1950?$CJ?5compressi@ 0046eb58     ssh1bpp.obj
 0002:00006b80       ??_C@_0EH@EICCKJGA@Out?9of?9range?5packet?5length?5from?5@ 0046eb80     ssh1bpp.obj
 0002:00006bc8       ??_C@_0CM@ONOGIJID@Network?5attack?5?$CICRC?5compensation@ 0046ebc8     ssh1bpp.obj
 0002:00006bf4       ??_C@_1BO@NPPKKDLH@?$AAs?$AA?9?$AA?$DO?$AAb?$AAi?$AAg?$AAl?$AAe?$AAn?$AA?5?$AA?$DO?$AA?$DN?$AA?5?$AA8?$AA?$AA@ 0046ebf4     ssh1bpp.obj
 0002:00006c14       ??_C@_0CB@NDPIGBGP@Incorrect?5CRC?5received?5on?5packet@ 0046ec14     ssh1bpp.obj
 0002:00006c38       ??_C@_0CM@OBCNCOIA@Zlib?5decompression?5encountered?5i@ 0046ec38     ssh1bpp.obj
 0002:00006c64       ??_C@_0DD@MHPKBFHH@Remote?5side?5unexpectedly?5closed?5@ 0046ec64     ssh1bpp.obj
 0002:00006c98       ??_C@_0CG@PKCOFJKH@Remote?5side?5closed?5network?5conne@ 0046ec98     ssh1bpp.obj
 0002:00006d9c       ??_C@_1CI@HHJKPPLC@?$AA?4?$AA?4?$AA?2?$AAs?$AAs?$AAh?$AA1?$AAc?$AAo?$AAn?$AAn?$AAe?$AAc?$AAt?$AAi?$AAo?$AAn?$AA?4?$AAc?$AA?$AA@ 0046ed9c     ssh1connection.obj
 0002:00006dc8       ??_C@_1EG@IPFAHPPH@?$AAp?$AAp?$AAl?$AA?9?$AA?$DO?$AAv?$AAt?$AA?5?$AA?$DN?$AA?$DN?$AA?5?$AA?$CG?$AAs?$AAs?$AAh?$AA1?$AA_?$AAc?$AAo?$AAn?$AAn?$AAe?$AAc?$AAt?$AAi?$AAo?$AAn?$AA_?$AAv?$AAt?$AAa?$AAb@ 0046edc8     ssh1connection.obj
 0002:00006e10       ??_C@_0M@LKCCPDMK@nonexistent?$AA@ 0046ee10     ssh1connection.obj
 0002:00006e1c       ??_C@_09IEHCJDML@half?9open?$AA@ 0046ee1c     ssh1connection.obj
 0002:00006e28       ??_C@_0BO@FNGJIAKB@Received?5?$CFs?5for?5?$CFs?5channel?5?$CFu?$AA@ 0046ee28     ssh1connection.obj
 0002:00006e48       ??_C@_1BI@EMDFBGGA@?$AAc?$AA?9?$AA?$DO?$AAh?$AAa?$AAl?$AAf?$AAo?$AAp?$AAe?$AAn?$AA?$AA@ 0046ee48     ssh1connection.obj
 0002:00006e60       ??_C@_0FK@CKODJBNF@Received?5CHANNEL_CLOSE_CONFIRMAT@ 0046ee60     ssh1connection.obj
 0002:00006ebc       ??_C@_0BK@OJHOFMHH@Authentication?5successful?$AA@ 0046eebc     ssh1connection.obj
 0002:00006ed8       ??_C@_0DA@BJCENIDN@Access?5granted?4?5Press?5Return?5to?5@ 0046eed8     ssh1connection.obj
 0002:00006f08       ??_C@_0CJ@IHMILJJ@Unexpected?5packet?5received?0?5type@ 0046ef08     ssh1connection.obj
 0002:00006f34       ??_C@_1BO@INKKBANN@?$AAc?$AA?9?$AA?$DO?$AAp?$AAe?$AAn?$AAd?$AAi?$AAn?$AAg?$AA_?$AAe?$AAo?$AAf?$AA?$AA@ 0046ef34     ssh1connection.obj
 0002:00006f54       ??_C@_01CLKCMJKC@?5?$AA@   0046ef54     ssh1connection.obj
 0002:00006f58       ??_C@_0BB@GIDHIKLL@Session?5finished?$AA@ 0046ef58     ssh1connection.obj
 0002:00006f6c       ??_C@_0BH@DNMBHCDJ@due?5to?5local?5error?3?5?$CFs?$AA@ 0046ef6c     ssh1connection.obj
 0002:00006f88       ??_C@_1EC@EJLKAAI@?$AA?$CB?$AA?$CI?$AAc?$AA?9?$AA?$DO?$AAc?$AAl?$AAo?$AAs?$AAe?$AAs?$AA?5?$AA?$CG?$AA?5?$AAC?$AAL?$AAO?$AAS?$AAE?$AAS?$AA_?$AAS?$AAE?$AAN?$AAT?$AA_?$AAC?$AAL?$AAO?$AAS?$AAE?$AA?$CJ@ 0046ef88     ssh1connection.obj
 0002:00006fcc       ??_C@_0CD@BOHMBDGD@Opening?5connection?5to?5?$CFs?3?$CFd?5for?5@ 0046efcc     ssh1connection.obj
 0002:00007044       ??_C@_0CI@FJMANKPK@Received?5?$CFs?5with?5no?5outstanding?5@ 0046f044     ssh1connection-client.obj
 0002:0000706c       ??_C@_0BN@ICJOFFCI@Rejected?5X11?5connect?5request?$AA@ 0046f06c     ssh1connection-client.obj
 0002:0000708c       ??_C@_0BL@PENAMJAF@Opened?5X11?5forward?5channel?$AA@ 0046f08c     ssh1connection-client.obj
 0002:000070a8       ??_C@_0CM@ILAFDJEP@Rejected?5remote?5port?5open?5reques@ 0046f0a8     ssh1connection-client.obj
 0002:000070d4       ??_C@_0CM@EBDODNHE@Received?5remote?5port?5open?5reques@ 0046f0d4     ssh1connection-client.obj
 0002:00007100       ??_C@_0BF@CNMNNBHC@Port?5open?5failed?3?5?$CFs?$AA@ 0046f100     ssh1connection-client.obj
 0002:00007118       ??_C@_0CD@DHNJHFLP@Forwarded?5port?5opened?5successful@ 0046f118     ssh1connection-client.obj
 0002:0000713c       ??_C@_0CD@DDJGPENM@Server?5sent?5command?5exit?5status?5@ 0046f13c     ssh1connection-client.obj
 0002:00007160       ??_C@_0CH@OIAECCL@Remote?5port?5forwarding?5from?5?$CFs?5e@ 0046f160     ssh1connection-client.obj
 0002:00007188       ??_C@_0CH@LNEGBCAA@Remote?5port?5forwarding?5from?5?$CFs?5r@ 0046f188     ssh1connection-client.obj
 0002:000071b0       ??_C@_1DG@PFGFCBKG@?$AA?4?$AA?4?$AA?2?$AAs?$AAs?$AAh?$AA1?$AAc?$AAo?$AAn?$AAn?$AAe?$AAc?$AAt?$AAi?$AAo?$AAn?$AA?9?$AAc?$AAl?$AAi?$AAe?$AAn?$AAt?$AA?4?$AAc?$AA?$AA@ 0046f1b0     ssh1connection-client.obj
 0002:000071e8       ??_C@_1BM@FHEGKCJN@?$AAr?$AAe?$AAa?$AAl?$AAp?$AAf?$AA?5?$AA?$DN?$AA?$DN?$AA?5?$AAr?$AAp?$AAf?$AA?$AA@ 0046f1e8     ssh1connection-client.obj
 0002:00007208       ??_C@_1GA@CPKLDNIP@?$AAf?$AAa?$AAl?$AAs?$AAe?$AA?5?$AA?$CG?$AA?$CG?$AA?5?$AA?$CC?$AAS?$AAh?$AAo?$AAu?$AAl?$AAd?$AA?5?$AAn?$AAe?$AAv?$AAe?$AAr?$AA?5?$AAb?$AAe?$AA?5?$AAc?$AAa?$AAl?$AAl?$AAe?$AAd@ 0046f208     ssh1connection-client.obj
 0002:0000728c       ??_C@_0BP@IGKLADLI@Public?5key?5packet?5not?5received?$AA@ 0046f28c     ssh1login.obj
 0002:000072ac       ??_C@_0BF@OIEJEBFE@Received?5public?5keys?$AA@ 0046f2ac     ssh1login.obj
 0002:000072c4       ??_C@_0BJ@JJNAKBGD@Host?5key?5fingerprint?5is?3?$AA@ 0046f2c4     ssh1login.obj
 0002:000072e0       ??_C@_08PBAHBJAK@?5?5?5?5?5?5?$CFs?$AA@ 0046f2e0     ssh1login.obj
 0002:000072ec       ??_C@_0BM@KGHNKMGE@Bad?5SSH?91?5public?5key?5packet?$AA@ 0046f2ec     ssh1login.obj
 0002:00007308       ??_C@_0CH@IHLPIDPD@SSH?91?5public?5keys?5were?5badly?5for@ 0046f308     ssh1login.obj
 0002:00007330       ??_C@_0DE@NALLKIBP@Host?5key?5did?5not?5appear?5in?5manua@ 0046f330     ssh1login.obj
 0002:00007364       ??_C@_0CG@EHHEHPCC@User?5aborted?5at?5host?5key?5verific@ 0046f364     ssh1login.obj
 0002:0000738c       ??_C@_0DK@PACBCMIN@SSH?91?5public?5key?5encryptions?5fai@ 0046f38c     ssh1login.obj
 0002:000073c8       ??_C@_0BG@FILKDMEH@Encrypted?5session?5key?$AA@ 0046f3c8     ssh1login.obj
 0002:000073e0       ??_C@_0CF@HHJELONP@AES?5not?5supported?5in?5SSH?91?0?5skip@ 0046f3e0     ssh1login.obj
 0002:00007408       ??_C@_04CMONEEGC@3DES?$AA@ 0046f408     ssh1login.obj
 0002:00007410       ??_C@_08KOMAHJJD@Blowfish?$AA@ 0046f410     ssh1login.obj
 0002:0000741c       ??_C@_0L@EOAKHLNE@single?9DES?$AA@ 0046f41c     ssh1login.obj
 0002:00007428       ??_C@_0EB@CHIJKDPJ@Server?5violates?5SSH?91?5protocol?5b@ 0046f428     ssh1login.obj
 0002:0000746c       ??_C@_0BL@PIIHPKCJ@No?5supported?5ciphers?5found?$AA@ 0046f46c     ssh1login.obj
 0002:00007488       ??_C@_06KDGDAFPH@cipher?$AA@ 0046f488     ssh1login.obj
 0002:00007490       ??_C@_0BP@GEALDMIJ@User?5aborted?5at?5cipher?5warning?$AA@ 0046f490     ssh1login.obj
 0002:000074b0       ??_C@_0BG@DIGLDGJI@Using?53DES?5encryption?$AA@ 0046f4b0     ssh1login.obj
 0002:000074c8       ??_C@_0BM@BBOEIGCF@Using?5single?9DES?5encryption?$AA@ 0046f4c8     ssh1login.obj
 0002:000074e4       ??_C@_0BK@EIKCDDM@Using?5Blowfish?5encryption?$AA@ 0046f4e4     ssh1login.obj
 0002:00007500       ??_C@_0BP@LBBLLFBK@Trying?5to?5enable?5encryption?4?4?4?$AA@ 0046f500     ssh1login.obj
 0002:00007520       ??_C@_0CE@FJPBFBDG@Encryption?5not?5successfully?5enab@ 0046f520     ssh1login.obj
 0002:00007544       ??_C@_0CA@JFEIDIEE@Successfully?5started?5encryption?$AA@ 0046f544     ssh1login.obj
 0002:00007564       ??_C@_0P@LPKBKFIB@SSH?5login?5name?$AA@ 0046f564     ssh1login.obj
 0002:00007574       ??_C@_0L@KEHJGFAJ@login?5as?3?5?$AA@ 0046f574     ssh1login.obj
 0002:00007580       ??_C@_0BF@IGAMAODP@No?5username?5provided?$AA@ 0046f580     ssh1login.obj
 0002:00007598       ??_C@_0BD@NJNGFMAH@Sent?5username?5?$CC?$CFs?$CC?$AA@ 0046f598     ssh1login.obj
 0002:000075ac       ??_C@_0BF@NPKLCJBH@Sent?5username?5?$CC?$CFs?$CC?$AN?6?$AA@ 0046f5ac     ssh1login.obj
 0002:000075c4       ??_C@_0BG@BKDHKDOL@Reading?5key?5file?5?$CC?$CFs?$CC?$AA@ 0046f5c4     ssh1login.obj
 0002:000075dc       ??_C@_0CC@JMJFIJAG@Key?5file?5contains?5public?5key?5onl@ 0046f5dc     ssh1login.obj
 0002:00007600       ??_C@_0BI@NGIDAILF@Unable?5to?5load?5key?5?$CI?$CFs?$CJ?$AA@ 0046f600     ssh1login.obj
 0002:00007618       ??_C@_0CE@BAMFPOLN@Unable?5to?5load?5key?5file?5?$CC?$CFs?$CC?5?$CI?$CFs@ 0046f618     ssh1login.obj
 0002:0000763c       ??_C@_0CB@DPBNKMOI@Unable?5to?5use?5this?5key?5file?5?$CI?$CFs?$CJ@ 0046f63c     ssh1login.obj
 0002:00007660       ??_C@_0CD@KDDMHNCB@Unable?5to?5use?5key?5file?5?$CC?$CFs?$CC?5?$CI?$CFs?$CJ@ 0046f660     ssh1login.obj
 0002:00007684       ??_C@_0CF@IBMJOGJN@Pageant?5is?5running?4?5Requesting?5k@ 0046f684     ssh1login.obj
 0002:000076ac       ??_C@_0CB@BLLGNGNN@Pageant?8s?5response?5was?5truncated@ 0046f6ac     ssh1login.obj
 0002:000076d0       ??_C@_0BL@DEODPDJ@Pageant?5has?5?$CFzu?5SSH?91?5keys?$AA@ 0046f6d0     ssh1login.obj
 0002:000076ec       ??_C@_0CN@GDEONGOK@Pageant?5key?5?$CD?$CFzu?5matches?5configu@ 0046f6ec     ssh1login.obj
 0002:0000771c       ??_C@_0CD@CDGGMNPN@Configured?5key?5file?5not?5in?5Pagea@ 0046f71c     ssh1login.obj
 0002:00007740       ??_C@_0CB@BBHJNDBI@Failed?5to?5get?5reply?5from?5Pageant@ 0046f740     ssh1login.obj
 0002:00007764       ??_C@_0BI@GMBNLJLH@Trying?5Pageant?5key?5?$CD?$CFzu?$AA@ 0046f764     ssh1login.obj
 0002:0000777c       ??_C@_0M@ICJGOCKI@Key?5refused?$AA@ 0046f77c     ssh1login.obj
 0002:00007788       ??_C@_0BH@JDPJLPMF@Received?5RSA?5challenge?$AA@ 0046f788     ssh1login.obj
 0002:000077a0       ??_C@_0CL@IOPHBKK@Server?8s?5RSA?5challenge?5was?5badly@ 0046f7a0     ssh1login.obj
 0002:000077cc       ??_C@_0BL@ODHDGAK@Sending?5Pageant?8s?5response?$AA@ 0046f7cc     ssh1login.obj
 0002:000077e8       ??_C@_0BM@OOOCBPA@Pageant?8s?5response?5accepted?$AA@ 0046f7e8     ssh1login.obj
 0002:00007804       ??_C@_0DA@GMADANLM@Authenticated?5using?5RSA?5key?5?$CC?$CF?4?$CK@ 0046f804     ssh1login.obj
 0002:00007834       ??_C@_0CA@HCMDLEPO@Pageant?8s?5response?5not?5accepted?$AA@ 0046f834     ssh1login.obj
 0002:00007854       ??_C@_0CD@FAHGKLDL@Pageant?5failed?5to?5answer?5challen@ 0046f854     ssh1login.obj
 0002:00007878       ??_C@_0BP@CCFNIMAJ@No?5reply?5received?5from?5Pageant?$AA@ 0046f878     ssh1login.obj
 0002:00007898       ??_C@_0CE@IEHJDBPN@Trying?5public?5key?5authentication@ 0046f898     ssh1login.obj
 0002:000078bc       ??_C@_0BH@BLHJIOHH@Trying?5public?5key?5?$CC?$CFs?$CC?$AA@ 0046f8bc     ssh1login.obj
 0002:000078d4       ??_C@_0BK@PCDHHOPE@No?5passphrase?5required?4?$AN?6?$AA@ 0046f8d4     ssh1login.obj
 0002:000078f0       ??_C@_0BD@NGECALDL@SSH?5key?5passphrase?$AA@ 0046f8f0     ssh1login.obj
 0002:00007904       ??_C@_0BK@CGPKBALG@Passphrase?5for?5key?5?$CC?$CFs?$CC?3?5?$AA@ 0046f904     ssh1login.obj
 0002:00007920       ??_C@_0CC@NGMFJOKP@User?5aborted?5at?5passphrase?5promp@ 0046f920     ssh1login.obj
 0002:00007944       ??_C@_0CK@JGBFLJH@Couldn?8t?5load?5private?5key?5from?5?$CF@ 0046f944     ssh1login.obj
 0002:00007970       ??_C@_0BE@BGMEGCKP@Wrong?5passphrase?4?$AN?6?$AA@ 0046f970     ssh1login.obj
 0002:00007984       ??_C@_1BO@GHIBJOHG@?$AA?4?$AA?4?$AA?2?$AAs?$AAs?$AAh?$AA1?$AAl?$AAo?$AAg?$AAi?$AAn?$AA?4?$AAc?$AA?$AA@ 0046f984     ssh1login.obj
 0002:000079a8       ??_C@_1GK@GMHEEBBI@?$AAf?$AAa?$AAl?$AAs?$AAe?$AA?5?$AA?$CG?$AA?$CG?$AA?5?$AA?$CC?$AAu?$AAn?$AAe?$AAx?$AAp?$AAe?$AAc?$AAt?$AAe?$AAd?$AA?5?$AAr?$AAe?$AAt?$AAu?$AAr?$AAn?$AA?5?$AAf?$AAr?$AAo?$AAm@ 0046f9a8     ssh1login.obj
 0002:00007a14       ??_C@_0CB@CLLCFHG@Server?5refused?5our?5public?5key?4?$AN?6@ 0046fa14     ssh1login.obj
 0002:00007a38       ??_C@_0EM@KPKHHAFL@Received?5unexpected?5packet?5in?5re@ 0046fa38     ssh1login.obj
 0002:00007a84       ??_C@_0CO@LGDBEPGH@Failed?5to?5authenticate?5with?5our?5@ 0046fa84     ssh1login.obj
 0002:00007ab8       ??_C@_0EL@KPOIOADP@Received?5unexpected?5packet?5in?5re@ 0046fab8     ssh1login.obj
 0002:00007b04       ??_C@_0BN@GPBLAKNN@Requested?5TIS?5authentication?$AA@ 0046fb04     ssh1login.obj
 0002:00007b24       ??_C@_0BM@OJKDEMHM@TIS?5authentication?5declined?$AA@ 0046fb24     ssh1login.obj
 0002:00007b40       ??_C@_0BO@BFHGKFG@TIS?5authentication?5refused?4?$AN?6?$AA@ 0046fb40     ssh1login.obj
 0002:00007b60       ??_C@_0CG@HNFFOLPD@TIS?5challenge?5packet?5was?5badly?5f@ 0046fb60     ssh1login.obj
 0002:00007b88       ??_C@_0BH@FEAEHOM@Received?5TIS?5challenge?$AA@ 0046fb88     ssh1login.obj
 0002:00007ba0       ??_C@_0BH@FDBBBFIP@SSH?5TIS?5authentication?$AA@ 0046fba0     ssh1login.obj
 0002:00007bb8       ??_C@_0FB@MEJIGENG@?9?9?5TIS?5authentication?5challenge?5@ 0046fbb8     ssh1login.obj
 0002:00007c10       ??_C@_0FB@NAOBEBF@?9?9?5End?5of?5TIS?5authentication?5cha@ 0046fc10     ssh1login.obj
 0002:00007c64       ??_C@_0BO@LFMDMOOG@TIS?5authentication?5response?3?5?$AA@ 0046fc64     ssh1login.obj
 0002:00007c88       ??_C@_0EL@CMPOIJAP@Received?5unexpected?5packet?5in?5re@ 0046fc88     ssh1login.obj
 0002:00007cd4       ??_C@_0CE@EIJKKNAA@Requested?5CryptoCard?5authenticat@ 0046fcd4     ssh1login.obj
 0002:00007cf8       ??_C@_0CD@OINBDJMD@CryptoCard?5authentication?5declin@ 0046fcf8     ssh1login.obj
 0002:00007d1c       ??_C@_0CF@ECGFFMOA@CryptoCard?5authentication?5refuse@ 0046fd1c     ssh1login.obj
 0002:00007d44       ??_C@_0CN@PAJOCAIE@CryptoCard?5challenge?5packet?5was?5@ 0046fd44     ssh1login.obj
 0002:00007d74       ??_C@_0BO@JIIBOJDP@Received?5CryptoCard?5challenge?$AA@ 0046fd74     ssh1login.obj
 0002:00007d94       ??_C@_0BO@POBNLKGI@SSH?5CryptoCard?5authentication?$AA@ 0046fd94     ssh1login.obj
 0002:00007db8       ??_C@_0FB@NLGIAHJH@?9?9?5CryptoCard?5authentication?5cha@ 0046fdb8     ssh1login.obj
 0002:00007e10       ??_C@_0FB@JICKFAAA@?9?9?5End?5of?5CryptoCard?5authenticat@ 0046fe10     ssh1login.obj
 0002:00007e64       ??_C@_0CF@PGPBPIFA@CryptoCard?5authentication?5respon@ 0046fe64     ssh1login.obj
 0002:00007e8c       ??_C@_0CO@HODBELPK@No?5supported?5authentication?5meth@ 0046fe8c     ssh1login.obj
 0002:00007ebc       ??_C@_0N@OOHPIOHK@SSH?5password?$AA@ 0046febc     ssh1login.obj
 0002:00007ecc       ??_C@_0BD@POAFHOBP@?$CFs?$EA?$CFs?8s?5password?3?5?$AA@ 0046fecc     ssh1login.obj
 0002:00007ee0       ??_C@_0CA@NPFHNKGM@User?5aborted?5at?5password?5prompt?$AA@ 0046fee0     ssh1login.obj
 0002:00007f00       ??_C@_1EA@LDCCOPO@?$AAp?$AAw?$AAl?$AAe?$AAn?$AA?5?$AA?$DO?$AA?$DN?$AA?5?$AAb?$AAo?$AAt?$AAt?$AAo?$AAm?$AA?5?$AA?$CG?$AA?$CG?$AA?5?$AAp?$AAw?$AAl?$AAe?$AAn?$AA?5?$AA?$DM?$AA?$DN?$AA?5?$AAt?$AAo?$AAp?$AA?$AA@ 0046ff00     ssh1login.obj
 0002:00007f40       ??_C@_0CJ@IMGIIIOC@Sending?5password?5with?5camouflage@ 0046ff40     ssh1login.obj
 0002:00007f6c       ??_C@_0BP@LFCLHOKO@Sending?5length?9padded?5password?$AA@ 0046ff6c     ssh1login.obj
 0002:00007f8c       ??_C@_0BK@CNMFNDPA@Sending?5unpadded?5password?$AA@ 0046ff8c     ssh1login.obj
 0002:00007fa8       ??_C@_0O@GELAIDLK@Sent?5password?$AA@ 0046ffa8     ssh1login.obj
 0002:00007fb8       ??_C@_0BA@CCGPKPCP@Access?5denied?$AN?6?$AA@ 0046ffb8     ssh1login.obj
 0002:00007fc8       ??_C@_0BH@IOHDNACM@Authentication?5refused?$AA@ 0046ffc8     ssh1login.obj
 0002:00007fe0       ??_C@_0FA@PHBIEDLI@Received?5unexpected?5packet?5in?5re@ 0046ffe0     ssh1login.obj
 0002:00008030       ??_C@_0BH@PMIFFGCE@Requesting?5compression?$AA@ 00470030     ssh1login.obj
 0002:00008048       ??_C@_0CF@LBOAIGDJ@Server?5refused?5to?5enable?5compres@ 00470048     ssh1login.obj
 0002:00008070       ??_C@_0BN@KMIOBKOG@Server?5refused?5to?5compress?$AN?6?$AA@ 00470070     ssh1login.obj
 0002:00008090       ??_C@_0EM@EJDIFJK@Received?5unexpected?5packet?5in?5re@ 00470090     ssh1login.obj
 0002:000080f4       ??_C@_1BK@GGKGFKFO@?$AA?4?$AA?4?$AA?2?$AAs?$AAs?$AAh?$AA2?$AAb?$AAp?$AAp?$AA?4?$AAc?$AA?$AA@ 004700f4     ssh2bpp.obj
 0002:00008110       ??_C@_1DI@KOHCFFLH@?$AAb?$AAp?$AAp?$AA?9?$AA?$DO?$AAv?$AAt?$AA?5?$AA?$DN?$AA?$DN?$AA?5?$AA?$CG?$AAs?$AAs?$AAh?$AA2?$AA_?$AAb?$AAp?$AAp?$AA_?$AAv?$AAt?$AAa?$AAb?$AAl?$AAe?$AA?$AA@ 00470110     ssh2bpp.obj
 0002:00008148       ??_C@_0CD@LFFGPBIM@Initialised?5?$CFs?5outbound?5encrypti@ 00470148     ssh2bpp.obj
 0002:0000816c       ??_C@_0BG@GCEIBAMJ@?5?$CIrequired?5by?5cipher?$CJ?$AA@ 0047016c     ssh2bpp.obj
 0002:00008184       ??_C@_0P@KLFDHMEN@?5?$CIin?5ETM?5mode?$CJ?$AA@ 00470184     ssh2bpp.obj
 0002:00008194       ??_C@_0CK@KPNDNIMF@Initialised?5?$CFs?5outbound?5MAC?5algo@ 00470194     ssh2bpp.obj
 0002:000081c0       ??_C@_0DF@KOHDJCHF@Will?5enable?5?$CFs?5compression?5after@ 004701c0     ssh2bpp.obj
 0002:000081f8       ??_C@_0BL@CPEFOEDE@Initialised?5?$CFs?5compression?$AA@ 004701f8     ssh2bpp.obj
 0002:00008214       ??_C@_0CC@KJKCEPCB@Initialised?5?$CFs?5inbound?5encryptio@ 00470214     ssh2bpp.obj
 0002:00008238       ??_C@_0CJ@OBEAGNE@Initialised?5?$CFs?5inbound?5MAC?5algor@ 00470238     ssh2bpp.obj
 0002:00008264       ??_C@_0DH@HOCDGNJB@Will?5enable?5?$CFs?5decompression?5aft@ 00470264     ssh2bpp.obj
 0002:0000829c       ??_C@_0BN@ENMJAIOE@Initialised?5?$CFs?5decompression?$AA@ 0047029c     ssh2bpp.obj
 0002:000082bc       ??_C@_0CF@NDMNGDOI@Initialised?5delayed?5?$CFs?5decompres@ 004702bc     ssh2bpp.obj
 0002:000082e4       ??_C@_0CD@GBGEDGKL@Initialised?5delayed?5?$CFs?5compressi@ 004702e4     ssh2bpp.obj
 0002:00008308       ??_C@_0BP@GHMPBFJJ@No?5valid?5incoming?5packet?5found?$AA@ 00470308     ssh2bpp.obj
 0002:00008328       ??_C@_0CJ@IFPLLMJE@Incoming?5packet?5length?5field?5was@ 00470328     ssh2bpp.obj
 0002:00008354       ??_C@_0CB@KOAELHDC@Incorrect?5MAC?5received?5on?5packet@ 00470354     ssh2bpp.obj
 0002:00008378       ??_C@_0CK@ECJKOKNK@Incoming?5packet?5was?5garbled?5on?5d@ 00470378     ssh2bpp.obj
 0002:000083a4       ??_C@_0CK@IGCLCJND@Invalid?5padding?5length?5on?5receiv@ 004703a4     ssh2bpp.obj
 0002:000083d0       ??_C@_1BO@CIHKCKJF@?$AAs?$AA?9?$AA?$DO?$AAl?$AAe?$AAn?$AAg?$AAt?$AAh?$AA?5?$AA?$DO?$AA?$DN?$AA?5?$AA0?$AA?$AA@ 004703d0     ssh2bpp.obj
 0002:000083f0       ??_C@_1BO@CHCCGLPN@?$AAp?$AAa?$AAd?$AAd?$AAi?$AAn?$AAg?$AA?5?$AA?$DM?$AA?$DN?$AA?5?$AA2?$AA5?$AA5?$AA?$AA@ 004703f0     ssh2bpp.obj
 0002:00008428       ??_C@_0BP@IIBEAICC@Invalid?5packet?5length?5received?$AA@ 00470428     ssh2bpp-bare.obj
 0002:00008448       ??_C@_08NLHBPEGP@password?$AA@ 00470448     ssh2censor.obj
 0002:00008454       ??_C@_07KEAFBCID@x11?9req?$AA@ 00470454     ssh2censor.obj
 0002:0000854c       ??_C@_0BM@MLKKDNH@Administratively?5prohibited?$AA@ 0047054c     ssh2connection.obj
 0002:00008568       ??_C@_0P@NCGOJFHC@Connect?5failed?$AA@ 00470568     ssh2connection.obj
 0002:00008578       ??_C@_0BF@KCHANALO@Unknown?5channel?5type?$AA@ 00470578     ssh2connection.obj
 0002:00008590       ??_C@_0BC@MANFJOBN@Resource?5shortage?$AA@ 00470590     ssh2connection.obj
 0002:000085a4       ??_C@_0P@GGBAGEAJ@ssh?9connection?$AA@ 004705a4     ssh2connection.obj
 0002:000085b4       ??_C@_0BI@NCINFBKI@unknown?5reason?5code?5?$CF?$CDx?$AA@ 004705b4     ssh2connection.obj
 0002:000085cc       ??_C@_09BLDGMALM@?$CFs?5?$FL?$CF?4?$CKs?$FN?$AA@ 004705cc     ssh2connection.obj
 0002:000085d8       ??_C@_0CP@FNAABCJD@Received?5?$CFs?5with?5no?5outstanding?5@ 004705d8     ssh2connection.obj
 0002:00008608       ??_C@_02LFNMGJAP@en?$AA@   00470608     ssh2connection.obj
 0002:0000860c       ??_C@_0BK@JJHNBNPN@Rejected?5channel?5open?3?5?$CFs?$AA@ 0047060c     ssh2connection.obj
 0002:00008628       ??_C@_1CI@HFEEPIJF@?$AA?4?$AA?4?$AA?2?$AAs?$AAs?$AAh?$AA2?$AAc?$AAo?$AAn?$AAn?$AAe?$AAc?$AAt?$AAi?$AAo?$AAn?$AA?4?$AAc?$AA?$AA@ 00470628     ssh2connection.obj
 0002:00008650       ??_C@_0M@MJOADHAD@exit?9status?$AA@ 00470650     ssh2connection.obj
 0002:0000865c       ??_C@_0M@BADJGBCP@exit?9signal?$AA@ 0047065c     ssh2connection.obj
 0002:00008668       ??_C@_05OOLEAMGB@shell?$AA@ 00470668     ssh2connection.obj
 0002:00008670       ??_C@_04MGEIEJAD@exec?$AA@ 00470670     ssh2connection.obj
 0002:00008678       ??_C@_09BMDMKPAE@subsystem?$AA@ 00470678     ssh2connection.obj
 0002:00008684       ??_C@_0BL@ODIECNBN@auth?9agent?9req?$EAopenssh?4com?$AA@ 00470684     ssh2connection.obj
 0002:000086a0       ??_C@_07ICNINLOJ@pty?9req?$AA@ 004706a0     ssh2connection.obj
 0002:000086a8       ??_C@_0CG@LJKNJJPH@Unable?5to?5decode?5terminal?5mode?5s@ 004706a8     ssh2connection.obj
 0002:000086d0       ??_C@_03OJGPBPII@env?$AA@  004706d0     ssh2connection.obj
 0002:000086d4       ??_C@_05ELPHFHOI@break?$AA@ 004706d4     ssh2connection.obj
 0002:000086dc       ??_C@_06OAFOBKHE@signal?$AA@ 004706dc     ssh2connection.obj
 0002:000086e4       ??_C@_0O@KLPDNEAE@window?9change?$AA@ 004706e4     ssh2connection.obj
 0002:000086f4       ??_C@_0DP@MJPEIBEG@Received?5?$CFs?5for?5channel?5?$CFd?5with?5@ 004706f4     ssh2connection.obj
 0002:00008734       ??_C@_0CD@KMOOFNJC@winadj?$EAputty?4projects?4tartarus?4o@ 00470734     ssh2connection.obj
 0002:00008758       ??_C@_0DK@FGNPJBKF@Received?5unexpected?5connection?9l@ 00470758     ssh2connection.obj
 0002:00008794       ??_C@_1DA@LLEBMJNH@?$AAc?$AA?9?$AA?$DO?$AAc?$AAh?$AAa?$AAn?$AAr?$AAe?$AAq?$AA_?$AAh?$AAe?$AAa?$AAd?$AA?5?$AA?$DN?$AA?$DN?$AA?5?$AAN?$AAU?$AAL?$AAL?$AA?$AA@ 00470794     ssh2connection.obj
 0002:000087c4       ??_C@_0BE@HFPGNDHC@All?5channels?5closed?$AA@ 004707c4     ssh2connection.obj
 0002:000087d8       ??_C@_1GO@JNONPFFN@?$AA?$CB?$AA?$CI?$AAc?$AA?9?$AA?$DO?$AAc?$AAl?$AAo?$AAs?$AAe?$AAs?$AA?5?$AA?$CG?$AA?5?$AA?$CI?$AAC?$AAL?$AAO?$AAS?$AAE?$AAS?$AA_?$AAS?$AAE?$AAN?$AAT?$AA_?$AAC?$AAL?$AAO?$AAS?$AAE@ 004707d8     ssh2connection.obj
 0002:00008848       ??_C@_1DO@PKFKMKNK@?$AA?$CB?$AA?$CI?$AAc?$AA?9?$AA?$DO?$AAc?$AAl?$AAo?$AAs?$AAe?$AAs?$AA?5?$AA?$CG?$AA?5?$AAC?$AAL?$AAO?$AAS?$AAE?$AAS?$AA_?$AAS?$AAE?$AAN?$AAT?$AA_?$AAE?$AAO?$AAF?$AA?$CJ?$AA?$AA@ 00470848     ssh2connection.obj
 0002:00008888       ??_C@_1EI@GEJFJEAE@?$AA?$CB?$AAc?$AA?9?$AA?$DO?$AAc?$AAh?$AAa?$AAn?$AA?9?$AA?$DO?$AAi?$AAn?$AAi?$AAt?$AAi?$AAa?$AAl?$AA_?$AAf?$AAi?$AAx?$AAe?$AAd?$AA_?$AAw?$AAi?$AAn?$AAd?$AAo?$AAw?$AA_?$AAs@ 00470888     ssh2connection.obj
 0002:000088d0       ??_C@_0CD@GJILCFNH@simple?$EAputty?4projects?4tartarus?4o@ 004708d0     ssh2connection.obj
 0002:000088f4       ??_C@_0P@BINBLDHK@IGNORE?5message?$AA@ 004708f4     ssh2connection.obj
 0002:00008904       ??_C@_0CK@EIECHEC@Received?5X11?5connect?5request?5fro@ 00470904     ssh2connection-client.obj
 0002:00008930       ??_C@_0BO@FLPJMLBD@X11?5forwarding?5is?5not?5enabled?$AA@ 00470930     ssh2connection-client.obj
 0002:00008950       ??_C@_0DH@LGPAHGKE@Received?5remote?5port?5?$CF?4?$CKs?3?$CFd?5ope@ 00470950     ssh2connection-client.obj
 0002:00008988       ??_C@_0BO@LMGPEPNK@Remote?5port?5is?5not?5recognised?$AA@ 00470988     ssh2connection-client.obj
 0002:000089a8       ??_C@_0CL@MKDBLGKK@Attempting?5to?5forward?5remote?5por@ 004709a8     ssh2connection-client.obj
 0002:000089d4       ??_C@_0BB@FKKHANPB@Port?5open?5failed?$AA@ 004709d4     ssh2connection-client.obj
 0002:000089e8       ??_C@_0CA@EEBEKEFK@Agent?5forwarding?5is?5not?5enabled?$AA@ 004709e8     ssh2connection-client.obj
 0002:00008a08       ??_C@_03JDMECAIF@x11?$AA@  00470a08     ssh2connection-client.obj
 0002:00008a0c       ??_C@_0BA@MPAJONKF@forwarded?9tcpip?$AA@ 00470a0c     ssh2connection-client.obj
 0002:00008a1c       ??_C@_0BH@JNENGLL@auth?9agent?$EAopenssh?4com?$AA@ 00470a1c     ssh2connection-client.obj
 0002:00008a34       ??_C@_0CD@NKNFOAC@Unsupported?5channel?5type?5request@ 00470a34     ssh2connection-client.obj
 0002:00008a58       ??_C@_0N@LEADGKPC@direct?9tcpip?$AA@ 00470a58     ssh2connection-client.obj
 0002:00008a68       ??_C@_07OHKHACFK@0?40?40?40?$AA@ 00470a68     ssh2connection-client.obj
 0002:00008a70       ??_C@_1DG@MNFOKKNF@?$AA?4?$AA?4?$AA?2?$AAs?$AAs?$AAh?$AA2?$AAc?$AAo?$AAn?$AAn?$AAe?$AAc?$AAt?$AAi?$AAo?$AAn?$AA?9?$AAc?$AAl?$AAi?$AAe?$AAn?$AAt?$AA?4?$AAc?$AA?$AA@ 00470a70     ssh2connection-client.obj
 0002:00008aa8       ??_C@_0O@FHIGECAN@tcpip?9forward?$AA@ 00470aa8     ssh2connection-client.obj
 0002:00008ab8       ??_C@_0BF@KDCOPBH@cancel?9tcpip?9forward?$AA@ 00470ab8     ssh2connection-client.obj
 0002:00008ad0       ??_C@_1BK@KKDKINMD@?$AAs?$AA?9?$AA?$DO?$AAr?$AAp?$AAo?$AAr?$AAt?$AAf?$AAw?$AAd?$AAs?$AA?$AA@ 00470ad0     ssh2connection-client.obj
 0002:00008aec       ??_C@_0BN@PJPENDJH@Opening?5main?5session?5channel?$AA@ 00470aec     ssh2connection-client.obj
 0002:00008b0c       ??_C@_07KMJDECGK@session?$AA@ 00470b0c     ssh2connection-client.obj
 0002:00008b14       ??_C@_0CE@JHGGCMEI@Doing?5Diffie?9Hellman?5group?5excha@ 00470b14     ssh2kex-client.obj
 0002:00008b38       ??_C@_0EN@CFAEKNHM@Received?5unexpected?5packet?5when?5@ 00470b38     ssh2kex-client.obj
 0002:00008b88       ??_C@_0CM@IDNGIIOM@Unable?5to?5parse?5Diffie?9Hellman?5g@ 00470b88     ssh2kex-client.obj
 0002:00008bb8       ??_C@_0GA@KKNJFFGF@Doing?5Diffie?9Hellman?5key?5exchang@ 00470bb8     ssh2kex-client.obj
 0002:00008c18       ??_C@_0FM@IKKLNGDM@Doing?5Diffie?9Hellman?5key?5exchang@ 00470c18     ssh2kex-client.obj
 0002:00008c78       ??_C@_0EN@MEHEINAJ@Received?5unexpected?5packet?5when?5@ 00470c78     ssh2kex-client.obj
 0002:00008cc8       ??_C@_0CM@BIGILFCC@Unable?5to?5parse?5Diffie?9Hellman?5r@ 00470cc8     ssh2kex-client.obj
 0002:00008cf4       ??_C@_0CL@PGFKNHMI@Diffie?9Hellman?5reply?5failed?5vali@ 00470cf4     ssh2kex-client.obj
 0002:00008d20       ??_C@_0DC@GHHMCGFD@Doing?5ECDH?5key?5exchange?5with?5cur@ 00470d20     ssh2kex-client.obj
 0002:00008d54       ??_C@_0CA@BBOAHPDC@Unable?5to?5generate?5key?5for?5ECDH?$AA@ 00470d54     ssh2kex-client.obj
 0002:00008d78       ??_C@_0ED@OCFLAGPM@Received?5unexpected?5packet?5when?5@ 00470d78     ssh2kex-client.obj
 0002:00008dbc       ??_C@_0DE@KKILBAMK@Received?5invalid?5elliptic?5curve?5@ 00470dbc     ssh2kex-client.obj
 0002:00008df0       ??_C@_0CC@LJINKOCI@Unable?5to?5parse?5ECDH?5reply?5packe@ 00470df0     ssh2kex-client.obj
 0002:00008e18       ??_C@_0FE@OLKGGEJA@Doing?5GSSAPI?5?$CIwith?5Kerberos?5V5?$CJ?5@ 00470e18     ssh2kex-client.obj
 0002:00008e70       ??_C@_0EI@IMHOKKLG@Using?5GSSAPI?5?$CIwith?5Kerberos?5V5?$CJ?5@ 00470e70     ssh2kex-client.obj
 0002:00008eb8       ??_C@_0EJ@JMJODMKK@Doing?5GSSAPI?5?$CIwith?5Kerberos?5V5?$CJ?5@ 00470eb8     ssh2kex-client.obj
 0002:00008f04       ??_C@_0CJ@HDNJKIMB@GSSAPI?5key?5exchange?5failed?5to?5in@ 00470f04     ssh2kex-client.obj
 0002:00008f30       ??_C@_1CI@DMGBEEFB@?$AA?4?$AA?4?$AA?2?$AAs?$AAs?$AAh?$AA2?$AAk?$AAe?$AAx?$AA?9?$AAc?$AAl?$AAi?$AAe?$AAn?$AAt?$AA?4?$AAc?$AA?$AA@ 00470f30     ssh2kex-client.obj
 0002:00008f58       ??_C@_1CG@CGJFKGAP@?$AAs?$AA?9?$AA?$DO?$AAs?$AAh?$AAg?$AAs?$AAs?$AA?9?$AA?$DO?$AAs?$AAr?$AAv?$AA_?$AAn?$AAa?$AAm?$AAe?$AA?$AA@ 00470f58     ssh2kex-client.obj
 0002:00008f80       ??_C@_0DF@BGCHLGL@GSSAPI?5key?5exchange?5failed?5to?5in@ 00470f80     ssh2kex-client.obj
 0002:00008fb8       ??_C@_1JM@MMFBMHEF@?$AAs?$AA?9?$AA?$DO?$AAg?$AAs?$AAs?$AA_?$AAs?$AAt?$AAa?$AAt?$AA?5?$AA?$DN?$AA?$DN?$AA?5?$AAS?$AAS?$AAH?$AA_?$AAG?$AAS?$AAS?$AA_?$AAS?$AA_?$AAC?$AAO?$AAM?$AAP?$AAL?$AAE?$AAT@ 00470fb8     ssh2kex-client.obj
 0002:00009054       ??_C@_0DF@JIOIAGHB@GSSAPI?5key?5exchange?5failed?3?5no?5i@ 00471054     ssh2kex-client.obj
 0002:0000908c       ??_C@_0CA@CDJDKHFK@GSSAPI?5key?5exchange?5initialised?$AA@ 0047108c     ssh2kex-client.obj
 0002:000090ac       ??_C@_0DD@ONLEJOBN@GSSAPI?5key?5exchange?5failed?$DL?5serv@ 004710ac     ssh2kex-client.obj
 0002:000090e0       ??_C@_0EE@MPIFPNJI@Received?5unexpected?5packet?5durin@ 004710e0     ssh2kex-client.obj
 0002:00009124       ??_C@_0CD@LIAKCOJL@GSSAPI?5reply?5failed?5validation?3?5@ 00471124     ssh2kex-client.obj
 0002:00009148       ??_C@_1EK@MHLIJBHB@?$AAs?$AA?9?$AA?$DO?$AAk?$AAe?$AAx?$AA_?$AAa?$AAl?$AAg?$AA?9?$AA?$DO?$AAm?$AAa?$AAi?$AAn?$AA_?$AAt?$AAy?$AAp?$AAe?$AA?5?$AA?$DN?$AA?$DN?$AA?5?$AAK?$AAE?$AAX?$AAT?$AAY?$AAP?$AAE@ 00471148     ssh2kex-client.obj
 0002:00009194       ??_C@_0CE@CLLBJDCD@Doing?5RSA?5key?5exchange?5with?5hash@ 00471194     ssh2kex-client.obj
 0002:000091b8       ??_C@_0EH@JGPMOKHE@Received?5unexpected?5packet?5when?5@ 004711b8     ssh2kex-client.obj
 0002:00009200       ??_C@_0CG@JOJGAGOE@Unable?5to?5parse?5RSA?5public?5key?5p@ 00471200     ssh2kex-client.obj
 0002:00009228       ??_C@_0EO@BMBJAMEP@Server?5sent?5?$CFd?9bit?5RSA?5key?0?5less@ 00471228     ssh2kex-client.obj
 0002:00009278       ??_C@_1BE@EIHJCPNA@?$AAn?$AAb?$AAi?$AAt?$AAs?$AA?5?$AA?$DO?$AA?5?$AA0?$AA?$AA@ 00471278     ssh2kex-client.obj
 0002:00009290       ??_C@_0EK@ILIDMOJ@Received?5unexpected?5packet?5when?5@ 00471290     ssh2kex-client.obj
 0002:000092dc       ??_C@_0CC@PNCJCBFL@Unable?5to?5parse?5RSA?5kex?5signatur@ 004712dc     ssh2kex-client.obj
 0002:00009300       ??_C@_0CK@OIFNOCIN@GSSAPI?5key?5exchange?5MIC?5was?5not?5@ 00471300     ssh2kex-client.obj
 0002:0000932c       ??_C@_0CG@IBMMKNIP@GSSAPI?5key?5exchange?5MIC?5was?5not?5@ 0047132c     ssh2kex-client.obj
 0002:00009354       ??_C@_0BO@MHNCHJIJ@GSSAPI?5Key?5Exchange?5complete?$CB?$AA@ 00471354     ssh2kex-client.obj
 0002:00009374       ??_C@_0BN@ECEIABFL@Server?8s?5host?5key?5is?5invalid?$AA@ 00471374     ssh2kex-client.obj
 0002:00009394       ??_C@_0CM@JJONMADG@Signature?5from?5server?8s?5host?5key@ 00471394     ssh2kex-client.obj
 0002:000093c0       ??_C@_0CE@GPDABDFI@GSS?5kex?5provided?5fallback?5host?5k@ 004713c0     ssh2kex-client.obj
 0002:000093e4       ??_C@_0BP@OJPAKHOH@No?5fallback?5host?5key?5available?$AA@ 004713e4     ssh2kex-client.obj
 0002:00009404       ??_C@_1BA@GDNDNHEO@?$AAs?$AA?9?$AA?$DO?$AAh?$AAk?$AAe?$AAy?$AA?$AA@ 00471404     ssh2kex-client.obj
 0002:00009414       ??_C@_0CL@PBFDJALA@Post?9GSS?5rekey?5provided?5fallback@ 00471414     ssh2kex-client.obj
 0002:00009440       ??_C@_0DD@BMGAFDLM@Non?9GSS?5rekey?5after?5initial?5GSS?5@ 00471440     ssh2kex-client.obj
 0002:00009474       ??_C@_0DN@LLJDGIJC@Server?8s?5host?5key?5did?5not?5match?5@ 00471474     ssh2kex-client.obj
 0002:000094b4       ??_C@_05GFOLEBJA@?$CFs?1?$CFs?$AA@ 004714b4     ssh2kex-client.obj
 0002:000094bc       ??_C@_0M@DHFMMDAE@any?5of?5them?$AA@ 004714bc     ssh2kex-client.obj
 0002:000094c8       ??_C@_02MOLGKLA@it?$AA@    004714c8     ssh2kex-client.obj
 0002:000094cc       ??_C@_0DE@MMOKKDHP@Server?5also?5has?5?$CFs?5host?5key?$CFs?0?5b@ 004714cc     ssh2kex-client.obj
 0002:00009500       ??_C@_1FI@MKMCKDKJ@?$AAs?$AAs?$AAh?$AA_?$AAk?$AAe?$AAy?$AA_?$AAa?$AAl?$AAg?$AA?$CI?$AAs?$AA?9?$AA?$DO?$AAh?$AAk?$AAe?$AAy?$AA?$CJ?$AA?5?$AA?$DN?$AA?$DN?$AA?5?$AAs?$AA?9?$AA?$DO?$AAc?$AAr?$AAo?$AAs?$AAs@ 00471500     ssh2kex-client.obj
 0002:00009558       ??_C@_0CL@FGHJPEBA@Storing?5additional?5host?5key?5for?5@ 00471558     ssh2kex-client.obj
 0002:00009584       ??_C@_1BE@OFCEAGCO@?$AAs?$AA?9?$AA?$DO?$AAk?$AAe?$AAy?$AAs?$AAt?$AAr?$AA?$AA@ 00471584     ssh2kex-client.obj
 0002:00009598       ??_C@_0CO@LHCFPMAL@Host?5key?5was?5different?5in?5repeat@ 00471598     ssh2kex-client.obj
 0002:000095c8       ??_C@_1CC@CBGFALKA@?$AA?4?$AA?4?$AA?2?$AAs?$AAs?$AAh?$AA2?$AAt?$AAr?$AAa?$AAn?$AAs?$AAh?$AAk?$AA?4?$AAc?$AA?$AA@ 004715c8     ssh2transhk.obj
 0002:000095ec       ??_C@_1BI@MGBAOHEH@?$AAr?$AAe?$AAt?$AAd?$AA?5?$AA?$DN?$AA?$DN?$AA?5?$AAe?$AAn?$AAt?$AA?$AA@ 004715ec     ssh2transhk.obj
 0002:000096b8       _ssh2_hostkey_algs         004716b8     ssh2transport.obj
 0002:00009704       ??_C@_0BH@OGLBOEBO@key?5exchange?5algorithm?$AA@ 00471704     ssh2transport.obj
 0002:0000971c       ??_C@_0BD@IODEOJMC@host?5key?5algorithm?$AA@ 0047171c     ssh2transport.obj
 0002:00009730       ??_C@_0BI@IOBCEHEE@client?9to?9server?5cipher?$AA@ 00471730     ssh2transport.obj
 0002:00009748       ??_C@_0BI@PMGIAPCP@server?9to?9client?5cipher?$AA@ 00471748     ssh2transport.obj
 0002:00009760       ??_C@_0BF@IEDAFFHG@client?9to?9server?5MAC?$AA@ 00471760     ssh2transport.obj
 0002:00009778       ??_C@_0BF@PGPPEEEO@server?9to?9client?5MAC?$AA@ 00471778     ssh2transport.obj
 0002:00009790       ??_C@_0CE@DDKLKPNG@client?9to?9server?5compression?5met@ 00471790     ssh2transport.obj
 0002:000097b4       ??_C@_0CE@DJNOGBHI@server?9to?9client?5compression?5met@ 004717b4     ssh2transport.obj
 0002:000097d8       ??_C@_0BM@LFLPECGJ@host?5not?5allowed?5to?5connect?$AA@ 004717d8     ssh2transport.obj
 0002:000097f4       ??_C@_0P@FNPOCJBE@protocol?5error?$AA@ 004717f4     ssh2transport.obj
 0002:00009804       ??_C@_0BE@GFGODIJH@key?5exchange?5failed?$AA@ 00471804     ssh2transport.obj
 0002:00009818       ??_C@_0BL@KLILJNNA@host?5authentication?5failed?$AA@ 00471818     ssh2transport.obj
 0002:00009834       ??_C@_09JCOICCHH@MAC?5error?$AA@ 00471834     ssh2transport.obj
 0002:00009840       ??_C@_0BC@NKDLBFJI@compression?5error?$AA@ 00471840     ssh2transport.obj
 0002:00009854       ??_C@_0BG@BMBMFNNB@service?5not?5available?$AA@ 00471854     ssh2transport.obj
 0002:0000986c       ??_C@_0BP@GPJFNEKA@protocol?5version?5not?5supported?$AA@ 0047186c     ssh2transport.obj
 0002:0000988c       ??_C@_0BI@IJIAGFPA@host?5key?5not?5verifiable?$AA@ 0047188c     ssh2transport.obj
 0002:000098a4       ??_C@_0P@HAMDIPID@by?5application?$AA@ 004718a4     ssh2transport.obj
 0002:000098b4       ??_C@_0BF@MIMMPJGN@too?5many?5connections?$AA@ 004718b4     ssh2transport.obj
 0002:000098cc       ??_C@_0BH@JBGDCBIP@auth?5cancelled?5by?5user?$AA@ 004718cc     ssh2transport.obj
 0002:000098e4       ??_C@_0BP@IHKHAHIL@no?5more?5auth?5methods?5available?$AA@ 004718e4     ssh2transport.obj
 0002:00009904       ??_C@_0BC@NPLJLHOH@illegal?5user?5name?$AA@ 00471904     ssh2transport.obj
 0002:00009918       ??_C@_1CG@ICFDACCC@?$AA?4?$AA?4?$AA?2?$AAs?$AAs?$AAh?$AA2?$AAt?$AAr?$AAa?$AAn?$AAs?$AAp?$AAo?$AAr?$AAt?$AA?4?$AAc?$AA?$AA@ 00471918     ssh2transport.obj
 0002:00009940       ??_C@_1HC@PHGIAGBP@?$AAf?$AAa?$AAl?$AAs?$AAe?$AA?5?$AA?$CG?$AA?$CG?$AA?5?$AA?$CC?$AAS?$AAh?$AAo?$AAu?$AAl?$AAd?$AA?5?$AAn?$AAe?$AAv?$AAe?$AAr?$AA?5?$AAr?$AAu?$AAn?$AA?5?$AAo?$AAu?$AAt?$AA?5?$AAo@ 00471940     ssh2transport.obj
 0002:000099b4       ??_C@_0DJ@LEHBMHOG@Remote?5side?5sent?5disconnect?5mess@ 004719b4     ssh2transport.obj
 0002:000099f0       ??_C@_0BL@GDJDMKLI@Remote?5debug?5message?3?5?$CF?4?$CKs?$AA@ 004719f0     ssh2transport.obj
 0002:00009a0c       ??_C@_0DF@EGDMCJHB@Received?5premature?5higher?9layer?5@ 00471a0c     ssh2transport.obj
 0002:00009a44       ??_C@_1BA@NKENKFAH@?$AAh?$AAk?$AA_?$AAp?$AAr?$AAe?$AAv?$AA?$AA@ 00471a44     ssh2transport.obj
 0002:00009a54       ??_C@_04MLLLIHIP@null?$AA@ 00471a54     ssh2transport.obj
 0002:00009a5c       ??_C@_0BO@LGGLBPFI@KEXINIT?5packet?5was?5incomplete?$AA@ 00471a5c     ssh2transport.obj
 0002:00009a80       ??_C@_0EC@EGLLCKEN@Selected?5?$CFs?5?$CC?$CF?4?$CKs?$CC?5does?5not?5corr@ 00471a80     ssh2transport.obj
 0002:00009ac4       ??_C@_0CG@HBEJJAAG@Couldn?8t?5agree?5a?5?$CFs?5?$CIavailable?3?5@ 00471ac4     ssh2transport.obj
 0002:00009af0       ??_C@_1FG@HCKCPGP@?$AAf?$AAa?$AAl?$AAs?$AAe?$AA?5?$AA?$CG?$AA?$CG?$AA?5?$AA?$CC?$AAB?$AAa?$AAd?$AA?5?$AAl?$AAi?$AAs?$AAt?$AA?5?$AAi?$AAn?$AAd?$AAe?$AAx?$AA?5?$AAi?$AAn?$AA?5?$AAs?$AAc?$AAa?$AAn@ 00471af0     ssh2transport.obj
 0002:00009b48       ??_C@_1HE@LGGCPFJC@?$AAs?$AAs?$AAh?$AA_?$AAh?$AAa?$AAs?$AAh?$AA_?$AAa?$AAl?$AAg?$AA?$CI?$AAs?$AA?9?$AA?$DO?$AAe?$AAx?$AAh?$AAa?$AAs?$AAh?$AA?$CJ?$AA?9?$AA?$DO?$AAh?$AAl?$AAe?$AAn?$AA?5?$AA?$DM?$AA?$DN@ 00471b48     ssh2transport.obj
 0002:00009bc0       ??_C@_0EA@LMLAMPOB@Received?5unexpected?5packet?5when?5@ 00471bc0     ssh2transport.obj
 0002:00009c00       ??_C@_0BH@FAOAOCLD@key?9exchange?5algorithm?$AA@ 00471c00     ssh2transport.obj
 0002:00009c18       ??_C@_0BM@HINOKHAL@User?5aborted?5at?5kex?5warning?$AA@ 00471c18     ssh2transport.obj
 0002:00009c34       ??_C@_0O@IEEOBGCK@host?5key?5type?$AA@ 00471c34     ssh2transport.obj
 0002:00009c44       ??_C@_0CB@GALAAGGL@User?5aborted?5at?5host?5key?5warning@ 00471c44     ssh2transport.obj
 0002:00009c68       ??_C@_1FG@HGIMPKCJ@?$AAs?$AA?9?$AA?$DO?$AAs?$AAe?$AAs?$AAs?$AAi?$AAo?$AAn?$AA_?$AAi?$AAd?$AA_?$AAl?$AAe?$AAn?$AA?5?$AA?$DM?$AA?$DN?$AA?5?$AAs?$AAi?$AAz?$AAe?$AAo?$AAf?$AA?$CI?$AAs?$AA?9?$AA?$DO?$AAs@ 00471c68     ssh2transport.obj
 0002:00009cc0       ??_C@_0EI@FCKJKFCL@Received?5unexpected?5packet?5when?5@ 00471cc0     ssh2transport.obj
 0002:00009d08       ??_C@_0CO@BJNBMIJM@Server?5refused?5request?5to?5start?5@ 00471d08     ssh2transport.obj
 0002:00009d38       ??_C@_0EI@NHPBODOF@Received?5unexpected?5packet?5when?5@ 00471d38     ssh2transport.obj
 0002:00009d80       ??_C@_0DK@EEFHAGAB@Client?5requested?5service?5?8?$CF?4?$CKs?8?5@ 00471d80     ssh2transport.obj
 0002:00009dc0       ??_C@_0FA@KDMAGCJB@Received?5unexpected?5transport?9la@ 00471dc0     ssh2transport.obj
 0002:00009e10       ??_C@_0CG@BLGNGAEL@Remote?5side?5initiated?5key?5re?9exc@ 00471e10     ssh2transport.obj
 0002:00009e38       ??_C@_0CE@EEJBMPOO@populating?5transient?5host?5key?5ca@ 00471e38     ssh2transport.obj
 0002:00009e5c       ??_C@_0BH@DNJFBLLH@too?5much?5data?5received?$AA@ 00471e5c     ssh2transport.obj
 0002:00009e74       ??_C@_0BD@OGEJALLK@too?5much?5data?5sent?$AA@ 00471e74     ssh2transport.obj
 0002:00009e88       ??_C@_0CJ@HAEEHIFM@Remote?5bug?5prevents?5key?5re?9excha@ 00471e88     ssh2transport.obj
 0002:00009eb4       ??_C@_0CA@LLJFCKBB@Initiating?5key?5re?9exchange?5?$CI?$CFs?$CJ?$AA@ 00471eb4     ssh2transport.obj
 0002:00009ed4       ??_C@_07DDHNKDGP@timeout?$AA@ 00471ed4     ssh2transport.obj
 0002:00009edc       ??_C@_0BI@PNMMJKG@GSS?5credentials?5updated?$AA@ 00471edc     ssh2transport.obj
 0002:00009ef8       ??_C@_0EJ@MBHMIKFH@GSSAPI?5import?5name?5failed?5?9?5Bad?5@ 00471ef8     ssh2transport.obj
 0002:00009f44       ??_C@_0DG@IMNKNPBD@GSSAPI?5import?5name?5failed?$DL?5won?8t@ 00471f44     ssh2transport.obj
 0002:00009f7c       ??_C@_0CF@OGALJOJI@No?5GSSAPI?5security?5context?5avail@ 00471f7c     ssh2transport.obj
 0002:00009fa8       ??_C@_1EE@GKDEMFLO@?$AAp?$AAp?$AAl?$AA?9?$AA?$DO?$AAv?$AAt?$AA?5?$AA?$DN?$AA?$DN?$AA?5?$AA?$CG?$AAs?$AAs?$AAh?$AA2?$AA_?$AAt?$AAr?$AAa?$AAn?$AAs?$AAp?$AAo?$AAr?$AAt?$AA_?$AAv?$AAt?$AAa?$AAb?$AAl@ 00471fa8     ssh2transport.obj
 0002:00009fec       ??_C@_1CE@HJLEDGGI@?$AAs?$AA?9?$AA?$DO?$AAg?$AAo?$AAt?$AA_?$AAs?$AAe?$AAs?$AAs?$AAi?$AAo?$AAn?$AA_?$AAi?$AAd?$AA?$AA@ 00471fec     ssh2transport.obj
 0002:0000a010       ??_C@_0BE@KMGKOCMI@Repeat?5key?5exchange?$AA@ 00472010     ssh2transport.obj
 0002:0000a024       ??_C@_0BI@NICFDGII@Cache?5new?5host?5key?5type?$AA@ 00472024     ssh2transport.obj
 0002:0000a03c       ??_C@_0BA@LHEDDHPK@at?5user?5request?$AA@ 0047203c     ssh2transport.obj
 0002:0000a04c       ??_C@_0BO@NMPKLJNA@cross?9certifying?5new?5host?5key?$AA@ 0047204c     ssh2transport.obj
 0002:0000a06c       ??_C@_0BC@IGLKLAN@timeout?5shortened?$AA@ 0047206c     ssh2transport.obj
 0002:0000a080       ??_C@_0BD@FLFHDLKA@data?5limit?5lowered?$AA@ 00472080     ssh2transport.obj
 0002:0000a094       ??_C@_0BM@GOPPIFO@compression?5setting?5changed?$AA@ 00472094     ssh2transport.obj
 0002:0000a0b0       ??_C@_0BI@PHNLEPIC@cipher?5settings?5changed?$AA@ 004720b0     ssh2transport.obj
 0002:0000a0c8       __real@0000000000000000    004720c8     ssh2transport.obj
 0002:0000a0f4       ??_C@_0N@PFDFPFDP@ssh?9userauth?$AA@ 004720f4     ssh2userauth.obj
 0002:0000a104       ??_C@_0BL@DCKGCFKE@Pageant?5has?5?$CFzu?5SSH?92?5keys?$AA@ 00472104     ssh2userauth.obj
 0002:0000a120       ??_C@_0BH@IELFLDAD@Using?5username?5?$CC?$CFs?$CC?4?$AN?6?$AA@ 00472120     ssh2userauth.obj
 0002:0000a138       ??_C@_0CP@IJLEHPFP@Pre?9authentication?5banner?5messag@ 00472138     ssh2userauth.obj
 0002:0000a168       ??_C@_0CC@MDMCAJCA@End?5of?5banner?5message?5from?5serve@ 00472168     ssh2userauth.obj
 0002:0000a18c       ??_C@_0P@LPLEDOON@Access?5granted?$AA@ 0047218c     ssh2userauth.obj
 0002:0000a1a0       ??_C@_0EP@CKDEBFHO@Received?5unexpected?5packet?5in?5re@ 004721a0     ssh2userauth.obj
 0002:0000a1f0       ??_C@_0BJ@BPEHFHGE@Server?5refused?5our?5key?$AN?6?$AA@ 004721f0     ssh2userauth.obj
 0002:0000a20c       ??_C@_0BH@HIMMAADC@Server?5refused?5our?5key?$AA@ 0047220c     ssh2userauth.obj
 0002:0000a224       ??_C@_0DN@BONOABCC@Server?5refused?5public?9key?5signat@ 00472224     ssh2userauth.obj
 0002:0000a264       ??_C@_0DL@ONBECNBL@Server?5refused?5public?9key?5signat@ 00472264     ssh2userauth.obj
 0002:0000a2a0       ??_C@_0DD@BEEHJIGP@Server?5refused?5keyboard?9interact@ 004722a0     ssh2userauth.obj
 0002:0000a2d4       ??_C@_0CL@CDEOKJHD@Keyboard?9interactive?5authenticat@ 004722d4     ssh2userauth.obj
 0002:0000a300       ??_C@_1CE@LHFOGFFB@?$AA?4?$AA?4?$AA?2?$AAs?$AAs?$AAh?$AA2?$AAu?$AAs?$AAe?$AAr?$AAa?$AAu?$AAt?$AAh?$AA?4?$AAc?$AA?$AA@ 00472300     ssh2userauth.obj
 0002:0000a324       ??_C@_1DM@EGLMOCOB@?$AAs?$AA?9?$AA?$DO?$AAt?$AAy?$AAp?$AAe?$AA?5?$AA?$DN?$AA?$DN?$AA?5?$AAA?$AAU?$AAT?$AAH?$AA_?$AAT?$AAY?$AAP?$AAE?$AA_?$AAP?$AAA?$AAS?$AAS?$AAW?$AAO?$AAR?$AAD?$AA?$AA@ 00472324     ssh2userauth.obj
 0002:0000a360       ??_C@_0BP@KJPEJJMM@Password?5authentication?5failed?$AA@ 00472360     ssh2userauth.obj
 0002:0000a380       ??_C@_0CC@KLJPBIDO@Further?5authentication?5required?$AN@ 00472380     ssh2userauth.obj
 0002:0000a3a4       ??_C@_0CA@FPFFAHFF@Further?5authentication?5required?$AA@ 004723a4     ssh2userauth.obj
 0002:0000a3c4       ??_C@_09CDHPPNKF@publickey?$AA@ 004723c4     ssh2userauth.obj
 0002:0000a3d0       ??_C@_0BF@DPMEINNL@keyboard?9interactive?$AA@ 004723d0     ssh2userauth.obj
 0002:0000a3e8       ??_C@_0BA@GOOLCFMC@gssapi?9with?9mic?$AA@ 004723e8     ssh2userauth.obj
 0002:0000a3f8       ??_C@_0N@JEHLFPFN@gssapi?9keyex?$AA@ 004723f8     ssh2userauth.obj
 0002:0000a408       ??_C@_0BH@CKMKBMAI@Trying?5gssapi?9keyex?4?4?4?$AA@ 00472408     ssh2userauth.obj
 0002:0000a420       ??_C@_0DD@BMPPLFFL@Authenticating?5with?5public?5key?5?$CC@ 00472420     ssh2userauth.obj
 0002:0000a454       ??_C@_0CA@JPFMBMOL@Pageant?5refused?5signing?5request?$AA@ 00472454     ssh2userauth.obj
 0002:0000a474       ??_C@_0CI@EHNEGANA@Pageant?5failed?5to?5provide?5a?5sign@ 00472474     ssh2userauth.obj
 0002:0000a49c       ??_C@_0CN@FODHNLOB@Pageant?5failed?5to?5respond?5to?5sig@ 0047249c     ssh2userauth.obj
 0002:0000a4cc       ??_C@_0CP@KEFDOMBP@Pageant?5failed?5to?5respond?5to?5sig@ 004724cc     ssh2userauth.obj
 0002:0000a4fc       ??_C@_0BD@DDBLIJDE@Offered?5public?5key?$AA@ 004724fc     ssh2userauth.obj
 0002:0000a510       ??_C@_0BN@IOLDOLCO@Offer?5of?5public?5key?5accepted?$AA@ 00472510     ssh2userauth.obj
 0002:0000a530       ??_C@_0CG@DBAMGOLK@Authenticating?5with?5public?5key?5?$CC@ 00472530     ssh2userauth.obj
 0002:0000a558       ??_C@_0BH@OFLEDBJL@Unable?5to?5authenticate?$AA@ 00472558     ssh2userauth.obj
 0002:0000a570       ??_C@_0BD@DNDCGNLP@Wrong?5passphrase?$AN?6?$AA@ 00472570     ssh2userauth.obj
 0002:0000a584       ??_C@_0CC@GIMGLGHH@Unable?5to?5load?5private?5key?5?$CI?$CFs?$CJ?$AN@ 00472584     ssh2userauth.obj
 0002:0000a5a8       ??_C@_0CD@DDIJAOL@Cannot?5use?5this?5private?5key?5?$CI?$CFs?$CJ@ 004725a8     ssh2userauth.obj
 0002:0000a5cc       ??_C@_0BK@NAHGMKKB@Sent?5public?5key?5signature?$AA@ 004725cc     ssh2userauth.obj
 0002:0000a5e8       ??_C@_0BK@DHEOPHJN@Trying?5gssapi?9with?9mic?4?4?4?$AA@ 004725e8     ssh2userauth.obj
 0002:0000a604       ??_C@_0CB@FPBMDJML@Attempting?5GSSAPI?5authentication@ 00472604     ssh2userauth.obj
 0002:0000a628       ??_C@_0CG@MELLCDMH@GSSAPI?5authentication?5request?5re@ 00472628     ssh2userauth.obj
 0002:0000a650       ??_C@_0DD@FFIAANDK@GSSAPI?5authentication?5?9?5wrong?5re@ 00472650     ssh2userauth.obj
 0002:0000a684       ??_C@_0CN@NABGGJBN@GSSAPI?5import?5name?5failed?5?9?5Bad?5@ 00472684     ssh2userauth.obj
 0002:0000a6b4       ??_C@_0BK@LEKFMOIC@GSSAPI?5import?5name?5failed?$AA@ 004726b4     ssh2userauth.obj
 0002:0000a6d0       ??_C@_0DA@OOMCFFDO@GSSAPI?5authentication?5failed?5to?5@ 004726d0     ssh2userauth.obj
 0002:0000a700       ??_C@_0CM@HHFHEEBL@GSSAPI?5authentication?5initialisa@ 00472700     ssh2userauth.obj
 0002:0000a72c       ??_C@_0CC@BOGFFJOM@GSSAPI?5authentication?5initialise@ 0047272c     ssh2userauth.obj
 0002:0000a750       ??_C@_0HC@MHCNFINO@Received?5unexpected?5packet?5after@ 00472750     ssh2userauth.obj
 0002:0000a7c4       ??_C@_0BN@CHFFEJM@GSSAPI?5authentication?5failed?$AA@ 004727c4     ssh2userauth.obj
 0002:0000a7e4       ??_C@_0CM@OODDKJP@GSSAPI?5authentication?5?9?5bad?5serv@ 004727e4     ssh2userauth.obj
 0002:0000a810       ??_C@_0CH@MFIPJJLP@GSSAPI?5authentication?5loop?5finis@ 00472810     ssh2userauth.obj
 0002:0000a838       ??_C@_0CP@HNFBPPPF@Attempting?5keyboard?9interactive?5@ 00472838     ssh2userauth.obj
 0002:0000a868       ??_C@_0DL@GPOIAODP@Server?5sent?5truncated?5SSH_MSG_US@ 00472868     ssh2userauth.obj
 0002:0000a8a4       ??_C@_0CB@MAHGMMPG@?$DMserver?5failed?5to?5send?5prompt?$DO?3?5@ 004728a4     ssh2userauth.obj
 0002:0000a8c8       ??_C@_0DJ@CNKIOMGO@Keyboard?9interactive?5authenticat@ 004728c8     ssh2userauth.obj
 0002:0000a904       ??_C@_0BK@FCMADENN@SSH?5server?5authentication?$AA@ 00472904     ssh2userauth.obj
 0002:0000a920       ??_C@_0DI@CBBNFLKP@User?5aborted?5during?5keyboard?9int@ 00472920     ssh2userauth.obj
 0002:0000a958       ??_C@_0DA@BDFANHD@End?5of?5keyboard?9interactive?5prom@ 00472958     ssh2userauth.obj
 0002:0000a988       ??_C@_0CM@BCFGNOFB@User?5aborted?5during?5password?5aut@ 00472988     ssh2userauth.obj
 0002:0000a9b4       ??_C@_0CB@IHLPLHJJ@Server?5requested?5password?5change@ 004729b4     ssh2userauth.obj
 0002:0000a9d8       ??_C@_0BN@NDNEHCCL@Server?5rejected?5new?5password?$AA@ 004729d8     ssh2userauth.obj
 0002:0000a9f8       ??_C@_0BB@CHKHFJNI@New?5SSH?5password?$AA@ 004729f8     ssh2userauth.obj
 0002:0000aa0c       ??_C@_0DL@HGODMPAK@Current?5password?5?$CIblank?5for?5prev@ 00472a0c     ssh2userauth.obj
 0002:0000aa48       ??_C@_0BF@MMNFOGGN@Enter?5new?5password?3?5?$AA@ 00472a48     ssh2userauth.obj
 0002:0000aa60       ??_C@_0BH@HMNNKBPF@Confirm?5new?5password?3?5?$AA@ 00472a60     ssh2userauth.obj
 0002:0000aa78       ??_C@_0CG@KOIFBJDF@User?5aborted?5during?5password?5cha@ 00472a78     ssh2userauth.obj
 0002:0000aaa0       ??_C@_0BJ@CGLIMECO@Passwords?5do?5not?5match?$AN?6?$AA@ 00472aa0     ssh2userauth.obj
 0002:0000aabc       ??_C@_0BC@CHKHFAHJ@Sent?5new?5password?$AA@ 00472abc     ssh2userauth.obj
 0002:0000aad0       ??_C@_0EA@OHAHLOJC@No?5supported?5authentication?5meth@ 00472ad0     ssh2userauth.obj
 0002:0000ab10       ??_C@_07FDBDPOCJ@ssh?9rsa?$AA@ 00472b10     ssh2userauth.obj
 0002:0000ab18       ??_C@_06OCNFOMJG@?9?9?5?$CFs?5?$AA@ 00472b18     ssh2userauth.obj
 0002:0000ab20       ??_C@_0CB@NJEJMLLL@AES?9256?5CBC?5?$CIAES?9NI?5accelerated?$CJ@ 00472b20     sshaes.obj
 0002:0000ab48       _extra_aes256_cbc          00472b48     sshaes.obj
 0002:0000ab50       _extra_aes256_sdctr        00472b50     sshaes.obj
 0002:0000abc0       _extra_aes128_cbc          00472bc0     sshaes.obj
 0002:0000abc8       _extra_aes128_sdctr        00472bc8     sshaes.obj
 0002:0000abd0       _ssh_aes256_sdctr          00472bd0     sshaes.obj
 0002:0000ac10       _ssh_aes256_sdctr_hw       00472c10     sshaes.obj
 0002:0000ac50       _ssh_aes256_sdctr_sw       00472c50     sshaes.obj
 0002:0000ac90       _ssh_aes256_cbc            00472c90     sshaes.obj
 0002:0000acd0       _ssh_aes256_cbc_hw         00472cd0     sshaes.obj
 0002:0000ad10       _ssh_aes256_cbc_sw         00472d10     sshaes.obj
 0002:0000ad50       _ssh_aes192_sdctr          00472d50     sshaes.obj
 0002:0000ad90       _ssh_aes192_sdctr_hw       00472d90     sshaes.obj
 0002:0000add0       _ssh_aes192_sdctr_sw       00472dd0     sshaes.obj
 0002:0000ae10       _ssh_aes192_cbc            00472e10     sshaes.obj
 0002:0000ae50       _ssh_aes192_cbc_hw         00472e50     sshaes.obj
 0002:0000ae90       _ssh_aes192_cbc_sw         00472e90     sshaes.obj
 0002:0000aed0       _ssh_aes128_sdctr          00472ed0     sshaes.obj
 0002:0000af10       _ssh_aes128_sdctr_hw       00472f10     sshaes.obj
 0002:0000af50       _ssh_aes128_sdctr_sw       00472f50     sshaes.obj
 0002:0000af90       _ssh_aes128_cbc            00472f90     sshaes.obj
 0002:0000afd0       _ssh_aes128_cbc_hw         00472fd0     sshaes.obj
 0002:0000b010       _ssh_aes128_cbc_sw         00473010     sshaes.obj
 0002:0000b050       _ssh2_aes                  00473050     sshaes.obj
 0002:0000b058       _extra_aes192_cbc          00473058     sshaes.obj
 0002:0000b060       _extra_aes192_sdctr        00473060     sshaes.obj
 0002:0000b068       ??_C@_0CE@GLAFCKHH@AES?9256?5CBC?5?$CIdummy?5selector?5vtab@ 00473068     sshaes.obj
 0002:0000b08c       ??_C@_0L@EKGBGFCK@aes256?9ctr?$AA@ 0047308c     sshaes.obj
 0002:0000b098       ??_C@_0BO@PCFPJHGM@AES?9256?5SDCTR?5?$CIunaccelerated?$CJ?$AA@ 00473098     sshaes.obj
 0002:0000b0b8       ??_C@_0CD@JJIEHMKL@AES?9256?5SDCTR?5?$CIAES?9NI?5accelerate@ 004730b8     sshaes.obj
 0002:0000b0dc       ??_C@_0CG@DJHCAPDF@AES?9256?5SDCTR?5?$CIdummy?5selector?5vt@ 004730dc     sshaes.obj
 0002:0000b104       ??_C@_0BM@MGEJEKIP@rijndael?9cbc?$EAlysator?4liu?4se?$AA@ 00473104     sshaes.obj
 0002:0000b120       ??_C@_0L@HADBMBOF@aes128?9cbc?$AA@ 00473120     sshaes.obj
 0002:0000b12c       ??_C@_0BM@CJAJGFLE@AES?9128?5CBC?5?$CIunaccelerated?$CJ?$AA@ 0047312c     sshaes.obj
 0002:0000b148       ??_C@_0CB@GJDNIMJ@AES?9128?5CBC?5?$CIAES?9NI?5accelerated?$CJ@ 00473148     sshaes.obj
 0002:0000b16c       ??_C@_0CE@DLJJOMMO@AES?9128?5CBC?5?$CIdummy?5selector?5vtab@ 0047316c     sshaes.obj
 0002:0000b190       ??_C@_0L@DLEDDNDH@aes128?9ctr?$AA@ 00473190     sshaes.obj
 0002:0000b19c       ??_C@_0BO@KMGIOINC@AES?9128?5SDCTR?5?$CIunaccelerated?$CJ?$AA@ 0047319c     sshaes.obj
 0002:0000b1bc       ??_C@_0CD@DDPJNL@AES?9128?5SDCTR?5?$CIAES?9NI?5accelerate@ 004731bc     sshaes.obj
 0002:0000b1e0       ??_C@_0CG@HOHCCNNN@AES?9128?5SDCTR?5?$CIdummy?5selector?5vt@ 004731e0     sshaes.obj
 0002:0000b208       ??_C@_0L@NDKNLGHJ@aes192?9cbc?$AA@ 00473208     sshaes.obj
 0002:0000b214       ??_C@_0BM@MIEGPACP@AES?9192?5CBC?5?$CIunaccelerated?$CJ?$AA@ 00473214     sshaes.obj
 0002:0000b230       ??_C@_0CB@BGHINHAO@AES?9192?5CBC?5?$CIAES?9NI?5accelerated?$CJ@ 00473230     sshaes.obj
 0002:0000b254       ??_C@_0CE@BPDJELCE@AES?9192?5CBC?5?$CIdummy?5selector?5vtab@ 00473254     sshaes.obj
 0002:0000b278       ??_C@_0L@JINPEKKL@aes192?9ctr?$AA@ 00473278     sshaes.obj
 0002:0000b284       ??_C@_0BO@LOLIDNIH@AES?9192?5SDCTR?5?$CIunaccelerated?$CJ?$AA@ 00473284     sshaes.obj
 0002:0000b2a4       ??_C@_0CD@BEDHLFCI@AES?9192?5SDCTR?5?$CIAES?9NI?5accelerate@ 004732a4     sshaes.obj
 0002:0000b2c8       ??_C@_0CG@JCFBCEFA@AES?9192?5SDCTR?5?$CIdummy?5selector?5vt@ 004732c8     sshaes.obj
 0002:0000b2f0       ??_C@_0L@BBDJJPI@aes256?9cbc?$AA@ 004732f0     sshaes.obj
 0002:0000b2fc       ??_C@_0BM@MMBMCILC@AES?9256?5CBC?5?$CIunaccelerated?$CJ?$AA@ 004732fc     sshaes.obj
 0002:0000b318       ??_C@_1BI@FNOKOHIF@?$AA?4?$AA?4?$AA?2?$AAs?$AAs?$AAh?$AAa?$AAe?$AAs?$AA?4?$AAc?$AA?$AA@ 00473318     sshaes.obj
 0002:0000b330       ??_C@_1FG@IEDDKBB@?$AAr?$AAc?$AAo?$AAn?$AAp?$AAo?$AAs?$AA?5?$AA?$DM?$AA?5?$AAl?$AAe?$AAn?$AAo?$AAf?$AA?$CI?$AAk?$AAe?$AAy?$AA_?$AAs?$AAe?$AAt?$AAu?$AAp?$AA_?$AAr?$AAo?$AAu?$AAn?$AAd?$AA_@ 00473330     sshaes.obj
 0002:0000b390       __xmm@00000000000000000000000000000001 00473390     sshaes.obj
 0002:0000b3a0       __xmm@000102030405060708090a0b0c0d0e0f 004733a0     sshaes.obj
 0002:0000b3b0       __xmm@000f000f000f000f000f000f000f000f 004733b0     sshaes.obj
 0002:0000b3c0       ??_C@_0L@FJBAEHAD@arcfour128?$AA@ 004733c0     ssharcf.obj
 0002:0000b3cc       ??_C@_0M@CMMMHGEF@Arcfour?9128?$AA@ 004733cc     ssharcf.obj
 0002:0000b3d8       ??_C@_0L@NAGJNDOG@arcfour256?$AA@ 004733d8     ssharcf.obj
 0002:0000b3e4       ??_C@_0M@KFLFOCKA@Arcfour?9256?$AA@ 004733e4     ssharcf.obj
 0002:0000b3f8       _ssh_arcfour256_ssh2       004733f8     ssharcf.obj
 0002:0000b438       _ssh_arcfour128_ssh2       00473438     ssharcf.obj
 0002:0000b478       _ssh2_arcfour              00473478     ssharcf.obj
 0002:0000b480       ??_C@_1BK@EHJJFLKD@?$AA?4?$AA?4?$AA?2?$AAs?$AAs?$AAh?$AAa?$AAr?$AAc?$AAf?$AA?4?$AAc?$AA?$AA@ 00473480     ssharcf.obj
 0002:0000b49c       ??_C@_1CA@NEGFHBCJ@?$AAk?$AAe?$AAy?$AAb?$AAy?$AAt?$AAe?$AAs?$AA?5?$AA?$DM?$AA?$DN?$AA?5?$AA2?$AA5?$AA6?$AA?$AA@ 0047349c     ssharcf.obj
 0002:0000b4bc       ??_C@_0BB@HKAENLKH@Blowfish?9256?5CBC?$AA@ 004734bc     sshblowf.obj
 0002:0000b4d0       ??_C@_0N@KIHOJLLD@blowfish?9cbc?$AA@ 004734d0     sshblowf.obj
 0002:0000b4e0       ??_C@_0BB@LCGIDLK@Blowfish?9128?5CBC?$AA@ 004734e0     sshblowf.obj
 0002:0000b4f4       ??_C@_0N@ODAMGHGB@blowfish?9ctr?$AA@ 004734f4     sshblowf.obj
 0002:0000b504       ??_C@_0BD@JPOJBFPH@Blowfish?9256?5SDCTR?$AA@ 00473504     sshblowf.obj
 0002:0000c568       _ssh_blowfish_ssh1         00474568     sshblowf.obj
 0002:0000c5a8       _ssh_blowfish_ssh2_ctr     004745a8     sshblowf.obj
 0002:0000c5e8       _ssh_blowfish_ssh2         004745e8     sshblowf.obj
 0002:0000c628       _ssh2_blowfish             00474628     sshblowf.obj
 0002:0000c630       ??_C@_1BM@FADJMCIB@?$AA?4?$AA?4?$AA?2?$AAs?$AAs?$AAh?$AAb?$AAl?$AAo?$AAw?$AAf?$AA?4?$AAc?$AA?$AA@ 00474630     sshblowf.obj
 0002:0000c64c       ??_C@_1BO@CPHGGKB@?$AA?$CI?$AAl?$AAe?$AAn?$AA?5?$AA?$CG?$AA?5?$AA7?$AA?$CJ?$AA?5?$AA?$DN?$AA?$DN?$AA?5?$AA0?$AA?$AA@ 0047464c     sshblowf.obj
 0002:0000c66c       ??_C@_0BO@LOFLNEO@chacha20?9poly1305?$EAopenssh?4com?$AA@ 0047466c     sshccp.obj
 0002:0000c68c       ??_C@_08ILJLPLOJ@ChaCha20?$AA@ 0047468c     sshccp.obj
 0002:0000c6ac       _ssh2_poly1305             004746ac     sshccp.obj
 0002:0000c6d8       _ssh2_chacha20_poly1305    004746d8     sshccp.obj
 0002:0000c718       _ssh2_ccp                  00474718     sshccp.obj
 0002:0000c720       ??_C@_1BI@DCEAAOLO@?$AA?4?$AA?4?$AA?2?$AAs?$AAs?$AAh?$AAc?$AAc?$AAp?$AA?4?$AAc?$AA?$AA@ 00474720     sshccp.obj
 0002:0000c738       ??_C@_1BM@HEJNGGC@?$AAk?$AAe?$AAy?$AA?4?$AAl?$AAe?$AAn?$AA?5?$AA?$DN?$AA?$DN?$AA?5?$AA3?$AA2?$AA?$AA@ 00474738     sshccp.obj
 0002:0000c754       ??_C@_08PKNBIDPH@Poly1305?$AA@ 00474754     sshccp.obj
 0002:0000ca60       ??_C@_1BO@NJPEDBPE@?$AA?4?$AA?4?$AA?2?$AAs?$AAs?$AAh?$AAc?$AAo?$AAm?$AAm?$AAo?$AAn?$AA?4?$AAc?$AA?$AA@ 00474a60     sshcommon.obj
 0002:0000ca80       ??_C@_1BI@IFMBGDBP@?$AA?$CB?$AAn?$AAo?$AAd?$AAe?$AA?9?$AA?$DO?$AAn?$AAe?$AAx?$AAt?$AA?$AA@ 00474a80     sshcommon.obj
 0002:0000ca98       ??_C@_1BI@NPJJDDLI@?$AA?$CB?$AAn?$AAo?$AAd?$AAe?$AA?9?$AA?$DO?$AAp?$AAr?$AAe?$AAv?$AA?$AA@ 00474a98     sshcommon.obj
 0002:0000cab0       ??_C@_1EK@GOJAMFJF@?$AAp?$AAq?$AAb?$AA?9?$AA?$DO?$AAt?$AAo?$AAt?$AAa?$AAl?$AA_?$AAs?$AAi?$AAz?$AAe?$AA?5?$AA?$DO?$AA?$DN?$AA?5?$AAn?$AAo?$AAd?$AAe?$AA?9?$AA?$DO?$AAf?$AAo?$AAr?$AAm?$AAa?$AAl?$AA_@ 00474ab0     sshcommon.obj
 0002:0000cb00       ??_C@_1GG@FJBDBHLC@?$AAp?$AAq?$AAb?$AA?9?$AA?$DO?$AAe?$AAn?$AAd?$AA?4?$AAn?$AAe?$AAx?$AAt?$AA?5?$AA?$CB?$AA?$DN?$AA?5?$AA?$CG?$AAp?$AAq?$AAb?$AA?9?$AA?$DO?$AAe?$AAn?$AAd?$AA?5?$AA?$HM?$AA?$HM?$AA?5?$AAp?$AAq@ 00474b00     sshcommon.obj
 0002:0000cb68       ??_C@_1DO@BJFGHKIG@?$AAq?$AAd?$AAe?$AAs?$AAt?$AA?9?$AA?$DO?$AAe?$AAn?$AAd?$AA?4?$AAn?$AAe?$AAx?$AAt?$AA?5?$AA?$DN?$AA?$DN?$AA?5?$AA?$CG?$AAq?$AAd?$AAe?$AAs?$AAt?$AA?9?$AA?$DO?$AAe?$AAn?$AAd?$AA?$AA@ 00474b68     sshcommon.obj
 0002:0000cba8       ??_C@_1DO@BEJEGKMK@?$AAq?$AAd?$AAe?$AAs?$AAt?$AA?9?$AA?$DO?$AAe?$AAn?$AAd?$AA?4?$AAp?$AAr?$AAe?$AAv?$AA?5?$AA?$DN?$AA?$DN?$AA?5?$AA?$CG?$AAq?$AAd?$AAe?$AAs?$AAt?$AA?9?$AA?$DO?$AAe?$AAn?$AAd?$AA?$AA@ 00474ba8     sshcommon.obj
 0002:0000cbe8       ??_C@_1O@INPGIOMI@?$AA?$CB?$AAt?$AAa?$AAi?$AAl?$AA2?$AA?$AA@ 00474be8     sshcommon.obj
 0002:0000cbf8       ??_C@_1M@HHPDKIMO@?$AAt?$AAa?$AAi?$AAl?$AA2?$AA?$AA@ 00474bf8     sshcommon.obj
 0002:0000cc08       ??_C@_1EE@HFIPIKGH@?$AAc?$AAh?$AAa?$AAn?$AA?9?$AA?$DO?$AAv?$AAt?$AA?5?$AA?$DN?$AA?$DN?$AA?5?$AA?$CG?$AAz?$AAo?$AAm?$AAb?$AAi?$AAe?$AAc?$AAh?$AAa?$AAn?$AA_?$AAc?$AAh?$AAa?$AAn?$AAn?$AAe?$AAl?$AAv@ 00474c08     sshcommon.obj
 0002:0000cc50       ??_C@_1II@HAPPBHPE@?$AAf?$AAa?$AAl?$AAs?$AAe?$AA?5?$AA?$CG?$AA?$CG?$AA?5?$AA?$CC?$AAt?$AAh?$AAi?$AAs?$AA?5?$AAc?$AAh?$AAa?$AAn?$AAn?$AAe?$AAl?$AA?5?$AAt?$AAy?$AAp?$AAe?$AA?5?$AAs?$AAh?$AAo?$AAu@ 00474c50     sshcommon.obj
 0002:0000ccd8       ??_C@_1HO@KEKOJCEB@?$AAf?$AAa?$AAl?$AAs?$AAe?$AA?5?$AA?$CG?$AA?$CG?$AA?5?$AA?$CC?$AAt?$AAh?$AAi?$AAs?$AA?5?$AAc?$AAh?$AAa?$AAn?$AAn?$AAe?$AAl?$AA?5?$AAt?$AAy?$AAp?$AAe?$AA?5?$AAs?$AAh?$AAo?$AAu@ 00474cd8     sshcommon.obj
 0002:0000cd58       ??_C@_1II@IGPBMCCJ@?$AAf?$AAa?$AAl?$AAs?$AAe?$AA?5?$AA?$CG?$AA?$CG?$AA?5?$AA?$CC?$AAt?$AAh?$AAi?$AAs?$AA?5?$AAc?$AAh?$AAa?$AAn?$AAn?$AAe?$AAl?$AA?5?$AAt?$AAy?$AAp?$AAe?$AA?5?$AAs?$AAh?$AAo?$AAu@ 00474d58     sshcommon.obj
 0002:0000cde0       ??_C@_02LIELOMNJ@on?$AA@   00474de0     sshcommon.obj
 0002:0000cde4       ??_C@_04LOAJBDKD@true?$AA@ 00474de4     sshcommon.obj
 0002:0000cdec       ??_C@_01MIFGBAGJ@?$CL?$AA@ 00474dec     sshcommon.obj
 0002:0000cdf0       ??_C@_03MCADLMAF@off?$AA@  00474df0     sshcommon.obj
 0002:0000cdf4       ??_C@_05LAPONLG@false?$AA@ 00474df4     sshcommon.obj
 0002:0000cdfc       ??_C@_01JOAMLHOP@?9?$AA@   00474dfc     sshcommon.obj
 0002:0000ce00       ??_C@_1DE@GDPKBGDI@?$AAf?$AAa?$AAl?$AAs?$AAe?$AA?5?$AA?$CG?$AA?$CG?$AA?5?$AA?$CC?$AAB?$AAa?$AAd?$AA?5?$AAm?$AAo?$AAd?$AAe?$AA?9?$AA?$DO?$AAt?$AAy?$AAp?$AAe?$AA?$CC?$AA?$AA@ 00474e00     sshcommon.obj
 0002:0000ce34       ??_C@_05KOEELMFI@?$CFu?0?$CFu?$AA@ 00474e34     sshcommon.obj
 0002:0000ce3c       ??_C@_1DG@OAHFPKBJ@?$AAo?$AAu?$AAr?$AA_?$AAo?$AAp?$AAc?$AAo?$AAd?$AAe?$AA?5?$AA?$DM?$AA?5?$AAT?$AAT?$AAY?$AAM?$AAO?$AAD?$AAE?$AA_?$AAL?$AAI?$AAM?$AAI?$AAT?$AA?$AA@ 00474e3c     sshcommon.obj
 0002:0000ce74       ??_C@_0BE@EJPEKCJH@SSH1_MSG_DISCONNECT?$AA@ 00474e74     sshcommon.obj
 0002:0000ce88       ??_C@_0BF@EMBHAOBH@SSH1_SMSG_PUBLIC_KEY?$AA@ 00474e88     sshcommon.obj
 0002:0000cea0       ??_C@_0BG@PCGDDLML@SSH1_CMSG_SESSION_KEY?$AA@ 00474ea0     sshcommon.obj
 0002:0000ceb8       ??_C@_0P@EFPMEAFD@SSH1_CMSG_USER?$AA@ 00474eb8     sshcommon.obj
 0002:0000cec8       ??_C@_0BD@BPOFOLMB@SSH1_CMSG_AUTH_RSA?$AA@ 00474ec8     sshcommon.obj
 0002:0000cedc       ??_C@_0BN@PMFHDJLD@SSH1_SMSG_AUTH_RSA_CHALLENGE?$AA@ 00474edc     sshcommon.obj
 0002:0000cefc       ??_C@_0BM@PLPHFPJM@SSH1_CMSG_AUTH_RSA_RESPONSE?$AA@ 00474efc     sshcommon.obj
 0002:0000cf18       ??_C@_0BI@GPCCNJIG@SSH1_CMSG_AUTH_PASSWORD?$AA@ 00474f18     sshcommon.obj
 0002:0000cf30       ??_C@_0BG@NBEJAFMC@SSH1_CMSG_REQUEST_PTY?$AA@ 00474f30     sshcommon.obj
 0002:0000cf48       ??_C@_0BG@CFKOCBBJ@SSH1_CMSG_WINDOW_SIZE?$AA@ 00474f48     sshcommon.obj
 0002:0000cf60       ??_C@_0BF@DAINOGIA@SSH1_CMSG_EXEC_SHELL?$AA@ 00474f60     sshcommon.obj
 0002:0000cf78       ??_C@_0BD@PBAIICGA@SSH1_CMSG_EXEC_CMD?$AA@ 00474f78     sshcommon.obj
 0002:0000cf8c       ??_C@_0BC@ODEPJAKH@SSH1_SMSG_SUCCESS?$AA@ 00474f8c     sshcommon.obj
 0002:0000cfa0       ??_C@_0BC@CKANCLPN@SSH1_SMSG_FAILURE?$AA@ 00474fa0     sshcommon.obj
 0002:0000cfb4       ??_C@_0BF@LBCLKBNP@SSH1_CMSG_STDIN_DATA?$AA@ 00474fb4     sshcommon.obj
 0002:0000cfcc       ??_C@_0BG@GEPJLIMO@SSH1_SMSG_STDOUT_DATA?$AA@ 00474fcc     sshcommon.obj
 0002:0000cfe4       ??_C@_0BG@JIMCAOHD@SSH1_SMSG_STDERR_DATA?$AA@ 00474fe4     sshcommon.obj
 0002:0000cffc       ??_C@_0O@MIHBEILN@SSH1_CMSG_EOF?$AA@ 00474ffc     sshcommon.obj
 0002:0000d00c       ??_C@_0BG@LOBMNFLF@SSH1_SMSG_EXIT_STATUS?$AA@ 0047500c     sshcommon.obj
 0002:0000d024       ??_C@_0CD@GGBBMHDM@SSH1_MSG_CHANNEL_OPEN_CONFIRMATI@ 00475024     sshcommon.obj
 0002:0000d048       ??_C@_0BO@KPDAIAKO@SSH1_MSG_CHANNEL_OPEN_FAILURE?$AA@ 00475048     sshcommon.obj
 0002:0000d068       ??_C@_0BG@MLJJJADE@SSH1_MSG_CHANNEL_DATA?$AA@ 00475068     sshcommon.obj
 0002:0000d080       ??_C@_0BH@NBFOIFOM@SSH1_MSG_CHANNEL_CLOSE?$AA@ 00475080     sshcommon.obj
 0002:0000d098       ??_C@_0CE@MILAPJML@SSH1_MSG_CHANNEL_CLOSE_CONFIRMAT@ 00475098     sshcommon.obj
 0002:0000d0bc       ??_C@_0BD@LPBCEAKD@SSH1_SMSG_X11_OPEN?$AA@ 004750bc     sshcommon.obj
 0002:0000d0d0       ??_C@_0BP@GHDPAAHA@SSH1_CMSG_PORT_FORWARD_REQUEST?$AA@ 004750d0     sshcommon.obj
 0002:0000d0f0       ??_C@_0BD@PJLBMAAH@SSH1_MSG_PORT_OPEN?$AA@ 004750f0     sshcommon.obj
 0002:0000d104       ??_C@_0CD@EJJCHBAH@SSH1_CMSG_AGENT_REQUEST_FORWARDI@ 00475104     sshcommon.obj
 0002:0000d128       ??_C@_0BF@LGBGNCBJ@SSH1_SMSG_AGENT_OPEN?$AA@ 00475128     sshcommon.obj
 0002:0000d140       ??_C@_0BA@PHJHFNMD@SSH1_MSG_IGNORE?$AA@ 00475140     sshcommon.obj
 0002:0000d150       ??_C@_0BM@PPHECPOE@SSH1_CMSG_EXIT_CONFIRMATION?$AA@ 00475150     sshcommon.obj
 0002:0000d16c       ??_C@_0CB@NEMJNOGE@SSH1_CMSG_X11_REQUEST_FORWARDING@ 0047516c     sshcommon.obj
 0002:0000d190       ??_C@_0BK@DDNNODND@SSH1_CMSG_AUTH_RHOSTS_RSA?$AA@ 00475190     sshcommon.obj
 0002:0000d1ac       ??_C@_0P@FJDABEDP@SSH1_MSG_DEBUG?$AA@ 004751ac     sshcommon.obj
 0002:0000d1bc       ??_C@_0BO@FLIGKACB@SSH1_CMSG_REQUEST_COMPRESSION?$AA@ 004751bc     sshcommon.obj
 0002:0000d1dc       ??_C@_0BD@FDMLOCGI@SSH1_CMSG_AUTH_TIS?$AA@ 004751dc     sshcommon.obj
 0002:0000d1f0       ??_C@_0BN@GKOOMBJK@SSH1_SMSG_AUTH_TIS_CHALLENGE?$AA@ 004751f0     sshcommon.obj
 0002:0000d210       ??_C@_0BM@ELKHPING@SSH1_CMSG_AUTH_TIS_RESPONSE?$AA@ 00475210     sshcommon.obj
 0002:0000d22c       ??_C@_0BF@LGHOPEHJ@SSH1_CMSG_AUTH_CCARD?$AA@ 0047522c     sshcommon.obj
 0002:0000d244       ??_C@_0BP@GHOPGFIB@SSH1_SMSG_AUTH_CCARD_CHALLENGE?$AA@ 00475244     sshcommon.obj
 0002:0000d264       ??_C@_0BO@HOAMHMHO@SSH1_CMSG_AUTH_CCARD_RESPONSE?$AA@ 00475264     sshcommon.obj
 0002:0000d284       ??_C@_0BE@BKGOPJBD@SSH2_MSG_DISCONNECT?$AA@ 00475284     sshcommon.obj
 0002:0000d298       ??_C@_0BA@EKFNDBAN@SSH2_MSG_IGNORE?$AA@ 00475298     sshcommon.obj
 0002:0000d2a8       ??_C@_0BH@IPHHGPHC@SSH2_MSG_UNIMPLEMENTED?$AA@ 004752a8     sshcommon.obj
 0002:0000d2c0       ??_C@_0P@COKOMGMP@SSH2_MSG_DEBUG?$AA@ 004752c0     sshcommon.obj
 0002:0000d2d0       ??_C@_0BJ@PLJPHFFB@SSH2_MSG_SERVICE_REQUEST?$AA@ 004752d0     sshcommon.obj
 0002:0000d2ec       ??_C@_0BI@LIMFKANN@SSH2_MSG_SERVICE_ACCEPT?$AA@ 004752ec     sshcommon.obj
 0002:0000d304       ??_C@_0BB@DMIMKKON@SSH2_MSG_KEXINIT?$AA@ 00475304     sshcommon.obj
 0002:0000d318       ??_C@_0BB@HLJMPHIK@SSH2_MSG_NEWKEYS?$AA@ 00475318     sshcommon.obj
 0002:0000d32c       ??_C@_0BE@HOKBELOI@SSH2_MSG_KEXDH_INIT?$AA@ 0047532c     sshcommon.obj
 0002:0000d340       ??_C@_0BF@OEDDAEII@SSH2_MSG_KEXDH_REPLY?$AA@ 00475340     sshcommon.obj
 0002:0000d358       ??_C@_0CA@HNKNBNJC@SSH2_MSG_KEX_DH_GEX_REQUEST_OLD?$AA@ 00475358     sshcommon.obj
 0002:0000d378       ??_C@_0BM@GGJNIDJL@SSH2_MSG_KEX_DH_GEX_REQUEST?$AA@ 00475378     sshcommon.obj
 0002:0000d394       ??_C@_0BK@CIFJHENI@SSH2_MSG_KEX_DH_GEX_GROUP?$AA@ 00475394     sshcommon.obj
 0002:0000d3b0       ??_C@_0BJ@IIMOAMHJ@SSH2_MSG_KEX_DH_GEX_INIT?$AA@ 004753b0     sshcommon.obj
 0002:0000d3cc       ??_C@_0BK@GDMNMIBN@SSH2_MSG_KEX_DH_GEX_REPLY?$AA@ 004753cc     sshcommon.obj
 0002:0000d3e8       ??_C@_0BF@EBACBNJB@SSH2_MSG_KEXGSS_INIT?$AA@ 004753e8     sshcommon.obj
 0002:0000d400       ??_C@_0BJ@HHJNFDMF@SSH2_MSG_KEXGSS_CONTINUE?$AA@ 00475400     sshcommon.obj
 0002:0000d41c       ??_C@_0BJ@MDMHGJAI@SSH2_MSG_KEXGSS_COMPLETE?$AA@ 0047541c     sshcommon.obj
 0002:0000d438       ??_C@_0BI@HEBOIDGL@SSH2_MSG_KEXGSS_HOSTKEY?$AA@ 00475438     sshcommon.obj
 0002:0000d450       ??_C@_0BG@EKHNLIOO@SSH2_MSG_KEXGSS_ERROR?$AA@ 00475450     sshcommon.obj
 0002:0000d468       ??_C@_0BJ@OFFDJHND@SSH2_MSG_KEXGSS_GROUPREQ?$AA@ 00475468     sshcommon.obj
 0002:0000d484       ??_C@_0BG@IGEBNCID@SSH2_MSG_KEXGSS_GROUP?$AA@ 00475484     sshcommon.obj
 0002:0000d49c       ??_C@_0BH@KPBOGAFF@SSH2_MSG_KEXRSA_PUBKEY?$AA@ 0047549c     sshcommon.obj
 0002:0000d4b4       ??_C@_0BH@DIPPDHLL@SSH2_MSG_KEXRSA_SECRET?$AA@ 004754b4     sshcommon.obj
 0002:0000d4cc       ??_C@_0BF@EBKOABAJ@SSH2_MSG_KEXRSA_DONE?$AA@ 004754cc     sshcommon.obj
 0002:0000d4e4       ??_C@_0BH@EIANGOMD@SSH2_MSG_KEX_ECDH_INIT?$AA@ 004754e4     sshcommon.obj
 0002:0000d4fc       ??_C@_0BI@EILJFBON@SSH2_MSG_KEX_ECDH_REPLY?$AA@ 004754fc     sshcommon.obj
 0002:0000d514       ??_C@_0BK@JKMNCPHK@SSH2_MSG_USERAUTH_REQUEST?$AA@ 00475514     sshcommon.obj
 0002:0000d530       ??_C@_0BK@BGAEFPAF@SSH2_MSG_USERAUTH_FAILURE?$AA@ 00475530     sshcommon.obj
 0002:0000d54c       ??_C@_0BK@NPEGOEFP@SSH2_MSG_USERAUTH_SUCCESS?$AA@ 0047554c     sshcommon.obj
 0002:0000d568       ??_C@_0BJ@JOGGGGDI@SSH2_MSG_USERAUTH_BANNER?$AA@ 00475568     sshcommon.obj
 0002:0000d584       ??_C@_0BI@PENMGHKN@SSH2_MSG_USERAUTH_PK_OK?$AA@ 00475584     sshcommon.obj
 0002:0000d59c       ??_C@_0CD@FMCAJMAP@SSH2_MSG_USERAUTH_PASSWD_CHANGER@ 0047559c     sshcommon.obj
 0002:0000d5c0       ??_C@_0BP@NDNMDJMP@SSH2_MSG_USERAUTH_INFO_REQUEST?$AA@ 004755c0     sshcommon.obj
 0002:0000d5e0       ??_C@_0CA@KMNILJKE@SSH2_MSG_USERAUTH_INFO_RESPONSE?$AA@ 004755e0     sshcommon.obj
 0002:0000d600       ??_C@_0CC@BMGHDOON@SSH2_MSG_USERAUTH_GSSAPI_RESPONS@ 00475600     sshcommon.obj
 0002:0000d624       ??_C@_0BP@HFOHOMMB@SSH2_MSG_USERAUTH_GSSAPI_TOKEN?$AA@ 00475624     sshcommon.obj
 0002:0000d644       ??_C@_0CL@KDINBLFN@SSH2_MSG_USERAUTH_GSSAPI_EXCHANG@ 00475644     sshcommon.obj
 0002:0000d670       ??_C@_0BP@ODOMKOFC@SSH2_MSG_USERAUTH_GSSAPI_ERROR?$AA@ 00475670     sshcommon.obj
 0002:0000d690       ??_C@_0CA@FONKKAF@SSH2_MSG_USERAUTH_GSSAPI_ERRTOK?$AA@ 00475690     sshcommon.obj
 0002:0000d6b0       ??_C@_0BN@KAKDGMOB@SSH2_MSG_USERAUTH_GSSAPI_MIC?$AA@ 004756b0     sshcommon.obj
 0002:0000d6d0       ??_C@_0BI@JKCMIJJI@SSH2_MSG_GLOBAL_REQUEST?$AA@ 004756d0     sshcommon.obj
 0002:0000d6e8       ??_C@_0BJ@LCEHAFGM@SSH2_MSG_REQUEST_SUCCESS?$AA@ 004756e8     sshcommon.obj
 0002:0000d704       ??_C@_0BJ@HLAFLODG@SSH2_MSG_REQUEST_FAILURE?$AA@ 00475704     sshcommon.obj
 0002:0000d720       ??_C@_0BG@GNMGMCPO@SSH2_MSG_CHANNEL_OPEN?$AA@ 00475720     sshcommon.obj
 0002:0000d738       ??_C@_0CD@KPAOMPID@SSH2_MSG_CHANNEL_OPEN_CONFIRMATI@ 00475738     sshcommon.obj
 0002:0000d75c       ??_C@_0BO@BMKEKNGN@SSH2_MSG_CHANNEL_OPEN_FAILURE?$AA@ 0047575c     sshcommon.obj
 0002:0000d77c       ??_C@_0BP@FFNIIMBL@SSH2_MSG_CHANNEL_WINDOW_ADJUST?$AA@ 0047577c     sshcommon.obj
 0002:0000d79c       ??_C@_0BG@GIMPBGJN@SSH2_MSG_CHANNEL_DATA?$AA@ 0047579c     sshcommon.obj
 0002:0000d7b4       ??_C@_0BP@GCFILKHG@SSH2_MSG_CHANNEL_EXTENDED_DATA?$AA@ 004757b4     sshcommon.obj
 0002:0000d7d4       ??_C@_0BF@NJKICOGI@SSH2_MSG_CHANNEL_EOF?$AA@ 004757d4     sshcommon.obj
 0002:0000d7ec       ??_C@_0BH@HOPHMICG@SSH2_MSG_CHANNEL_CLOSE?$AA@ 004757ec     sshcommon.obj
 0002:0000d804       ??_C@_0BJ@HFFJFNMF@SSH2_MSG_CHANNEL_REQUEST?$AA@ 00475804     sshcommon.obj
 0002:0000d820       ??_C@_0BJ@DANCJGOA@SSH2_MSG_CHANNEL_SUCCESS?$AA@ 00475820     sshcommon.obj
 0002:0000d83c       ??_C@_0BJ@PJJACNLK@SSH2_MSG_CHANNEL_FAILURE?$AA@ 0047583c     sshcommon.obj
 0002:0000d858       ??_C@_1EA@GKJNLPLN@?$AAs?$AAt?$AAr?$AAl?$AAe?$AAn?$AA?$CI?$AAf?$AAi?$AAn?$AAg?$AAe?$AAr?$AAp?$AAr?$AAi?$AAn?$AAt?$AA?$CJ?$AA?5?$AA?$DN?$AA?$DN?$AA?5?$AA1?$AA6?$AA?$CK?$AA3?$AA?5?$AA?9?$AA?5?$AA1?$AA?$AA@ 00475858     sshcommon.obj
 0002:0000d898       ??_C@_1CM@NEFCJCEE@?$AAf?$AAi?$AAn?$AAg?$AAe?$AAr?$AAp?$AAr?$AAi?$AAn?$AAt?$AA?$FL?$AA2?$AA?$FN?$AA?5?$AA?$DN?$AA?$DN?$AA?5?$AA?8?$AA?3?$AA?8?$AA?$AA@ 00475898     sshcommon.obj
 0002:0000d8c4       ??_C@_0BC@NCFJMMJB@0123456789abcdef?3?$AA@ 004758c4     sshcommon.obj
 0002:0000d8d8       ??_C@_1HG@GEMEIDGB@?$AAf?$AAi?$AAn?$AAg?$AAe?$AAr?$AAp?$AAr?$AAi?$AAn?$AAt?$AA?$FL?$AAs?$AAt?$AAr?$AAs?$AAp?$AAn?$AA?$CI?$AAf?$AAi?$AAn?$AAg?$AAe?$AAr?$AAp?$AAr?$AAi?$AAn?$AAt?$AA?0?$AA?5@ 004758d8     sshcommon.obj
 0002:0000d950       ??_C@_0CM@ONGHIGOC@Remote?5side?5sent?5disconnect?5mess@ 00475950     sshcommon.obj
 0002:0000d97c       ??_C@_1BM@JACOEEIP@?$AA?4?$AA?4?$AA?2?$AAs?$AAs?$AAh?$AAc?$AAr?$AAc?$AAd?$AAa?$AA?4?$AAc?$AA?$AA@ 0047597c     sshcrcda.obj
 0002:0000d998       ??_C@_1IK@KCKLAJE@?$AA?$CB?$AA?$CI?$AAl?$AAe?$AAn?$AA?5?$AA?$DO?$AA?5?$AA?$CI?$AAS?$AAS?$AAH?$AA_?$AAM?$AAA?$AAX?$AAB?$AAL?$AAO?$AAC?$AAK?$AAS?$AA?5?$AA?$CK?$AA?5?$AAS?$AAS?$AAH?$AA_?$AAB?$AAL?$AAO@ 00475998     sshcrcda.obj
 0002:0000da24       ??_C@_15IIAMFFIG@?$AAI?$AAV?$AA?$AA@ 00475a24     sshcrcda.obj
 0002:0000da2c       ??_C@_07IPAFAGII@des?9cbc?$AA@ 00475a2c     sshdes.obj
 0002:0000da34       ??_C@_0P@HKDDLANN@single?9DES?5CBC?$AA@ 00475a34     sshdes.obj
 0002:0000da44       ??_C@_0BA@IBKFJPCP@des?9cbc?$EAssh?4com?$AA@ 00475a44     sshdes.obj
 0002:0000dc68       _ssh_3des_ssh1             00475c68     sshdes.obj
 0002:0000dca8       _ssh_3des_ssh2_ctr         00475ca8     sshdes.obj
 0002:0000dce8       _ssh_3des_ssh2             00475ce8     sshdes.obj
 0002:0000dd28       _ssh_des                   00475d28     sshdes.obj
 0002:0000dd68       _ssh_des_sshcom_ssh2       00475d68     sshdes.obj
 0002:0000dda8       _ssh2_3des                 00475da8     sshdes.obj
 0002:0000ddb0       _ssh2_des                  00475db0     sshdes.obj
 0002:0000de78       ??_C@_08BLJCDBFI@3des?9cbc?$AA@ 00475e78     sshdes.obj
 0002:0000de84       ??_C@_0P@MNELLKGN@triple?9DES?5CBC?$AA@ 00475e84     sshdes.obj
 0002:0000de94       ??_C@_08FAOAMNIK@3des?9ctr?$AA@ 00475e94     sshdes.obj
 0002:0000dea0       ??_C@_0BB@JEEJMMLC@triple?9DES?5SDCTR?$AA@ 00475ea0     sshdes.obj
 0002:0000deb4       ??_C@_0BF@OCGINFLB@triple?9DES?5inner?9CBC?$AA@ 00475eb4     sshdes.obj
 0002:0000dfa4       _ssh_diffiehellman_group1  00475fa4     sshdh.obj
 0002:0000dfac       _ssh_diffiehellman_group14 00475fac     sshdh.obj
 0002:0000dfb4       _ssh_diffiehellman_gex     00475fb4     sshdh.obj
 0002:0000dfbc       _ssh_gssk5_sha1_kex        00475fbc     sshdh.obj
 0002:0000dfc4       ??_C@_0BL@PFLALLMH@diffie?9hellman?9group1?9sha1?$AA@ 00475fc4     sshdh.obj
 0002:0000dfe0       ??_C@_06LPEHCBPA@group1?$AA@ 00475fe0     sshdh.obj
 0002:0000dfe8       ??_C@_0BO@JDCEIBAC@diffie?9hellman?9group14?9sha256?$AA@ 00475fe8     sshdh.obj
 0002:0000e008       ??_C@_07GCIEGMK@group14?$AA@ 00476008     sshdh.obj
 0002:0000e010       ??_C@_0BM@BOOJHCJ@diffie?9hellman?9group14?9sha1?$AA@ 00476010     sshdh.obj
 0002:0000e02c       ??_C@_0CF@GMBBFDCM@diffie?9hellman?9group?9exchange?9sh@ 0047602c     sshdh.obj
 0002:0000e054       ??_C@_0CD@MOBIAEI@diffie?9hellman?9group?9exchange?9sh@ 00476054     sshdh.obj
 0002:0000e078       ??_C@_0CG@LMDLIGID@gss?9gex?9sha1?9toWM5Slw5Ew8Mqkay?$CLa@ 00476078     sshdh.obj
 0002:0000e0a0       ??_C@_0CK@DJCCEFEA@gss?9group14?9sha1?9toWM5Slw5Ew8Mqk@ 004760a0     sshdh.obj
 0002:0000e0cc       ??_C@_0CJ@LAJENDFA@gss?9group1?9sha1?9toWM5Slw5Ew8Mqka@ 004760cc     sshdh.obj
 0002:0000e0f8       ??_C@_0BAD@OHPAAHDM@0xFFFFFFFFFFFFFFFFC90FDAA22168C2@ 004760f8     sshdh.obj
 0002:0000e200       ??_C@_0CAD@BEBEAHDJ@0xFFFFFFFFFFFFFFFFC90FDAA22168C2@ 00476200     sshdh.obj
 0002:0000e404       ??_C@_1BG@BOOBEGGO@?$AA?4?$AA?4?$AA?2?$AAs?$AAs?$AAh?$AAd?$AAh?$AA?4?$AAc?$AA?$AA@ 00476404     sshdh.obj
 0002:0000e41c       ??_C@_1BI@CPGAAJAC@?$AA?$CB?$AAe?$AAx?$AAt?$AAr?$AAa?$AA?9?$AA?$DO?$AAg?$AAe?$AAx?$AA?$AA@ 0047641c     sshdh.obj
 0002:0000e434       ??_C@_0BO@CHDADGJ@f?5value?5received?5is?5too?5small?$AA@ 00476434     sshdh.obj
 0002:0000e454       ??_C@_0BO@KKDIPCPP@f?5value?5received?5is?5too?5large?$AA@ 00476454     sshdh.obj
 0002:0000e474       ??_C@_07FOJFIGLJ@ssh?9dss?$AA@ 00476474     sshdss.obj
 0002:0000e47c       ??_C@_03DIFKLMIL@dss?$AA@  0047647c     sshdss.obj
 0002:0000e480       _ssh_dss                   00476480     sshdss.obj
 0002:0000e4c0       ??_C@_02MDDDDAID@0x?$AA@   004764c0     sshdss.obj
 0002:0000e4c4       ??_C@_0BO@DJMBCJHK@DSA?5deterministic?5k?5generator?$AA@ 004764c4     sshdss.obj
 0002:0000e4e8       _ec_nist_curve_lengths     004764e8     sshecc.obj
 0002:0000e4f4       _n_ec_nist_curve_lengths   004764f4     sshecc.obj
 0002:0000e4f8       _sign_extra_ed25519        004764f8     sshecc.obj
 0002:0000e510       _sign_extra_nistp256       00476510     sshecc.obj
 0002:0000e528       _sign_extra_nistp384       00476528     sshecc.obj
 0002:0000e540       _sign_extra_nistp521       00476540     sshecc.obj
 0002:0000e564       _kex_extra_nistp256        00476564     sshecc.obj
 0002:0000e578       _kex_extra_nistp384        00476578     sshecc.obj
 0002:0000e58c       _kex_extra_nistp521        0047658c     sshecc.obj
 0002:0000e5b0       _ssh_ec_kex_curve25519     004765b0     sshecc.obj
 0002:0000e5c4       _ssh_ec_kex_nistp256       004765c4     sshecc.obj
 0002:0000e5d8       _ssh_ec_kex_nistp384       004765d8     sshecc.obj
 0002:0000e5ec       _ssh_ec_kex_nistp521       004765ec     sshecc.obj
 0002:0000e600       _ssh_ecdh_kex              00476600     sshecc.obj
 0002:0000e608       _ssh_ecdsa_ed25519         00476608     sshecc.obj
 0002:0000e648       _ssh_ecdsa_nistp256        00476648     sshecc.obj
 0002:0000e688       _ssh_ecdsa_nistp384        00476688     sshecc.obj
 0002:0000e6c8       _ssh_ecdsa_nistp521        004766c8     sshecc.obj
 0002:0000e708       ??_C@_0M@CKOJCCOB@ssh?9ed25519?$AA@ 00476708     sshecc.obj
 0002:0000e714       ??_C@_0BE@KBAHEFJL@ecdsa?9sha2?9nistp256?$AA@ 00476714     sshecc.obj
 0002:0000e728       ??_C@_0BE@CDFFNDCP@ecdsa?9sha2?9nistp384?$AA@ 00476728     sshecc.obj
 0002:0000e73c       ??_C@_0BE@HGNOPNGA@ecdsa?9sha2?9nistp521?$AA@ 0047673c     sshecc.obj
 0002:0000e750       ??_C@_0BN@NJCKAAJN@curve25519?9sha256?$EAlibssh?4org?$AA@ 00476750     sshecc.obj
 0002:0000e770       ??_C@_0BD@OGBONNOE@ecdh?9sha2?9nistp256?$AA@ 00476770     sshecc.obj
 0002:0000e784       ??_C@_0BD@GEEMELFA@ecdh?9sha2?9nistp384?$AA@ 00476784     sshecc.obj
 0002:0000e798       ??_C@_0BD@DBMHGFBP@ecdh?9sha2?9nistp521?$AA@ 00476798     sshecc.obj
 0002:0000e7b0       ??_C@_0ED@BLEJKNFH@0xffffffff0000000100000000000000@ 004767b0     sshecc.obj
 0002:0000e7f8       ??_C@_0ED@GGDOFJBC@0xffffffff0000000100000000000000@ 004767f8     sshecc.obj
 0002:0000e840       ??_C@_0ED@ELEHELBK@0x5ac635d8aa3a93e7b3ebbd55769886@ 00476840     sshecc.obj
 0002:0000e888       ??_C@_0ED@JMNGKDIH@0x6b17d1f2e12c4247f8bce6e563a440@ 00476888     sshecc.obj
 0002:0000e8d0       ??_C@_0ED@FAPGEAEA@0x4fe342e2fe1a7f9b8ee7eb4a7c0f9e@ 004768d0     sshecc.obj
 0002:0000e918       ??_C@_0ED@MKOGGFDP@0xffffffff00000000ffffffffffffff@ 00476918     sshecc.obj
 0002:0000e95c       ??_C@_08HIMOJHN@nistp256?$AA@ 0047695c     sshecc.obj
 0002:0000e968       ??_C@_0GD@DPOIOGLL@0xffffffffffffffffffffffffffffff@ 00476968     sshecc.obj
 0002:0000e9d0       ??_C@_0GD@ECJPBCPO@0xffffffffffffffffffffffffffffff@ 004769d0     sshecc.obj
 0002:0000ea38       ??_C@_0GD@LBIDCCF@0xb3312fa7e23ee7e4988e056be3f82d@ 00476a38     sshecc.obj
 0002:0000eaa0       ??_C@_0GD@KIKBNJKE@0xaa87ca22be8b05378eb1c71ef320ad@ 00476aa0     sshecc.obj
 0002:0000eb08       ??_C@_0GD@KMMGIBKM@0x3617de4a96262c6f5d9e98bf9292dc@ 00476b08     sshecc.obj
 0002:0000eb70       ??_C@_0GD@MBEDEGHC@0xffffffffffffffffffffffffffffff@ 00476b70     sshecc.obj
 0002:0000ebd4       ??_C@_08IFNOHPMJ@nistp384?$AA@ 00476bd4     sshecc.obj
 0002:0000ebe0       ??_C@_0IH@NCDENOOI@0x01ffffffffffffffffffffffffffff@ 00476be0     sshecc.obj
 0002:0000ec68       ??_C@_0IH@KPEDCKKN@0x01ffffffffffffffffffffffffffff@ 00476c68     sshecc.obj
 0002:0000ecf0       ??_C@_0IH@IHMDBAAE@0x0051953eb9618e1c9a1f929a21a0b6@ 00476cf0     sshecc.obj
 0002:0000ed78       ??_C@_0IH@JHNALAOJ@0x00c6858e06b70404e9cd9e3ecb6623@ 00476d78     sshecc.obj
 0002:0000ee00       ??_C@_0IH@DOBIDCAF@0x011839296a789a3bc0045c8a5fb42c@ 00476e00     sshecc.obj
 0002:0000ee88       ??_C@_0IH@LBEBMOHG@0x01ffffffffffffffffffffffffffff@ 00476e88     sshecc.obj
 0002:0000ef10       ??_C@_08NAFFFBIG@nistp521?$AA@ 00476f10     sshecc.obj
 0002:0000ef20       ??_C@_0ED@JEPIGPHB@0x7fffffffffffffffffffffffffffff@ 00476f20     sshecc.obj
 0002:0000ef68       ??_C@_0ED@IPDBLGCA@0x000000000000000000000000000000@ 00476f68     sshecc.obj
 0002:0000efb0       ??_C@_0ED@BGFKHNAK@0x000000000000000000000000000000@ 00476fb0     sshecc.obj
 0002:0000eff8       ??_C@_0ED@NOIDPHAC@0x000000000000000000000000000000@ 00476ff8     sshecc.obj
 0002:0000f03c       ??_C@_0L@GKPNPEPJ@Curve25519?$AA@ 0047703c     sshecc.obj
 0002:0000f048       ??_C@_0ED@OHFNPGAC@0x52036cee2b6ffe738cc740797779e8@ 00477048     sshecc.obj
 0002:0000f090       ??_C@_0ED@NLLJPJLG@0x7fffffffffffffffffffffffffffff@ 00477090     sshecc.obj
 0002:0000f0d8       ??_C@_0ED@ILOIKJEI@0x216936d3cd6e53fec0a4e231fdd6dc@ 004770d8     sshecc.obj
 0002:0000f120       ??_C@_0ED@BAIJKLGI@0x666666666666666666666666666666@ 00477120     sshecc.obj
 0002:0000f168       ??_C@_0ED@PLMKLCAL@0x100000000000000000000000000000@ 00477168     sshecc.obj
 0002:0000f1ac       ??_C@_07EIPCBPDH@Ed25519?$AA@ 004771ac     sshecc.obj
 0002:0000f1b4       ??_C@_1BI@CPEJJNJG@?$AA?4?$AA?4?$AA?2?$AAs?$AAs?$AAh?$AAe?$AAc?$AAc?$AA?4?$AAc?$AA?$AA@ 004771b4     sshecc.obj
 0002:0000f1cc       ??_C@_1DM@NDELGDGI@?$AAc?$AAu?$AAr?$AAv?$AAe?$AA?9?$AA?$DO?$AAt?$AAy?$AAp?$AAe?$AA?5?$AA?$DN?$AA?$DN?$AA?5?$AAE?$AAC?$AA_?$AAW?$AAE?$AAI?$AAE?$AAR?$AAS?$AAT?$AAR?$AAA?$AAS?$AAS?$AA?$AA@ 004771cc     sshecc.obj
 0002:0000f208       ??_C@_1DM@ENMBENHJ@?$AAh?$AAa?$AAs?$AAh?$AA?4?$AAl?$AAe?$AAn?$AA?5?$AA?$DO?$AA?$DN?$AA?5?$AAc?$AAu?$AAr?$AAv?$AAe?$AA?9?$AA?$DO?$AAf?$AAi?$AAe?$AAl?$AAd?$AAB?$AAy?$AAt?$AAe?$AAs?$AA?$AA@ 00477208     sshecc.obj
 0002:0000f244       ??_C@_1DE@NBKLAKDH@?$AAc?$AAu?$AAr?$AAv?$AAe?$AA?9?$AA?$DO?$AAt?$AAy?$AAp?$AAe?$AA?5?$AA?$DN?$AA?$DN?$AA?5?$AAE?$AAC?$AA_?$AAE?$AAD?$AAW?$AAA?$AAR?$AAD?$AAS?$AA?$AA@ 00477244     sshecc.obj
 0002:0000f278       ??_C@_1DE@JALDAAJ@?$AAc?$AAu?$AAr?$AAv?$AAe?$AA?9?$AA?$DO?$AAf?$AAi?$AAe?$AAl?$AAd?$AAB?$AAi?$AAt?$AAs?$AA?5?$AA?$CF?$AA?5?$AA8?$AA?5?$AA?$DN?$AA?$DN?$AA?5?$AA7?$AA?$AA@ 00477278     sshecc.obj
 0002:0000f2ac       ??_C@_1CO@KBIANCHI@?$AAc?$AAu?$AAr?$AAv?$AAe?$AA?9?$AA?$DO?$AAf?$AAi?$AAe?$AAl?$AAd?$AAB?$AAy?$AAt?$AAe?$AAs?$AA?5?$AA?$DO?$AA?$DN?$AA?5?$AA2?$AA?$AA@ 004772ac     sshecc.obj
 0002:0000f2dc       ??_C@_03CGNBMCEI@?$CFs?0?$AA@ 004772dc     sshecc.obj
 0002:0000f2e0       ??_C@_09BGLLIJHO@0x?$CFs?00x?$CFs?$AA@ 004772e0     sshecc.obj
 0002:0000f2ec       ??_C@_1BO@CNPEABPI@?$AAe?$AAk?$AA?9?$AA?$DO?$AAp?$AAr?$AAi?$AAv?$AAa?$AAt?$AAe?$AAK?$AAe?$AAy?$AA?$AA@ 004772ec     sshecc.obj
 0002:0000f30c       ??_C@_1DM@LNHGHOMK@?$AAe?$AAk?$AA?9?$AA?$DO?$AAc?$AAu?$AAr?$AAv?$AAe?$AA?9?$AA?$DO?$AAt?$AAy?$AAp?$AAe?$AA?5?$AA?$DN?$AA?$DN?$AA?5?$AAE?$AAC?$AA_?$AAE?$AAD?$AAW?$AAA?$AAR?$AAD?$AAS?$AA?$AA@ 0047730c     sshecc.obj
 0002:0000f348       ??_C@_0CA@MJMKOHPH@ECDSA?5deterministic?5k?5generator?$AA@ 00477348     sshecc.obj
 0002:0000f368       ??_C@_05GLPDLDAM@host?$EA?$AA@ 00477368     sshgssc.obj
 0002:0000f370       _ssh_hmac_sha256_extra     00477370     sshhmac.obj
 0002:0000f37c       _ssh_hmac_md5_extra        0047737c     sshhmac.obj
 0002:0000f388       _ssh_hmac_sha1_extra       00477388     sshhmac.obj
 0002:0000f394       _ssh_hmac_sha1_96_extra    00477394     sshhmac.obj
 0002:0000f3a0       _ssh_hmac_sha1_buggy_extra 004773a0     sshhmac.obj
 0002:0000f3ac       _ssh_hmac_sha1_96_buggy_extra 004773ac     sshhmac.obj
 0002:0000f3b8       _ssh_hmac_md5              004773b8     sshhmac.obj
 0002:0000f3e4       _ssh_hmac_sha1             004773e4     sshhmac.obj
 0002:0000f410       _ssh_hmac_sha1_buggy       00477410     sshhmac.obj
 0002:0000f43c       _ssh_hmac_sha1_96          0047743c     sshhmac.obj
 0002:0000f468       _ssh_hmac_sha1_96_buggy    00477468     sshhmac.obj
 0002:0000f494       _ssh_hmac_sha256           00477494     sshhmac.obj
 0002:0000f4c0       ??_C@_0O@HOOBDNEB@hmac?9sha2?9256?$AA@ 004774c0     sshhmac.obj
 0002:0000f4d0       ??_C@_0BO@MPEKOAFF@hmac?9sha2?9256?9etm?$EAopenssh?4com?$AA@ 004774d0     sshhmac.obj
 0002:0000f4f0       ??_C@_08LPACCAD@hmac?9md5?$AA@ 004774f0     sshhmac.obj
 0002:0000f4fc       ??_C@_0BJ@CKBIHNJD@hmac?9md5?9etm?$EAopenssh?4com?$AA@ 004774fc     sshhmac.obj
 0002:0000f518       ??_C@_09KBOMLGBN@hmac?9sha1?$AA@ 00477518     sshhmac.obj
 0002:0000f524       ??_C@_0BK@JCIBKLE@hmac?9sha1?9etm?$EAopenssh?4com?$AA@ 00477524     sshhmac.obj
 0002:0000f540       ??_C@_03COEFBIGK@?996?$AA@ 00477540     sshhmac.obj
 0002:0000f544       ??_C@_0N@PPCDKPGG@hmac?9sha1?996?$AA@ 00477544     sshhmac.obj
 0002:0000f554       ??_C@_0BN@NJLHJNBE@hmac?9sha1?996?9etm?$EAopenssh?4com?$AA@ 00477554     sshhmac.obj
 0002:0000f574       ??_C@_0P@FANIAEGB@bug?9compatible?$AA@ 00477574     sshhmac.obj
 0002:0000f584       ??_C@_1BK@NLFGAIDH@?$AA?4?$AA?4?$AA?2?$AAs?$AAs?$AAh?$AAh?$AAm?$AAa?$AAc?$AA?4?$AAc?$AA?$AA@ 00477584     sshhmac.obj
 0002:0000f5a0       ??_C@_1CO@FIPHLDOL@?$AAc?$AAt?$AAx?$AA?9?$AA?$DO?$AAh?$AAa?$AAs?$AAh?$AAa?$AAl?$AAg?$AA?9?$AA?$DO?$AAb?$AAl?$AAo?$AAc?$AAk?$AAl?$AAe?$AAn?$AA?$AA@ 004775a0     sshhmac.obj
 0002:0000f5d0       ??_C@_09NPBMIOMK@HMAC?9?$CFs?$CFs?$AA@ 004775d0     sshhmac.obj
 0002:0000f5dc       ??_C@_02KEGNLNML@?0?5?$AA@ 004775dc     sshhmac.obj
 0002:0000f5e0       ??_C@_1BI@CNLADLFF@?$AA?4?$AA?4?$AA?2?$AAs?$AAs?$AAh?$AAm?$AAa?$AAc?$AA?4?$AAc?$AA?$AA@ 004775e0     sshmac.obj
 0002:0000f5f8       ??_C@_1EA@BMFKJACD@?$AAm?$AAa?$AAc?$AA?9?$AA?$DO?$AAv?$AAt?$AA?9?$AA?$DO?$AAl?$AAe?$AAn?$AA?5?$AA?$DM?$AA?$DN?$AA?5?$AAs?$AAi?$AAz?$AAe?$AAo?$AAf?$AA?$CI?$AAc?$AAo?$AAr?$AAr?$AAe?$AAc?$AAt?$AA?$CJ?$AA?$AA@ 004775f8     sshmac.obj
 0002:0000f638       _ssh_md5                   00477638     sshmd5.obj
 0002:0000f65c       ??_C@_03GCGHEHKJ@MD5?$AA@  0047765c     sshmd5.obj
 0002:0000f660       ??_C@_1BK@IFHAANJH@?$AA?4?$AA?4?$AA?2?$AAs?$AAs?$AAh?$AAp?$AAr?$AAn?$AAg?$AA?4?$AAc?$AA?$AA@ 00477660     sshprng.obj
 0002:0000f67c       ??_C@_1BM@DKAGBLEM@?$AA?$CB?$AAp?$AAi?$AA?9?$AA?$DO?$AAk?$AAe?$AAy?$AAm?$AAa?$AAk?$AAe?$AAr?$AA?$AA@ 0047767c     sshprng.obj
 0002:0000f698       ??_C@_1BK@CCJAIMCK@?$AAp?$AAi?$AA?9?$AA?$DO?$AAk?$AAe?$AAy?$AAm?$AAa?$AAk?$AAe?$AAr?$AA?$AA@ 00477698     sshprng.obj
 0002:0000f6b4       ??_C@_1BO@IPNDPBPH@?$AA?$CB?$AAp?$AAi?$AA?9?$AA?$DO?$AAg?$AAe?$AAn?$AAe?$AAr?$AAa?$AAt?$AAo?$AAr?$AA?$AA@ 004776b4     sshprng.obj
 0002:0000f6d4       ??_C@_1DM@LOAMELAH@?$AAs?$AAo?$AAu?$AAr?$AAc?$AAe?$AA_?$AAi?$AAd?$AA?5?$AA?$DM?$AA?5?$AAN?$AAO?$AAI?$AAS?$AAE?$AA_?$AAM?$AAA?$AAX?$AA_?$AAS?$AAO?$AAU?$AAR?$AAC?$AAE?$AAS?$AA?$AA@ 004776d4     sshprng.obj
 0002:0000f710       ??_C@_0BC@NPBJDJGK@file?5format?5error?$AA@ 00477710     sshpubk.obj
 0002:0000f724       ??_C@_0BB@HNDNBCMJ@wrong?5passphrase?$AA@ 00477724     sshpubk.obj
 0002:0000f738       ??_C@_0BC@DEMJHLHP@rsa_verify?5failed?$AA@ 00477738     sshpubk.obj
 0002:0000f74c       ??_C@_02JDPG@rb?$AA@       0047774c     sshpubk.obj
 0002:0000f750       ??_C@_0BA@ENOJCGDH@can?8t?5open?5file?$AA@ 00477750     sshpubk.obj
 0002:0000f760       ??_C@_0CB@KLPNCBJK@SSH?5PRIVATE?5KEY?5FILE?5FORMAT?51?41?6@ 00477760     sshpubk.obj
 0002:0000f784       ??_C@_0BG@BDKEBGIA@not?5an?5SSH?91?5RSA?5file?$AA@ 00477784     sshpubk.obj
 0002:0000f79c       ??_C@_0L@FPFMPDDA@0123456789?$AA@ 0047779c     sshpubk.obj
 0002:0000f7a8       ??_C@_0DG@HPNFDAHM@key?5bit?5count?5does?5not?5match?5in?5@ 004777a8     sshpubk.obj
 0002:0000f7e0       ??_C@_1BK@LMHLBBNJ@?$AA?4?$AA?4?$AA?2?$AAs?$AAs?$AAh?$AAp?$AAu?$AAb?$AAk?$AA?4?$AAc?$AA?$AA@ 004777e0     sshpubk.obj
 0002:0000f7fc       ??_C@_1DI@FMBAJDD@?$AAn?$AAl?$AAi?$AAn?$AAe?$AAs?$AA?5?$AA?$DM?$AA?5?$AAM?$AAA?$AAX?$AA_?$AAK?$AAE?$AAY?$AA_?$AAB?$AAL?$AAO?$AAB?$AA_?$AAL?$AAI?$AAN?$AAE?$AAS?$AA?$AA@ 004777fc     sshpubk.obj
 0002:0000f834       ??_C@_0CB@POPODCHG@no?5header?5line?5found?5in?5key?5file@ 00477834     sshpubk.obj
 0002:0000f858       ??_C@_0BG@GFACEDGM@PuTTY?9User?9Key?9File?92?$AA@ 00477858     sshpubk.obj
 0002:0000f870       ??_C@_0BG@EOCPBAKP@PuTTY?9User?9Key?9File?91?$AA@ 00477870     sshpubk.obj
 0002:0000f888       ??_C@_0BF@HKENPLNI@PuTTY?9User?9Key?9File?9?$AA@ 00477888     sshpubk.obj
 0002:0000f8a0       ??_C@_0BJ@OMNPKCPH@PuTTY?5key?5format?5too?5new?$AA@ 004778a0     sshpubk.obj
 0002:0000f8bc       ??_C@_0BO@KKNFCICD@not?5a?5PuTTY?5SSH?92?5private?5key?$AA@ 004778bc     sshpubk.obj
 0002:0000f8dc       ??_C@_0L@PHIJEIHK@Encryption?$AA@ 004778dc     sshpubk.obj
 0002:0000f8e8       ??_C@_07JABLCLAF@Comment?$AA@ 004778e8     sshpubk.obj
 0002:0000f8f0       ??_C@_0N@PLAKAHPB@Public?9Lines?$AA@ 004778f0     sshpubk.obj
 0002:0000f900       ??_C@_0O@KIMPDNLC@Private?9Lines?$AA@ 00477900     sshpubk.obj
 0002:0000f910       ??_C@_0M@BGCIEHNL@Private?9MAC?$AA@ 00477910     sshpubk.obj
 0002:0000f91c       ??_C@_0N@PAIKAHGK@Private?9Hash?$AA@ 0047791c     sshpubk.obj
 0002:0000f92c       ??_C@_0BP@FBPHIKLM@putty?9private?9key?9file?9mac?9key?$AA@ 0047792c     sshpubk.obj
 0002:0000f94c       ??_C@_0L@GHCEHEDO@MAC?5failed?$AA@ 0047794c     sshpubk.obj
 0002:0000f958       ??_C@_0BB@IEKCJKNA@createkey?5failed?$AA@ 00477958     sshpubk.obj
 0002:0000f96c       ??_C@_0CA@IIOIHFOI@?9?9?9?9?5BEGIN?5SSH2?5PUBLIC?5KEY?5?9?9?9?9?$AA@ 0047796c     sshpubk.obj
 0002:0000f98c       ??_C@_0CM@DGEOCFKD@invalid?5begin?5line?5in?5SSH?92?5publ@ 0047798c     sshpubk.obj
 0002:0000f9b8       ??_C@_0CA@IPIKHEMA@truncated?5SSH?92?5public?5key?5file?$AA@ 004779b8     sshpubk.obj
 0002:0000f9d8       ??_C@_07GEKACEDI@Subject?$AA@ 004779d8     sshpubk.obj
 0002:0000f9e0       ??_C@_02HKHGEFOK@x?9?$AA@  004779e0     sshpubk.obj
 0002:0000f9e4       ??_C@_0CN@GKDGGHHE@unrecognised?5header?5in?5SSH?92?5pub@ 004779e4     sshpubk.obj
 0002:0000fa14       ??_C@_0BO@EDNMBDIG@?9?9?9?9?5END?5SSH2?5PUBLIC?5KEY?5?9?9?9?9?$AA@ 00477a14     sshpubk.obj
 0002:0000fa34       ??_C@_0CK@KJHHIPPJ@invalid?5end?5line?5in?5SSH?92?5public@ 00477a34     sshpubk.obj
 0002:0000fa60       ??_C@_0CJ@BKKPNHGH@not?5enough?5data?5in?5SSH?92?5public?5@ 00477a60     sshpubk.obj
 0002:0000fa8c       ??_C@_0DC@FOCDFHBA@invalid?5algorithm?5prefix?5in?5SSH?9@ 00477a8c     sshpubk.obj
 0002:0000fac0       ??_C@_0CH@MPHIHDKF@no?5key?5blob?5in?5OpenSSH?5public?5ke@ 00477ac0     sshpubk.obj
 0002:0000fae8       ??_C@_1DM@MIMAGJFO@?$AAp?$AAu?$AAb?$AAb?$AAl?$AAo?$AAb?$AAl?$AAe?$AAn?$AA?5?$AA?$CL?$AA?5?$AA3?$AA?5?$AA?$DM?$AA?$DN?$AA?5?$AAp?$AAu?$AAb?$AAb?$AAl?$AAo?$AAb?$AAs?$AAi?$AAz?$AAe?$AA?$AA@ 00477ae8     sshpubk.obj
 0002:0000fb24       ??_C@_0DK@KIGPJDEF@invalid?5length?5for?5base64?5data?5i@ 00477b24     sshpubk.obj
 0002:0000fb60       ??_C@_0DH@LDEBOOLE@key?5algorithms?5do?5not?5match?5in?5O@ 00477b60     sshpubk.obj
 0002:0000fb98       ??_C@_06LEJCPMLM@?$CF02x?$CFs?$AA@ 00477b98     sshpubk.obj
 0002:0000fba0       ??_C@_0L@GJOPLNDP@?$CF?4?$CKs?5?$CFd?5?$CFs?$AA@ 00477ba0     sshpubk.obj
 0002:0000fbac       ??_C@_07DGCKLDCK@?$CF?4?$CKs?5?$CFs?$AA@ 00477bac     sshpubk.obj
 0002:0000fbb4       ??_C@_0BL@MCIHCAIN@?9?9?9?9?5BEGIN?5SSH2?5PUBLIC?5KEY?$AA@ 00477bb4     sshpubk.obj
 0002:0000fbd0       ??_C@_0CB@IHNFHFDO@?9?9?9?9?5BEGIN?5SSH2?5ENCRYPTED?5PRIVAT@ 00477bd0     sshpubk.obj
 0002:0000fbf4       ??_C@_0BP@IFNDMNLO@?9?9?9?9?9BEGIN?5OPENSSH?5PRIVATE?5KEY?$AA@ 00477bf4     sshpubk.obj
 0002:0000fc14       ??_C@_0M@ILJMFDEM@?9?9?9?9?9BEGIN?5?$AA@ 00477c14     sshpubk.obj
 0002:0000fc20       ??_C@_1DC@NKDFADPG@?$AAi?$AA?5?$AA?$DO?$AA?5?$AA0?$AA?5?$AA?$CG?$AA?$CG?$AA?5?$AAi?$AA?5?$AA?$DM?$AA?5?$AAs?$AAi?$AAz?$AAe?$AAo?$AAf?$AA?$CI?$AAb?$AAu?$AAf?$AA?$CJ?$AA?$AA@ 00477c20     sshpubk.obj
 0002:0000fc54       ??_C@_0BE@FNAAPKHP@unable?5to?5open?5file?$AA@ 00477c54     sshpubk.obj
 0002:0000fc68       ??_C@_0CB@IHGNBGJK@not?5a?5recognised?5key?5file?5format@ 00477c68     sshpubk.obj
 0002:0000fc8c       ??_C@_0BB@GFOEGFLL@SSH?91?5public?5key?$AA@ 00477c8c     sshpubk.obj
 0002:0000fca0       ??_C@_0CD@JMCECHDL@SSH?92?5public?5key?5?$CIRFC?54716?5forma@ 00477ca0     sshpubk.obj
 0002:0000fcc4       ??_C@_0CC@NJDDKDI@SSH?92?5public?5key?5?$CIOpenSSH?5format@ 00477cc4     sshpubk.obj
 0002:0000fce8       ??_C@_0BC@LONHAMBA@SSH?91?5private?5key?$AA@ 00477ce8     sshpubk.obj
 0002:0000fcfc       ??_C@_0BI@FLELEAHO@PuTTY?5SSH?92?5private?5key?$AA@ 00477cfc     sshpubk.obj
 0002:0000fd14       ??_C@_0CL@NMDCELHH@OpenSSH?5SSH?92?5private?5key?5?$CIold?5P@ 00477d14     sshpubk.obj
 0002:0000fd40       ??_C@_0CH@BPGMNNCC@OpenSSH?5SSH?92?5private?5key?5?$CInew?5f@ 00477d40     sshpubk.obj
 0002:0000fd68       ??_C@_0BK@HBGHADOM@ssh?4com?5SSH?92?5private?5key?$AA@ 00477d68     sshpubk.obj
 0002:0000fd84       ??_C@_0BO@FPPBDIJB@INTERNAL?5ERROR?5?$CIOPENSSH_AUTO?$CJ?$AA@ 00477d84     sshpubk.obj
 0002:0000fda4       ??_C@_0P@CILKDAIG@INTERNAL?5ERROR?$AA@ 00477da4     sshpubk.obj
 0002:0000fdb4       ??_C@_1BK@JBBHPBNF@?$AA?4?$AA?4?$AA?2?$AAs?$AAs?$AAh?$AAr?$AAa?$AAn?$AAd?$AA?4?$AAc?$AA?$AA@ 00477db4     sshrand.obj
 0002:0000fdd0       ??_C@_1BK@DEKDDGDC@?$AA?$CB?$AAg?$AAl?$AAo?$AAb?$AAa?$AAl?$AA_?$AAp?$AAr?$AAn?$AAg?$AA?$AA@ 00477dd0     sshrand.obj
 0002:0000fdec       ??_C@_1CE@PJKIMLAA@?$AAr?$AAa?$AAn?$AAd?$AAo?$AAm?$AA_?$AAa?$AAc?$AAt?$AAi?$AAv?$AAe?$AA?5?$AA?$DO?$AA?5?$AA0?$AA?$AA@ 00477dec     sshrand.obj
 0002:0000fe80       _ssh_rsa_kex               00477e80     sshrsa.obj
 0002:0000fe88       _ssh_rsa                   00477e88     sshrsa.obj
 0002:0000fec8       ??_C@_04GHCAEBFJ@rsa2?$AA@ 00477ec8     sshrsa.obj
 0002:0000fed0       ??_C@_0N@KOPDGDGF@rsa1024?9sha1?$AA@ 00477ed0     sshrsa.obj
 0002:0000fee0       ??_C@_0P@OJIMEJLA@rsa2048?9sha256?$AA@ 00477ee0     sshrsa.obj
 0002:0000fef0       ??_C@_1BI@DCECBPHA@?$AA?4?$AA?4?$AA?2?$AAs?$AAs?$AAh?$AAr?$AAs?$AAa?$AA?4?$AAc?$AA?$AA@ 00477ef0     sshrsa.obj
 0002:0000ff08       ??_C@_1BI@EMHJEBCI@?$AAb?$AAy?$AAt?$AAe?$AA?5?$AA?$CB?$AA?$DN?$AA?5?$AA2?$AA5?$AA5?$AA?$AA@ 00477f08     sshrsa.obj
 0002:0000ff20       ??_C@_04PDMAGGHH@?$CFzu?5?$AA@ 00477f20     sshrsa.obj
 0002:0000ff28       ??_C@_06ELKDNDAA@?$CFs?$CF02x?$AA@ 00477f28     sshrsa.obj
 0002:0000ff30       ??_C@_03EEBNCBOD@?5?$CFs?$AA@ 00477f30     sshrsa.obj
 0002:0000ff34       ??_C@_0N@DEJCCKFG@rsa?9sha2?9256?$AA@ 00477f34     sshrsa.obj
 0002:0000ff44       ??_C@_0N@MKCAHPDH@rsa?9sha2?9512?$AA@ 00477f44     sshrsa.obj
 0002:0000ff58       ??_C@_1FK@HGBNENJN@?$AAf?$AAa?$AAl?$AAs?$AAe?$AA?5?$AA?$CG?$AA?$CG?$AA?5?$AA?$CC?$AAb?$AAa?$AAd?$AA?5?$AAh?$AAa?$AAs?$AAh?$AA?5?$AAa?$AAl?$AAg?$AAo?$AAr?$AAi?$AAt?$AAh?$AAm?$AA?5?$AAf?$AAo?$AAr@ 00477f58     sshrsa.obj
 0002:0000ffb4       ??_C@_1CM@FBJADDKF@?$AAn?$AAb?$AAy?$AAt?$AAe?$AAs?$AA?5?$AA?$DO?$AA?$DN?$AA?5?$AAf?$AAi?$AAx?$AAe?$AAd?$AA_?$AAp?$AAa?$AAr?$AAt?$AAs?$AA?$AA@ 00477fb4     sshrsa.obj
 0002:0000ffe0       ??_C@_0DH@JDBBJPFC@?$CFzu?9bit?5RSA?5key?5is?5too?5short?5to?5@ 00477fe0     sshrsa.obj
 0002:00010018       ??_C@_1DA@DMPGGLNP@?$AAh?$AA?9?$AA?$DO?$AAh?$AAl?$AAe?$AAn?$AA?5?$AA?$DM?$AA?$DN?$AA?5?$AAM?$AAA?$AAX?$AA_?$AAH?$AAA?$AAS?$AAH?$AA_?$AAL?$AAE?$AAN?$AA?$AA@ 00478018     sshrsa.obj
 0002:00010048       ??_C@_1EO@CAPKDNBP@?$AAi?$AAn?$AA?4?$AAl?$AAe?$AAn?$AA?5?$AA?$DO?$AA?5?$AA0?$AA?5?$AA?$CG?$AA?$CG?$AA?5?$AAi?$AAn?$AA?4?$AAl?$AAe?$AAn?$AA?5?$AA?$DM?$AA?$DN?$AA?5?$AAk?$AA?5?$AA?9?$AA?5?$AA2?$AA?$CK?$AAH?$AAL@ 00478048     sshrsa.obj
 0002:00010098       ??_C@_0BD@ILPMBBEM@SHA?9NI?5accelerated?$AA@ 00478098     sshsh256.obj
 0002:000100ac       ??_C@_0BN@BEOECJPP@SHA?9256?5?$CISHA?9NI?5accelerated?$CJ?$AA@ 004780ac     sshsh256.obj
 0002:000100cc       ??_C@_07DKFLFLPF@SHA?9256?$AA@ 004780cc     sshsh256.obj
 0002:000100d4       ??_C@_0BG@GBFIHHLJ@dummy?5selector?5vtable?$AA@ 004780d4     sshsh256.obj
 0002:000100ec       ??_C@_0CA@GJLHNGGJ@SHA?9256?5?$CIdummy?5selector?5vtable?$CJ?$AA@ 004780ec     sshsh256.obj
 0002:00010230       _ssh_sha256                00478230     sshsh256.obj
 0002:00010254       _ssh_sha256_hw             00478254     sshsh256.obj
 0002:00010278       _ssh_sha256_sw             00478278     sshsh256.obj
 0002:0001029c       ??_C@_0O@PFNKJCBK@unaccelerated?$AA@ 0047829c     sshsh256.obj
 0002:000102ac       ??_C@_0BI@CHMICMJN@SHA?9256?5?$CIunaccelerated?$CJ?$AA@ 004782ac     sshsh256.obj
 0002:000102c4       ??_C@_1BM@GMGHJNCM@?$AA?4?$AA?4?$AA?2?$AAs?$AAs?$AAh?$AAs?$AAh?$AA2?$AA5?$AA6?$AA?4?$AAc?$AA?$AA@ 004782c4     sshsh256.obj
 0002:000102e0       ??_C@_1HK@HPJBMGCP@?$AAb?$AAl?$AAk?$AA?9?$AA?$DO?$AAu?$AAs?$AAe?$AAd?$AA?5?$AA?$DN?$AA?$DN?$AA?5?$AA0?$AA?5?$AA?$CG?$AA?$CG?$AA?5?$AA?$CC?$AAS?$AAh?$AAo?$AAu?$AAl?$AAd?$AA?5?$AAh?$AAa?$AAv?$AAe?$AA?5?$AAe@ 004782e0     sshsh256.obj
 0002:00010360       __xmm@0c0d0e0f08090a0b0405060700010203 00478360     sshsh256.obj
 0002:00010370       __xmm@106aa070f40e3585d6990624d192e819 00478370     sshsh256.obj
 0002:00010380       __xmm@1429296706ca6351d5a79147c6e00bf3 00478380     sshsh256.obj
 0002:00010390       __xmm@240ca1cc0fc19dc6efbe4786e49b69c1 00478390     sshsh256.obj
 0002:000103a0       __xmm@34b0bcb52748774c1e376c0819a4c116 004783a0     sshsh256.obj
 0002:000103b0       __xmm@3c6ef372a54ff53a1f83d9ab5be0cd19 004783b0     sshsh256.obj
 0002:000103c0       __xmm@53380d134d2c6dfc2e1b213827b70a85 004783c0     sshsh256.obj
 0002:000103d0       __xmm@550c7dc3243185be12835b01d807aa98 004783d0     sshsh256.obj
 0002:000103e0       __xmm@682e6ff35b9cca4f4ed8aa4a391c0cb3 004783e0     sshsh256.obj
 0002:000103f0       __xmm@6a09e667bb67ae85510e527f9b05688c 004783f0     sshsh256.obj
 0002:00010400       __xmm@76f988da5cb0a9dc4a7484aa2de92c6f 00478400     sshsh256.obj
 0002:00010410       __xmm@8cc7020884c8781478a5636f748f82ee 00478410     sshsh256.obj
 0002:00010420       __xmm@92722c8581c2c92e766a0abb650a7354 00478420     sshsh256.obj
 0002:00010430       __xmm@ab1c5ed5923f82a459f111f13956c25b 00478430     sshsh256.obj
 0002:00010440       __xmm@bf597fc7b00327c8a831c66d983e5152 00478440     sshsh256.obj
 0002:00010450       __xmm@c19bf1749bdc06a780deb1fe72be5d74 00478450     sshsh256.obj
 0002:00010460       __xmm@c67178f2bef9a3f7a4506ceb90befffa 00478460     sshsh256.obj
 0002:00010470       __xmm@c76c51a3c24b8b70a81a664ba2bfe8a1 00478470     sshsh256.obj
 0002:00010480       __xmm@e9b5dba5b5c0fbcf71374491428a2f98 00478480     sshsh256.obj
 0002:00010490       ??_C@_07MEOJAOJE@SHA?9512?$AA@ 00478490     sshsh512.obj
 0002:00010498       ??_C@_07LIAJMNEB@SHA?9384?$AA@ 00478498     sshsh512.obj
 0002:000107a0       _ssh_sha384                004787a0     sshsh512.obj
 0002:000107c4       _ssh_sha512                004787c4     sshsh512.obj
 0002:000107e8       ??_C@_0BL@IIKHCMEF@SHA?91?5?$CISHA?9NI?5accelerated?$CJ?$AA@ 004787e8     sshsha.obj
 0002:00010804       ??_C@_05HJMENKNE@SHA?91?$AA@ 00478804     sshsha.obj
 0002:0001080c       ??_C@_0BO@DDNMEJFM@SHA?91?5?$CIdummy?5selector?5vtable?$CJ?$AA@ 0047880c     sshsha.obj
 0002:00010840       _ssh_sha1                  00478840     sshsha.obj
 0002:00010864       _ssh_sha1_hw               00478864     sshsha.obj
 0002:00010888       _ssh_sha1_sw               00478888     sshsha.obj
 0002:000108ac       ??_C@_0BG@NKPBHHDP@SHA?91?5?$CIunaccelerated?$CJ?$AA@ 004788ac     sshsha.obj
 0002:000108c4       ??_C@_1BI@HGKJCJAA@?$AA?4?$AA?4?$AA?2?$AAs?$AAs?$AAh?$AAs?$AAh?$AAa?$AA?4?$AAc?$AA?$AA@ 004788c4     sshsha.obj
 0002:000108e0       __xmm@67452301efcdab8998badcfe10325476 004788e0     sshsha.obj
 0002:000108f0       __xmm@c3d2e1f0000000000000000000000000 004788f0     sshsha.obj
 0002:00010984       ??_C@_1BM@IAENPNCM@?$AA?4?$AA?4?$AA?2?$AAs?$AAs?$AAh?$AAs?$AAh?$AAa?$AAr?$AAe?$AA?4?$AAc?$AA?$AA@ 00478984     sshshare.obj
 0002:000109a0       ??_C@_1GO@DFOLKLAH@?$AAN?$AAU?$AAL?$AAL?$AA?5?$AA?$DN?$AA?$DN?$AA?5?$AAf?$AAi?$AAn?$AAd?$AA2?$AA3?$AA4?$AA?$CI?$AAs?$AAh?$AAa?$AAr?$AAe?$AAs?$AAt?$AAa?$AAt?$AAe?$AA?9?$AA?$DO?$AAc?$AAo?$AAn?$AAn@ 004789a0     sshshare.obj
 0002:00010a10       ??_C@_0CG@IJPFPCJP@Connection?5sharing?5downstream?5?$CD?$CF@ 00478a10     sshshare.obj
 0002:00010a38       ??_C@_0BH@IGDKEAOL@Connection?5sharing?3?5?$CFs?$AA@ 00478a38     sshshare.obj
 0002:00010a50       ??_C@_0CD@ECPDNMP@cleanup?5after?5downstream?5went?5aw@ 00478a50     sshshare.obj
 0002:00010a74       ??_C@_0N@GGGDBMDO@disconnected?$AA@ 00478a74     sshshare.obj
 0002:00010a84       ??_C@_0BB@PHFBAHNG@Socket?5error?3?5?$CFs?$AA@ 00478a84     sshshare.obj
 0002:00010a98       ??_C@_0CC@EDBEMPNA@downstream?5refused?5X?5channel?5ope@ 00478a98     sshshare.obj
 0002:00010abc       ??_C@_0DG@BOOBJFEA@window?5adjustment?5after?5downstre@ 00478abc     sshshare.obj
 0002:00010af4       ??_C@_1BA@JLMPDHJF@?$AAg?$AAl?$AAo?$AAb?$AAr?$AAe?$AAq?$AA?$AA@ 00478af4     sshshare.obj
 0002:00010b04       ??_C@_1BM@BLNMEGOK@?$AA?$CB?$AAg?$AAe?$AAt?$AA_?$AAe?$AAr?$AAr?$AA?$CI?$AAs?$AAr?$AAc?$AA?$CJ?$AA?$AA@ 00478b04     sshshare.obj
 0002:00010b20       ??_C@_1HM@BKOIACKB@?$AAf?$AAa?$AAl?$AAs?$AAe?$AA?5?$AA?$CG?$AA?$CG?$AA?5?$AA?$CC?$AAT?$AAh?$AAi?$AAs?$AA?5?$AAp?$AAa?$AAc?$AAk?$AAe?$AAt?$AA?5?$AAt?$AAy?$AAp?$AAe?$AA?5?$AAs?$AAh?$AAo?$AAu?$AAl@ 00478b20     sshshare.obj
 0002:00010b9c       ??_C@_0CA@LEMKEDHB@Truncated?5GLOBAL_REQUEST?5packet?$AA@ 00478b9c     sshshare.obj
 0002:00010bbc       ??_C@_0BP@LIAJBLMP@upstream?5added?5want_reply?5flag?$AA@ 00478bbc     sshshare.obj
 0002:00010bdc       ??_C@_0BO@PNBFFCNJ@Truncated?5CHANNEL_OPEN?5packet?$AA@ 00478bdc     sshshare.obj
 0002:00010bfc       ??_C@_0CL@FDMLJPNL@Truncated?5CHANNEL_OPEN_CONFIRMAT@ 00478bfc     sshshare.obj
 0002:00010c28       ??_C@_0DK@BEMBIPD@CHANNEL_OPEN_CONFIRMATION?5packet@ 00478c28     sshshare.obj
 0002:00010c68       ??_C@_0EC@KECFPEHJ@Initial?5window?5size?5for?5x11?5chan@ 00478c68     sshshare.obj
 0002:00010cac       ??_C@_0CG@MGPKIMPG@Truncated?5CHANNEL_OPEN_FAILURE?5p@ 00478cac     sshshare.obj
 0002:00010cd4       ??_C@_0DF@CKEBFAFK@CHANNEL_OPEN_FAILURE?5packet?5cite@ 00478cd4     sshshare.obj
 0002:00010d0c       ??_C@_0DF@GMFPNGA@Agent?5forwarding?5request?5for?5unr@ 00478d0c     sshshare.obj
 0002:00010d44       ??_C@_0DD@FPNJAGG@X11?5forwarding?5request?5for?5unrec@ 00478d44     sshshare.obj
 0002:00010d78       ??_C@_0CM@POICOHAK@Truncated?5CHANNEL_REQUEST?$CI?$CCx11?9r@ 00478d78     sshshare.obj
 0002:00010da4       ??_C@_0BL@NDIKHBNA@Unexpected?5packet?5type?5?$CFd?6?$AA@ 00478da4     sshshare.obj
 0002:00010dc0       ??_C@_1BI@HIIMIPPB@?$AAe?$AAr?$AAr?$AA?5?$AA?$CB?$AA?$DN?$AA?5?$AAN?$AAU?$AAL?$AAL?$AA?$AA@ 00478dc0     sshshare.obj
 0002:00010dd8       ??_C@_0BN@HINDCMED@Version?5string?5far?5too?5long?6?$AA@ 00478dd8     sshshare.obj
 0002:00010df8       ??_C@_0CN@FJADHAPD@Version?5string?5did?5not?5have?5expe@ 00478df8     sshshare.obj
 0002:00010e28       ??_C@_0CA@DNOJKIFO@Downstream?5version?5string?3?5?$CF?4?$CKs?$AA@ 00478e28     sshshare.obj
 0002:00010e48       ??_C@_0BG@PCMLKPBF@Bad?5packet?5length?5?$CFu?6?$AA@ 00478e48     sshshare.obj
 0002:00010e60       ??_C@_0BF@DFEDIOOM@listening?5socket?3?5?$CFs?$AA@ 00478e60     sshshare.obj
 0002:00010e78       ??_C@_0CP@MILJHMFH@SSHCONNECTION?$EAputty?4projects?4tar@ 00478e78     sshshare.obj
 0002:00010ea8       ??_C@_1CI@CEMEECCF@?$AA?$CB?$AAc?$AAs?$AA?9?$AA?$DO?$AAs?$AAe?$AAn?$AAt?$AA_?$AAv?$AAe?$AAr?$AAs?$AAt?$AAr?$AAi?$AAn?$AAg?$AA?$AA@ 00478ea8     sshshare.obj
 0002:00010ed0       ??_C@_06EGFPNNHB@?5from?5?$AA@ 00478ed0     sshshare.obj
 0002:00010ed8       ??_C@_0O@EOFEODIA@connected?$CFs?$CFs?$AA@ 00478ed8     sshshare.obj
 0002:00010ee8       ??_C@_05GKOKGMF@?$CFs?$EA?$CFs?$AA@ 00478ee8     sshshare.obj
 0002:00010ef0       ??_C@_08PONGPDEA@?$CFs?$EA?$CFs?3?$CFd?$AA@ 00478ef0     sshshare.obj
 0002:00010efc       ??_C@_05HKPGCKL@?$CFs?3?$CFd?$AA@ 00478efc     sshshare.obj
 0002:00010f04       ??_C@_1BK@ILDNOPEG@?$AAs?$AAo?$AAc?$AAk?$AA?5?$AA?$DN?$AA?$DN?$AA?5?$AAN?$AAU?$AAL?$AAL?$AA?$AA@ 00478f04     sshshare.obj
 0002:00010f20       ??_C@_1DG@HMAJNNLF@?$AAr?$AAe?$AAs?$AAu?$AAl?$AAt?$AA?5?$AA?$DN?$AA?$DN?$AA?5?$AAS?$AAH?$AAA?$AAR?$AAE?$AA_?$AAD?$AAO?$AAW?$AAN?$AAS?$AAT?$AAR?$AAE?$AAA?$AAM?$AA?$AA@ 00478f20     sshshare.obj
 0002:00010f58       ??_C@_0CI@LIBAHJMP@Could?5not?5set?5up?5connection?5shar@ 00478f58     sshshare.obj
 0002:00010f80       ??_C@_0DG@FFBKAJKA@Could?5not?5set?5up?5connection?5shar@ 00478f80     sshshare.obj
 0002:00010fb8       ??_C@_0DE@JEBONHLO@Could?5not?5set?5up?5connection?5shar@ 00478fb8     sshshare.obj
 0002:00010fec       ??_C@_0CH@LPFMMCJJ@Using?5existing?5shared?5connection@ 00478fec     sshshare.obj
 0002:00011014       ??_C@_0BO@GIBAJEKF@Sharing?5this?5connection?5at?5?$CFs?$AA@ 00479014     sshshare.obj
 0002:0001104c       ??_C@_04MBHFJLCC@SSH?9?$AA@ 0047904c     sshverstring.obj
 0002:00011054       ??_C@_0CL@BOLBMBJJ@SSHCONNECTION?$EAputty?4projects?4tar@ 00479054     sshverstring.obj
 0002:00011080       ??_C@_1CE@LNDHEDIC@?$AA?4?$AA?4?$AA?2?$AAs?$AAs?$AAh?$AAv?$AAe?$AAr?$AAs?$AAt?$AAr?$AAi?$AAn?$AAg?$AA?4?$AAc?$AA?$AA@ 00479080     sshverstring.obj
 0002:000110a8       ??_C@_1EM@ONIAJAEP@?$AAs?$AA?9?$AA?$DO?$AAp?$AAr?$AAe?$AAf?$AAi?$AAx?$AA_?$AAw?$AAa?$AAn?$AAt?$AAe?$AAd?$AA?4?$AAl?$AAe?$AAn?$AA?5?$AA?$DM?$AA?$DN?$AA?5?$AAP?$AAR?$AAE?$AAF?$AAI?$AAX?$AA_?$AAM@ 004790a8     sshverstring.obj
 0002:000110f4       ??_C@_04MAEPBCHM@1?499?$AA@ 004790f4     sshverstring.obj
 0002:000110fc       ??_C@_0M@NMBIOMPE@?$CF?4?$CKs?$CFs?9?$CFs?$CFs?$AA@ 004790fc     sshverstring.obj
 0002:00011108       ??_C@_01LIIJDEN@?$AN?$AA@  00479108     sshverstring.obj
 0002:0001110c       ??_C@_0BF@KKGKJJBN@We?5claim?5version?3?5?$CFs?$AA@ 0047910c     sshverstring.obj
 0002:00011124       ??_C@_0BD@MNBNLJGB@Remote?5version?3?5?$CFs?$AA@ 00479124     sshverstring.obj
 0002:00011138       ??_C@_1DG@DBHAJJOG@?$AA?$CK?$AAs?$AA?9?$AA?$DO?$AAs?$AAo?$AAf?$AAt?$AAw?$AAa?$AAr?$AAe?$AAv?$AAe?$AAr?$AAs?$AAi?$AAo?$AAn?$AA?5?$AA?$DN?$AA?$DN?$AA?5?$AA?8?$AA?9?$AA?8?$AA?$AA@ 00479138     sshverstring.obj
 0002:00011170       ??_C@_0FA@IBBMAMKG@SSH?5protocol?5version?51?5required?5@ 00479170     sshverstring.obj
 0002:000111c0       ??_C@_0GE@CGLHPNDI@SSH?5protocol?5version?52?5required?5@ 004791c0     sshverstring.obj
 0002:00011224       ??_C@_0BO@KOCNICNE@Using?5SSH?5protocol?5version?5?$CFd?$AA@ 00479224     sshverstring.obj
 0002:00011248       ??_C@_1KE@MJLCEIFI@?$AAf?$AAa?$AAl?$AAs?$AAe?$AA?5?$AA?$CG?$AA?$CG?$AA?5?$AA?$CC?$AAS?$AAh?$AAo?$AAu?$AAl?$AAd?$AA?5?$AAn?$AAe?$AAv?$AAe?$AAr?$AA?5?$AAt?$AAr?$AAy?$AA?5?$AAt?$AAo?$AA?5?$AAs?$AAe@ 00479248     sshverstring.obj
 0002:000112ec       ??_C@_06PIBLOKJG@1?42?418?$AA@ 004792ec     sshverstring.obj
 0002:000112f4       ??_C@_06OBAANLNH@1?42?419?$AA@ 004792f4     sshverstring.obj
 0002:000112fc       ??_C@_06DCIENOMH@1?42?420?$AA@ 004792fc     sshverstring.obj
 0002:00011304       ??_C@_06CLJPOPIG@1?42?421?$AA@ 00479304     sshverstring.obj
 0002:0001130c       ??_C@_06LCLMEF@1?42?422?$AA@ 0047930c     sshverstring.obj
 0002:00011314       ??_C@_0L@PONENGJI@Cisco?91?425?$AA@ 00479314     sshverstring.obj
 0002:00011320       ??_C@_0O@OGPLAELK@OSU_1?44alpha3?$AA@ 00479320     sshverstring.obj
 0002:00011330       ??_C@_0O@GFBAJCOD@OSU_1?45alpha4?$AA@ 00479330     sshverstring.obj
 0002:00011340       ??_C@_0CP@IIGJGMPJ@We?5believe?5remote?5version?5has?5SS@ 00479340     sshverstring.obj
 0002:00011370       ??_C@_0DH@CMIOCIAN@We?5believe?5remote?5version?5needs?5@ 00479370     sshverstring.obj
 0002:000113a8       ??_C@_0EA@EJBFMCDE@We?5believe?5remote?5version?5can?8t?5@ 004793a8     sshverstring.obj
 0002:000113e8       ??_C@_08BAHPAKLM@?$CK?5VShell?$AA@ 004793e8     sshverstring.obj
 0002:000113f4       ??_C@_06PHGFJADP@2?41?40?$CK?$AA@ 004793f4     sshverstring.obj
 0002:000113fc       ??_C@_05NEONDGPM@2?40?4?$CK?$AA@ 004793fc     sshverstring.obj
 0002:00011404       ??_C@_06LAMFOKOP@2?42?40?$CK?$AA@ 00479404     sshverstring.obj
 0002:0001140c       ??_C@_06INKFMDFP@2?43?40?$CK?$AA@ 0047940c     sshverstring.obj
 0002:00011414       ??_C@_05GGMPHMJD@2?41?5?$CK?$AA@ 00479414     sshverstring.obj
 0002:0001141c       ??_C@_0CN@JIMODAEB@We?5believe?5remote?5version?5has?5SS@ 0047941c     sshverstring.obj
 0002:0001144c       ??_C@_06MKAFLJIP@2?40?40?$CK?$AA@ 0047944c     sshverstring.obj
 0002:00011454       ??_C@_07LLKLBGOD@2?40?410?$CK?$AA@ 00479454     sshverstring.obj
 0002:0001145c       ??_C@_0DH@HJJPBCPI@We?5believe?5remote?5version?5has?5SS@ 0047945c     sshverstring.obj
 0002:00011494       ??_C@_0BB@LJFPKCKB@OpenSSH_2?4?$FL5?99?$FN?$CK?$AA@ 00479494     sshverstring.obj
 0002:000114a8       ??_C@_0BB@CJOIKAFA@OpenSSH_3?4?$FL0?92?$FN?$CK?$AA@ 004794a8     sshverstring.obj
 0002:000114bc       ??_C@_0BC@LBAGNGCD@mod_sftp?10?4?$FL0?98?$FN?$CK?$AA@ 004794bc     sshverstring.obj
 0002:000114d0       ??_C@_0BD@JBHKGGHH@mod_sftp?10?49?4?$FL0?98?$FN?$AA@ 004794d0     sshverstring.obj
 0002:000114e4       ??_C@_0DE@LNKHENAK@We?5believe?5remote?5version?5has?5SS@ 004794e4     sshverstring.obj
 0002:00011518       ??_C@_0BB@DOJDLEBD@OpenSSH_2?4?$FL0?92?$FN?$CK?$AA@ 00479518     sshverstring.obj
 0002:0001152c       ??_C@_0DO@GCGLALIG@We?5believe?5remote?5version?5has?5SS@ 0047952c     sshverstring.obj
 0002:0001156c       ??_C@_0M@HIEGIPHD@DigiSSH_2?40?$AA@ 0047956c     sshverstring.obj
 0002:00011578       ??_C@_0BB@BLPIOLMP@OpenSSH_2?4?$FL0?94?$FN?$CK?$AA@ 00479578     sshverstring.obj
 0002:0001158c       ??_C@_0BD@ENMPLMLA@OpenSSH_2?45?4?$FL0?93?$FN?$CK?$AA@ 0047958c     sshverstring.obj
 0002:000115a0       ??_C@_0M@BHKBOAHA@Sun_SSH_1?40?$AA@ 004795a0     sshverstring.obj
 0002:000115ac       ??_C@_0O@HLLLOAHH@Sun_SSH_1?40?41?$AA@ 004795ac     sshverstring.obj
 0002:000115bc       ??_C@_0L@MHIKENAA@WeOnlyDo?9?$CK?$AA@ 004795bc     sshverstring.obj
 0002:000115c8       ??_C@_0CO@HCACEIAK@We?5believe?5remote?5version?5has?5SS@ 004795c8     sshverstring.obj
 0002:000115f8       ??_C@_0BI@HKLJHCEN@1?436_sshlib?5GlobalSCAPE?$AA@ 004795f8     sshverstring.obj
 0002:00011610       ??_C@_0BJ@JILMHMAP@1?436?5sshlib?3?5GlobalScape?$AA@ 00479610     sshverstring.obj
 0002:0001162c       ??_C@_0DM@GNJJCIDH@We?5believe?5remote?5version?5ignore@ 0047962c     sshverstring.obj
 0002:00011668       ??_C@_0CP@DFKDAADH@We?5believe?5remote?5version?5has?5SS@ 00479668     sshverstring.obj
 0002:00011698       ??_C@_0BB@DBFMAEEC@OpenSSH_2?4?$FL235?$FN?$CK?$AA@ 00479698     sshverstring.obj
 0002:000116ac       ??_C@_0DB@DNBJPJJC@We?5believe?5remote?5version?5has?5ou@ 004796ac     sshverstring.obj
 0002:000116e0       ??_C@_0CJ@IAPGOFOG@We?5believe?5remote?5version?5has?5wi@ 004796e0     sshverstring.obj
 0002:0001170c       ??_C@_0BA@ECEEDIAO@OpenSSH_?$FL2?95?$FN?4?$CK?$AA@ 0047970c     sshverstring.obj
 0002:0001171c       ??_C@_0BB@OMBNHCEI@OpenSSH_6?4?$FL0?96?$FN?$CK?$AA@ 0047971c     sshverstring.obj
 0002:00011730       ??_C@_0BH@IHBAJOKK@dropbear_0?4?$FL2?94?$FN?$FL0?99?$FN?$CK?$AA@ 00479730     sshverstring.obj
 0002:00011748       ??_C@_0BC@OKFHOBOG@dropbear_0?45?$FL01?$FN?$CK?$AA@ 00479748     sshverstring.obj
 0002:0001175c       ??_C@_0DI@IIHEFANM@We?5believe?5remote?5version?5has?5SS@ 0047975c     sshverstring.obj
 0002:00011b78       _ssh_zlib                  00479b78     sshzlib.obj
 0002:00011b9c       ??_C@_04OLICEBLN@zlib?$AA@ 00479b9c     sshzlib.obj
 0002:00011ba4       ??_C@_0BB@MCFAHMIB@zlib?$EAopenssh?4com?$AA@ 00479ba4     sshzlib.obj
 0002:00011bb8       ??_C@_0P@HKDEBKBN@zlib?5?$CIRFC1950?$CJ?$AA@ 00479bb8     sshzlib.obj
 0002:00011bc8       ??_C@_1BK@BIFCPMPD@?$AA?4?$AA?4?$AA?2?$AAs?$AAs?$AAh?$AAz?$AAl?$AAi?$AAb?$AA?4?$AAc?$AA?$AA@ 00479bc8     sshzlib.obj
 0002:00011be4       ??_C@_1DE@MAEIDFKE@?$AAs?$AAt?$AA?9?$AA?$DO?$AAn?$AAp?$AAe?$AAn?$AAd?$AAi?$AAn?$AAg?$AA?5?$AA?$DM?$AA?$DN?$AA?5?$AAH?$AAA?$AAS?$AAH?$AAC?$AAH?$AAA?$AAR?$AAS?$AA?$AA@ 00479be4     sshzlib.obj
 0002:00011c18       ??_C@_1DC@FILANFPJ@?$AAs?$AAt?$AA?9?$AA?$DO?$AAn?$AAp?$AAe?$AAn?$AAd?$AAi?$AAn?$AAg?$AA?5?$AA?$DM?$AA?5?$AAH?$AAA?$AAS?$AAH?$AAC?$AAH?$AAA?$AAR?$AAS?$AA?$AA@ 00479c18     sshzlib.obj
 0002:00011c4c       ??_C@_1DI@EBPDFNOF@?$AAo?$AAu?$AAt?$AA?9?$AA?$DO?$AAn?$AAo?$AAu?$AAt?$AAb?$AAi?$AAt?$AAs?$AA?5?$AA?$CL?$AA?5?$AAn?$AAb?$AAi?$AAt?$AAs?$AA?5?$AA?$DM?$AA?$DN?$AA?5?$AA3?$AA2?$AA?$AA@ 00479c4c     sshzlib.obj
 0002:00011c84       ??_C@_1BG@COPMCGJM@?$AAj?$AA?5?$AA?9?$AA?5?$AAi?$AA?5?$AA?$DO?$AA?$DN?$AA?5?$AA2?$AA?$AA@ 00479c84     sshzlib.obj
 0002:00011c9c       ??_C@_1BK@BDFNFLCI@?$AA?$CB?$AAo?$AAu?$AAt?$AA?9?$AA?$DO?$AAo?$AAu?$AAt?$AAb?$AAu?$AAf?$AA?$AA@ 00479c9c     sshzlib.obj
 0002:00011cb8       ??_C@_1BM@KLDOOLGA@?$AA?$CB?$AAd?$AAc?$AAt?$AAx?$AA?9?$AA?$DO?$AAo?$AAu?$AAt?$AAb?$AAl?$AAk?$AA?$AA@ 00479cb8     sshzlib.obj
 0002:00011cd4       ??_C@_02MINBJDHL@?$HM?5?$AA@ 00479cd4     stripctrl.obj
 0002:00011cd8       ??_C@_04BFIBMAAP@?$AN?6?$DO?5?$AA@ 00479cd8     stripctrl.obj
 0002:00011ce0       ??_C@_1BO@LLOJBHEM@?$AA?4?$AA?4?$AA?2?$AAs?$AAt?$AAr?$AAi?$AAp?$AAc?$AAt?$AAr?$AAl?$AA?4?$AAc?$AA?$AA@ 00479ce0     stripctrl.obj
 0002:00011d00       ??_C@_1EG@IHMCJKLH@?$AAw?$AAi?$AAd?$AAt?$AAh?$AA?5?$AA?$DM?$AA?$DN?$AA?5?$AAs?$AAc?$AAc?$AA?9?$AA?$DO?$AAl?$AAi?$AAn?$AAe?$AA_?$AAc?$AAh?$AAa?$AAr?$AAs?$AA_?$AAr?$AAe?$AAm?$AAa?$AAi?$AAn?$AAi@ 00479d00     stripctrl.obj
 0002:00011d48       ??_C@_1BG@NBGFDFGM@?$AAw?$AAi?$AAd?$AAt?$AAh?$AA?5?$AA?$DO?$AA?$DN?$AA?5?$AA0?$AA?$AA@ 00479d48     stripctrl.obj
 0002:00011d60       ??_C@_1EC@NJALBGFH@?$AAc?$AAo?$AAn?$AAs?$AAu?$AAm?$AAe?$AAd?$AA_?$AAf?$AAr?$AAo?$AAm?$AA_?$AAm?$AAa?$AAi?$AAn?$AA_?$AAs?$AAt?$AAr?$AAi?$AAn?$AAg?$AA?5?$AA?$DM?$AA?$DN?$AA?5?$AAl?$AAe?$AAn@ 00479d60     stripctrl.obj
 0002:00011da4       ??_C@_1BO@BMDDGJAE@?$AAt?$AAo?$AA_?$AAc?$AAo?$AAp?$AAy?$AA?5?$AA?$DN?$AA?$DN?$AA?5?$AAl?$AAe?$AAn?$AA?$AA@ 00479da4     stripctrl.obj
 0002:00011dc4       ??_C@_1CA@BEFOHAFC@?$AAc?$AAo?$AAn?$AAs?$AAu?$AAm?$AAe?$AAd?$AA?5?$AA?$DM?$AA?$DN?$AA?5?$AAl?$AAe?$AAn?$AA?$AA@ 00479dc4     stripctrl.obj
 0002:00011de4       ??_C@_1CG@IOGHFPMP@?$AAl?$AAe?$AAn?$AA?5?$AA?$DM?$AA?$DN?$AA?5?$AAS?$AAC?$AAC?$AA_?$AAB?$AAU?$AAF?$AAS?$AAI?$AAZ?$AAE?$AA?$AA@ 00479de4     stripctrl.obj
 0002:00011e0c       ??_C@_1BK@MHBNEDJA@?$AA?4?$AA?4?$AA?2?$AAt?$AAr?$AAe?$AAe?$AA2?$AA3?$AA4?$AA?4?$AAc?$AA?$AA@ 00479e0c     tree234.obj
 0002:00011e28       ??_C@_1DC@HAJCHCAO@?$AA?$CB?$AA?$CI?$AAe?$AAq?$AAu?$AAa?$AAl?$AA_?$AAp?$AAe?$AAr?$AAm?$AAi?$AAt?$AAt?$AAe?$AAd?$AA?5?$AA?$CG?$AA?$CG?$AA?5?$AA?$CB?$AAe?$AA?$CJ?$AA?$AA@ 00479e28     tree234.obj
 0002:00011e5c       ??_C@_1BE@JDCCMFIA@?$AAd?$AAi?$AAr?$AAe?$AAc?$AAt?$AAi?$AAo?$AAn?$AA?$AA@ 00479e5c     tree234.obj
 0002:00011eb4       ??_C@_01LBDDMOBJ@?$FN?$AA@ 00479eb4     utils.obj
 0002:00011eb8       ??_C@_1BG@IBBOKEKM@?$AA?4?$AA?4?$AA?2?$AAu?$AAt?$AAi?$AAl?$AAs?$AA?4?$AAc?$AA?$AA@ 00479eb8     utils.obj
 0002:00011ed0       ??_C@_1CI@JGIJONMH@?$AAn?$AAe?$AAw?$AA_?$AAl?$AAe?$AAn?$AA?5?$AA?$DM?$AA?$DN?$AA?5?$AAb?$AAu?$AAf?$AA?9?$AA?$DO?$AAl?$AAe?$AAn?$AA?$AA@ 00479ed0     utils.obj
 0002:00011ef8       ??_C@_1DK@NKJCINEO@?$AAa?$AAm?$AAo?$AAu?$AAn?$AAt?$AA_?$AAt?$AAo?$AA_?$AAr?$AAe?$AAm?$AAo?$AAv?$AAe?$AA?5?$AA?$DM?$AA?$DN?$AA?5?$AAb?$AAu?$AAf?$AA?9?$AA?$DO?$AAl?$AAe?$AAn?$AA?$AA@ 00479ef8     utils.obj
 0002:00011f34       ??_C@_1CM@NIOFDAEB@?$AAb?$AAu?$AAf?$AA?9?$AA?$DO?$AAv?$AAi?$AAs?$AAi?$AAb?$AAl?$AAe?$AA?4?$AAl?$AAe?$AAn?$AA?5?$AA?$DO?$AA?$DN?$AA?5?$AA5?$AA?$AA@ 00479f34     utils.obj
 0002:00011f60       ??_C@_1GM@EAHHBGHL@?$AAf?$AAa?$AAl?$AAs?$AAe?$AA?5?$AA?$CG?$AA?$CG?$AA?5?$AA?$CC?$AAb?$AAu?$AAf?$AAc?$AAh?$AAa?$AAi?$AAn?$AA?5?$AAc?$AAa?$AAl?$AAl?$AAb?$AAa?$AAc?$AAk?$AA?5?$AAu?$AAs?$AAe?$AAd@ 00479f60     utils.obj
 0002:00011fcc       ??_C@_1CM@MFBGKCEF@?$AAc?$AAh?$AA?9?$AA?$DO?$AAb?$AAu?$AAf?$AAf?$AAe?$AAr?$AAs?$AAi?$AAz?$AAe?$AA?5?$AA?$DO?$AA?$DN?$AA?5?$AAl?$AAe?$AAn?$AA?$AA@ 00479fcc     utils.obj
 0002:00011ff8       ??_C@_1CC@FNDPGLGN@?$AAc?$AAh?$AA?9?$AA?$DO?$AAh?$AAe?$AAa?$AAd?$AA?5?$AA?$CB?$AA?$DN?$AA?5?$AAN?$AAU?$AAL?$AAL?$AA?$AA@ 00479ff8     utils.obj
 0002:0001201c       ??_C@_1BI@DJGBLBGG@?$AAt?$AAm?$AAp?$AA?5?$AA?$CB?$AA?$DN?$AA?5?$AAN?$AAU?$AAL?$AAL?$AA?$AA@ 0047a01c     utils.obj
 0002:00012034       _ver                       0047a034     version.obj
 0002:00012044       _sshver                    0047a044     version.obj
 0002:00012054       _commitid                  0047a054     version.obj
 0002:00012dd8       ??_C@_1BM@PINLEPKJ@?$AA?4?$AA?4?$AA?2?$AAw?$AAi?$AAl?$AAd?$AAc?$AAa?$AAr?$AAd?$AA?4?$AAc?$AA?$AA@ 0047add8     wildcard.obj
 0002:00012df4       ??_C@_1CC@PPJJLGIB@?$AA?$CK?$AAw?$AAi?$AAl?$AAd?$AAc?$AAa?$AAr?$AAd?$AA?5?$AA?$DN?$AA?$DN?$AA?5?$AA?8?$AA?$CK?$AA?8?$AA?$AA@ 0047adf4     wildcard.obj
 0002:00012e18       ??_C@_0M@DNEEGAAA@crypt32?4dll?$AA@ 0047ae18     wincapi.obj
 0002:00012e24       ??_C@_0BD@BEHPHILP@CryptProtectMemory?$AA@ 0047ae24     wincapi.obj
 0002:00013ae4       ??_C@_0M@LCCAHJB@FATAL?5ERROR?$AA@ 0047bae4     wincons.obj
 0002:00013af0       ??_C@_05MBDEGLCK@ERROR?$AA@ 0047baf0     wincons.obj
 0002:00013af8       ??_C@_0BKL@FLNCJOGO@These?5are?5the?5fingerprints?5of?5th@ 0047baf8     wincons.obj
 0002:00013ca4       ??_C@_0CC@LOBNMDGO@Cannot?5get?5standard?5input?5handle@ 0047bca4     wincons.obj
 0002:00013cc8       ??_C@_0CD@FBGFOPPM@Cannot?5get?5standard?5output?5handl@ 0047bcc8     wincons.obj
 0002:00013cec       ??_C@_0M@KGGAJAJ@Courier?5New?$AA@ 0047bcec     windefs.obj
 0002:00013cf8       ??_C@_09CKCOALHD@putty?4log?$AA@ 0047bcf8     windefs.obj
 0002:00013d04       ??_C@_04FLOGHLDB@COM1?$AA@ 0047bd04     windefs.obj
 0002:00013d0c       ??_C@_0BK@KMMBPEJK@MIT?5Kerberos?5GSSAPI32?4DLL?$AA@ 0047bd0c     wingss.obj
 0002:00013d28       ??_C@_0BL@NLDLBALN@Microsoft?5SSPI?5SECUR32?4DLL?$AA@ 0047bd28     wingss.obj
 0002:00013d44       ??_C@_0BK@JKANBDKL@User?9specified?5GSSAPI?5DLL?$AA@ 0047bd44     wingss.obj
 0002:00013d60       ??_C@_08GJKCNAPI@gssapi32?$AA@ 0047bd60     wingss.obj
 0002:00013d6c       ??_C@_04BOOLCFDB@sspi?$AA@ 0047bd6c     wingss.obj
 0002:00013d74       ??_C@_06EKNFNOKI@custom?$AA@ 0047bd74     wingss.obj
 0002:00013d7c       _ngsslibs                  0047bd7c     wingss.obj
 0002:00013d80       _gsslibnames               0047bd80     wingss.obj
 0002:00013d8c       _gsslibkeywords            0047bd8c     wingss.obj
 0002:00013dbc       _gss_mech_krb5             0047bdbc     wingss.obj
 0002:00013dc4       ??_C@_0N@MDJJJHMB@kernel32?4dll?$AA@ 0047bdc4     wingss.obj
 0002:00013dd4       ??_C@_0BA@NMFGOKJN@AddDllDirectory?$AA@ 0047bdd4     wingss.obj
 0002:00013de4       ??_C@_0BG@LGNPILGP@SOFTWARE?2MIT?2Kerberos?$AA@ 0047bde4     wingss.obj
 0002:00013dfc       ??_C@_0L@FHCLALEN@InstallDir?$AA@ 0047bdfc     wingss.obj
 0002:00013e08       ??_C@_04OJGJKDCG@?2bin?$AA@ 0047be08     wingss.obj
 0002:00013e10       ??_C@_0O@PHAFIOME@?2gssapi32?4dll?$AA@ 0047be10     wingss.obj
 0002:00013e20       ??_C@_0BP@CAAICPPD@Using?5GSSAPI?5from?5GSSAPI32?4DLL?$AA@ 0047be20     wingss.obj
 0002:00013e40       ??_C@_0BH@LPGCAHBE@gss_delete_sec_context?$AA@ 0047be40     wingss.obj
 0002:00013e58       ??_C@_0BD@HAHCAGLP@gss_display_status?$AA@ 0047be58     wingss.obj
 0002:00013e6c       ??_C@_0M@OGHPACOB@gss_get_mic?$AA@ 0047be6c     wingss.obj
 0002:00013e78       ??_C@_0P@KAPGGING@gss_verify_mic?$AA@ 0047be78     wingss.obj
 0002:00013e88       ??_C@_0BA@NFJGAFDA@gss_import_name?$AA@ 0047be88     wingss.obj
 0002:00013e98       ??_C@_0BF@GKGBCAOB@gss_init_sec_context?$AA@ 0047be98     wingss.obj
 0002:00013eb0       ??_C@_0BD@NOBAANHB@gss_release_buffer?$AA@ 0047beb0     wingss.obj
 0002:00013ec4       ??_C@_0BB@OPJGOMFI@gss_release_cred?$AA@ 0047bec4     wingss.obj
 0002:00013ed8       ??_C@_0BB@ECKCLAGB@gss_release_name?$AA@ 0047bed8     wingss.obj
 0002:00013eec       ??_C@_0BB@DMNICJAO@gss_acquire_cred?$AA@ 0047beec     wingss.obj
 0002:00013f00       ??_C@_0BJ@HHFCIMMD@gss_inquire_cred_by_mech?$AA@ 0047bf00     wingss.obj
 0002:00013f1c       ??_C@_0M@KOFABFN@secur32?4dll?$AA@ 0047bf1c     wingss.obj
 0002:00013f28       ??_C@_0BM@BNCKPIJL@Using?5SSPI?5from?5SECUR32?4DLL?$AA@ 0047bf28     wingss.obj
 0002:00013f44       ??_C@_0BK@KPHFEPAJ@AcquireCredentialsHandleA?$AA@ 0047bf44     wingss.obj
 0002:00013f60       ??_C@_0BL@GGJLPDDN@InitializeSecurityContextA?$AA@ 0047bf60     wingss.obj
 0002:00013f7c       ??_C@_0BC@LCABLLAA@FreeContextBuffer?$AA@ 0047bf7c     wingss.obj
 0002:00013f90       ??_C@_0BG@DAGPLFON@FreeCredentialsHandle?$AA@ 0047bf90     wingss.obj
 0002:00013fa8       ??_C@_0BG@LNIAGFEF@DeleteSecurityContext?$AA@ 0047bfa8     wingss.obj
 0002:00013fc0       ??_C@_0BI@MJIBHNH@QueryContextAttributesA?$AA@ 0047bfc0     wingss.obj
 0002:00013fd8       ??_C@_0O@MIBINBJ@MakeSignature?$AA@ 0047bfd8     wingss.obj
 0002:00013fe8       ??_C@_0BA@EGPCJBKO@VerifySignature?$AA@ 0047bfe8     wingss.obj
 0002:00013ff8       ??_C@_0CO@KKKGLNAB@Using?5GSSAPI?5from?5user?9specified@ 0047bff8     wingss.obj
 0002:00014028       ??_C@_05IJJGMEGE@host?1?$AA@ 0047c028     wingss.obj
 0002:00014030       ??_C@_08DEIMIBAF@Kerberos?$AA@ 0047c030     wingss.obj
 0002:0001403c       ??_C@_0P@FHMNKEON@SSPI?5status?5OK?$AA@ 0047c03c     wingss.obj
 0002:0001404c       ??_C@_0CO@MFICPPLA@The?5handle?5passed?5to?5the?5functio@ 0047c04c     wingss.obj
 0002:0001407c       ??_C@_0BP@GBCPMANM@The?5target?5was?5not?5recognized?4?$AA@ 0047c07c     wingss.obj
 0002:0001409c       ??_C@_0BC@EIFLKHH@The?5logon?5failed?4?$AA@ 0047c09c     wingss.obj
 0002:000140b0       ??_C@_0DC@FMMLCEMD@The?5Local?5Security?5Authority?5can@ 0047c0b0     wingss.obj
 0002:000140e4       ??_C@_0DG@GKAFKGBA@No?5credentials?5are?5available?5in?5@ 0047c0e4     wingss.obj
 0002:00014120       ??_C@_0MH@NCDMEMJK@No?5authority?5could?5be?5contacted?5@ 0047c120     wingss.obj
 0002:000141e8       ??_C@_0GH@FPFDJCGO@One?5or?5more?5of?5the?5SecBufferDesc@ 0047c1e8     wingss.obj
 0002:00014250       ??_C@_0BBF@KLMJLMFM@The?5error?5is?5due?5to?5a?5malformed?5@ 0047c250     wingss.obj
 0002:00014368       ??_C@_0BE@JBOILFGC@Internal?5SSPI?5error?$AA@ 0047c368     wingss.obj
 0002:0001437c       ??_C@_1CM@DMBHPOBD@?$AA?4?$AA?4?$AA?2?$AAw?$AAi?$AAn?$AAd?$AAo?$AAw?$AAs?$AA?2?$AAw?$AAi?$AAn?$AAh?$AAa?$AAn?$AAd?$AAl?$AA?4?$AAc?$AA?$AA@ 0047c37c     winhandl.obj
 0002:000143a8       ??_C@_1CK@FHLADDDD@?$AAh?$AA?9?$AA?$DO?$AAt?$AAy?$AAp?$AAe?$AA?5?$AA?$DN?$AA?$DN?$AA?5?$AAH?$AAT?$AA_?$AAO?$AAU?$AAT?$AAP?$AAU?$AAT?$AA?$AA@ 0047c3a8     winhandl.obj
 0002:000143d4       ??_C@_1DK@HEEPBBDK@?$AAh?$AA?9?$AA?$DO?$AAu?$AA?4?$AAo?$AA?4?$AAo?$AAu?$AAt?$AAg?$AAo?$AAi?$AAn?$AAg?$AAe?$AAo?$AAf?$AA?5?$AA?$DN?$AA?$DN?$AA?5?$AAE?$AAO?$AAF?$AA_?$AAN?$AAO?$AA?$AA@ 0047c3d4     winhandl.obj
 0002:00014410       ??_C@_1CM@IGACHAOA@?$AAh?$AA?5?$AA?$CG?$AA?$CG?$AA?5?$AA?$CB?$AAh?$AA?9?$AA?$DO?$AAu?$AA?4?$AAg?$AA?4?$AAm?$AAo?$AAr?$AAi?$AAb?$AAu?$AAn?$AAd?$AA?$AA@ 0047c410     winhandl.obj
 0002:0001443c       ??_C@_1CI@COHIDNHF@?$AAh?$AAa?$AAn?$AAd?$AAl?$AAe?$AAs?$AA_?$AAb?$AAy?$AA_?$AAe?$AAv?$AAt?$AAo?$AAm?$AAa?$AAi?$AAn?$AA?$AA@ 0047c43c     winhandl.obj
 0002:00014464       ??_C@_1CI@JKCBBCL@?$AAh?$AA?9?$AA?$DO?$AAt?$AAy?$AAp?$AAe?$AA?5?$AA?$DN?$AA?$DN?$AA?5?$AAH?$AAT?$AA_?$AAI?$AAN?$AAP?$AAU?$AAT?$AA?$AA@ 0047c464     winhandl.obj
 0002:000144ac       ??_C@_0BH@DGGGCPDG@Read?5error?5from?5handle?$AA@ 0047c4ac     winhsock.obj
 0002:000144c4       ??_C@_1CM@MIHHFINN@?$AA?4?$AA?4?$AA?2?$AAw?$AAi?$AAn?$AAd?$AAo?$AAw?$AAs?$AA?2?$AAw?$AAi?$AAn?$AAh?$AAs?$AAo?$AAc?$AAk?$AA?4?$AAc?$AA?$AA@ 0047c4c4     winhsock.obj
 0002:000144f0       ??_C@_1FM@JHHNGKHL@?$AAh?$AAs?$AA?9?$AA?$DO?$AAf?$AAr?$AAo?$AAz?$AAe?$AAn?$AA?5?$AA?$CB?$AA?$DN?$AA?5?$AAF?$AAR?$AAO?$AAZ?$AAE?$AAN?$AA?5?$AA?$CG?$AA?$CG?$AA?5?$AAh?$AAs?$AA?9?$AA?$DO?$AAf?$AAr?$AAo?$AAz@ 0047c4f0     winhsock.obj
 0002:0001454c       ??_C@_1BK@KOMLNHNL@?$AAd?$AAa?$AAt?$AAa?$AA?4?$AAl?$AAe?$AAn?$AA?5?$AA?$DO?$AA?5?$AA0?$AA?$AA@ 0047c54c     winhsock.obj
 0002:00014568       ??_C@_1EG@MNJHKAEK@?$AAb?$AAu?$AAf?$AAc?$AAh?$AAa?$AAi?$AAn?$AA_?$AAs?$AAi?$AAz?$AAe?$AA?$CI?$AA?$CG?$AAh?$AAs?$AA?9?$AA?$DO?$AAi?$AAn?$AAp?$AAu?$AAt?$AAd?$AAa?$AAt?$AAa?$AA?$CJ?$AA?5?$AA?$DN?$AA?$DN@ 0047c568     winhsock.obj
 0002:000145b0       ??_C@_0BM@CIPLAJFN@GetNamedPipeClientProcessId?$AA@ 0047c5b0     winhsock.obj
 0002:000145cc       ??_C@_0P@JHHIPCON@process?5id?5?$CFlu?$AA@ 0047c5cc     winhsock.obj
 0002:000145ec       ??_C@_07JPHDIPNG@DISPLAY?$AA@ 0047c5ec     winmisc.obj
 0002:000145f4       ??_C@_09KOMKGNPH@?$DM?$DO?3?$CC?1?2?$HM?$DP?$CK?$AA@ 0047c5f4     winmisc.obj
 0002:00014600       ??_C@_0M@MJAONEIE@sspicli?4dll?$AA@ 0047c600     winmisc.obj
 0002:0001460c       ??_C@_0P@MKECNODE@GetUserNameExA?$AA@ 0047c60c     winmisc.obj
 0002:0001461c       ??_C@_0BJ@OHNKDLIJ@SetDefaultDllDirectories?$AA@ 0047c61c     winmisc.obj
 0002:00014638       ??_C@_01KICIPPFI@?2?$AA@   0047c638     winmisc.obj
 0002:0001463c       ??_C@_0CO@PFNCIHEG@?$CIunable?5to?5format?3?5FormatMessage@ 0047c63c     winmisc.obj
 0002:0001466c       ??_C@_0N@EGAOEDDE@Error?5?$CFd?3?5?$CFs?$AA@ 0047c66c     winmisc.obj
 0002:0001467c       _in6addr_any               0047c67c     winnet.obj
 0002:0001468c       _in6addr_loopback          0047c68c     winnet.obj
 0002:000146bc       ??_C@_0L@EANHMAHB@ws2_32?4dll?$AA@ 0047c6bc     winnet.obj
 0002:000146c8       ??_C@_0M@OJLCMFNP@wsock32?4dll?$AA@ 0047c6c8     winnet.obj
 0002:000146d4       ??_C@_0CD@JNHCILKG@Unable?5to?5load?5any?5WinSock?5libra@ 0047c6d4     winnet.obj
 0002:000146f8       ??_C@_0M@MBIPAJOD@getaddrinfo?$AA@ 0047c6f8     winnet.obj
 0002:00014704       ??_C@_0N@EHOPPMLH@freeaddrinfo?$AA@ 0047c704     winnet.obj
 0002:00014714       ??_C@_0M@NNJNLPKG@getnameinfo?$AA@ 0047c714     winnet.obj
 0002:00014720       ??_C@_0N@INCGEDCE@gai_strerror?$AA@ 0047c720     winnet.obj
 0002:00014730       ??_C@_0L@KHLHMJB@wship6?4dll?$AA@ 0047c730     winnet.obj
 0002:0001473c       ??_C@_0BE@OCOIJKMB@WSAAddressToStringA?$AA@ 0047c73c     winnet.obj
 0002:00014750       ??_C@_0P@BBKGBEDM@WSAAsyncSelect?$AA@ 0047c750     winnet.obj
 0002:00014760       ??_C@_0P@CIBLNKFF@WSAEventSelect?$AA@ 0047c760     winnet.obj
 0002:00014770       ??_C@_06LGNCCACI@select?$AA@ 0047c770     winnet.obj
 0002:00014778       ??_C@_0BA@ONBHHGGB@WSAGetLastError?$AA@ 0047c778     winnet.obj
 0002:00014788       ??_C@_0BF@PDMHDGHF@WSAEnumNetworkEvents?$AA@ 0047c788     winnet.obj
 0002:000147a0       ??_C@_0L@EEFLCHHA@WSAStartup?$AA@ 0047c7a0     winnet.obj
 0002:000147ac       ??_C@_0L@OPKENMEN@WSACleanup?$AA@ 0047c7ac     winnet.obj
 0002:000147b8       ??_C@_0M@ODDJDCDK@closesocket?$AA@ 0047c7b8     winnet.obj
 0002:000147c4       ??_C@_05JMFICPBP@ntohl?$AA@ 0047c7c4     winnet.obj
 0002:000147cc       ??_C@_05EOIMLALA@htonl?$AA@ 0047c7cc     winnet.obj
 0002:000147d4       ??_C@_05IDNGLOCO@htons?$AA@ 0047c7d4     winnet.obj
 0002:000147dc       ??_C@_05FBACCBIB@ntohs?$AA@ 0047c7dc     winnet.obj
 0002:000147e4       ??_C@_0M@FIJPCJJO@gethostname?$AA@ 0047c7e4     winnet.obj
 0002:000147f0       ??_C@_0O@BFBCKHPD@gethostbyname?$AA@ 0047c7f0     winnet.obj
 0002:00014800       ??_C@_0O@NKLJGHIL@getservbyname?$AA@ 0047c800     winnet.obj
 0002:00014810       ??_C@_09JKBDEEOB@inet_addr?$AA@ 0047c810     winnet.obj
 0002:0001481c       ??_C@_09CFOACKNM@inet_ntoa?$AA@ 0047c81c     winnet.obj
 0002:00014828       ??_C@_09HGDJAJMM@inet_ntop?$AA@ 0047c828     winnet.obj
 0002:00014834       ??_C@_07KAIBNCHO@connect?$AA@ 0047c834     winnet.obj
 0002:0001483c       ??_C@_04NPNJNMMP@bind?$AA@ 0047c83c     winnet.obj
 0002:00014844       ??_C@_0L@CKHNIFCM@setsockopt?$AA@ 0047c844     winnet.obj
 0002:00014850       ??_C@_06HBELJPBO@socket?$AA@ 0047c850     winnet.obj
 0002:00014858       ??_C@_06OODDLKLE@listen?$AA@ 0047c858     winnet.obj
 0002:00014860       ??_C@_04MIIPNNEF@send?$AA@ 0047c860     winnet.obj
 0002:00014868       ??_C@_08FIACBBDA@shutdown?$AA@ 0047c868     winnet.obj
 0002:00014874       ??_C@_0M@PBPOCKDG@ioctlsocket?$AA@ 0047c874     winnet.obj
 0002:00014880       ??_C@_06MPKMECK@accept?$AA@ 0047c880     winnet.obj
 0002:00014888       ??_C@_0M@MBAJPNG@getpeername?$AA@ 0047c888     winnet.obj
 0002:00014894       ??_C@_04IFMDBHHF@recv?$AA@ 0047c894     winnet.obj
 0002:0001489c       ??_C@_08LGAGEKPE@WSAIoctl?$AA@ 0047c89c     winnet.obj
 0002:000148a8       ??_C@_0BN@GHGODND@Unable?5to?5initialise?5WinSock?$AA@ 0047c8a8     winnet.obj
 0002:000148c8       ??_C@_0CB@LEIDGBB@Network?5error?3?5Permission?5denied@ 0047c8c8     winnet.obj
 0002:000148ec       ??_C@_0CG@LOMEHGFM@Network?5error?3?5Address?5already?5i@ 0047c8ec     winnet.obj
 0002:00014914       ??_C@_0CP@HDJDEAEC@Network?5error?3?5Cannot?5assign?5req@ 0047c914     winnet.obj
 0002:00014944       ??_C@_0DP@JGJJHDKC@Network?5error?3?5Address?5family?5no@ 0047c944     winnet.obj
 0002:00014984       ??_C@_0CN@KMKLCFOC@Network?5error?3?5Operation?5already@ 0047c984     winnet.obj
 0002:000149b4       ??_C@_0DA@IKOBCIKC@Network?5error?3?5Software?5caused?5c@ 0047c9b4     winnet.obj
 0002:000149e4       ??_C@_0CC@LLCJMKHD@Network?5error?3?5Connection?5refuse@ 0047c9e4     winnet.obj
 0002:00014a08       ??_C@_0CI@GILKBBEO@Network?5error?3?5Connection?5reset?5@ 0047ca08     winnet.obj
 0002:00014a30       ??_C@_0CM@PENHJLO@Network?5error?3?5Destination?5addre@ 0047ca30     winnet.obj
 0002:00014a5c       ??_C@_0BL@NCHKLIAI@Network?5error?3?5Bad?5address?$AA@ 0047ca5c     winnet.obj
 0002:00014a78       ??_C@_0BM@IAFOJGID@Network?5error?3?5Host?5is?5down?$AA@ 0047ca78     winnet.obj
 0002:00014a94       ??_C@_0CA@NJIIBGPN@Network?5error?3?5No?5route?5to?5host?$AA@ 0047ca94     winnet.obj
 0002:00014ab4       ??_C@_0CJ@PBCDILHG@Network?5error?3?5Operation?5now?5in?5@ 0047cab4     winnet.obj
 0002:00014ae0       ??_C@_0CJ@BJPALIGK@Network?5error?3?5Interrupted?5funct@ 0047cae0     winnet.obj
 0002:00014b0c       ??_C@_0CA@FAPGIABL@Network?5error?3?5Invalid?5argument?$AA@ 0047cb0c     winnet.obj
 0002:00014b2c       ??_C@_0CL@CNIGAACP@Network?5error?3?5Socket?5is?5already@ 0047cb2c     winnet.obj
 0002:00014b58       ??_C@_0CD@LPKFLDLA@Network?5error?3?5Too?5many?5open?5fil@ 0047cb58     winnet.obj
 0002:00014b7c       ??_C@_0CA@PPJKNKCC@Network?5error?3?5Message?5too?5long?$AA@ 0047cb7c     winnet.obj
 0002:00014b9c       ??_C@_0BP@PGLOJAPE@Network?5error?3?5Network?5is?5down?$AA@ 0047cb9c     winnet.obj
 0002:00014bbc       ??_C@_0DD@NLBNMNIN@Network?5error?3?5Network?5dropped?5c@ 0047cbbc     winnet.obj
 0002:00014bf0       ??_C@_0CG@JNGAGLPE@Network?5error?3?5Network?5is?5unreac@ 0047cbf0     winnet.obj
 0002:00014c18       ??_C@_0CJ@KCOJNBBA@Network?5error?3?5No?5buffer?5space?5a@ 0047cc18     winnet.obj
 0002:00014c44       ??_C@_0CD@OGNOEADL@Network?5error?3?5Bad?5protocol?5opti@ 0047cc44     winnet.obj
 0002:00014c68       ??_C@_0CH@FDLGGEDH@Network?5error?3?5Socket?5is?5not?5con@ 0047cc68     winnet.obj
 0002:00014c90       ??_C@_0CO@EGCFOHNE@Network?5error?3?5Socket?5operation?5@ 0047cc90     winnet.obj
 0002:00014cc0       ??_C@_0CH@JLCIHOGJ@Network?5error?3?5Operation?5not?5sup@ 0047ccc0     winnet.obj
 0002:00014ce8       ??_C@_0CN@PBIIOGDK@Network?5error?3?5Protocol?5family?5n@ 0047cce8     winnet.obj
 0002:00014d18       ??_C@_0CC@GPOCLDNA@Network?5error?3?5Too?5many?5processe@ 0047cd18     winnet.obj
 0002:00014d3c       ??_C@_0CG@CIDEMPKB@Network?5error?3?5Protocol?5not?5supp@ 0047cd3c     winnet.obj
 0002:00014d64       ??_C@_0CO@HHKHFFCH@Network?5error?3?5Protocol?5wrong?5ty@ 0047cd64     winnet.obj
 0002:00014d94       ??_C@_0DB@FALABHLP@Network?5error?3?5Cannot?5send?5after@ 0047cd94     winnet.obj
 0002:00014dc8       ??_C@_0CJ@ELCODKEL@Network?5error?3?5Socket?5type?5not?5s@ 0047cdc8     winnet.obj
 0002:00014df4       ??_C@_0CE@OOJFMNCL@Network?5error?3?5Connection?5timed?5@ 0047cdf4     winnet.obj
 0002:00014e18       ??_C@_0DA@MGCLKFJF@Network?5error?3?5Resource?5temporar@ 0047ce18     winnet.obj
 0002:00014e48       ??_C@_0CN@DLPPJFKK@Network?5error?3?5Graceful?5shutdown@ 0047ce48     winnet.obj
 0002:00014e78       ??_C@_0BA@LPIEBGEK@Network?5is?5down?$AA@ 0047ce78     winnet.obj
 0002:00014e88       ??_C@_0BE@OGOKFANL@Host?5does?5not?5exist?$AA@ 0047ce88     winnet.obj
 0002:00014e9c       ??_C@_0P@CAFMJNJH@Host?5not?5found?$AA@ 0047ce9c     winnet.obj
 0002:00014eac       ??_C@_0BN@IECEODIK@gethostbyname?3?5unknown?5error?$AA@ 0047ceac     winnet.obj
 0002:00014ecc       ??_C@_09EEKGDCPH@?$DMunknown?$DO?$AA@ 0047cecc     winnet.obj
 0002:00014ed8       ??_C@_1CI@IHIJOICM@?$AA?4?$AA?4?$AA?2?$AAw?$AAi?$AAn?$AAd?$AAo?$AAw?$AAs?$AA?2?$AAw?$AAi?$AAn?$AAn?$AAe?$AAt?$AA?4?$AAc?$AA?$AA@ 0047ced8     winnet.obj
 0002:00014f00       ??_C@_1GI@PFKEGLFL@?$AAa?$AAd?$AAd?$AAr?$AA?9?$AA?$DO?$AAa?$AAd?$AAd?$AAr?$AAe?$AAs?$AAs?$AAe?$AAs?$AA?5?$AA?$CG?$AA?$CG?$AA?5?$AAs?$AAt?$AAe?$AAp?$AA?4?$AAc?$AAu?$AAr?$AAr?$AAa?$AAd?$AAd?$AAr@ 0047cf00     winnet.obj
 0002:00014f68       ??_C@_03KOIMFPNC@?3?31?$AA@ 0047cf68     winnet.obj
 0002:00014f6c       ??_C@_04NFJNFDMH@127?4?$AA@ 0047cf6c     winnet.obj
 0002:00014f74       ??_C@_1CI@ICIGJHFJ@?$AAf?$AAa?$AAm?$AAi?$AAl?$AAy?$AA?5?$AA?$DN?$AA?$DN?$AA?5?$AAA?$AAF?$AA_?$AAU?$AAN?$AAS?$AAP?$AAE?$AAC?$AA?$AA@ 0047cf74     winnet.obj
 0002:00014f9c       ??_C@_1CI@FHGJHHED@?$AAf?$AAa?$AAm?$AAi?$AAl?$AAy?$AA?5?$AA?$CB?$AA?$DN?$AA?5?$AAA?$AAF?$AA_?$AAU?$AAN?$AAS?$AAP?$AAE?$AAC?$AA?$AA@ 0047cf9c     winnet.obj
 0002:00014fc8       ??_C@_1FK@GDFPDNKP@?$AAf?$AAa?$AAl?$AAs?$AAe?$AA?5?$AA?$CG?$AA?$CG?$AA?5?$AA?$CC?$AAb?$AAa?$AAd?$AA?5?$AAa?$AAd?$AAd?$AAr?$AAe?$AAs?$AAs?$AA?5?$AAf?$AAa?$AAm?$AAi?$AAl?$AAy?$AA?5?$AAi?$AAn?$AA?5@ 0047cfc8     winnet.obj
 0002:00015028       ??_C@_1IM@GJHBFPNE@?$AAs?$AAo?$AAc?$AAk?$AA?9?$AA?$DO?$AAa?$AAd?$AAd?$AAr?$AA?9?$AA?$DO?$AAa?$AAd?$AAd?$AAr?$AAe?$AAs?$AAs?$AAe?$AAs?$AA?5?$AA?$CG?$AA?$CG?$AA?5?$AAs?$AAo?$AAc?$AAk?$AA?9?$AA?$DO?$AAs@ 0047d028     winnet.obj
 0002:000150b4       ??_C@_1DC@KAMAOOE@?$AAs?$AA?9?$AA?$DO?$AAo?$AAu?$AAt?$AAg?$AAo?$AAi?$AAn?$AAg?$AAe?$AAo?$AAf?$AA?5?$AA?$DN?$AA?$DN?$AA?5?$AAE?$AAO?$AAF?$AA_?$AAN?$AAO?$AA?$AA@ 0047d0b4     winnet.obj
 0002:000150e8       ??_C@_1DE@IPMJEMIB@?$AAl?$AAe?$AAn?$AA?5?$AA?$DM?$AA?$DN?$AA?5?$AAs?$AAi?$AAz?$AAe?$AAo?$AAf?$AA?$CI?$AAs?$AA?9?$AA?$DO?$AAo?$AAo?$AAb?$AAd?$AAa?$AAt?$AAa?$AA?$CJ?$AA?$AA@ 0047d0e8     winnet.obj
 0002:0001511c       ??_C@_07OCKAJPEF@?$FL?$CFs?$FN?3?$CFd?$AA@ 0047d11c     winnet.obj
 0002:00015124       ??_C@_0CM@FPGHHHHA@unix?5sockets?5not?5supported?5on?5th@ 0047d124     winnet.obj
 0002:00015150       ??_C@_0N@INAGJMNN@advapi32?4dll?$AA@ 0047d150     winnoise.obj
 0002:00015160       ??_C@_0BF@ILOJAFDL@CryptAcquireContextA?$AA@ 0047d160     winnoise.obj
 0002:00015178       ??_C@_0P@HGPEDCEI@CryptGenRandom?$AA@ 0047d178     winnoise.obj
 0002:00015188       ??_C@_0BE@FBIJLPPP@CryptReleaseContext?$AA@ 0047d188     winnoise.obj
 0002:0001519c       ??_C@_02KHDDNBB@?2?$CK?$AA@ 0047d19c     winnoise.obj
 0002:000151a0       ??_C@_09IPJPBDHI@?2?2?4?2pipe?2?$AA@ 0047d1a0     winnpc.obj
 0002:000151ac       ??_C@_1CI@DAHAJKLC@?$AA?4?$AA?4?$AA?2?$AAw?$AAi?$AAn?$AAd?$AAo?$AAw?$AAs?$AA?2?$AAw?$AAi?$AAn?$AAn?$AAp?$AAc?$AA?4?$AAc?$AA?$AA@ 0047d1ac     winnpc.obj
 0002:000151d8       ??_C@_1FG@PECGFDCI@?$AAs?$AAt?$AAr?$AAn?$AAc?$AAm?$AAp?$AA?$CI?$AAp?$AAi?$AAp?$AAe?$AAn?$AAa?$AAm?$AAe?$AA?0?$AA?5?$AA?$CC?$AA?2?$AA?2?$AA?2?$AA?2?$AA?4?$AA?2?$AA?2?$AAp?$AAi?$AAp?$AAe?$AA?2?$AA?2@ 0047d1d8     winnpc.obj
 0002:00015230       ??_C@_1EG@FEJFELMP@?$AAs?$AAt?$AAr?$AAc?$AAh?$AAr?$AA?$CI?$AAp?$AAi?$AAp?$AAe?$AAn?$AAa?$AAm?$AAe?$AA?5?$AA?$CL?$AA?5?$AA9?$AA?0?$AA?5?$AA?8?$AA?2?$AA?2?$AA?8?$AA?$CJ?$AA?5?$AA?$DN?$AA?$DN?$AA?5?$AAN?$AAU@ 0047d230     winnpc.obj
 0002:00015278       ??_C@_0CD@CMHMINL@Unable?5to?5open?5named?5pipe?5?8?$CFs?8?3?5@ 0047d278     winnpc.obj
 0002:0001529c       ??_C@_0CG@PPGBEKMM@Error?5waiting?5for?5named?5pipe?5?8?$CFs@ 0047d29c     winnpc.obj
 0002:000152c4       ??_C@_0BL@OONAAHCA@Unable?5to?5get?5user?5SID?3?5?$CFs?$AA@ 0047d2c4     winnpc.obj
 0002:000152e0       ??_C@_0DC@JHPCCLDP@Unable?5to?5get?5named?5pipe?5securit@ 0047d2e0     winnpc.obj
 0002:00015314       ??_C@_0CD@FNMFGIEH@Owner?5of?5named?5pipe?5?8?$CFs?8?5is?5not?5@ 0047d314     winnpc.obj
 0002:00015358       ??_C@_0CI@MDKELIDF@Error?5while?5listening?5to?5named?5p@ 0047d358     winnps.obj
 0002:00015380       ??_C@_1CI@EMMLKLJJ@?$AA?4?$AA?4?$AA?2?$AAw?$AAi?$AAn?$AAd?$AAo?$AAw?$AAs?$AA?2?$AAw?$AAi?$AAn?$AAn?$AAp?$AAs?$AA?4?$AAc?$AA?$AA@ 0047d380     winnps.obj
 0002:000153a8       ??_C@_0CF@HOJLDFFN@unable?5to?5create?5named?5pipe?5?8?$CFs?8@ 0047d3a8     winnps.obj
 0002:000153d0       ??_C@_07CMJJJJGA@Pageant?$AA@ 0047d3d0     winpgntc.obj
 0002:000153d8       ??_C@_1CM@KPGPIHDA@?$AA?4?$AA?4?$AA?2?$AAw?$AAi?$AAn?$AAd?$AAo?$AAw?$AAs?$AA?2?$AAw?$AAi?$AAn?$AAp?$AAg?$AAn?$AAt?$AAc?$AA?4?$AAc?$AA?$AA@ 0047d3d8     winpgntc.obj
 0002:00015408       ??_C@_1HC@MPDDHACH@?$AAf?$AAa?$AAl?$AAs?$AAe?$AA?5?$AA?$CG?$AA?$CG?$AA?5?$AA?$CC?$AAW?$AAi?$AAn?$AAd?$AAo?$AAw?$AAs?$AA?5?$AAa?$AAg?$AAe?$AAn?$AAt?$AA?5?$AAq?$AAu?$AAe?$AAr?$AAi?$AAe?$AAs?$AA?5@ 0047d408     winpgntc.obj
 0002:0001547c       ??_C@_0BD@BGFFBEAP@PageantRequest?$CF08x?$AA@ 0047d47c     winpgntc.obj
 0002:00015490       ??_C@_0CB@OINICMIG@Starting?5local?5proxy?5command?3?5?$CFs@ 0047d490     winproxy.obj
 0002:000154b4       ??_C@_0CN@MBDHHPPD@Unable?5to?5create?5pipes?5for?5proxy@ 0047d4b4     winproxy.obj
 0002:000154e8       ??_C@_0BA@JKIAABFB@GetSecurityInfo?$AA@ 0047d4e8     winsecur.obj
 0002:000154f8       ??_C@_0BA@KIJGHDEI@SetSecurityInfo?$AA@ 0047d4f8     winsecur.obj
 0002:00015508       ??_C@_0BB@EANJDCJP@OpenProcessToken?$AA@ 0047d508     winsecur.obj
 0002:0001551c       ??_C@_0BE@JIDLIKOL@GetTokenInformation?$AA@ 0047d51c     winsecur.obj
 0002:00015530       ??_C@_0BN@FNLANPJJ@InitializeSecurityDescriptor?$AA@ 0047d530     winsecur.obj
 0002:00015550       ??_C@_0BL@OJAFMLIK@SetSecurityDescriptorOwner?$AA@ 0047d550     winsecur.obj
 0002:0001556c       ??_C@_0BB@EOLDBOGM@SetEntriesInAclA?$AA@ 0047d56c     winsecur.obj
 0002:00015580       ??_C@_0CN@EBHMOPCB@unable?5to?5construct?5SID?5for?5curr@ 0047d580     winsecur.obj
 0002:000155b0       ??_C@_0CG@PPMBMHK@unable?5to?5construct?5SID?5for?5worl@ 0047d5b0     winsecur.obj
 0002:000155d8       ??_C@_0DM@MHEDGFFC@unable?5to?5construct?5SID?5for?5loca@ 0047d5d8     winsecur.obj
 0002:00015614       ??_C@_0BM@FJHHIKCO@unable?5to?5construct?5ACL?3?5?$CFs?$AA@ 0047d614     winsecur.obj
 0002:00015630       ??_C@_0CL@HPBFGMCA@unable?5to?5allocate?5security?5desc@ 0047d630     winsecur.obj
 0002:0001565c       ??_C@_0CN@FPIOFEA@unable?5to?5initialise?5security?5de@ 0047d65c     winsecur.obj
 0002:0001568c       ??_C@_0CP@KOMIEDBP@unable?5to?5set?5owner?5in?5security?5@ 0047d68c     winsecur.obj
 0002:000156bc       ??_C@_0CO@GJDNLLCE@unable?5to?5set?5DACL?5in?5security?5d@ 0047d6bc     winsecur.obj
 0002:000156ec       ??_C@_0BO@NMCINCCB@Unable?5to?5set?5process?5ACL?3?5?$CFs?$AA@ 0047d6ec     winsecur.obj
 0002:0001570c       ??_C@_0CD@GHBDCPLN@Could?5not?5restrict?5process?5ACL?3?5@ 0047d70c     winsecur.obj
 0002:00015760       _platform_uses_x11_unix_by_default 0047d760     winsftp.obj
 0002:00015764       ??_C@_02FMMEOLBI@?1?$CK?$AA@ 0047d764     winsftp.obj
 0002:00015768       ??_C@_1CK@OLMPLIAB@?$AA?4?$AA?4?$AA?2?$AAw?$AAi?$AAn?$AAd?$AAo?$AAw?$AAs?$AA?2?$AAw?$AAi?$AAn?$AAs?$AAf?$AAt?$AAp?$AA?4?$AAc?$AA?$AA@ 0047d768     winsftp.obj
 0002:00015794       ??_C@_1BE@DKLGFLDL@?$AAd?$AAi?$AAr?$AA?9?$AA?$DO?$AAn?$AAa?$AAm?$AAe?$AA?$AA@ 0047d794     winsftp.obj
 0002:000157a8       ??_C@_0CA@JLPGHJO@WSAEventSelect?$CI?$CJ?3?5unknown?5error?$AA@ 0047d7a8     winsftp.obj
 0002:000157c8       ??_C@_0CH@HHJCNODJ@Unable?5to?5create?5command?5input?5t@ 0047d7c8     winsftp.obj
 0002:000157f0       ??_C@_1BC@GDMHHBPO@?$AAr?$AAe?$AAt?$AA?5?$AA?$DO?$AA?$DN?$AA?5?$AA0?$AA?$AA@ 0047d7f0     winsftp.obj
 0002:00015804       ??_C@_0CE@LJCJKEEJ@Running?5with?5restricted?5process?5@ 0047d804     winsftp.obj
 0002:00015828       ??_C@_08PPKHIAKG@?$CFs?4?$CFs?4?$CFs?$AA@ 0047d828     winshare.obj
 0002:00015834       ??_C@_0CG@PEHOALF@Unable?5to?5call?5CryptProtectMemor@ 0047d834     winshare.obj
 0002:0001585c       ??_C@_0BM@CGGPEGOM@Local?2putty?9connshare?9mutex?$AA@ 0047d85c     winshare.obj
 0002:00015878       ??_C@_0BN@DANGFOPC@CreateMutex?$CI?$CC?$CFs?$CC?$CJ?5failed?3?5?$CFs?$AA@ 0047d878     winshare.obj
 0002:00015898       ??_C@_0BJ@CKODKJFM@?2?2?4?2pipe?2putty?9connshare?$AA@ 0047d898     winshare.obj
 0002:000158b4       ??_C@_06DJHOIPC@?$CFs?3?5?$CFs?$AA@ 0047d8b4     winshare.obj
 0002:000158bc       ??_C@_1CM@GJNGGBIF@?$AA?4?$AA?4?$AA?2?$AAw?$AAi?$AAn?$AAd?$AAo?$AAw?$AAs?$AA?2?$AAw?$AAi?$AAn?$AAs?$AAh?$AAa?$AAr?$AAe?$AA?4?$AAc?$AA?$AA@ 0047d8bc     winshare.obj
 0002:000158e8       ??_C@_1DO@MAMHAGHB@?$AA?$CK?$AAl?$AAo?$AAg?$AAt?$AAe?$AAx?$AAt?$AA?5?$AA?$HM?$AA?$HM?$AA?5?$AA?$CK?$AAd?$AAs?$AA_?$AAe?$AAr?$AAr?$AA?5?$AA?$HM?$AA?$HM?$AA?5?$AA?$CK?$AAu?$AAs?$AA_?$AAe?$AAr?$AAr?$AA?$AA@ 0047d8e8     winshare.obj
 0002:00015934       ??_C@_0CE@BPBAEMAL@Software?2SimonTatham?2PuTTY?2Jumpl@ 0047d934     winstore.obj
 0002:00015958       ??_C@_0BA@LOIOCGKN@Recent?5sessions?$AA@ 0047d958     winstore.obj
 0002:00015968       ??_C@_0CE@GEIJGKHP@Software?2SimonTatham?2PuTTY?2Sessi@ 0047d968     winstore.obj
 0002:0001598c       ??_C@_1CM@MMKABPNK@?$AA?4?$AA?4?$AA?2?$AAw?$AAi?$AAn?$AAd?$AAo?$AAw?$AAs?$AA?2?$AAw?$AAi?$AAn?$AAs?$AAt?$AAo?$AAr?$AAe?$AA?4?$AAc?$AA?$AA@ 0047d98c     winstore.obj
 0002:000159b8       ??_C@_1CC@CDPAJJ@?$AAs?$AAi?$AAz?$AAe?$AA?5?$AA?$DM?$AA?5?$AAa?$AAl?$AAl?$AAo?$AAc?$AAs?$AAi?$AAz?$AAe?$AA?$AA@ 0047d9b8     winstore.obj
 0002:000159dc       ??_C@_06DPJMBPNP@IsBold?$AA@ 0047d9dc     winstore.obj
 0002:000159e4       ??_C@_07BJNLJNDP@CharSet?$AA@ 0047d9e4     winstore.obj
 0002:000159ec       ??_C@_06HCAKHJJK@Height?$AA@ 0047d9ec     winstore.obj
 0002:000159f4       ??_C@_06NHMIPDBF@?$CFs?$EA?$CFd?3?$AA@ 0047d9f4     winstore.obj
 0002:000159fc       ??_C@_0CH@GHHFOOGE@Software?2SimonTatham?2PuTTY?2SshHo@ 0047d9fc     winstore.obj
 0002:00015a24       ??_C@_0BK@HAJEJKBA@Unable?5to?5delete?5?8?$CFs?8?3?5?$CFs?$AA@ 0047da24     winstore.obj
 0002:00015a40       ??_C@_0BL@PHBGIKKP@Software?2SimonTatham?2PuTTY?$AA@ 0047da40     winstore.obj
 0002:00015a5c       ??_C@_0N@KBOBEHLA@RandSeedFile?$AA@ 0047da5c     winstore.obj
 0002:00015a6c       ??_C@_0M@KFDNOLCO@shell32?4dll?$AA@ 0047da6c     winstore.obj
 0002:00015a78       ??_C@_0BB@IHMEONLD@SHGetFolderPathA?$AA@ 0047da78     winstore.obj
 0002:00015a8c       ??_C@_0L@LLJOJGKB@?2PUTTY?4RND?$AA@ 0047da8c     winstore.obj
 0002:00015a98       ??_C@_09OBKBLLMN@HOMEDRIVE?$AA@ 0047da98     winstore.obj
 0002:00015aa4       ??_C@_08LOOGKGJL@HOMEPATH?$AA@ 0047daa4     winstore.obj
 0002:00017514       ??_C@_05EGJIMALK@UTF?98?$AA@ 0047f514     winucs.obj
 0002:0001751c       ??_C@_0CH@GCLBIFGI@ISO?98859?91?31998?5?$CILatin?91?0?5West?5E@ 0047f51c     winucs.obj
 0002:00017544       ??_C@_0CH@HNAOKMGC@ISO?98859?92?31999?5?$CILatin?92?0?5East?5E@ 0047f544     winucs.obj
 0002:0001756c       ??_C@_0CI@HNCBEAHI@ISO?98859?93?31999?5?$CILatin?93?0?5South?5@ 0047f56c     winucs.obj
 0002:00017594       ??_C@_0CI@DHMJKFCL@ISO?98859?94?31998?5?$CILatin?94?0?5North?5@ 0047f594     winucs.obj
 0002:000175bc       ??_C@_0CB@EIJLGCOC@ISO?98859?95?31999?5?$CILatin?1Cyrillic?$CJ@ 0047f5bc     winucs.obj
 0002:000175e0       ??_C@_0BP@BOOIEIFL@ISO?98859?96?31999?5?$CILatin?1Arabic?$CJ?$AA@ 0047f5e0     winucs.obj
 0002:00017600       ??_C@_0BO@JBGDMNCK@ISO?98859?97?31987?5?$CILatin?1Greek?$CJ?$AA@ 0047f600     winucs.obj
 0002:00017620       ??_C@_0BP@NPOBNMII@ISO?98859?98?31999?5?$CILatin?1Hebrew?$CJ?$AA@ 0047f620     winucs.obj
 0002:00017640       ??_C@_0CD@IFELGNKG@ISO?98859?99?31999?5?$CILatin?95?0?5Turkis@ 0047f640     winucs.obj
 0002:00017664       ??_C@_0CD@MDNHJMEF@ISO?98859?910?31998?5?$CILatin?96?0?5Nordi@ 0047f664     winucs.obj
 0002:00017688       ??_C@_0BO@OIMJCDI@ISO?98859?911?32001?5?$CILatin?1Thai?$CJ?$AA@ 0047f688     winucs.obj
 0002:000176a8       ??_C@_0CD@GJBIGPKN@ISO?98859?913?31998?5?$CILatin?97?0?5Balti@ 0047f6a8     winucs.obj
 0002:000176cc       ??_C@_0CD@MFFEDEO@ISO?98859?914?31998?5?$CILatin?98?0?5Celti@ 0047f6cc     winucs.obj
 0002:000176f0       ??_C@_0CD@OONMIJDL@ISO?98859?915?31999?5?$CILatin?99?0?5?$CCeuro@ 0047f6f0     winucs.obj
 0002:00017714       ??_C@_0CE@IJJJJOAH@ISO?98859?916?32001?5?$CILatin?910?0?5Balk@ 0047f714     winucs.obj
 0002:00017738       ??_C@_06ENLECPGP@KOI8?9U?$AA@ 0047f738     winucs.obj
 0002:00017740       ??_C@_06CPFLJKI@KOI8?9R?$AA@ 0047f740     winucs.obj
 0002:00017748       ??_C@_09CFCNBJJK@HP?9ROMAN8?$AA@ 0047f748     winucs.obj
 0002:00017754       ??_C@_05DMAILFHN@VSCII?$AA@ 0047f754     winucs.obj
 0002:0001775c       ??_C@_07BLJAJIMG@DEC?9MCS?$AA@ 0047f75c     winucs.obj
 0002:00017764       ??_C@_0BL@KMKIPHHM@Win1250?5?$CICentral?5European?$CJ?$AA@ 0047f764     winucs.obj
 0002:00017780       ??_C@_0BD@EEPECLHH@Win1251?5?$CICyrillic?$CJ?$AA@ 0047f780     winucs.obj
 0002:00017794       ??_C@_0BC@LECCJAMP@Win1252?5?$CIWestern?$CJ?$AA@ 0047f794     winucs.obj
 0002:000177a8       ??_C@_0BA@JPCABGJB@Win1253?5?$CIGreek?$CJ?$AA@ 0047f7a8     winucs.obj
 0002:000177b8       ??_C@_0BC@DDBPHFON@Win1254?5?$CITurkish?$CJ?$AA@ 0047f7b8     winucs.obj
 0002:000177cc       ??_C@_0BB@BJAFGJCD@Win1255?5?$CIHebrew?$CJ?$AA@ 0047f7cc     winucs.obj
 0002:000177e0       ??_C@_0BB@IKFMOHHB@Win1256?5?$CIArabic?$CJ?$AA@ 0047f7e0     winucs.obj
 0002:000177f4       ??_C@_0BB@MAFFMIPN@Win1257?5?$CIBaltic?$CJ?$AA@ 0047f7f4     winucs.obj
 0002:00017808       ??_C@_0BF@IBMJIMJH@Win1258?5?$CIVietnamese?$CJ?$AA@ 0047f808     winucs.obj
 0002:00017820       ??_C@_05DGIBHNFO@CP437?$AA@ 0047f820     winucs.obj
 0002:00017828       ??_C@_0BA@NPKMFKIE@CP620?5?$CIMazovia?$CJ?$AA@ 0047f828     winucs.obj
 0002:00017838       ??_C@_05OBFADLAG@CP819?$AA@ 0047f838     winucs.obj
 0002:00017840       ??_C@_05FKNEKBB@CP852?$AA@ 0047f840     winucs.obj
 0002:00017848       ??_C@_05PMMGHGPF@CP878?$AA@ 0047f848     winucs.obj
 0002:00017850       ??_C@_0BC@FLJKDPEN@Use?5font?5encoding?$AA@ 0047f850     winucs.obj
 0002:00017868       _x11_authnames             0047f868     x11fwd.obj
 0002:000178e0       ??_C@_0BD@IHNBGCAI@MIT?9MAGIC?9COOKIE?91?$AA@ 0047f8e0     x11fwd.obj
 0002:000178f4       ??_C@_0BE@CHBJIAMK@XDM?9AUTHORIZATION?91?$AA@ 0047f8f4     x11fwd.obj
 0002:00017908       ??_C@_1BI@KBADPDMH@?$AA?4?$AA?4?$AA?2?$AAx?$AA1?$AA1?$AAf?$AAw?$AAd?$AA?4?$AAc?$AA?$AA@ 0047f908     x11fwd.obj
 0002:00017920       ??_C@_1CI@DCFBGJCA@?$AAa?$AAu?$AAt?$AAh?$AAt?$AAy?$AAp?$AAe?$AA?5?$AA?$DN?$AA?$DN?$AA?5?$AAX?$AA1?$AA1?$AA_?$AAX?$AAD?$AAM?$AA?$AA@ 0047f920     x11fwd.obj
 0002:00017948       ??_C@_1CI@BFINFJOD@?$AAa?$AA?9?$AA?$DO?$AAp?$AAr?$AAo?$AAt?$AAo?$AA?5?$AA?$DN?$AA?$DN?$AA?5?$AAX?$AA1?$AA1?$AA_?$AAX?$AAD?$AAM?$AA?$AA@ 0047f948     x11fwd.obj
 0002:00017970       ??_C@_02PGAEHAFI@?30?$AA@  0047f970     x11fwd.obj
 0002:00017974       ??_C@_0CK@LINIAGGK@display?5name?5?8?$CFs?8?5has?5no?5?8?3numbe@ 0047f974     x11fwd.obj
 0002:000179a0       ??_C@_04HDPGOEDM@unix?$AA@ 0047f9a0     x11fwd.obj
 0002:000179a8       ??_C@_0DB@JHLJDNPL@unable?5to?5resolve?5host?5name?5?8?$CFs?8@ 0047f9a8     x11fwd.obj
 0002:000179dc       ??_C@_07ODDMEPCL@unix?3?$CFd?$AA@ 0047f9dc     x11fwd.obj
 0002:000179e4       ??_C@_0CD@BKLLCBAA@Unsupported?5authorisation?5protoc@ 0047f9e4     x11fwd.obj
 0002:00017a08       ??_C@_0BN@IIEOAEDE@Authorisation?5not?5recognised?$AA@ 0047fa08     x11fwd.obj
 0002:00017a28       ??_C@_0CK@HFGIDIOE@XDM?9AUTHORIZATION?91?5data?5was?5wro@ 0047fa28     x11fwd.obj
 0002:00017a54       ??_C@_0DK@FKIJBPCP@cannot?5do?5XDM?9AUTHORIZATION?91?5wi@ 0047fa54     x11fwd.obj
 0002:00017a90       ??_C@_0CG@CMMOMN@XDM?9AUTHORIZATION?91?5data?5failed?5@ 0047fa90     x11fwd.obj
 0002:00017ab8       ??_C@_0CP@KPOKENFM@XDM?9AUTHORIZATION?91?5time?5stamp?5w@ 0047fab8     x11fwd.obj
 0002:00017ae8       ??_C@_1CM@MJOKCDEK@?$AAa?$AAu?$AAt?$AAh?$AA?9?$AA?$DO?$AAx?$AAd?$AAm?$AAs?$AAe?$AAe?$AAn?$AA?5?$AA?$CB?$AA?$DN?$AA?5?$AAN?$AAU?$AAL?$AAL?$AA?$AA@ 0047fae8     x11fwd.obj
 0002:00017b14       ??_C@_0CC@JBPDCLHH@XDM?9AUTHORIZATION?91?5data?5replaye@ 0047fb14     x11fwd.obj
 0002:00017b38       ??_C@_1BK@JIHFHIDO@?$AAs?$AAe?$AAe?$AAn?$AA?5?$AA?$CB?$AA?$DN?$AA?5?$AAN?$AAU?$AAL?$AAL?$AA?$AA@ 0047fb38     x11fwd.obj
 0002:00017b54       ??_C@_0CM@ILADKGBF@unable?5to?5connect?5to?5forwarded?5X@ 0047fb54     x11fwd.obj
 0002:00017b80       ??_C@_1EK@KMPCGPME@?$AAc?$AAh?$AAa?$AAn?$AA?9?$AA?$DO?$AAv?$AAt?$AA?5?$AA?$DN?$AA?$DN?$AA?5?$AA?$CG?$AAX?$AA1?$AA1?$AAC?$AAo?$AAn?$AAn?$AAe?$AAc?$AAt?$AAi?$AAo?$AAn?$AA_?$AAc?$AAh?$AAa?$AAn?$AAn@ 0047fb80     x11fwd.obj
 0002:00017bcc       ??_C@_0BC@GCMLFJHE@?$CFs?5X11?5proxy?3?5?$CFs?6?$AA@ 0047fbcc     x11fwd.obj
 0002:00017be0       ??_C@_0M@PCENNPGA@?$CFd?4?$CFd?4?$CFd?4?$CFd?$AA@ 0047fbe0     x11fwd.obj
 0002:00017bec       ??_C@_1BE@LAIMKCCM@?$AA?$CB?$AAx?$AAc?$AAo?$AAn?$AAn?$AA?9?$AA?$DO?$AAs?$AA?$AA@ 0047fbec     x11fwd.obj
 0002:00017c00       ??_C@_1BK@HHMJHHC@?$AAa?$AAu?$AAt?$AAh?$AA_?$AAm?$AAa?$AAt?$AAc?$AAh?$AAe?$AAd?$AA?$AA@ 0047fc00     x11fwd.obj
 0002:00017c1c       ??_C@_0CE@LIFBFNHP@Forwarded?5X11?5connection?5termina@ 0047fc1c     x11fwd.obj
 0002:00017c40       ??_C@_02NJNOFBBI@?$CFx?$AA@ 0047fc40     x11fwd.obj
 0002:00017c5c       ??_C@_1BC@DNHGCMLG@?$AAa?$AAd?$AAv?$AAa?$AAp?$AAi?$AA3?$AA2?$AA?$AA@ 0047fc5c     libvcruntime:winapi_downlevel.obj
 0002:00017c70       ??_C@_1DM@KHCHBNEB@?$AAa?$AAp?$AAi?$AA?9?$AAm?$AAs?$AA?9?$AAw?$AAi?$AAn?$AA?9?$AAc?$AAo?$AAr?$AAe?$AA?9?$AAf?$AAi?$AAb?$AAe?$AAr?$AAs?$AA?9?$AAl?$AA1?$AA?9?$AA1?$AA?9?$AA1?$AA?$AA@ 0047fc70     libvcruntime:winapi_downlevel.obj
 0002:00017cac       ??_C@_1DK@LPPGFMPP@?$AAa?$AAp?$AAi?$AA?9?$AAm?$AAs?$AA?9?$AAw?$AAi?$AAn?$AA?9?$AAc?$AAo?$AAr?$AAe?$AA?9?$AAs?$AAy?$AAn?$AAc?$AAh?$AA?9?$AAl?$AA1?$AA?9?$AA2?$AA?9?$AA0?$AA?$AA@ 0047fcac     libvcruntime:winapi_downlevel.obj
 0002:00017ce8       ??_C@_1BC@GDMECMAK@?$AAk?$AAe?$AAr?$AAn?$AAe?$AAl?$AA3?$AA2?$AA?$AA@ 0047fce8     libvcruntime:winapi_downlevel.obj
 0002:00017d04       ??_C@_08KNHFBNJ@FlsAlloc?$AA@ 0047fd04     libvcruntime:winapi_downlevel.obj
 0002:00017d18       ??_C@_07PEJMOBNF@FlsFree?$AA@ 0047fd18     libvcruntime:winapi_downlevel.obj
 0002:00017d20       ??_C@_0M@GDNOONDI@FlsGetValue?$AA@ 0047fd20     libvcruntime:winapi_downlevel.obj
 0002:00017d34       ??_C@_0M@JCPCPOEF@FlsSetValue?$AA@ 0047fd34     libvcruntime:winapi_downlevel.obj
 0002:00017d48       ??_C@_0BM@HCFOFFN@InitializeCriticalSectionEx?$AA@ 0047fd48     libvcruntime:winapi_downlevel.obj
 0002:00017ef8       ??_C@_08EHJDFFNH@__based?$CI?$AA@ 0047fef8     libvcruntime:undname.obj
 0002:00017f04       ??_C@_07KOLFKCDI@__cdecl?$AA@ 0047ff04     libvcruntime:undname.obj
 0002:00017f0c       ??_C@_08GHMPAG@__pascal?$AA@ 0047ff0c     libvcruntime:undname.obj
 0002:00017f18       ??_C@_09IFJBGAPI@__stdcall?$AA@ 0047ff18     libvcruntime:undname.obj
 0002:00017f24       ??_C@_0L@NPHFGOKO@__thiscall?$AA@ 0047ff24     libvcruntime:undname.obj
 0002:00017f30       ??_C@_0L@JMKHOMEK@__fastcall?$AA@ 0047ff30     libvcruntime:undname.obj
 0002:00017f3c       ??_C@_0N@BCKKPABJ@__vectorcall?$AA@ 0047ff3c     libvcruntime:undname.obj
 0002:00017f4c       ??_C@_09HIJEGCPM@__clrcall?$AA@ 0047ff4c     libvcruntime:undname.obj
 0002:00017f58       ??_C@_06GHPCKEAG@__eabi?$AA@ 0047ff58     libvcruntime:undname.obj
 0002:00017f60       ??_C@_07JOMMBBKO@__ptr64?$AA@ 0047ff60     libvcruntime:undname.obj
 0002:00017f68       ??_C@_0L@PILCLIHE@__restrict?$AA@ 0047ff68     libvcruntime:undname.obj
 0002:00017f74       ??_C@_0M@GFIIJFMG@__unaligned?$AA@ 0047ff74     libvcruntime:undname.obj
 0002:00017f80       ??_C@_09DHDLOLLB@restrict?$CI?$AA@ 0047ff80     libvcruntime:undname.obj
 0002:00017f8c       ??_C@_04NIHEBCM@?5new?$AA@ 0047ff8c     libvcruntime:undname.obj
 0002:00017f94       ??_C@_07FPCDHGMM@?5delete?$AA@ 0047ff94     libvcruntime:undname.obj
 0002:00017f9c       ??_C@_01NEMOKFLO@?$DN?$AA@ 0047ff9c     libvcruntime:undname.obj
 0002:00017fa0       ??_C@_02GPIOPFAK@?$DO?$DO?$AA@ 0047ffa0     libvcruntime:undname.obj
 0002:00017fa4       ??_C@_02FODMEDOG@?$DM?$DM?$AA@ 0047ffa4     libvcruntime:undname.obj
 0002:00017fa8       ??_C@_02EGOFBIJA@?$DN?$DN?$AA@ 0047ffa8     libvcruntime:undname.obj
 0002:00017fac       ??_C@_02FDNJECIE@?$CB?$DN?$AA@ 0047ffac     libvcruntime:undname.obj
 0002:00017fb0       ??_C@_02GPECMEKF@?$FL?$FN?$AA@ 0047ffb0     libvcruntime:undname.obj
 0002:00017fb4       ??_C@_08LHJFAFGD@operator?$AA@ 0047ffb4     libvcruntime:undname.obj
 0002:00017fc0       ??_C@_02HBOOOICD@?9?$DO?$AA@ 0047ffc0     libvcruntime:undname.obj
 0002:00017fc4       ??_C@_01NBENCBCI@?$CK?$AA@ 0047ffc4     libvcruntime:undname.obj
 0002:00017fc8       ??_C@_02ECNGHCIF@?$CL?$CL?$AA@ 0047ffc8     libvcruntime:undname.obj
 0002:00017fcc       ??_C@_01HNPIGOCE@?$CG?$AA@ 0047ffcc     libvcruntime:undname.obj
 0002:00017fd0       ??_C@_03MNHNFDLC@?9?$DO?$CK?$AA@ 0047ffd0     libvcruntime:undname.obj
 0002:00017fd4       ??_C@_01FGNFDNOH@?$CF?$AA@ 0047ffd4     libvcruntime:undname.obj
 0002:00017fd8       ??_C@_01MNNFJEPP@?$DM?$AA@ 0047ffd8     libvcruntime:undname.obj
 0002:00017fdc       ??_C@_02EHCHHCKH@?$DM?$DN?$AA@ 0047ffdc     libvcruntime:undname.obj
 0002:00017fe0       ??_C@_01PPODPGHN@?$DO?$AA@ 0047ffe0     libvcruntime:undname.obj
 0002:00017fe4       ??_C@_02EEKDKGMJ@?$DO?$DN?$AA@ 0047ffe4     libvcruntime:undname.obj
 0002:00017fe8       ??_C@_02HCKGKOFO@?$CI?$CJ?$AA@ 0047ffe8     libvcruntime:undname.obj
 0002:00017fec       ??_C@_01PJKLJHI@?$HO?$AA@  0047ffec     libvcruntime:undname.obj
 0002:00017ff0       ??_C@_01JKBOJNNK@?$FO?$AA@ 0047fff0     libvcruntime:undname.obj
 0002:00017ff4       ??_C@_01DNKMNLPK@?$HM?$AA@ 0047fff4     libvcruntime:undname.obj
 0002:00017ff8       ??_C@_02PPKAJPJL@?$CG?$CG?$AA@ 0047fff8     libvcruntime:undname.obj
 0002:00017ffc       ??_C@_02NONPIBCD@?$HM?$HM?$AA@ 0047fffc     libvcruntime:undname.obj
 0002:00018000       ??_C@_02FPIMKNGF@?$CK?$DN?$AA@ 00480000     libvcruntime:undname.obj
 0002:00018004       ??_C@_02FOEOMHFC@?$CL?$DN?$AA@ 00480004     libvcruntime:undname.obj
 0002:00018008       ??_C@_02FKMDLLOA@?9?$DN?$AA@ 00480008     libvcruntime:undname.obj
 0002:0001800c       ??_C@_02FJEHGPIO@?1?$DN?$AA@ 0048000c     libvcruntime:undname.obj
 0002:00018010       ??_C@_02FENAOKFI@?$CF?$DN?$AA@ 00480010     libvcruntime:undname.obj
 0002:00018014       ??_C@_03IKFCCPFF@?$DO?$DO?$DN?$AA@ 00480014     libvcruntime:undname.obj
 0002:00018018       ??_C@_03CDNPDDLA@?$DM?$DM?$DN?$AA@ 00480018     libvcruntime:undname.obj
 0002:0001801c       ??_C@_02FGJGFEAB@?$CG?$DN?$AA@ 0048001c     libvcruntime:undname.obj
 0002:00018020       ??_C@_02DHLNPPGH@?$HM?$DN?$AA@ 00480020     libvcruntime:undname.obj
 0002:00018024       ??_C@_02MHEGNOJ@?$FO?$DN?$AA@ 00480024     libvcruntime:undname.obj
 0002:00018028       ??_C@_09IFPLHPGF@?$GAvftable?8?$AA@ 00480028     libvcruntime:undname.obj
 0002:00018034       ??_C@_09BLBHBJP@?$GAvbtable?8?$AA@ 00480034     libvcruntime:undname.obj
 0002:00018040       ??_C@_07FEEIOKP@?$GAvcall?8?$AA@ 00480040     libvcruntime:undname.obj
 0002:00018048       ??_C@_08LLFFHHDJ@?$GAtypeof?8?$AA@ 00480048     libvcruntime:undname.obj
 0002:00018054       ??_C@_0BF@KDPPACIK@?$GAlocal?5static?5guard?8?$AA@ 00480054     libvcruntime:undname.obj
 0002:0001806c       ??_C@_08OBABFOLI@?$GAstring?8?$AA@ 0048006c     libvcruntime:undname.obj
 0002:00018078       ??_C@_0BD@JDLKDPAB@?$GAvbase?5destructor?8?$AA@ 00480078     libvcruntime:undname.obj
 0002:0001808c       ??_C@_0BN@DEGPLNFK@?$GAvector?5deleting?5destructor?8?$AA@ 0048008c     libvcruntime:undname.obj
 0002:000180ac       ??_C@_0BO@OBMKPJIG@?$GAdefault?5constructor?5closure?8?$AA@ 004800ac     libvcruntime:undname.obj
 0002:000180cc       ??_C@_0BN@IMDCHIKM@?$GAscalar?5deleting?5destructor?8?$AA@ 004800cc     libvcruntime:undname.obj
 0002:000180ec       ??_C@_0BO@PFGOCPJJ@?$GAvector?5constructor?5iterator?8?$AA@ 004800ec     libvcruntime:undname.obj
 0002:0001810c       ??_C@_0BN@LFPFMEDL@?$GAvector?5destructor?5iterator?8?$AA@ 0048010c     libvcruntime:undname.obj
 0002:0001812c       ??_C@_0CE@IKBNEHA@?$GAvector?5vbase?5constructor?5iterat@ 0048012c     libvcruntime:undname.obj
 0002:00018150       ??_C@_0BL@NILFHHPC@?$GAvirtual?5displacement?5map?8?$AA@ 00480150     libvcruntime:undname.obj
 0002:0001816c       ??_C@_0CB@JONCMFFK@?$GAeh?5vector?5constructor?5iterator?8@ 0048016c     libvcruntime:undname.obj
 0002:00018190       ??_C@_0CA@GCEOPDGL@?$GAeh?5vector?5destructor?5iterator?8?$AA@ 00480190     libvcruntime:undname.obj
 0002:000181b0       ??_C@_0CH@OOJPLCPH@?$GAeh?5vector?5vbase?5constructor?5ite@ 004801b0     libvcruntime:undname.obj
 0002:000181d8       ??_C@_0BL@LLKPOHJI@?$GAcopy?5constructor?5closure?8?$AA@ 004801d8     libvcruntime:undname.obj
 0002:000181f4       ??_C@_0BA@KBCDOMBN@?$GAudt?5returning?8?$AA@ 004801f4     libvcruntime:undname.obj
 0002:00018204       ??_C@_03KLGMFNMG@?$GAEH?$AA@ 00480204     libvcruntime:undname.obj
 0002:00018208       ??_C@_05KHLCHHI@?$GARTTI?$AA@ 00480208     libvcruntime:undname.obj
 0002:00018210       ??_C@_0BA@KKLDJDLB@?$GAlocal?5vftable?8?$AA@ 00480210     libvcruntime:undname.obj
 0002:00018220       ??_C@_0CE@IIHCMGGL@?$GAlocal?5vftable?5constructor?5closu@ 00480220     libvcruntime:undname.obj
 0002:00018244       ??_C@_06FHBGPFGH@?5new?$FL?$FN?$AA@ 00480244     libvcruntime:undname.obj
 0002:0001824c       ??_C@_09LBNFPBCA@?5delete?$FL?$FN?$AA@ 0048024c     libvcruntime:undname.obj
 0002:00018258       ??_C@_0P@HJKNJFNN@?$GAomni?5callsig?8?$AA@ 00480258     libvcruntime:undname.obj
 0002:00018268       ??_C@_0BL@CNOONJFP@?$GAplacement?5delete?5closure?8?$AA@ 00480268     libvcruntime:undname.obj
 0002:00018284       ??_C@_0BN@CKNJLHMB@?$GAplacement?5delete?$FL?$FN?5closure?8?$AA@ 00480284     libvcruntime:undname.obj
 0002:000182a4       ??_C@_0CG@CFDHKGGD@?$GAmanaged?5vector?5constructor?5iter@ 004802a4     libvcruntime:undname.obj
 0002:000182cc       ??_C@_0CF@IMGKMJNO@?$GAmanaged?5vector?5destructor?5itera@ 004802cc     libvcruntime:undname.obj
 0002:000182f4       ??_C@_0CG@HLDDJMAG@?$GAeh?5vector?5copy?5constructor?5iter@ 004802f4     libvcruntime:undname.obj
 0002:0001831c       ??_C@_0CM@FCBBDIGB@?$GAeh?5vector?5vbase?5copy?5constructo@ 0048031c     libvcruntime:undname.obj
 0002:00018348       ??_C@_0BL@CLIPGLGB@?$GAdynamic?5initializer?5for?5?8?$AA@ 00480348     libvcruntime:undname.obj
 0002:00018364       ??_C@_0CB@PDBIFEP@?$GAdynamic?5atexit?5destructor?5for?5?8@ 00480364     libvcruntime:undname.obj
 0002:00018388       ??_C@_0CD@CGAJBKEJ@?$GAvector?5copy?5constructor?5iterato@ 00480388     libvcruntime:undname.obj
 0002:000183ac       ??_C@_0CJ@GJELGAMM@?$GAvector?5vbase?5copy?5constructor?5i@ 004803ac     libvcruntime:undname.obj
 0002:000183d8       ??_C@_0CL@FGIJHLCE@?$GAmanaged?5vector?5copy?5constructor@ 004803d8     libvcruntime:undname.obj
 0002:00018404       ??_C@_0BM@PMGGMLDN@?$GAlocal?5static?5thread?5guard?8?$AA@ 00480404     libvcruntime:undname.obj
 0002:00018420       ??_C@_0N@BDNMDMOL@operator?5?$CC?$CC?5?$AA@ 00480420     libvcruntime:undname.obj
 0002:00018430       ??_C@_0BC@DAFEJGAK@?5Type?5Descriptor?8?$AA@ 00480430     libvcruntime:undname.obj
 0002:00018444       ??_C@_0BM@LDKODKLH@?5Base?5Class?5Descriptor?5at?5?$CI?$AA@ 00480444     libvcruntime:undname.obj
 0002:00018460       ??_C@_0BD@LGICGFMM@?5Base?5Class?5Array?8?$AA@ 00480460     libvcruntime:undname.obj
 0002:00018474       ??_C@_0BN@MECKDCOJ@?5Class?5Hierarchy?5Descriptor?8?$AA@ 00480474     libvcruntime:undname.obj
 0002:00018494       ??_C@_0BK@CFCOFLF@?5Complete?5Object?5Locator?8?$AA@ 00480494     libvcruntime:undname.obj
 0002:000184b0       ??_C@_1EK@MBDPDCGA@?$AAM?$AAi?$AAc?$AAr?$AAo?$AAs?$AAo?$AAf?$AAt?$AA?5?$AAV?$AAi?$AAs?$AAu?$AAa?$AAl?$AA?5?$AAC?$AA?$CL?$AA?$CL?$AA?5?$AAR?$AAu?$AAn?$AAt?$AAi?$AAm?$AAe?$AA?5?$AAL?$AAi?$AAb@ 004804b0     libucrt:assert.obj
 0002:00018500       ??_C@_1FE@LHBLIKM@?$AAA?$AAs?$AAs?$AAe?$AAr?$AAt?$AAi?$AAo?$AAn?$AA?5?$AAf?$AAa?$AAi?$AAl?$AAe?$AAd?$AA?3?$AA?5?$AA?$CF?$AAT?$AAs?$AA?0?$AA?5?$AAf?$AAi?$AAl?$AAe?$AA?5?$AA?$CF?$AAT?$AAs?$AA?0@ 00480500     libucrt:assert.obj
 0002:00018554       ??_C@_1CE@OJBNHDMO@?$AAA?$AAs?$AAs?$AAe?$AAr?$AAt?$AAi?$AAo?$AAn?$AA?5?$AAf?$AAa?$AAi?$AAl?$AAe?$AAd?$AA?$CB?$AA?$AA@ 00480554     libucrt:assert.obj
 0002:00018578       ??_C@_1BE@PHKBBGE@?$AAP?$AAr?$AAo?$AAg?$AAr?$AAa?$AAm?$AA?3?$AA?5?$AA?$AA@ 00480578     libucrt:assert.obj
 0002:0001858c       ??_C@_1O@HEMHKNDC@?$AAF?$AAi?$AAl?$AAe?$AA?3?$AA?5?$AA?$AA@ 0048058c     libucrt:assert.obj
 0002:0001859c       ??_C@_1O@KCAFKHJE@?$AAL?$AAi?$AAn?$AAe?$AA?3?$AA?5?$AA?$AA@ 0048059c     libucrt:assert.obj
 0002:000185ac       ??_C@_1BK@PEDCIPMA@?$AAE?$AAx?$AAp?$AAr?$AAe?$AAs?$AAs?$AAi?$AAo?$AAn?$AA?3?$AA?5?$AA?$AA@ 004805ac     libucrt:assert.obj
 0002:000185c8       ??_C@_1OA@EGMLFBHJ@?$AAF?$AAo?$AAr?$AA?5?$AAi?$AAn?$AAf?$AAo?$AAr?$AAm?$AAa?$AAt?$AAi?$AAo?$AAn?$AA?5?$AAo?$AAn?$AA?5?$AAh?$AAo?$AAw?$AA?5?$AAy?$AAo?$AAu?$AAr?$AA?5?$AAp?$AAr?$AAo?$AAg@ 004805c8     libucrt:assert.obj
 0002:000186a8       ??_C@_1HK@POCJMFGK@?$AA?$CI?$AAP?$AAr?$AAe?$AAs?$AAs?$AA?5?$AAR?$AAe?$AAt?$AAr?$AAy?$AA?5?$AAt?$AAo?$AA?5?$AAd?$AAe?$AAb?$AAu?$AAg?$AA?5?$AAt?$AAh?$AAe?$AA?5?$AAa?$AAp?$AAp?$AAl?$AAi?$AAc@ 004806a8     libucrt:assert.obj
 0002:00018724       ??_C@_17LGKOMLJ@?$AA?4?$AA?4?$AA?4?$AA?$AA@ 00480724     libucrt:assert.obj
 0002:0001872c       ??_C@_13LBAGMAIH@?$AA?6?$AA?$AA@ 0048072c     libucrt:assert.obj
 0002:00018730       ??_C@_15IABLJNFO@?$AA?6?$AA?6?$AA?$AA@ 00480730     libucrt:assert.obj
 0002:00018738       ??_C@_1CO@EAEJAADC@?$AA?$DM?$AAp?$AAr?$AAo?$AAg?$AAr?$AAa?$AAm?$AA?5?$AAn?$AAa?$AAm?$AAe?$AA?5?$AAu?$AAn?$AAk?$AAn?$AAo?$AAw?$AAn?$AA?$DO?$AA?$AA@ 00480738     libucrt:assert.obj
 0002:00018768       _standard_lookup_table     00480768     libucrt:output.obj
 0002:000187c4       ??_C@_06OJHGLDPL@?$CInull?$CJ?$AA@ 004807c4     libucrt:output.obj
 0002:000187cc       ??_C@_1O@CEDCILHN@?$AA?$CI?$AAn?$AAu?$AAl?$AAl?$AA?$CJ?$AA?$AA@ 004807cc     libucrt:output.obj
 0002:000187e0       ?large_power_data@?1??multiply_by_power_of_ten@__crt_strtox@@YA_NAAUbig_integer@2@I@Z@4QBIB 004807e0     libucrt:input.obj
 0002:000190e8       ?large_power_indices@?1??multiply_by_power_of_ten@__crt_strtox@@YA_NAAUbig_integer@2@I@Z@4QBUunpack_index@?1??12@YA_N0I@Z@B 004810e8     libucrt:input.obj
 0002:00019180       ?small_powers_of_ten@?6??multiply_by_power_of_ten@__crt_strtox@@YA_NAAUbig_integer@2@I@Z@4QBIB 00481180     libucrt:input.obj
 0002:000191a8       ??_C@_1GE@DPGDJKLM@?$AAm?$AAi?$AAn?$AAk?$AAe?$AAr?$AAn?$AAe?$AAl?$AA?2?$AAc?$AAr?$AAt?$AAs?$AA?2?$AAu?$AAc?$AAr?$AAt?$AA?2?$AAi?$AAn?$AAc?$AA?2?$AAc?$AAo?$AAr?$AAe?$AAc?$AAr?$AAt?$AA_@ 004811a8     libucrt:input.obj
 0002:00019210       ??_C@_1FM@FELNCOBF@?$AA_?$AA_?$AAc?$AAr?$AAt?$AA_?$AAs?$AAt?$AAr?$AAt?$AAo?$AAx?$AA?3?$AA?3?$AAf?$AAl?$AAo?$AAa?$AAt?$AAi?$AAn?$AAg?$AA_?$AAp?$AAo?$AAi?$AAn?$AAt?$AA_?$AAv?$AAa?$AAl@ 00481210     libucrt:input.obj
 0002:0001926c       ??_C@_1BG@GEMHBGAF@?$AA_?$AAi?$AAs?$AA_?$AAd?$AAo?$AAu?$AAb?$AAl?$AAe?$AA?$AA@ 0048126c     libucrt:input.obj
 0002:00019288       ??_C@_1FK@JOJELFFO@?$AA_?$AA_?$AAc?$AAr?$AAt?$AA_?$AAs?$AAt?$AAr?$AAt?$AAo?$AAx?$AA?3?$AA?3?$AAf?$AAl?$AAo?$AAa?$AAt?$AAi?$AAn?$AAg?$AA_?$AAp?$AAo?$AAi?$AAn?$AAt?$AA_?$AAv?$AAa?$AAl@ 00481288     libucrt:input.obj
 0002:000192e4       ??_C@_1BI@BANMPGJI@?$AA?$CB?$AA_?$AAi?$AAs?$AA_?$AAd?$AAo?$AAu?$AAb?$AAl?$AAe?$AA?$AA@ 004812e4     libucrt:input.obj
 0002:00019300       ?constraints@?1??is_length_valid@__crt_stdio_input@@YA_NW4conversion_mode@2@W4length_modifier@2@@Z@4QAY0M@$$CBEA 00481300     libucrt:input.obj
 0002:00019378       ?inf_uppercase@?2???$parse_floating_point_possible_infinity@DV?$input_adapter_character_source@V?$string_input_adapter@D@__crt_stdio_input@@@__crt_strtox@@_K@__crt_strtox@@YA?AW4floating_point_parse_result@1@AADAAV?$input_adapter_character_source@V?$string_input_adapter@D@__crt_stdio_input@@@1@_K@Z@4QBDB 00481378     libucrt:input.obj
 0002:0001937c       ?inf_lowercase@?2???$parse_floating_point_possible_infinity@DV?$input_adapter_character_source@V?$string_input_adapter@D@__crt_stdio_input@@@__crt_strtox@@_K@__crt_strtox@@YA?AW4floating_point_parse_result@1@AADAAV?$input_adapter_character_source@V?$string_input_adapter@D@__crt_stdio_input@@@1@_K@Z@4QBDB 0048137c     libucrt:input.obj
 0002:00019380       ?inity_uppercase@?5???$parse_floating_point_possible_infinity@DV?$input_adapter_character_source@V?$string_input_adapter@D@__crt_stdio_input@@@__crt_strtox@@_K@__crt_strtox@@YA?AW4floating_point_parse_result@1@AADAAV?$input_adapter_character_source@V?$string_input_adapter@D@__crt_stdio_input@@@1@_K@Z@4QBDB 00481380     libucrt:input.obj
 0002:00019388       ?inity_lowercase@?5???$parse_floating_point_possible_infinity@DV?$input_adapter_character_source@V?$string_input_adapter@D@__crt_stdio_input@@@__crt_strtox@@_K@__crt_strtox@@YA?AW4floating_point_parse_result@1@AADAAV?$input_adapter_character_source@V?$string_input_adapter@D@__crt_stdio_input@@@1@_K@Z@4QBDB 00481388     libucrt:input.obj
 0002:00019390       ?uppercase@?2???$parse_floating_point_possible_nan@DV?$input_adapter_character_source@V?$string_input_adapter@D@__crt_stdio_input@@@__crt_strtox@@_K@__crt_strtox@@YA?AW4floating_point_parse_result@1@AADAAV?$input_adapter_character_source@V?$string_input_adapter@D@__crt_stdio_input@@@1@_K@Z@4QBDB 00481390     libucrt:input.obj
 0002:00019394       ?lowercase@?2???$parse_floating_point_possible_nan@DV?$input_adapter_character_source@V?$string_input_adapter@D@__crt_stdio_input@@@__crt_strtox@@_K@__crt_strtox@@YA?AW4floating_point_parse_result@1@AADAAV?$input_adapter_character_source@V?$string_input_adapter@D@__crt_stdio_input@@@1@_K@Z@4QBDB 00481394     libucrt:input.obj
 0002:00019398       ?uppercase@?1???$parse_floating_point_possible_nan_is_snan@DV?$input_adapter_character_source@V?$string_input_adapter@D@__crt_stdio_input@@@__crt_strtox@@@__crt_strtox@@YA_NAADAAV?$input_adapter_character_source@V?$string_input_adapter@D@__crt_stdio_input@@@1@@Z@4QBDB 00481398     libucrt:input.obj
 0002:000193a0       ?lowercase@?1???$parse_floating_point_possible_nan_is_snan@DV?$input_adapter_character_source@V?$string_input_adapter@D@__crt_stdio_input@@@__crt_strtox@@@__crt_strtox@@YA_NAADAAV?$input_adapter_character_source@V?$string_input_adapter@D@__crt_stdio_input@@@1@@Z@4QBDB 004813a0     libucrt:input.obj
 0002:000193a8       ?uppercase@?1???$parse_floating_point_possible_nan_is_ind@DV?$input_adapter_character_source@V?$string_input_adapter@D@__crt_stdio_input@@@__crt_strtox@@@__crt_strtox@@YA_NAADAAV?$input_adapter_character_source@V?$string_input_adapter@D@__crt_stdio_input@@@1@@Z@4QBDB 004813a8     libucrt:input.obj
 0002:000193ac       ?lowercase@?1???$parse_floating_point_possible_nan_is_ind@DV?$input_adapter_character_source@V?$string_input_adapter@D@__crt_stdio_input@@@__crt_strtox@@@__crt_strtox@@YA_NAADAAV?$input_adapter_character_source@V?$string_input_adapter@D@__crt_stdio_input@@@1@@Z@4QBDB 004813ac     libucrt:input.obj
 0002:000193b0       ??_C@_13CGOKJPIL@?$AA?1?$AA?$AA@ 004813b0     libucrt:exit.obj
 0002:000193b4       ??_C@_1BI@BGOHAHKC@?$AAm?$AAs?$AAc?$AAo?$AAr?$AAe?$AAe?$AA?4?$AAd?$AAl?$AAl?$AA?$AA@ 004813b4     libucrt:exit.obj
 0002:000193cc       ??_C@_0P@MIGLKIOC@CorExitProcess?$AA@ 004813cc     libucrt:exit.obj
 0002:000193f0       ___acrt_exception_action_table 004813f0     libucrt:exception_filter.obj
 0002:00019480       ___acrt_signal_action_table_count 00481480     libucrt:exception_filter.obj
 0002:00019484       ___acrt_signal_action_first_fpe_index 00481484     libucrt:exception_filter.obj
 0002:00019488       ___acrt_signal_action_fpe_count 00481488     libucrt:exception_filter.obj
 0002:00019490       ___lc_category             00481490     libucrt:wsetlocale.obj
 0002:000194d8       ??_C@_1O@GIFLHMA@?$AAL?$AAC?$AA_?$AAA?$AAL?$AAL?$AA?$AA@ 004814d8     libucrt:wsetlocale.obj
 0002:000194e8       ??_C@_1BG@PPOMIBNJ@?$AAL?$AAC?$AA_?$AAC?$AAO?$AAL?$AAL?$AAA?$AAT?$AAE?$AA?$AA@ 004814e8     libucrt:wsetlocale.obj
 0002:00019500       ??_C@_1BC@FFJGAPJM@?$AAL?$AAC?$AA_?$AAC?$AAT?$AAY?$AAP?$AAE?$AA?$AA@ 00481500     libucrt:wsetlocale.obj
 0002:00019514       ??_C@_1BI@PCKFNJFB@?$AAL?$AAC?$AA_?$AAM?$AAO?$AAN?$AAE?$AAT?$AAA?$AAR?$AAY?$AA?$AA@ 00481514     libucrt:wsetlocale.obj
 0002:0001952c       ??_C@_1BG@ENIEDKID@?$AAL?$AAC?$AA_?$AAN?$AAU?$AAM?$AAE?$AAR?$AAI?$AAC?$AA?$AA@ 0048152c     libucrt:wsetlocale.obj
 0002:00019544       ??_C@_1BA@HAAOMIIG@?$AAL?$AAC?$AA_?$AAT?$AAI?$AAM?$AAE?$AA?$AA@ 00481544     libucrt:wsetlocale.obj
 0002:000195d8       ??_C@_15NBPDDFIP@?$AA?$DN?$AA?$DL?$AA?$AA@ 004815d8     libucrt:wsetlocale.obj
 0002:000195e0       ??_C@_13PJJBFPED@?$AA?$DL?$AA?$AA@ 004815e0     libucrt:wsetlocale.obj
 0002:000195e4       ??_C@_13NMPKAAJP@?$AA?$DN?$AA?$AA@ 004815e4     libucrt:wsetlocale.obj
 0002:000195e8       ??_C@_13FHBKNHDA@?$AAC?$AA?$AA@ 004815e8     libucrt:wsetlocale.obj
 0002:000195ec       ??_C@_17MBJJLFDM@?$AA_?$AA?4?$AA?0?$AA?$AA@ 004815ec     libucrt:wsetlocale.obj
 0002:000195f4       ??_C@_13ENNFDPBH@?$AA_?$AA?$AA@ 004815f4     libucrt:wsetlocale.obj
 0002:000195f8       ??_C@_13JOFGPIOO@?$AA?4?$AA?$AA@ 004815f8     libucrt:wsetlocale.obj
 0002:000197e0       ?ccs@?BL@???$__acrt_stdio_parse_mode@D@@YA?AU__acrt_stdio_stream_mode@@QBD@Z@4QBDB 004817e0     libucrt:openfile.obj
 0002:000197e4       ?utf8_encoding@?BL@???$__acrt_stdio_parse_mode@D@@YA?AU__acrt_stdio_stream_mode@@QBD@Z@4QBDB 004817e4     libucrt:openfile.obj
 0002:000197ec       ?utf16_encoding@?BL@???$__acrt_stdio_parse_mode@D@@YA?AU__acrt_stdio_stream_mode@@QBD@Z@4QBDB 004817ec     libucrt:openfile.obj
 0002:000197f4       ?unicode_encoding@?BL@???$__acrt_stdio_parse_mode@D@@YA?AU__acrt_stdio_stream_mode@@QBD@Z@4QBDB 004817f4     libucrt:openfile.obj
 0002:00019800       __wctype                   00481800     libucrt:ctype.obj
 0002:00019a08       ___newctype                00481a08     libucrt:ctype.obj
 0002:00019d08       ___newclmap                00481d08     libucrt:ctype.obj
 0002:00019e88       ___newcumap                00481e88     libucrt:ctype.obj
 0002:0001a008       ??_C@_03KOEHGMDN@Sun?$AA@  00482008     libucrt:nlsdata.obj
 0002:0001a00c       ??_C@_03PDAGKDH@Mon?$AA@   0048200c     libucrt:nlsdata.obj
 0002:0001a010       ??_C@_03NAGEINEP@Tue?$AA@  00482010     libucrt:nlsdata.obj
 0002:0001a014       ??_C@_03MHOMLAJA@Wed?$AA@  00482014     libucrt:nlsdata.obj
 0002:0001a018       ??_C@_03IOFIKPDN@Thu?$AA@  00482018     libucrt:nlsdata.obj
 0002:0001a01c       ??_C@_03IDIOELNC@Fri?$AA@  0048201c     libucrt:nlsdata.obj
 0002:0001a020       ??_C@_03FEFJNEK@Sat?$AA@   00482020     libucrt:nlsdata.obj
 0002:0001a024       ??_C@_06OOPIFAJ@Sunday?$AA@ 00482024     libucrt:nlsdata.obj
 0002:0001a02c       ??_C@_06JLEDEDGH@Monday?$AA@ 0048202c     libucrt:nlsdata.obj
 0002:0001a034       ??_C@_07BAAGCFCM@Tuesday?$AA@ 00482034     libucrt:nlsdata.obj
 0002:0001a03c       ??_C@_09DLIGFAKA@Wednesday?$AA@ 0048203c     libucrt:nlsdata.obj
 0002:0001a048       ??_C@_08HACCIKIA@Thursday?$AA@ 00482048     libucrt:nlsdata.obj
 0002:0001a054       ??_C@_06JECMNKMI@Friday?$AA@ 00482054     libucrt:nlsdata.obj
 0002:0001a05c       ??_C@_08INBOOONO@Saturday?$AA@ 0048205c     libucrt:nlsdata.obj
 0002:0001a068       ??_C@_03JIHJHPIE@Jan?$AA@  00482068     libucrt:nlsdata.obj
 0002:0001a06c       ??_C@_03HJBDCHOM@Feb?$AA@  0048206c     libucrt:nlsdata.obj
 0002:0001a070       ??_C@_03ODNJBKGA@Mar?$AA@  00482070     libucrt:nlsdata.obj
 0002:0001a074       ??_C@_03LEOLGMJP@Apr?$AA@  00482074     libucrt:nlsdata.obj
 0002:0001a078       ??_C@_03CNMDKL@May?$AA@    00482078     libucrt:nlsdata.obj
 0002:0001a07c       ??_C@_03IDFGHECI@Jun?$AA@  0048207c     libucrt:nlsdata.obj
 0002:0001a080       ??_C@_03LBGABGKK@Jul?$AA@  00482080     libucrt:nlsdata.obj
 0002:0001a084       ??_C@_03IFJFEIGA@Aug?$AA@  00482084     libucrt:nlsdata.obj
 0002:0001a088       ??_C@_03GGCAPAJC@Sep?$AA@  00482088     libucrt:nlsdata.obj
 0002:0001a08c       ??_C@_03BMAOKBAD@Oct?$AA@  0048208c     libucrt:nlsdata.obj
 0002:0001a090       ??_C@_03JPJOFNIA@Nov?$AA@  00482090     libucrt:nlsdata.obj
 0002:0001a094       ??_C@_03MKABNOCG@Dec?$AA@  00482094     libucrt:nlsdata.obj
 0002:0001a098       ??_C@_07CGJPFGJA@January?$AA@ 00482098     libucrt:nlsdata.obj
 0002:0001a0a0       ??_C@_08GNJGEPFN@February?$AA@ 004820a0     libucrt:nlsdata.obj
 0002:0001a0ac       ??_C@_05HPCKOFNC@March?$AA@ 004820ac     libucrt:nlsdata.obj
 0002:0001a0b4       ??_C@_05DMJDNLEJ@April?$AA@ 004820b4     libucrt:nlsdata.obj
 0002:0001a0bc       ??_C@_04CNLMGBGM@June?$AA@ 004820bc     libucrt:nlsdata.obj
 0002:0001a0c4       ??_C@_04MIEPOIFP@July?$AA@ 004820c4     libucrt:nlsdata.obj
 0002:0001a0cc       ??_C@_06LBBHFDDG@August?$AA@ 004820cc     libucrt:nlsdata.obj
 0002:0001a0d4       ??_C@_09BHHEALKD@September?$AA@ 004820d4     libucrt:nlsdata.obj
 0002:0001a0e0       ??_C@_07JJNFCEND@October?$AA@ 004820e0     libucrt:nlsdata.obj
 0002:0001a0e8       ??_C@_08HCHEGEOA@November?$AA@ 004820e8     libucrt:nlsdata.obj
 0002:0001a0f4       ??_C@_08EDHMEBNP@December?$AA@ 004820f4     libucrt:nlsdata.obj
 0002:0001a100       ??_C@_02DEDBPAFC@AM?$AA@   00482100     libucrt:nlsdata.obj
 0002:0001a104       ??_C@_02CJNFDJBF@PM?$AA@   00482104     libucrt:nlsdata.obj
 0002:0001a108       ??_C@_08BPBNCDIB@MM?1dd?1yy?$AA@ 00482108     libucrt:nlsdata.obj
 0002:0001a114       ??_C@_0BE@CKGJFCPC@dddd?0?5MMMM?5dd?0?5yyyy?$AA@ 00482114     libucrt:nlsdata.obj
 0002:0001a128       ??_C@_08JCCMCCIL@HH?3mm?3ss?$AA@ 00482128     libucrt:nlsdata.obj
 0002:0001a134       ??_C@_17MBGCMIPB@?$AAS?$AAu?$AAn?$AA?$AA@ 00482134     libucrt:nlsdata.obj
 0002:0001a13c       ??_C@_17KBOMKBF@?$AAM?$AAo?$AAn?$AA?$AA@ 0048213c     libucrt:nlsdata.obj
 0002:0001a144       ??_C@_17BMKGEGOJ@?$AAT?$AAu?$AAe?$AA?$AA@ 00482144     libucrt:nlsdata.obj
 0002:0001a14c       ??_C@_17CJEDCEPE@?$AAW?$AAe?$AAd?$AA?$AA@ 0048214c     libucrt:nlsdata.obj
 0002:0001a154       ??_C@_17PDPHAADD@?$AAT?$AAh?$AAu?$AA?$AA@ 00482154     libucrt:nlsdata.obj
 0002:0001a15c       ??_C@_17HFOLPPLP@?$AAF?$AAr?$AAi?$AA?$AA@ 0048215c     libucrt:nlsdata.obj
 0002:0001a164       ??_C@_17GGIBDPIH@?$AAS?$AAa?$AAt?$AA?$AA@ 00482164     libucrt:nlsdata.obj
 0002:0001a16c       ??_C@_1O@IHNHDHPB@?$AAS?$AAu?$AAn?$AAd?$AAa?$AAy?$AA?$AA@ 0048216c     libucrt:nlsdata.obj
 0002:0001a17c       ??_C@_1O@MMNBFLIA@?$AAM?$AAo?$AAn?$AAd?$AAa?$AAy?$AA?$AA@ 0048217c     libucrt:nlsdata.obj
 0002:0001a18c       ??_C@_1BA@ENFBFFEK@?$AAT?$AAu?$AAe?$AAs?$AAd?$AAa?$AAy?$AA?$AA@ 0048218c     libucrt:nlsdata.obj
 0002:0001a19c       ??_C@_1BE@EBOGMDOH@?$AAW?$AAe?$AAd?$AAn?$AAe?$AAs?$AAd?$AAa?$AAy?$AA?$AA@ 0048219c     libucrt:nlsdata.obj
 0002:0001a1b0       ??_C@_1BC@HHMNLIHE@?$AAT?$AAh?$AAu?$AAr?$AAs?$AAd?$AAa?$AAy?$AA?$AA@ 004821b0     libucrt:nlsdata.obj
 0002:0001a1c4       ??_C@_1O@PDICJHAG@?$AAF?$AAr?$AAi?$AAd?$AAa?$AAy?$AA?$AA@ 004821c4     libucrt:nlsdata.obj
 0002:0001a1d4       ??_C@_1BC@ENMNNPAJ@?$AAS?$AAa?$AAt?$AAu?$AAr?$AAd?$AAa?$AAy?$AA?$AA@ 004821d4     libucrt:nlsdata.obj
 0002:0001a1e8       ??_C@_17DKNBKCHM@?$AAJ?$AAa?$AAn?$AA?$AA@ 004821e8     libucrt:nlsdata.obj
 0002:0001a1f0       ??_C@_17LMDJEKJN@?$AAF?$AAe?$AAb?$AA?$AA@ 004821f0     libucrt:nlsdata.obj
 0002:0001a1f8       ??_C@_17CKNLEDEC@?$AAM?$AAa?$AAr?$AA?$AA@ 004821f8     libucrt:nlsdata.obj
 0002:0001a200       ??_C@_17LFPOIHDD@?$AAA?$AAp?$AAr?$AA?$AA@ 00482200     libucrt:nlsdata.obj
 0002:0001a208       ??_C@_17PNNKMEED@?$AAM?$AAa?$AAy?$AA?$AA@ 00482208     libucrt:nlsdata.obj
 0002:0001a210       ??_C@_17KCJGOCPB@?$AAJ?$AAu?$AAn?$AA?$AA@ 00482210     libucrt:nlsdata.obj
 0002:0001a218       ??_C@_17IJPCKHK@?$AAJ?$AAu?$AAl?$AA?$AA@ 00482218     libucrt:nlsdata.obj
 0002:0001a220       ??_C@_17ICPELBCN@?$AAA?$AAu?$AAg?$AA?$AA@ 00482220     libucrt:nlsdata.obj
 0002:0001a228       ??_C@_17HCHCOKMG@?$AAS?$AAe?$AAp?$AA?$AA@ 00482228     libucrt:nlsdata.obj
 0002:0001a230       ??_C@_17FNLKOI@?$AAO?$AAc?$AAt?$AA?$AA@ 00482230     libucrt:nlsdata.obj
 0002:0001a238       ??_C@_17BBDMLCIG@?$AAN?$AAo?$AAv?$AA?$AA@ 00482238     libucrt:nlsdata.obj
 0002:0001a240       ??_C@_17EGKACKIF@?$AAD?$AAe?$AAc?$AA?$AA@ 00482240     libucrt:nlsdata.obj
 0002:0001a248       ??_C@_1BA@EFMEIEBA@?$AAJ?$AAa?$AAn?$AAu?$AAa?$AAr?$AAy?$AA?$AA@ 00482248     libucrt:nlsdata.obj
 0002:0001a258       ??_C@_1BC@JGDDFFAM@?$AAF?$AAe?$AAb?$AAr?$AAu?$AAa?$AAr?$AAy?$AA?$AA@ 00482258     libucrt:nlsdata.obj
 0002:0001a26c       ??_C@_1M@IKEENEDF@?$AAM?$AAa?$AAr?$AAc?$AAh?$AA?$AA@ 0048226c     libucrt:nlsdata.obj
 0002:0001a278       ??_C@_1M@GJNLMHFD@?$AAA?$AAp?$AAr?$AAi?$AAl?$AA?$AA@ 00482278     libucrt:nlsdata.obj
 0002:0001a284       ??_C@_19EPFLPGAP@?$AAJ?$AAu?$AAn?$AAe?$AA?$AA@ 00482284     libucrt:nlsdata.obj
 0002:0001a290       ??_C@_19BIFMLPCD@?$AAJ?$AAu?$AAl?$AAy?$AA?$AA@ 00482290     libucrt:nlsdata.obj
 0002:0001a29c       ??_C@_1O@PAHLKOAC@?$AAA?$AAu?$AAg?$AAu?$AAs?$AAt?$AA?$AA@ 0048229c     libucrt:nlsdata.obj
 0002:0001a2ac       ??_C@_1BE@DKAAMBJL@?$AAS?$AAe?$AAp?$AAt?$AAe?$AAm?$AAb?$AAe?$AAr?$AA?$AA@ 004822ac     libucrt:nlsdata.obj
 0002:0001a2c0       ??_C@_1BA@EPANDLNG@?$AAO?$AAc?$AAt?$AAo?$AAb?$AAe?$AAr?$AA?$AA@ 004822c0     libucrt:nlsdata.obj
 0002:0001a2d0       ??_C@_1BC@BGLIFPF@?$AAN?$AAo?$AAv?$AAe?$AAm?$AAb?$AAe?$AAr?$AA?$AA@ 004822d0     libucrt:nlsdata.obj
 0002:0001a2e4       ??_C@_1BC@FEMKIFH@?$AAD?$AAe?$AAc?$AAe?$AAm?$AAb?$AAe?$AAr?$AA?$AA@ 004822e4     libucrt:nlsdata.obj
 0002:0001a2f8       ??_C@_15ODEHAHHF@?$AAA?$AAM?$AA?$AA@ 004822f8     libucrt:nlsdata.obj
 0002:0001a300       ??_C@_15CLMNNGEL@?$AAP?$AAM?$AA?$AA@ 00482300     libucrt:nlsdata.obj
 0002:0001a308       ??_C@_1BC@IEBCMHCM@?$AAM?$AAM?$AA?1?$AAd?$AAd?$AA?1?$AAy?$AAy?$AA?$AA@ 00482308     libucrt:nlsdata.obj
 0002:0001a31c       ??_C@_1CI@KNAKOEBC@?$AAd?$AAd?$AAd?$AAd?$AA?0?$AA?5?$AAM?$AAM?$AAM?$AAM?$AA?5?$AAd?$AAd?$AA?0?$AA?5?$AAy?$AAy?$AAy?$AAy?$AA?$AA@ 0048231c     libucrt:nlsdata.obj
 0002:0001a344       ??_C@_1BC@GDGBMEMK@?$AAH?$AAH?$AA?3?$AAm?$AAm?$AA?3?$AAs?$AAs?$AA?$AA@ 00482344     libucrt:nlsdata.obj
 0002:0001a358       ??_C@_1M@BMHNFIME@?$AAe?$AAn?$AA?9?$AAU?$AAS?$AA?$AA@ 00482358     libucrt:nlsdata.obj
 0002:0001a368       ___lc_time_c               00482368     libucrt:nlsdata.obj
 0002:0001a4cc       ??_C@_03OEIAHPBN@INF?$AA@  004824cc     libucrt:cvt.obj
 0002:0001a4d0       ??_C@_03OJHLLCGB@inf?$AA@  004824d0     libucrt:cvt.obj
 0002:0001a4d4       ??_C@_03LKNCIKJB@NAN?$AA@  004824d4     libucrt:cvt.obj
 0002:0001a4d8       ??_C@_03LHCJEHON@nan?$AA@  004824d8     libucrt:cvt.obj
 0002:0001a4dc       ??_C@_09OFJJIMPC@NAN?$CISNAN?$CJ?$AA@ 004824dc     libucrt:cvt.obj
 0002:0001a4e8       ??_C@_09IPFBKMDL@nan?$CIsnan?$CJ?$AA@ 004824e8     libucrt:cvt.obj
 0002:0001a4f4       ??_C@_08IKHNHAJ@NAN?$CIIND?$CJ?$AA@ 004824f4     libucrt:cvt.obj
 0002:0001a500       ??_C@_08OFCDMILK@nan?$CIind?$CJ?$AA@ 00482500     libucrt:cvt.obj
 0002:0001a50c       ??_C@_05KLBDPFGC@e?$CL000?$AA@ 0048250c     libucrt:cvt.obj
 0002:0001a514       ??_C@_1M@PBPMMENC@?$AAa?$AAm?$AA?1?$AAp?$AAm?$AA?$AA@ 00482514     libucrt:wcsftime.obj
 0002:0001a520       ??_C@_17BLFJJHMM@?$AAa?$AA?1?$AAp?$AA?$AA@ 00482520     libucrt:wcsftime.obj
 0002:0001a528       ??_C@_13HOIJIPNN@?$AA?5?$AA?$AA@ 00482528     libucrt:wcsftime.obj
 0002:0001a52c       ??_C@_13IMODFHAA@?$AA?9?$AA?$AA@ 0048252c     libucrt:wcsftime.obj
 0002:0001a530       ??_C@_13EBCNDICG@?$AA?3?$AA?$AA@ 00482530     libucrt:wcsftime.obj
 0002:0001a534       ??_C@_13KDLDGPGJ@?$AA?7?$AA?$AA@ 00482534     libucrt:wcsftime.obj
 0002:0001a538       ??_C@_13KJIIAINM@?$AA?$CL?$AA?$AA@ 00482538     libucrt:wcsftime.obj
 0002:0001a53c       ??_C@_13EJFHHPOP@?$AA?$CF?$AA?$AA@ 0048253c     libucrt:wcsftime.obj
 0002:0001a590       ??_C@_1EG@CNNIPFIM@?$AAa?$AAp?$AAi?$AA?9?$AAm?$AAs?$AA?9?$AAw?$AAi?$AAn?$AA?9?$AAa?$AAp?$AAp?$AAm?$AAo?$AAd?$AAe?$AAl?$AA?9?$AAr?$AAu?$AAn?$AAt?$AAi?$AAm?$AAe?$AA?9?$AAl?$AA1?$AA?9?$AA1@ 00482590     libucrt:winapi_thunks.obj
 0002:0001a5d8       ??_C@_1EA@JGEFHKEI@?$AAa?$AAp?$AAi?$AA?9?$AAm?$AAs?$AA?9?$AAw?$AAi?$AAn?$AA?9?$AAc?$AAo?$AAr?$AAe?$AA?9?$AAd?$AAa?$AAt?$AAe?$AAt?$AAi?$AAm?$AAe?$AA?9?$AAl?$AA1?$AA?9?$AA1?$AA?9?$AA1?$AA?$AA@ 004825d8     libucrt:winapi_thunks.obj
 0002:0001a618       ??_C@_1DI@GCIAAENM@?$AAa?$AAp?$AAi?$AA?9?$AAm?$AAs?$AA?9?$AAw?$AAi?$AAn?$AA?9?$AAc?$AAo?$AAr?$AAe?$AA?9?$AAf?$AAi?$AAl?$AAe?$AA?9?$AAl?$AA2?$AA?9?$AA1?$AA?9?$AA1?$AA?$AA@ 00482618     libucrt:winapi_thunks.obj
 0002:0001a650       ??_C@_1EI@MPIAOHOC@?$AAa?$AAp?$AAi?$AA?9?$AAm?$AAs?$AA?9?$AAw?$AAi?$AAn?$AA?9?$AAc?$AAo?$AAr?$AAe?$AA?9?$AAl?$AAo?$AAc?$AAa?$AAl?$AAi?$AAz?$AAa?$AAt?$AAi?$AAo?$AAn?$AA?9?$AAl?$AA1?$AA?9@ 00482650     libucrt:winapi_thunks.obj
 0002:0001a698       ??_C@_1FK@FPHCKFIE@?$AAa?$AAp?$AAi?$AA?9?$AAm?$AAs?$AA?9?$AAw?$AAi?$AAn?$AA?9?$AAc?$AAo?$AAr?$AAe?$AA?9?$AAl?$AAo?$AAc?$AAa?$AAl?$AAi?$AAz?$AAa?$AAt?$AAi?$AAo?$AAn?$AA?9?$AAo?$AAb?$AAs@ 00482698     libucrt:winapi_thunks.obj
 0002:0001a6f8       ??_C@_1EM@DILCGIIO@?$AAa?$AAp?$AAi?$AA?9?$AAm?$AAs?$AA?9?$AAw?$AAi?$AAn?$AA?9?$AAc?$AAo?$AAr?$AAe?$AA?9?$AAp?$AAr?$AAo?$AAc?$AAe?$AAs?$AAs?$AAt?$AAh?$AAr?$AAe?$AAa?$AAd?$AAs?$AA?9?$AAl@ 004826f8     libucrt:winapi_thunks.obj
 0002:0001a744       ??_C@_1DM@LNCGDDPN@?$AAa?$AAp?$AAi?$AA?9?$AAm?$AAs?$AA?9?$AAw?$AAi?$AAn?$AA?9?$AAc?$AAo?$AAr?$AAe?$AA?9?$AAs?$AAt?$AAr?$AAi?$AAn?$AAg?$AA?9?$AAl?$AA1?$AA?9?$AA1?$AA?9?$AA0?$AA?$AA@ 00482744     libucrt:winapi_thunks.obj
 0002:0001a780       ??_C@_1DO@FPAPJEMD@?$AAa?$AAp?$AAi?$AA?9?$AAm?$AAs?$AA?9?$AAw?$AAi?$AAn?$AA?9?$AAc?$AAo?$AAr?$AAe?$AA?9?$AAs?$AAy?$AAs?$AAi?$AAn?$AAf?$AAo?$AA?9?$AAl?$AA1?$AA?9?$AA2?$AA?9?$AA1?$AA?$AA@ 00482780     libucrt:winapi_thunks.obj
 0002:0001a7c0       ??_C@_1DK@NDHNAHIO@?$AAa?$AAp?$AAi?$AA?9?$AAm?$AAs?$AA?9?$AAw?$AAi?$AAn?$AA?9?$AAc?$AAo?$AAr?$AAe?$AA?9?$AAw?$AAi?$AAn?$AAr?$AAt?$AA?9?$AAl?$AA1?$AA?9?$AA1?$AA?9?$AA0?$AA?$AA@ 004827c0     libucrt:winapi_thunks.obj
 0002:0001a7fc       ??_C@_1DM@KGHDGBCM@?$AAa?$AAp?$AAi?$AA?9?$AAm?$AAs?$AA?9?$AAw?$AAi?$AAn?$AA?9?$AAc?$AAo?$AAr?$AAe?$AA?9?$AAx?$AAs?$AAt?$AAa?$AAt?$AAe?$AA?9?$AAl?$AA2?$AA?9?$AA1?$AA?9?$AA0?$AA?$AA@ 004827fc     libucrt:winapi_thunks.obj
 0002:0001a838       ??_C@_1EO@IJIOEFOH@?$AAa?$AAp?$AAi?$AA?9?$AAm?$AAs?$AA?9?$AAw?$AAi?$AAn?$AA?9?$AAr?$AAt?$AAc?$AAo?$AAr?$AAe?$AA?9?$AAn?$AAt?$AAu?$AAs?$AAe?$AAr?$AA?9?$AAw?$AAi?$AAn?$AAd?$AAo?$AAw?$AA?9@ 00482838     libucrt:winapi_thunks.obj
 0002:0001a888       ??_C@_1FG@HHGEKANL@?$AAa?$AAp?$AAi?$AA?9?$AAm?$AAs?$AA?9?$AAw?$AAi?$AAn?$AA?9?$AAs?$AAe?$AAc?$AAu?$AAr?$AAi?$AAt?$AAy?$AA?9?$AAs?$AAy?$AAs?$AAt?$AAe?$AAm?$AAf?$AAu?$AAn?$AAc?$AAt?$AAi@ 00482888     libucrt:winapi_thunks.obj
 0002:0001a8e0       ??_C@_1FG@NCKKOLKO@?$AAe?$AAx?$AAt?$AA?9?$AAm?$AAs?$AA?9?$AAw?$AAi?$AAn?$AA?9?$AAk?$AAe?$AAr?$AAn?$AAe?$AAl?$AA3?$AA2?$AA?9?$AAp?$AAa?$AAc?$AAk?$AAa?$AAg?$AAe?$AA?9?$AAc?$AAu?$AAr?$AAr@ 004828e0     libucrt:winapi_thunks.obj
 0002:0001a938       ??_C@_1EG@DBIOJECG@?$AAe?$AAx?$AAt?$AA?9?$AAm?$AAs?$AA?9?$AAw?$AAi?$AAn?$AA?9?$AAn?$AAt?$AAu?$AAs?$AAe?$AAr?$AA?9?$AAd?$AAi?$AAa?$AAl?$AAo?$AAg?$AAb?$AAo?$AAx?$AA?9?$AAl?$AA1?$AA?9?$AA1@ 00482938     libucrt:winapi_thunks.obj
 0002:0001a980       ??_C@_1EO@FIHMJCLF@?$AAe?$AAx?$AAt?$AA?9?$AAm?$AAs?$AA?9?$AAw?$AAi?$AAn?$AA?9?$AAn?$AAt?$AAu?$AAs?$AAe?$AAr?$AA?9?$AAw?$AAi?$AAn?$AAd?$AAo?$AAw?$AAs?$AAt?$AAa?$AAt?$AAi?$AAo?$AAn?$AA?9@ 00482980     libucrt:winapi_thunks.obj
 0002:0001a9d0       ??_C@_1O@BCCLBEOE@?$AAu?$AAs?$AAe?$AAr?$AA3?$AA2?$AA?$AA@ 004829d0     libucrt:winapi_thunks.obj
 0002:0001a9e4       ??_C@_0BA@FHFNEAED@AreFileApisANSI?$AA@ 004829e4     libucrt:winapi_thunks.obj
 0002:0001a9fc       ??_C@_0BA@IHGNDAEB@CompareStringEx?$AA@ 004829fc     libucrt:winapi_thunks.obj
 0002:0001aa14       ??_C@_0BE@LJANKFHF@EnumSystemLocalesEx?$AA@ 00482a14     libucrt:winapi_thunks.obj
 0002:0001aa50       ??_C@_0BA@HNOPNCHB@GetActiveWindow?$AA@ 00482a50     libucrt:winapi_thunks.obj
 0002:0001aa68       ??_C@_0BE@JOGNEJCI@GetCurrentPackageId?$AA@ 00482a68     libucrt:winapi_thunks.obj
 0002:0001aa84       ??_C@_0BA@EPCJIIPD@GetDateFormatEx?$AA@ 00482a84     libucrt:winapi_thunks.obj
 0002:0001aa9c       ??_C@_0BD@HHGDFDBJ@GetLastActivePopup?$AA@ 00482a9c     libucrt:winapi_thunks.obj
 0002:0001aab8       ??_C@_0BA@ONOKGCMP@GetLocaleInfoEx?$AA@ 00482ab8     libucrt:winapi_thunks.obj
 0002:0001aad0       ??_C@_0BI@DFKBFLJE@GetProcessWindowStation?$AA@ 00482ad0     libucrt:winapi_thunks.obj
 0002:0001aaec       ??_C@_0BP@FPNJPEJC@GetSystemTimePreciseAsFileTime?$AA@ 00482aec     libucrt:winapi_thunks.obj
 0002:0001ab14       ??_C@_0BA@CIJJKCJJ@GetTimeFormatEx?$AA@ 00482b14     libucrt:winapi_thunks.obj
 0002:0001ab2c       ??_C@_0BJ@PBCCBIPI@GetUserDefaultLocaleName?$AA@ 00482b2c     libucrt:winapi_thunks.obj
 0002:0001ab50       ??_C@_0BK@DEKFELLI@GetUserObjectInformationW?$AA@ 00482b50     libucrt:winapi_thunks.obj
 0002:0001ab7c       ??_C@_0BC@CELBKLLA@IsValidLocaleName?$AA@ 00482b7c     libucrt:winapi_thunks.obj
 0002:0001ab98       ??_C@_0O@KKBNKAPF@LCMapStringEx?$AA@ 00482b98     libucrt:winapi_thunks.obj
 0002:0001abb0       ??_C@_0BB@CDHDDLLP@LCIDToLocaleName?$AA@ 00482bb0     libucrt:winapi_thunks.obj
 0002:0001abcc       ??_C@_0BB@HBDEELFH@LocaleNameToLCID?$AA@ 00482bcc     libucrt:winapi_thunks.obj
 0002:0001abe8       ??_C@_0M@CHKKJDAI@MessageBoxA?$AA@ 00482be8     libucrt:winapi_thunks.obj
 0002:0001abfc       ??_C@_0M@DLDCCGNP@MessageBoxW?$AA@ 00482bfc     libucrt:winapi_thunks.obj
 0002:0001ac30       ??_C@_1M@HPNHIDJI@?$AAj?$AAa?$AA?9?$AAJ?$AAP?$AA?$AA@ 00482c30     libucrt:mbctype.obj
 0002:0001ac3c       ??_C@_1M@BIBDDEMK@?$AAz?$AAh?$AA?9?$AAC?$AAN?$AA?$AA@ 00482c3c     libucrt:mbctype.obj
 0002:0001ac48       ??_C@_1M@JLOOOEGK@?$AAk?$AAo?$AA?9?$AAK?$AAR?$AA?$AA@ 00482c48     libucrt:mbctype.obj
 0002:0001ac54       ??_C@_1M@CLNBBOPM@?$AAz?$AAh?$AA?9?$AAT?$AAW?$AA?$AA@ 00482c54     libucrt:mbctype.obj
 0002:0001ac60       ??_C@_1BC@LLOKLNP@?$AAa?$AAm?$AAe?$AAr?$AAi?$AAc?$AAa?$AAn?$AA?$AA@ 00482c60     libucrt:get_qualified_locale.obj
 0002:0001ac74       ??_C@_1CC@HEIGCDGG@?$AAa?$AAm?$AAe?$AAr?$AAi?$AAc?$AAa?$AAn?$AA?5?$AAe?$AAn?$AAg?$AAl?$AAi?$AAs?$AAh?$AA?$AA@ 00482c74     libucrt:get_qualified_locale.obj
 0002:0001ac98       ??_C@_1CC@IHCNOMIN@?$AAa?$AAm?$AAe?$AAr?$AAi?$AAc?$AAa?$AAn?$AA?9?$AAe?$AAn?$AAg?$AAl?$AAi?$AAs?$AAh?$AA?$AA@ 00482c98     libucrt:get_qualified_locale.obj
 0002:0001acbc       ??_C@_1BG@GKAGPCGG@?$AAa?$AAu?$AAs?$AAt?$AAr?$AAa?$AAl?$AAi?$AAa?$AAn?$AA?$AA@ 00482cbc     libucrt:get_qualified_locale.obj
 0002:0001acd4       ??_C@_1BA@GMENCENF@?$AAb?$AAe?$AAl?$AAg?$AAi?$AAa?$AAn?$AA?$AA@ 00482cd4     libucrt:get_qualified_locale.obj
 0002:0001ace4       ??_C@_1BC@PJMIIAAN@?$AAc?$AAa?$AAn?$AAa?$AAd?$AAi?$AAa?$AAn?$AA?$AA@ 00482ce4     libucrt:get_qualified_locale.obj
 0002:0001acf8       ??_C@_17NOIMNFBF@?$AAc?$AAh?$AAh?$AA?$AA@ 00482cf8     libucrt:get_qualified_locale.obj
 0002:0001ad00       ??_C@_17GGDALCHA@?$AAc?$AAh?$AAi?$AA?$AA@ 00482d00     libucrt:get_qualified_locale.obj
 0002:0001ad08       ??_C@_1BA@NPNJKIBL@?$AAc?$AAh?$AAi?$AAn?$AAe?$AAs?$AAe?$AA?$AA@ 00482d08     libucrt:get_qualified_locale.obj
 0002:0001ad18       ??_C@_1CC@DINBAMMJ@?$AAc?$AAh?$AAi?$AAn?$AAe?$AAs?$AAe?$AA?9?$AAh?$AAo?$AAn?$AAg?$AAk?$AAo?$AAn?$AAg?$AA?$AA@ 00482d18     libucrt:get_qualified_locale.obj
 0002:0001ad3c       ??_C@_1CG@IOBJPACO@?$AAc?$AAh?$AAi?$AAn?$AAe?$AAs?$AAe?$AA?9?$AAs?$AAi?$AAm?$AAp?$AAl?$AAi?$AAf?$AAi?$AAe?$AAd?$AA?$AA@ 00482d3c     libucrt:get_qualified_locale.obj
 0002:0001ad64       ??_C@_1CE@GAJNDCKG@?$AAc?$AAh?$AAi?$AAn?$AAe?$AAs?$AAe?$AA?9?$AAs?$AAi?$AAn?$AAg?$AAa?$AAp?$AAo?$AAr?$AAe?$AA?$AA@ 00482d64     libucrt:get_qualified_locale.obj
 0002:0001ad88       ??_C@_1CI@PAJPIOOD@?$AAc?$AAh?$AAi?$AAn?$AAe?$AAs?$AAe?$AA?9?$AAt?$AAr?$AAa?$AAd?$AAi?$AAt?$AAi?$AAo?$AAn?$AAa?$AAl?$AA?$AA@ 00482d88     libucrt:get_qualified_locale.obj
 0002:0001adb0       ??_C@_1BM@NILJBMMD@?$AAd?$AAu?$AAt?$AAc?$AAh?$AA?9?$AAb?$AAe?$AAl?$AAg?$AAi?$AAa?$AAn?$AA?$AA@ 00482db0     libucrt:get_qualified_locale.obj
 0002:0001adcc       ??_C@_1CC@OOJPJNEJ@?$AAe?$AAn?$AAg?$AAl?$AAi?$AAs?$AAh?$AA?9?$AAa?$AAm?$AAe?$AAr?$AAi?$AAc?$AAa?$AAn?$AA?$AA@ 00482dcc     libucrt:get_qualified_locale.obj
 0002:0001adf0       ??_C@_1BI@IOLFEEM@?$AAe?$AAn?$AAg?$AAl?$AAi?$AAs?$AAh?$AA?9?$AAa?$AAu?$AAs?$AA?$AA@ 00482df0     libucrt:get_qualified_locale.obj
 0002:0001ae08       ??_C@_1BO@HFFNLENJ@?$AAe?$AAn?$AAg?$AAl?$AAi?$AAs?$AAh?$AA?9?$AAb?$AAe?$AAl?$AAi?$AAz?$AAe?$AA?$AA@ 00482e08     libucrt:get_qualified_locale.obj
 0002:0001ae28       ??_C@_1BI@HAPKJMPO@?$AAe?$AAn?$AAg?$AAl?$AAi?$AAs?$AAh?$AA?9?$AAc?$AAa?$AAn?$AA?$AA@ 00482e28     libucrt:get_qualified_locale.obj
 0002:0001ae40       ??_C@_1CE@HLNDMIOJ@?$AAe?$AAn?$AAg?$AAl?$AAi?$AAs?$AAh?$AA?9?$AAc?$AAa?$AAr?$AAi?$AAb?$AAb?$AAe?$AAa?$AAn?$AA?$AA@ 00482e40     libucrt:get_qualified_locale.obj
 0002:0001ae64       ??_C@_1BI@LDHJHHAC@?$AAe?$AAn?$AAg?$AAl?$AAi?$AAs?$AAh?$AA?9?$AAi?$AAr?$AAe?$AA?$AA@ 00482e64     libucrt:get_qualified_locale.obj
 0002:0001ae7c       ??_C@_1CA@NJMMCFOC@?$AAe?$AAn?$AAg?$AAl?$AAi?$AAs?$AAh?$AA?9?$AAj?$AAa?$AAm?$AAa?$AAi?$AAc?$AAa?$AA?$AA@ 00482e7c     libucrt:get_qualified_locale.obj
 0002:0001ae9c       ??_C@_1BG@BHJEBBGG@?$AAe?$AAn?$AAg?$AAl?$AAi?$AAs?$AAh?$AA?9?$AAn?$AAz?$AA?$AA@ 00482e9c     libucrt:get_qualified_locale.obj
 0002:0001aeb4       ??_C@_1CK@FGOEJJCO@?$AAe?$AAn?$AAg?$AAl?$AAi?$AAs?$AAh?$AA?9?$AAs?$AAo?$AAu?$AAt?$AAh?$AA?5?$AAa?$AAf?$AAr?$AAi?$AAc?$AAa?$AA?$AA@ 00482eb4     libucrt:get_qualified_locale.obj
 0002:0001aee0       ??_C@_1DE@PDBJPCJ@?$AAe?$AAn?$AAg?$AAl?$AAi?$AAs?$AAh?$AA?9?$AAt?$AAr?$AAi?$AAn?$AAi?$AAd?$AAa?$AAd?$AA?5?$AAy?$AA?5?$AAt?$AAo?$AAb?$AAa?$AAg?$AAo?$AA?$AA@ 00482ee0     libucrt:get_qualified_locale.obj
 0002:0001af14       ??_C@_1BG@JGCANDME@?$AAe?$AAn?$AAg?$AAl?$AAi?$AAs?$AAh?$AA?9?$AAu?$AAk?$AA?$AA@ 00482f14     libucrt:get_qualified_locale.obj
 0002:0001af2c       ??_C@_1BG@DINKMLE@?$AAe?$AAn?$AAg?$AAl?$AAi?$AAs?$AAh?$AA?9?$AAu?$AAs?$AA?$AA@ 00482f2c     libucrt:get_qualified_locale.obj
 0002:0001af44       ??_C@_1BI@NMFDBHJE@?$AAe?$AAn?$AAg?$AAl?$AAi?$AAs?$AAh?$AA?9?$AAu?$AAs?$AAa?$AA?$AA@ 00482f44     libucrt:get_qualified_locale.obj
 0002:0001af5c       ??_C@_1BO@OIHKJKII@?$AAf?$AAr?$AAe?$AAn?$AAc?$AAh?$AA?9?$AAb?$AAe?$AAl?$AAg?$AAi?$AAa?$AAn?$AA?$AA@ 00482f5c     libucrt:get_qualified_locale.obj
 0002:0001af7c       ??_C@_1CA@NKAELJKI@?$AAf?$AAr?$AAe?$AAn?$AAc?$AAh?$AA?9?$AAc?$AAa?$AAn?$AAa?$AAd?$AAi?$AAa?$AAn?$AA?$AA@ 00482f7c     libucrt:get_qualified_locale.obj
 0002:0001af9c       ??_C@_1CE@MGKCNLGN@?$AAf?$AAr?$AAe?$AAn?$AAc?$AAh?$AA?9?$AAl?$AAu?$AAx?$AAe?$AAm?$AAb?$AAo?$AAu?$AAr?$AAg?$AA?$AA@ 00482f9c     libucrt:get_qualified_locale.obj
 0002:0001afc0       ??_C@_1BK@CEGEAILM@?$AAf?$AAr?$AAe?$AAn?$AAc?$AAh?$AA?9?$AAs?$AAw?$AAi?$AAs?$AAs?$AA?$AA@ 00482fc0     libucrt:get_qualified_locale.obj
 0002:0001afdc       ??_C@_1CA@PAFKEOCC@?$AAg?$AAe?$AAr?$AAm?$AAa?$AAn?$AA?9?$AAa?$AAu?$AAs?$AAt?$AAr?$AAi?$AAa?$AAn?$AA?$AA@ 00482fdc     libucrt:get_qualified_locale.obj
 0002:0001affc       ??_C@_1CI@HCFHGOFD@?$AAg?$AAe?$AAr?$AAm?$AAa?$AAn?$AA?9?$AAl?$AAi?$AAc?$AAh?$AAt?$AAe?$AAn?$AAs?$AAt?$AAe?$AAi?$AAn?$AA?$AA@ 00482ffc     libucrt:get_qualified_locale.obj
 0002:0001b024       ??_C@_1CE@FEDDNPDG@?$AAg?$AAe?$AAr?$AAm?$AAa?$AAn?$AA?9?$AAl?$AAu?$AAx?$AAe?$AAm?$AAb?$AAo?$AAu?$AAr?$AAg?$AA?$AA@ 00483024     libucrt:get_qualified_locale.obj
 0002:0001b048       ??_C@_1BK@LIMINNMN@?$AAg?$AAe?$AAr?$AAm?$AAa?$AAn?$AA?9?$AAs?$AAw?$AAi?$AAs?$AAs?$AA?$AA@ 00483048     libucrt:get_qualified_locale.obj
 0002:0001b064       ??_C@_1BM@LGMDBEPD@?$AAi?$AAr?$AAi?$AAs?$AAh?$AA?9?$AAe?$AAn?$AAg?$AAl?$AAi?$AAs?$AAh?$AA?$AA@ 00483064     libucrt:get_qualified_locale.obj
 0002:0001b080       ??_C@_1BM@NNCFBAEE@?$AAi?$AAt?$AAa?$AAl?$AAi?$AAa?$AAn?$AA?9?$AAs?$AAw?$AAi?$AAs?$AAs?$AA?$AA@ 00483080     libucrt:get_qualified_locale.obj
 0002:0001b09c       ??_C@_1BE@FEDJNPIB@?$AAn?$AAo?$AAr?$AAw?$AAe?$AAg?$AAi?$AAa?$AAn?$AA?$AA@ 0048309c     libucrt:get_qualified_locale.obj
 0002:0001b0b0       ??_C@_1CC@CILKDEIE@?$AAn?$AAo?$AAr?$AAw?$AAe?$AAg?$AAi?$AAa?$AAn?$AA?9?$AAb?$AAo?$AAk?$AAm?$AAa?$AAl?$AA?$AA@ 004830b0     libucrt:get_qualified_locale.obj
 0002:0001b0d4       ??_C@_1CE@DHMMHEPL@?$AAn?$AAo?$AAr?$AAw?$AAe?$AAg?$AAi?$AAa?$AAn?$AA?9?$AAn?$AAy?$AAn?$AAo?$AAr?$AAs?$AAk?$AA?$AA@ 004830d4     libucrt:get_qualified_locale.obj
 0002:0001b0f8       ??_C@_1CK@OPNMHECD@?$AAp?$AAo?$AAr?$AAt?$AAu?$AAg?$AAu?$AAe?$AAs?$AAe?$AA?9?$AAb?$AAr?$AAa?$AAz?$AAi?$AAl?$AAi?$AAa?$AAn?$AA?$AA@ 004830f8     libucrt:get_qualified_locale.obj
 0002:0001b124       ??_C@_1CE@KEEHCDB@?$AAs?$AAp?$AAa?$AAn?$AAi?$AAs?$AAh?$AA?9?$AAa?$AAr?$AAg?$AAe?$AAn?$AAt?$AAi?$AAn?$AAa?$AA?$AA@ 00483124     libucrt:get_qualified_locale.obj
 0002:0001b148       ??_C@_1CA@GIAOLHJD@?$AAs?$AAp?$AAa?$AAn?$AAi?$AAs?$AAh?$AA?9?$AAb?$AAo?$AAl?$AAi?$AAv?$AAi?$AAa?$AA?$AA@ 00483148     libucrt:get_qualified_locale.obj
 0002:0001b168       ??_C@_1BM@OJNDFNPD@?$AAs?$AAp?$AAa?$AAn?$AAi?$AAs?$AAh?$AA?9?$AAc?$AAh?$AAi?$AAl?$AAe?$AA?$AA@ 00483168     libucrt:get_qualified_locale.obj
 0002:0001b184       ??_C@_1CC@OCOLPALL@?$AAs?$AAp?$AAa?$AAn?$AAi?$AAs?$AAh?$AA?9?$AAc?$AAo?$AAl?$AAo?$AAm?$AAb?$AAi?$AAa?$AA?$AA@ 00483184     libucrt:get_qualified_locale.obj
 0002:0001b1a8       ??_C@_1CG@BPOFMKBB@?$AAs?$AAp?$AAa?$AAn?$AAi?$AAs?$AAh?$AA?9?$AAc?$AAo?$AAs?$AAt?$AAa?$AA?5?$AAr?$AAi?$AAc?$AAa?$AA?$AA@ 004831a8     libucrt:get_qualified_locale.obj
 0002:0001b1d0       ??_C@_1DG@IGOBAPBB@?$AAs?$AAp?$AAa?$AAn?$AAi?$AAs?$AAh?$AA?9?$AAd?$AAo?$AAm?$AAi?$AAn?$AAi?$AAc?$AAa?$AAn?$AA?5?$AAr?$AAe?$AAp?$AAu?$AAb?$AAl?$AAi?$AAc?$AA?$AA@ 004831d0     libucrt:get_qualified_locale.obj
 0002:0001b208       ??_C@_1CA@JHAPGEGI@?$AAs?$AAp?$AAa?$AAn?$AAi?$AAs?$AAh?$AA?9?$AAe?$AAc?$AAu?$AAa?$AAd?$AAo?$AAr?$AA?$AA@ 00483208     libucrt:get_qualified_locale.obj
 0002:0001b228       ??_C@_1CI@LAPALJPP@?$AAs?$AAp?$AAa?$AAn?$AAi?$AAs?$AAh?$AA?9?$AAe?$AAl?$AA?5?$AAs?$AAa?$AAl?$AAv?$AAa?$AAd?$AAo?$AAr?$AA?$AA@ 00483228     libucrt:get_qualified_locale.obj
 0002:0001b250       ??_C@_1CE@PDGBOFOM@?$AAs?$AAp?$AAa?$AAn?$AAi?$AAs?$AAh?$AA?9?$AAg?$AAu?$AAa?$AAt?$AAe?$AAm?$AAa?$AAl?$AAa?$AA?$AA@ 00483250     libucrt:get_qualified_locale.obj
 0002:0001b274       ??_C@_1CC@NBEBAODI@?$AAs?$AAp?$AAa?$AAn?$AAi?$AAs?$AAh?$AA?9?$AAh?$AAo?$AAn?$AAd?$AAu?$AAr?$AAa?$AAs?$AA?$AA@ 00483274     libucrt:get_qualified_locale.obj
 0002:0001b298       ??_C@_1CA@LLKGHBMF@?$AAs?$AAp?$AAa?$AAn?$AAi?$AAs?$AAh?$AA?9?$AAm?$AAe?$AAx?$AAi?$AAc?$AAa?$AAn?$AA?$AA@ 00483298     libucrt:get_qualified_locale.obj
 0002:0001b2b8       ??_C@_1BO@LKNDOIGD@?$AAs?$AAp?$AAa?$AAn?$AAi?$AAs?$AAh?$AA?9?$AAm?$AAo?$AAd?$AAe?$AAr?$AAn?$AA?$AA@ 004832b8     libucrt:get_qualified_locale.obj
 0002:0001b2d8       ??_C@_1CE@NMDMOEEB@?$AAs?$AAp?$AAa?$AAn?$AAi?$AAs?$AAh?$AA?9?$AAn?$AAi?$AAc?$AAa?$AAr?$AAa?$AAg?$AAu?$AAa?$AA?$AA@ 004832d8     libucrt:get_qualified_locale.obj
 0002:0001b2fc       ??_C@_1BO@LLCBEJGB@?$AAs?$AAp?$AAa?$AAn?$AAi?$AAs?$AAh?$AA?9?$AAp?$AAa?$AAn?$AAa?$AAm?$AAa?$AA?$AA@ 004832fc     libucrt:get_qualified_locale.obj
 0002:0001b31c       ??_C@_1CC@FKPGGIHO@?$AAs?$AAp?$AAa?$AAn?$AAi?$AAs?$AAh?$AA?9?$AAp?$AAa?$AAr?$AAa?$AAg?$AAu?$AAa?$AAy?$AA?$AA@ 0048331c     libucrt:get_qualified_locale.obj
 0002:0001b340       ??_C@_1BK@CDEIHOOP@?$AAs?$AAp?$AAa?$AAn?$AAi?$AAs?$AAh?$AA?9?$AAp?$AAe?$AAr?$AAu?$AA?$AA@ 00483340     libucrt:get_qualified_locale.obj
 0002:0001b35c       ??_C@_1CI@GAHAKKGP@?$AAs?$AAp?$AAa?$AAn?$AAi?$AAs?$AAh?$AA?9?$AAp?$AAu?$AAe?$AAr?$AAt?$AAo?$AA?5?$AAr?$AAi?$AAc?$AAo?$AA?$AA@ 0048335c     libucrt:get_qualified_locale.obj
 0002:0001b384       ??_C@_1CA@NKJBCAGP@?$AAs?$AAp?$AAa?$AAn?$AAi?$AAs?$AAh?$AA?9?$AAu?$AAr?$AAu?$AAg?$AAu?$AAa?$AAy?$AA?$AA@ 00483384     libucrt:get_qualified_locale.obj
 0002:0001b3a4       ??_C@_1CE@ODILCONM@?$AAs?$AAp?$AAa?$AAn?$AAi?$AAs?$AAh?$AA?9?$AAv?$AAe?$AAn?$AAe?$AAz?$AAu?$AAe?$AAl?$AAa?$AA?$AA@ 004833a4     libucrt:get_qualified_locale.obj
 0002:0001b3c8       ??_C@_1CA@OBNMCGFO@?$AAs?$AAw?$AAe?$AAd?$AAi?$AAs?$AAh?$AA?9?$AAf?$AAi?$AAn?$AAl?$AAa?$AAn?$AAd?$AA?$AA@ 004833c8     libucrt:get_qualified_locale.obj
 0002:0001b3e8       ??_C@_1M@PIPDDPPI@?$AAs?$AAw?$AAi?$AAs?$AAs?$AA?$AA@ 004833e8     libucrt:get_qualified_locale.obj
 0002:0001b3f4       ??_C@_15PJPFLCCM@?$AAu?$AAk?$AA?$AA@ 004833f4     libucrt:get_qualified_locale.obj
 0002:0001b3fc       ??_C@_15GMFIMNFM@?$AAu?$AAs?$AA?$AA@ 004833fc     libucrt:get_qualified_locale.obj
 0002:0001b404       ??_C@_17HAEBFAGL@?$AAu?$AAs?$AAa?$AA?$AA@ 00483404     libucrt:get_qualified_locale.obj
 0002:0001b40c       ??_C@_1BA@DPFJEPHB@?$AAa?$AAm?$AAe?$AAr?$AAi?$AAc?$AAa?$AA?$AA@ 0048340c     libucrt:get_qualified_locale.obj
 0002:0001b41c       ??_C@_1BA@ELOGGFK@?$AAb?$AAr?$AAi?$AAt?$AAa?$AAi?$AAn?$AA?$AA@ 0048341c     libucrt:get_qualified_locale.obj
 0002:0001b42c       ??_C@_1M@GHBGIGDA@?$AAc?$AAh?$AAi?$AAn?$AAa?$AA?$AA@ 0048342c     libucrt:get_qualified_locale.obj
 0002:0001b438       ??_C@_1M@NCHEJOPO@?$AAc?$AAz?$AAe?$AAc?$AAh?$AA?$AA@ 00483438     libucrt:get_qualified_locale.obj
 0002:0001b444       ??_C@_1BA@BKPAPBLA@?$AAe?$AAn?$AAg?$AAl?$AAa?$AAn?$AAd?$AA?$AA@ 00483444     libucrt:get_qualified_locale.obj
 0002:0001b454       ??_C@_1BM@HKBCKIPC@?$AAg?$AAr?$AAe?$AAa?$AAt?$AA?5?$AAb?$AAr?$AAi?$AAt?$AAa?$AAi?$AAn?$AA?$AA@ 00483454     libucrt:get_qualified_locale.obj
 0002:0001b470       ??_C@_1BA@PPCHPGJB@?$AAh?$AAo?$AAl?$AAl?$AAa?$AAn?$AAd?$AA?$AA@ 00483470     libucrt:get_qualified_locale.obj
 0002:0001b480       ??_C@_1BE@JBMPEGDG@?$AAh?$AAo?$AAn?$AAg?$AA?9?$AAk?$AAo?$AAn?$AAg?$AA?$AA@ 00483480     libucrt:get_qualified_locale.obj
 0002:0001b494       ??_C@_1BI@KOELBBPJ@?$AAn?$AAe?$AAw?$AA?9?$AAz?$AAe?$AAa?$AAl?$AAa?$AAn?$AAd?$AA?$AA@ 00483494     libucrt:get_qualified_locale.obj
 0002:0001b4ac       ??_C@_15HIEBHAIO@?$AAn?$AAz?$AA?$AA@ 004834ac     libucrt:get_qualified_locale.obj
 0002:0001b4b4       ??_C@_1BC@CHBCPFPI@?$AAp?$AAr?$AA?5?$AAc?$AAh?$AAi?$AAn?$AAa?$AA?$AA@ 004834b4     libucrt:get_qualified_locale.obj
 0002:0001b4c8       ??_C@_1BC@JAOIIFKD@?$AAp?$AAr?$AA?9?$AAc?$AAh?$AAi?$AAn?$AAa?$AA?$AA@ 004834c8     libucrt:get_qualified_locale.obj
 0002:0001b4dc       ??_C@_1BI@BEHPPHKC@?$AAp?$AAu?$AAe?$AAr?$AAt?$AAo?$AA?9?$AAr?$AAi?$AAc?$AAo?$AA?$AA@ 004834dc     libucrt:get_qualified_locale.obj
 0002:0001b4f4       ??_C@_1O@PAEOFKDI@?$AAs?$AAl?$AAo?$AAv?$AAa?$AAk?$AA?$AA@ 004834f4     libucrt:get_qualified_locale.obj
 0002:0001b504       ??_C@_1BK@FIHMCKAM@?$AAs?$AAo?$AAu?$AAt?$AAh?$AA?5?$AAa?$AAf?$AAr?$AAi?$AAc?$AAa?$AA?$AA@ 00483504     libucrt:get_qualified_locale.obj
 0002:0001b520       ??_C@_1BI@NAEOODKB@?$AAs?$AAo?$AAu?$AAt?$AAh?$AA?5?$AAk?$AAo?$AAr?$AAe?$AAa?$AA?$AA@ 00483520     libucrt:get_qualified_locale.obj
 0002:0001b538       ??_C@_1BK@FBDGGIFF@?$AAs?$AAo?$AAu?$AAt?$AAh?$AA?9?$AAa?$AAf?$AAr?$AAi?$AAc?$AAa?$AA?$AA@ 00483538     libucrt:get_qualified_locale.obj
 0002:0001b554       ??_C@_1BI@GHLEJDPK@?$AAs?$AAo?$AAu?$AAt?$AAh?$AA?9?$AAk?$AAo?$AAr?$AAe?$AAa?$AA?$AA@ 00483554     libucrt:get_qualified_locale.obj
 0002:0001b56c       ??_C@_1CE@PLHLOMJF@?$AAt?$AAr?$AAi?$AAn?$AAi?$AAd?$AAa?$AAd?$AA?5?$AA?$CG?$AA?5?$AAt?$AAo?$AAb?$AAa?$AAg?$AAo?$AA?$AA@ 0048356c     libucrt:get_qualified_locale.obj
 0002:0001b590       ??_C@_1BO@MODIMHHI@?$AAu?$AAn?$AAi?$AAt?$AAe?$AAd?$AA?9?$AAk?$AAi?$AAn?$AAg?$AAd?$AAo?$AAm?$AA?$AA@ 00483590     libucrt:get_qualified_locale.obj
 0002:0001b5b0       ??_C@_1BM@FFHJONBJ@?$AAu?$AAn?$AAi?$AAt?$AAe?$AAd?$AA?9?$AAs?$AAt?$AAa?$AAt?$AAe?$AAs?$AA?$AA@ 004835b0     libucrt:get_qualified_locale.obj
 0002:0001b5d0       ___acrt_rg_language        004835d0     libucrt:get_qualified_locale.obj
 0002:0001b8dc       ___acrt_rg_language_count  004838dc     libucrt:get_qualified_locale.obj
 0002:0001b8e0       ___acrt_rg_country         004838e0     libucrt:get_qualified_locale.obj
 0002:0001b9f4       ___acrt_rg_country_count   004839f4     libucrt:get_qualified_locale.obj
 0002:0001b9f8       ??_C@_17DNCLJFIF@?$AAA?$AAC?$AAP?$AA?$AA@ 004839f8     libucrt:get_qualified_locale.obj
 0002:0001ba00       ??_C@_17CIKBIHLH@?$AAO?$AAC?$AAP?$AA?$AA@ 00483a00     libucrt:get_qualified_locale.obj
 0002:0001ba08       ___rglangidNotDefault      00483a08     libucrt:getqloc_downlevel.obj
 0002:0001ba1c       ??_C@_01GBGANLPD@0?$AA@    00483a1c     libucrt:cfout.obj
 0002:0001ba20       ??_C@_05DNEBIAHO@1?$CDINF?$AA@ 00483a20     libucrt:cfout.obj
 0002:0001ba28       ??_C@_06IMKFLFPG@1?$CDQNAN?$AA@ 00483a28     libucrt:cfout.obj
 0002:0001ba30       ??_C@_06PGGFOGJG@1?$CDSNAN?$AA@ 00483a30     libucrt:cfout.obj
 0002:0001ba38       ??_C@_05PHHOCPM@1?$CDIND?$AA@ 00483a38     libucrt:cfout.obj
 0002:0001ba40       ??_C@_02CLFPBFFP@TZ?$AA@   00483a40     libucrt:tzset.obj
 0002:0001c168       ??_C@_15EMKDOKLE@?$AAa?$AAr?$AA?$AA@ 00484168     libucrt:lcidtoname_downlevel.obj
 0002:0001c170       ??_C@_15KNPADPLH@?$AAb?$AAg?$AA?$AA@ 00484170     libucrt:lcidtoname_downlevel.obj
 0002:0001c178       ??_C@_15EDMHLDMO@?$AAc?$AAa?$AA?$AA@ 00484178     libucrt:lcidtoname_downlevel.obj
 0002:0001c180       ??_C@_1O@BPEAJADD@?$AAz?$AAh?$AA?9?$AAC?$AAH?$AAS?$AA?$AA@ 00484180     libucrt:lcidtoname_downlevel.obj
 0002:0001c190       ??_C@_15LJNHCMNK@?$AAc?$AAs?$AA?$AA@ 00484190     libucrt:lcidtoname_downlevel.obj
 0002:0001c198       ??_C@_15FOMCIDHG@?$AAd?$AAa?$AA?$AA@ 00484198     libucrt:lcidtoname_downlevel.obj
 0002:0001c1a0       ??_C@_15NBKABECB@?$AAd?$AAe?$AA?$AA@ 004841a0     libucrt:lcidtoname_downlevel.obj
 0002:0001c1a8       ??_C@_15GHPEIIAO@?$AAe?$AAl?$AA?$AA@ 004841a8     libucrt:lcidtoname_downlevel.obj
 0002:0001c1b0       ??_C@_15MNPNEAIF@?$AAe?$AAn?$AA?$AA@ 004841b0     libucrt:lcidtoname_downlevel.obj
 0002:0001c1b8       ??_C@_15GPIOMPMH@?$AAe?$AAs?$AA?$AA@ 004841b8     libucrt:lcidtoname_downlevel.obj
 0002:0001c1c0       ??_C@_15NGLOAKJC@?$AAf?$AAi?$AA?$AA@ 004841c0     libucrt:lcidtoname_downlevel.obj
 0002:0001c1c8       ??_C@_15FBKGNKAM@?$AAf?$AAr?$AA?$AA@ 004841c8     libucrt:lcidtoname_downlevel.obj
 0002:0001c1d0       ??_C@_15KGGCNEFK@?$AAh?$AAe?$AA?$AA@ 004841d0     libucrt:lcidtoname_downlevel.obj
 0002:0001c1d8       ??_C@_15PGHLIDMF@?$AAh?$AAu?$AA?$AA@ 004841d8     libucrt:lcidtoname_downlevel.obj
 0002:0001c1e0       ??_C@_15BIEMAPLM@?$AAi?$AAs?$AA?$AA@ 004841e0     libucrt:lcidtoname_downlevel.obj
 0002:0001c1e8       ??_C@_15IFJLDHAF@?$AAi?$AAt?$AA?$AA@ 004841e8     libucrt:lcidtoname_downlevel.obj
 0002:0001c1f0       ??_C@_15GEMIOCAG@?$AAj?$AAa?$AA?$AA@ 004841f0     libucrt:lcidtoname_downlevel.obj
 0002:0001c1f8       ??_C@_15EPELEGJA@?$AAk?$AAo?$AA?$AA@ 004841f8     libucrt:lcidtoname_downlevel.obj
 0002:0001c200       ??_C@_15NDDHIMN@?$AAn?$AAl?$AA?$AA@ 00484200     libucrt:lcidtoname_downlevel.obj
 0002:0001c208       ??_C@_15BPIGNHCD@?$AAn?$AAo?$AA?$AA@ 00484208     libucrt:lcidtoname_downlevel.obj
 0002:0001c210       ??_C@_15DEOPBLCG@?$AAp?$AAl?$AA?$AA@ 00484210     libucrt:lcidtoname_downlevel.obj
 0002:0001c218       ??_C@_15KBECGEFG@?$AAp?$AAt?$AA?$AA@ 00484218     libucrt:lcidtoname_downlevel.obj
 0002:0001c220       ??_C@_15GLJCBFMD@?$AAr?$AAo?$AA?$AA@ 00484220     libucrt:lcidtoname_downlevel.obj
 0002:0001c228       ??_C@_15FEDGKCDI@?$AAr?$AAu?$AA?$AA@ 00484228     libucrt:lcidtoname_downlevel.obj
 0002:0001c230       ??_C@_15GLKMLLHM@?$AAh?$AAr?$AA?$AA@ 00484230     libucrt:lcidtoname_downlevel.obj
 0002:0001c238       ??_C@_15CPKMFBDB@?$AAs?$AAk?$AA?$AA@ 00484238     libucrt:lcidtoname_downlevel.obj
 0002:0001c240       ??_C@_15BAAIOGMK@?$AAs?$AAq?$AA?$AA@ 00484240     libucrt:lcidtoname_downlevel.obj
 0002:0001c248       ??_C@_15INNPNOHD@?$AAs?$AAv?$AA?$AA@ 00484248     libucrt:lcidtoname_downlevel.obj
 0002:0001c250       ??_C@_15CABMMOGH@?$AAt?$AAh?$AA?$AA@ 00484250     libucrt:lcidtoname_downlevel.obj
 0002:0001c258       ??_C@_15BPLIHJJM@?$AAt?$AAr?$AA?$AA@ 00484258     libucrt:lcidtoname_downlevel.obj
 0002:0001c260       ??_C@_15NEOEKKDJ@?$AAu?$AAr?$AA?$AA@ 00484260     libucrt:lcidtoname_downlevel.obj
 0002:0001c268       ??_C@_15NFICGAJK@?$AAi?$AAd?$AA?$AA@ 00484268     libucrt:lcidtoname_downlevel.obj
 0002:0001c270       ??_C@_15HPJPHDM@?$AAb?$AAe?$AA?$AA@ 00484270     libucrt:lcidtoname_downlevel.obj
 0002:0001c278       ??_C@_15LCHLGJII@?$AAs?$AAl?$AA?$AA@ 00484278     libucrt:lcidtoname_downlevel.obj
 0002:0001c280       ??_C@_15PCFJPHHO@?$AAe?$AAt?$AA?$AA@ 00484280     libucrt:lcidtoname_downlevel.obj
 0002:0001c288       ??_C@_15HPFPGODN@?$AAl?$AAv?$AA?$AA@ 00484288     libucrt:lcidtoname_downlevel.obj
 0002:0001c290       ??_C@_15NFFGKGLG@?$AAl?$AAt?$AA?$AA@ 00484290     libucrt:lcidtoname_downlevel.obj
 0002:0001c298       ??_C@_15BDAKCCHN@?$AAf?$AAa?$AA?$AA@ 00484298     libucrt:lcidtoname_downlevel.obj
 0002:0001c2a0       ??_C@_15NFGIAIAJ@?$AAv?$AAi?$AA?$AA@ 004842a0     libucrt:lcidtoname_downlevel.obj
 0002:0001c2a8       ??_C@_15LMKNDMHN@?$AAh?$AAy?$AA?$AA@ 004842a8     libucrt:lcidtoname_downlevel.obj
 0002:0001c2b0       ??_C@_15IJBHMCFL@?$AAa?$AAz?$AA?$AA@ 004842b0     libucrt:lcidtoname_downlevel.obj
 0002:0001c2b8       ??_C@_15EKOFJABL@?$AAe?$AAu?$AA?$AA@ 004842b8     libucrt:lcidtoname_downlevel.obj
 0002:0001c2c0       ??_C@_15BGHADCNK@?$AAm?$AAk?$AA?$AA@ 004842c0     libucrt:lcidtoname_downlevel.obj
 0002:0001c2c8       ??_C@_15JDNICKHM@?$AAa?$AAf?$AA?$AA@ 004842c8     libucrt:lcidtoname_downlevel.obj
 0002:0001c2d0       ??_C@_15KPJEDBKD@?$AAk?$AAa?$AA?$AA@ 004842d0     libucrt:lcidtoname_downlevel.obj
 0002:0001c2d8       ??_C@_15PDNFFFEO@?$AAf?$AAo?$AA?$AA@ 004842d8     libucrt:lcidtoname_downlevel.obj
 0002:0001c2e0       ??_C@_15OMLEGLOC@?$AAh?$AAi?$AA?$AA@ 004842e0     libucrt:lcidtoname_downlevel.obj
 0002:0001c2e8       ??_C@_15IDNNENKK@?$AAm?$AAs?$AA?$AA@ 004842e8     libucrt:lcidtoname_downlevel.obj
 0002:0001c2f0       ??_C@_15MACJNBMH@?$AAk?$AAk?$AA?$AA@ 004842f0     libucrt:lcidtoname_downlevel.obj
 0002:0001c2f8       ??_C@_15DKDJEOND@?$AAk?$AAy?$AA?$AA@ 004842f8     libucrt:lcidtoname_downlevel.obj
 0002:0001c300       ??_C@_15DFGDLJBG@?$AAs?$AAw?$AA?$AA@ 00484300     libucrt:lcidtoname_downlevel.obj
 0002:0001c308       ??_C@_15BBFAICNG@?$AAu?$AAz?$AA?$AA@ 00484308     libucrt:lcidtoname_downlevel.obj
 0002:0001c310       ??_C@_15DKNDCGEA@?$AAt?$AAt?$AA?$AA@ 00484310     libucrt:lcidtoname_downlevel.obj
 0002:0001c318       ??_C@_15MGIFMDPL@?$AAp?$AAa?$AA?$AA@ 00484318     libucrt:lcidtoname_downlevel.obj
 0002:0001c320       ??_C@_15HCNDBBA@?$AAg?$AAu?$AA?$AA@ 00484320     libucrt:lcidtoname_downlevel.obj
 0002:0001c328       ??_C@_15FNBEIBON@?$AAt?$AAa?$AA?$AA@ 00484328     libucrt:lcidtoname_downlevel.obj
 0002:0001c330       ??_C@_15NCHGBGLK@?$AAt?$AAe?$AA?$AA@ 00484330     libucrt:lcidtoname_downlevel.obj
 0002:0001c338       ??_C@_15PHPHCBPF@?$AAk?$AAn?$AA?$AA@ 00484338     libucrt:lcidtoname_downlevel.obj
 0002:0001c340       ??_C@_15DLGBCKMP@?$AAm?$AAr?$AA?$AA@ 00484340     libucrt:lcidtoname_downlevel.obj
 0002:0001c348       ??_C@_15EABBLBFF@?$AAs?$AAa?$AA?$AA@ 00484348     libucrt:lcidtoname_downlevel.obj
 0002:0001c350       ??_C@_15CBKOMCOI@?$AAm?$AAn?$AA?$AA@ 00484350     libucrt:lcidtoname_downlevel.obj
 0002:0001c358       ??_C@_15CKDMCJAF@?$AAg?$AAl?$AA?$AA@ 00484358     libucrt:lcidtoname_downlevel.obj
 0002:0001c360       ??_C@_17CNJFBPG@?$AAk?$AAo?$AAk?$AA?$AA@ 00484360     libucrt:lcidtoname_downlevel.obj
 0002:0001c368       ??_C@_17FFBJICPL@?$AAs?$AAy?$AAr?$AA?$AA@ 00484368     libucrt:lcidtoname_downlevel.obj
 0002:0001c370       ??_C@_17KPNDCPAF@?$AAd?$AAi?$AAv?$AA?$AA@ 00484370     libucrt:lcidtoname_downlevel.obj
 0002:0001c378       ??_C@_11LOCGONAA@?$AA?$AA@ 00484378     libucrt:lcidtoname_downlevel.obj
 0002:0001c37c       ??_C@_1M@OKAHONE@?$AAa?$AAr?$AA?9?$AAS?$AAA?$AA?$AA@ 0048437c     libucrt:lcidtoname_downlevel.obj
 0002:0001c388       ??_C@_1M@FFFIGIGK@?$AAb?$AAg?$AA?9?$AAB?$AAG?$AA?$AA@ 00484388     libucrt:lcidtoname_downlevel.obj
 0002:0001c394       ??_C@_1M@BJNKEDC@?$AAc?$AAa?$AA?9?$AAE?$AAS?$AA?$AA@ 00484394     libucrt:lcidtoname_downlevel.obj
 0002:0001c3a0       ??_C@_1M@IJJHFJHA@?$AAc?$AAs?$AA?9?$AAC?$AAZ?$AA?$AA@ 004843a0     libucrt:lcidtoname_downlevel.obj
 0002:0001c3ac       ??_C@_1M@CLPEOBGI@?$AAd?$AAa?$AA?9?$AAD?$AAK?$AA?$AA@ 004843ac     libucrt:lcidtoname_downlevel.obj
 0002:0001c3b8       ??_C@_1M@MCMADGCB@?$AAd?$AAe?$AA?9?$AAD?$AAE?$AA?$AA@ 004843b8     libucrt:lcidtoname_downlevel.obj
 0002:0001c3c4       ??_C@_1M@OOCKEMAM@?$AAe?$AAl?$AA?9?$AAG?$AAR?$AA?$AA@ 004843c4     libucrt:lcidtoname_downlevel.obj
 0002:0001c3d0       ??_C@_1M@DDNJFGID@?$AAf?$AAi?$AA?9?$AAF?$AAI?$AA?$AA@ 004843d0     libucrt:lcidtoname_downlevel.obj
 0002:0001c3dc       ??_C@_1M@GLIPPMAC@?$AAf?$AAr?$AA?9?$AAF?$AAR?$AA?$AA@ 004843dc     libucrt:lcidtoname_downlevel.obj
 0002:0001c3e8       ??_C@_1M@GFMCHPE@?$AAh?$AAe?$AA?9?$AAI?$AAL?$AA?$AA@ 004843e8     libucrt:lcidtoname_downlevel.obj
 0002:0001c3f4       ??_C@_1M@MHLPGNKM@?$AAh?$AAu?$AA?9?$AAH?$AAU?$AA?$AA@ 004843f4     libucrt:lcidtoname_downlevel.obj
 0002:0001c400       ??_C@_1M@LPDDNNPN@?$AAi?$AAs?$AA?9?$AAI?$AAS?$AA?$AA@ 00484400     libucrt:lcidtoname_downlevel.obj
 0002:0001c40c       ??_C@_1M@MADIPODN@?$AAi?$AAt?$AA?9?$AAI?$AAT?$AA?$AA@ 0048440c     libucrt:lcidtoname_downlevel.obj
 0002:0001c418       ??_C@_1M@IHBJJGG@?$AAn?$AAl?$AA?9?$AAN?$AAL?$AA?$AA@ 00484418     libucrt:lcidtoname_downlevel.obj
 0002:0001c424       ??_C@_1M@EANAGDL@?$AAn?$AAb?$AA?9?$AAN?$AAO?$AA?$AA@ 00484424     libucrt:lcidtoname_downlevel.obj
 0002:0001c430       ??_C@_1M@NEIEMEGP@?$AAp?$AAl?$AA?9?$AAP?$AAL?$AA?$AA@ 00484430     libucrt:lcidtoname_downlevel.obj
 0002:0001c43c       ??_C@_1M@BOCFIGEP@?$AAp?$AAt?$AA?9?$AAB?$AAR?$AA?$AA@ 0048443c     libucrt:lcidtoname_downlevel.obj
 0002:0001c448       ??_C@_1M@IMPFOPBG@?$AAr?$AAo?$AA?9?$AAR?$AAO?$AA?$AA@ 00484448     libucrt:lcidtoname_downlevel.obj
 0002:0001c454       ??_C@_1M@IDNNEJMM@?$AAr?$AAu?$AA?9?$AAR?$AAU?$AA?$AA@ 00484454     libucrt:lcidtoname_downlevel.obj
 0002:0001c460       ??_C@_1M@LILEEOGM@?$AAh?$AAr?$AA?9?$AAH?$AAR?$AA?$AA@ 00484460     libucrt:lcidtoname_downlevel.obj
 0002:0001c46c       ??_C@_1M@FKIFEHPB@?$AAs?$AAk?$AA?9?$AAS?$AAK?$AA?$AA@ 0048446c     libucrt:lcidtoname_downlevel.obj
 0002:0001c478       ??_C@_1M@LJMAMNPJ@?$AAs?$AAq?$AA?9?$AAA?$AAL?$AA?$AA@ 00484478     libucrt:lcidtoname_downlevel.obj
 0002:0001c484       ??_C@_1M@GIAKDKJK@?$AAs?$AAv?$AA?9?$AAS?$AAE?$AA?$AA@ 00484484     libucrt:lcidtoname_downlevel.obj
 0002:0001c490       ??_C@_1M@MKJKIKCL@?$AAt?$AAh?$AA?9?$AAT?$AAH?$AA?$AA@ 00484490     libucrt:lcidtoname_downlevel.obj
 0002:0001c49c       ??_C@_1M@MFLCCMPB@?$AAt?$AAr?$AA?9?$AAT?$AAR?$AA?$AA@ 0048449c     libucrt:lcidtoname_downlevel.obj
 0002:0001c4a8       ??_C@_1M@OIJHDKJN@?$AAu?$AAr?$AA?9?$AAP?$AAK?$AA?$AA@ 004844a8     libucrt:lcidtoname_downlevel.obj
 0002:0001c4b4       ??_C@_1M@LHIPCIEK@?$AAi?$AAd?$AA?9?$AAI?$AAD?$AA?$AA@ 004844b4     libucrt:lcidtoname_downlevel.obj
 0002:0001c4c0       ??_C@_1M@MFMOBGI@?$AAu?$AAk?$AA?9?$AAU?$AAA?$AA?$AA@ 004844c0     libucrt:lcidtoname_downlevel.obj
 0002:0001c4cc       ??_C@_1M@OBGLJIPL@?$AAb?$AAe?$AA?9?$AAB?$AAY?$AA?$AA@ 004844cc     libucrt:lcidtoname_downlevel.obj
 0002:0001c4d8       ??_C@_1M@BCFAJEAD@?$AAs?$AAl?$AA?9?$AAS?$AAI?$AA?$AA@ 004844d8     libucrt:lcidtoname_downlevel.obj
 0002:0001c4e4       ??_C@_1M@FKFFEDDN@?$AAe?$AAt?$AA?9?$AAE?$AAE?$AA?$AA@ 004844e4     libucrt:lcidtoname_downlevel.obj
 0002:0001c4f0       ??_C@_1M@KGKKAACI@?$AAl?$AAv?$AA?9?$AAL?$AAV?$AA?$AA@ 004844f0     libucrt:lcidtoname_downlevel.obj
 0002:0001c4fc       ??_C@_1M@IFGBIJO@?$AAl?$AAt?$AA?9?$AAL?$AAT?$AA?$AA@ 004844fc     libucrt:lcidtoname_downlevel.obj
 0002:0001c508       ??_C@_1M@FGEAHEDM@?$AAf?$AAa?$AA?9?$AAI?$AAR?$AA?$AA@ 00484508     libucrt:lcidtoname_downlevel.obj
 0002:0001c514       ??_C@_1M@KBMAIBFN@?$AAv?$AAi?$AA?9?$AAV?$AAN?$AA?$AA@ 00484514     libucrt:lcidtoname_downlevel.obj
 0002:0001c520       ??_C@_1M@GPCBKDJK@?$AAh?$AAy?$AA?9?$AAA?$AAM?$AA?$AA@ 00484520     libucrt:lcidtoname_downlevel.obj
 0002:0001c52c       ??_C@_1BG@BECMDDJB@?$AAa?$AAz?$AA?9?$AAA?$AAZ?$AA?9?$AAL?$AAa?$AAt?$AAn?$AA?$AA@ 0048452c     libucrt:lcidtoname_downlevel.obj
 0002:0001c544       ??_C@_1M@MAOFCAEA@?$AAe?$AAu?$AA?9?$AAE?$AAS?$AA?$AA@ 00484544     libucrt:lcidtoname_downlevel.obj
 0002:0001c550       ??_C@_1M@IGHABKPI@?$AAm?$AAk?$AA?9?$AAM?$AAK?$AA?$AA@ 00484550     libucrt:lcidtoname_downlevel.obj
 0002:0001c55c       ??_C@_1M@IAIGNEJG@?$AAt?$AAn?$AA?9?$AAZ?$AAA?$AA?$AA@ 0048455c     libucrt:lcidtoname_downlevel.obj
 0002:0001c568       ??_C@_1M@IIJCOJFA@?$AAx?$AAh?$AA?9?$AAZ?$AAA?$AA?$AA@ 00484568     libucrt:lcidtoname_downlevel.obj
 0002:0001c574       ??_C@_1M@LGPJHNJH@?$AAz?$AAu?$AA?9?$AAZ?$AAA?$AA?$AA@ 00484574     libucrt:lcidtoname_downlevel.obj
 0002:0001c580       ??_C@_1M@HOKAOIO@?$AAa?$AAf?$AA?9?$AAZ?$AAA?$AA?$AA@ 00484580     libucrt:lcidtoname_downlevel.obj
 0002:0001c58c       ??_C@_1M@DPCLHLIE@?$AAk?$AAa?$AA?9?$AAG?$AAE?$AA?$AA@ 0048458c     libucrt:lcidtoname_downlevel.obj
 0002:0001c598       ??_C@_1M@BLKMHJBI@?$AAf?$AAo?$AA?9?$AAF?$AAO?$AA?$AA@ 00484598     libucrt:lcidtoname_downlevel.obj
 0002:0001c5a4       ??_C@_1M@LGGJAPPB@?$AAh?$AAi?$AA?9?$AAI?$AAN?$AA?$AA@ 004845a4     libucrt:lcidtoname_downlevel.obj
 0002:0001c5b0       ??_C@_1M@FIKPIHFE@?$AAm?$AAt?$AA?9?$AAM?$AAT?$AA?$AA@ 004845b0     libucrt:lcidtoname_downlevel.obj
 0002:0001c5bc       ??_C@_1M@HEGGPBFA@?$AAs?$AAe?$AA?9?$AAN?$AAO?$AA?$AA@ 004845bc     libucrt:lcidtoname_downlevel.obj
 0002:0001c5c8       ??_C@_1M@EIBJEEPA@?$AAm?$AAs?$AA?9?$AAM?$AAY?$AA?$AA@ 004845c8     libucrt:lcidtoname_downlevel.obj
 0002:0001c5d4       ??_C@_1M@FHLBGMPP@?$AAk?$AAk?$AA?9?$AAK?$AAZ?$AA?$AA@ 004845d4     libucrt:lcidtoname_downlevel.obj
 0002:0001c5e0       ??_C@_1M@NGJJLCGI@?$AAk?$AAy?$AA?9?$AAK?$AAG?$AA?$AA@ 004845e0     libucrt:lcidtoname_downlevel.obj
 0002:0001c5ec       ??_C@_1M@GIENNBFC@?$AAs?$AAw?$AA?9?$AAK?$AAE?$AA?$AA@ 004845ec     libucrt:lcidtoname_downlevel.obj
 0002:0001c5f8       ??_C@_1BG@NDGMJIMJ@?$AAu?$AAz?$AA?9?$AAU?$AAZ?$AA?9?$AAL?$AAa?$AAt?$AAn?$AA?$AA@ 004845f8     libucrt:lcidtoname_downlevel.obj
 0002:0001c610       ??_C@_1M@IDCCIHBC@?$AAt?$AAt?$AA?9?$AAR?$AAU?$AA?$AA@ 00484610     libucrt:lcidtoname_downlevel.obj
 0002:0001c61c       ??_C@_1M@LOICPMOJ@?$AAb?$AAn?$AA?9?$AAI?$AAN?$AA?$AA@ 0048461c     libucrt:lcidtoname_downlevel.obj
 0002:0001c628       ??_C@_1M@KPKKNEAH@?$AAp?$AAa?$AA?9?$AAI?$AAN?$AA?$AA@ 00484628     libucrt:lcidtoname_downlevel.obj
 0002:0001c634       ??_C@_1M@PJGPPBOG@?$AAg?$AAu?$AA?9?$AAI?$AAN?$AA?$AA@ 00484634     libucrt:lcidtoname_downlevel.obj
 0002:0001c640       ??_C@_1M@KMKMOPHI@?$AAt?$AAa?$AA?9?$AAI?$AAN?$AA?$AA@ 00484640     libucrt:lcidtoname_downlevel.obj
 0002:0001c64c       ??_C@_1M@KFEHEPAC@?$AAt?$AAe?$AA?9?$AAI?$AAN?$AA?$AA@ 0048464c     libucrt:lcidtoname_downlevel.obj
 0002:0001c658       ??_C@_1M@CDCLMGHI@?$AAk?$AAn?$AA?9?$AAI?$AAN?$AA?$AA@ 00484658     libucrt:lcidtoname_downlevel.obj
 0002:0001c664       ??_C@_1M@MIODLDKF@?$AAm?$AAl?$AA?9?$AAI?$AAN?$AA?$AA@ 00484664     libucrt:lcidtoname_downlevel.obj
 0002:0001c670       ??_C@_1M@PBIEACPO@?$AAm?$AAr?$AA?9?$AAI?$AAN?$AA?$AA@ 00484670     libucrt:lcidtoname_downlevel.obj
 0002:0001c67c       ??_C@_1M@NIDEAGPH@?$AAs?$AAa?$AA?9?$AAI?$AAN?$AA?$AA@ 0048467c     libucrt:lcidtoname_downlevel.obj
 0002:0001c688       ??_C@_1M@FHIHCBIO@?$AAm?$AAn?$AA?9?$AAM?$AAN?$AA?$AA@ 00484688     libucrt:lcidtoname_downlevel.obj
 0002:0001c694       ??_C@_1M@JAIJPENP@?$AAc?$AAy?$AA?9?$AAG?$AAB?$AA?$AA@ 00484694     libucrt:lcidtoname_downlevel.obj
 0002:0001c6a0       ??_C@_1M@PHGFBEPN@?$AAg?$AAl?$AA?9?$AAE?$AAS?$AA?$AA@ 004846a0     libucrt:lcidtoname_downlevel.obj
 0002:0001c6ac       ??_C@_1O@KPIPDNCP@?$AAk?$AAo?$AAk?$AA?9?$AAI?$AAN?$AA?$AA@ 004846ac     libucrt:lcidtoname_downlevel.obj
 0002:0001c6bc       ??_C@_1O@KNHJLDJA@?$AAs?$AAy?$AAr?$AA?9?$AAS?$AAY?$AA?$AA@ 004846bc     libucrt:lcidtoname_downlevel.obj
 0002:0001c6cc       ??_C@_1O@MKEKBLAH@?$AAd?$AAi?$AAv?$AA?9?$AAM?$AAV?$AA?$AA@ 004846cc     libucrt:lcidtoname_downlevel.obj
 0002:0001c6dc       ??_C@_1O@OHDCKDDF@?$AAq?$AAu?$AAz?$AA?9?$AAB?$AAO?$AA?$AA@ 004846dc     libucrt:lcidtoname_downlevel.obj
 0002:0001c6ec       ??_C@_1M@LEPJNLFD@?$AAn?$AAs?$AA?9?$AAZ?$AAA?$AA?$AA@ 004846ec     libucrt:lcidtoname_downlevel.obj
 0002:0001c6f8       ??_C@_1M@OMLEIIJB@?$AAm?$AAi?$AA?9?$AAN?$AAZ?$AA?$AA@ 004846f8     libucrt:lcidtoname_downlevel.obj
 0002:0001c704       ??_C@_1M@PMPEAILG@?$AAa?$AAr?$AA?9?$AAI?$AAQ?$AA?$AA@ 00484704     libucrt:lcidtoname_downlevel.obj
 0002:0001c710       ??_C@_1M@CNKPNOEE@?$AAd?$AAe?$AA?9?$AAC?$AAH?$AA?$AA@ 00484710     libucrt:lcidtoname_downlevel.obj
 0002:0001c71c       ??_C@_1M@LKMGMLKO@?$AAe?$AAn?$AA?9?$AAG?$AAB?$AA?$AA@ 0048471c     libucrt:lcidtoname_downlevel.obj
 0002:0001c728       ??_C@_1M@PGKJFFGL@?$AAe?$AAs?$AA?9?$AAM?$AAX?$AA?$AA@ 00484728     libucrt:lcidtoname_downlevel.obj
 0002:0001c734       ??_C@_1M@DNNANBDC@?$AAf?$AAr?$AA?9?$AAB?$AAE?$AA?$AA@ 00484734     libucrt:lcidtoname_downlevel.obj
 0002:0001c740       ??_C@_1M@HLGMDFHM@?$AAi?$AAt?$AA?9?$AAC?$AAH?$AA?$AA@ 00484740     libucrt:lcidtoname_downlevel.obj
 0002:0001c74c       ??_C@_1M@CLLBGJH@?$AAn?$AAl?$AA?9?$AAB?$AAE?$AA?$AA@ 0048474c     libucrt:lcidtoname_downlevel.obj
 0002:0001c758       ??_C@_1M@BODBOGLF@?$AAn?$AAn?$AA?9?$AAN?$AAO?$AA?$AA@ 00484758     libucrt:lcidtoname_downlevel.obj
 0002:0001c764       ??_C@_1M@HFFAHKAD@?$AAp?$AAt?$AA?9?$AAP?$AAT?$AA?$AA@ 00484764     libucrt:lcidtoname_downlevel.obj
 0002:0001c770       ??_C@_1BG@LNOAKHIE@?$AAs?$AAr?$AA?9?$AAS?$AAP?$AA?9?$AAL?$AAa?$AAt?$AAn?$AA?$AA@ 00484770     libucrt:lcidtoname_downlevel.obj
 0002:0001c788       ??_C@_1M@HBMHBGAK@?$AAs?$AAv?$AA?9?$AAF?$AAI?$AA?$AA@ 00484788     libucrt:lcidtoname_downlevel.obj
 0002:0001c794       ??_C@_1BG@DGCJGJBE@?$AAa?$AAz?$AA?9?$AAA?$AAZ?$AA?9?$AAC?$AAy?$AAr?$AAl?$AA?$AA@ 00484794     libucrt:lcidtoname_downlevel.obj
 0002:0001c7ac       ??_C@_1M@KEJDAAHB@?$AAs?$AAe?$AA?9?$AAS?$AAE?$AA?$AA@ 004847ac     libucrt:lcidtoname_downlevel.obj
 0002:0001c7b8       ??_C@_1M@HEIBJJAD@?$AAm?$AAs?$AA?9?$AAB?$AAN?$AA?$AA@ 004847b8     libucrt:lcidtoname_downlevel.obj
 0002:0001c7c4       ??_C@_1BG@PBGJMCEM@?$AAu?$AAz?$AA?9?$AAU?$AAZ?$AA?9?$AAC?$AAy?$AAr?$AAl?$AA?$AA@ 004847c4     libucrt:lcidtoname_downlevel.obj
 0002:0001c7dc       ??_C@_1O@LAOBCMDF@?$AAq?$AAu?$AAz?$AA?9?$AAE?$AAC?$AA?$AA@ 004847dc     libucrt:lcidtoname_downlevel.obj
 0002:0001c7ec       ??_C@_1M@POEEMAIO@?$AAa?$AAr?$AA?9?$AAE?$AAG?$AA?$AA@ 004847ec     libucrt:lcidtoname_downlevel.obj
 0002:0001c7f8       ??_C@_1M@EFAKDEDL@?$AAz?$AAh?$AA?9?$AAH?$AAK?$AA?$AA@ 004847f8     libucrt:lcidtoname_downlevel.obj
 0002:0001c804       ??_C@_1M@HKKIJHGI@?$AAd?$AAe?$AA?9?$AAA?$AAT?$AA?$AA@ 00484804     libucrt:lcidtoname_downlevel.obj
 0002:0001c810       ??_C@_1M@KBFBEHJF@?$AAe?$AAn?$AA?9?$AAA?$AAU?$AA?$AA@ 00484810     libucrt:lcidtoname_downlevel.obj
 0002:0001c81c       ??_C@_1M@MNPLFAAH@?$AAe?$AAs?$AA?9?$AAE?$AAS?$AA?$AA@ 0048481c     libucrt:lcidtoname_downlevel.obj
 0002:0001c828       ??_C@_1M@HJOOJFMA@?$AAf?$AAr?$AA?9?$AAC?$AAA?$AA?$AA@ 00484828     libucrt:lcidtoname_downlevel.obj
 0002:0001c834       ??_C@_1BG@JPOFPNAB@?$AAs?$AAr?$AA?9?$AAS?$AAP?$AA?9?$AAC?$AAy?$AAr?$AAl?$AA?$AA@ 00484834     libucrt:lcidtoname_downlevel.obj
 0002:0001c84c       ??_C@_1M@LNFOCMOB@?$AAs?$AAe?$AA?9?$AAF?$AAI?$AA?$AA@ 0048484c     libucrt:lcidtoname_downlevel.obj
 0002:0001c858       ??_C@_1O@MGJBOAMB@?$AAq?$AAu?$AAz?$AA?9?$AAP?$AAE?$AA?$AA@ 00484858     libucrt:lcidtoname_downlevel.obj
 0002:0001c868       ??_C@_1M@GJINLBOK@?$AAa?$AAr?$AA?9?$AAL?$AAY?$AA?$AA@ 00484868     libucrt:lcidtoname_downlevel.obj
 0002:0001c874       ??_C@_1M@GGMNHJNL@?$AAz?$AAh?$AA?9?$AAS?$AAG?$AA?$AA@ 00484874     libucrt:lcidtoname_downlevel.obj
 0002:0001c880       ??_C@_1M@HOIKODND@?$AAd?$AAe?$AA?9?$AAL?$AAU?$AA?$AA@ 00484880     libucrt:lcidtoname_downlevel.obj
 0002:0001c88c       ??_C@_1M@DDOCCGFG@?$AAe?$AAn?$AA?9?$AAC?$AAA?$AA?$AA@ 0048488c     libucrt:lcidtoname_downlevel.obj
 0002:0001c898       ??_C@_1M@BNOEMJLF@?$AAe?$AAs?$AA?9?$AAG?$AAT?$AA?$AA@ 00484898     libucrt:lcidtoname_downlevel.obj
 0002:0001c8a4       ??_C@_1M@EOGNKEK@?$AAf?$AAr?$AA?9?$AAC?$AAH?$AA?$AA@ 004848a4     libucrt:lcidtoname_downlevel.obj
 0002:0001c8b0       ??_C@_1M@FLIDJFHL@?$AAh?$AAr?$AA?9?$AAB?$AAA?$AA?$AA@ 004848b0     libucrt:lcidtoname_downlevel.obj
 0002:0001c8bc       ??_C@_1O@FMCELNAJ@?$AAs?$AAm?$AAj?$AA?9?$AAN?$AAO?$AA?$AA@ 004848bc     libucrt:lcidtoname_downlevel.obj
 0002:0001c8cc       ??_C@_1M@JHGLJMGJ@?$AAa?$AAr?$AA?9?$AAD?$AAZ?$AA?$AA@ 004848cc     libucrt:lcidtoname_downlevel.obj
 0002:0001c8d8       ??_C@_1M@JKKFDCNP@?$AAz?$AAh?$AA?9?$AAM?$AAO?$AA?$AA@ 004848d8     libucrt:lcidtoname_downlevel.obj
 0002:0001c8e4       ??_C@_1M@GEEFALPE@?$AAd?$AAe?$AA?9?$AAL?$AAI?$AA?$AA@ 004848e4     libucrt:lcidtoname_downlevel.obj
 0002:0001c8f0       ??_C@_1M@IGEOFBG@?$AAe?$AAn?$AA?9?$AAN?$AAZ?$AA?$AA@ 004848f0     libucrt:lcidtoname_downlevel.obj
 0002:0001c8fc       ??_C@_1M@KDBONEHP@?$AAe?$AAs?$AA?9?$AAC?$AAR?$AA?$AA@ 004848fc     libucrt:lcidtoname_downlevel.obj
 0002:0001c908       ??_C@_1M@FHMDOHNN@?$AAf?$AAr?$AA?9?$AAL?$AAU?$AA?$AA@ 00484908     libucrt:lcidtoname_downlevel.obj
 0002:0001c914       ??_C@_1BG@NFKKMAFG@?$AAb?$AAs?$AA?9?$AAB?$AAA?$AA?9?$AAL?$AAa?$AAt?$AAn?$AA?$AA@ 00484914     libucrt:lcidtoname_downlevel.obj
 0002:0001c92c       ??_C@_1O@IMNBEMCI@?$AAs?$AAm?$AAj?$AA?9?$AAS?$AAE?$AA?$AA@ 0048492c     libucrt:lcidtoname_downlevel.obj
 0002:0001c93c       ??_C@_1M@DHHMBNDP@?$AAa?$AAr?$AA?9?$AAM?$AAA?$AA?$AA@ 0048493c     libucrt:lcidtoname_downlevel.obj
 0002:0001c948       ??_C@_1M@BNBLJCGH@?$AAe?$AAn?$AA?9?$AAI?$AAE?$AA?$AA@ 00484948     libucrt:lcidtoname_downlevel.obj
 0002:0001c954       ??_C@_1M@GEPAFMDL@?$AAe?$AAs?$AA?9?$AAP?$AAA?$AA?$AA@ 00484954     libucrt:lcidtoname_downlevel.obj
 0002:0001c960       ??_C@_1M@OJONDMDL@?$AAf?$AAr?$AA?9?$AAM?$AAC?$AA?$AA@ 00484960     libucrt:lcidtoname_downlevel.obj
 0002:0001c96c       ??_C@_1BG@OBCNFJB@?$AAs?$AAr?$AA?9?$AAB?$AAA?$AA?9?$AAL?$AAa?$AAt?$AAn?$AA?$AA@ 0048496c     libucrt:lcidtoname_downlevel.obj
 0002:0001c984       ??_C@_1O@KEMEEGPO@?$AAs?$AAm?$AAa?$AA?9?$AAN?$AAO?$AA?$AA@ 00484984     libucrt:lcidtoname_downlevel.obj
 0002:0001c994       ??_C@_1M@ELMGFODK@?$AAa?$AAr?$AA?9?$AAT?$AAN?$AA?$AA@ 00484994     libucrt:lcidtoname_downlevel.obj
 0002:0001c9a0       ??_C@_1M@BHDLHFAF@?$AAe?$AAn?$AA?9?$AAZ?$AAA?$AA?$AA@ 004849a0     libucrt:lcidtoname_downlevel.obj
 0002:0001c9ac       ??_C@_1M@BMGIGLIF@?$AAe?$AAs?$AA?9?$AAD?$AAO?$AA?$AA@ 004849ac     libucrt:lcidtoname_downlevel.obj
 0002:0001c9b8       ??_C@_1BG@CMBHIPBE@?$AAs?$AAr?$AA?9?$AAB?$AAA?$AA?9?$AAC?$AAy?$AAr?$AAl?$AA?$AA@ 004849b8     libucrt:lcidtoname_downlevel.obj
 0002:0001c9d0       ??_C@_1O@HEDBLHNP@?$AAs?$AAm?$AAa?$AA?9?$AAS?$AAE?$AA?$AA@ 004849d0     libucrt:lcidtoname_downlevel.obj
 0002:0001c9e0       ??_C@_1M@DAGCADIM@?$AAa?$AAr?$AA?9?$AAO?$AAM?$AA?$AA@ 004849e0     libucrt:lcidtoname_downlevel.obj
 0002:0001c9ec       ??_C@_1M@FODLMICG@?$AAe?$AAn?$AA?9?$AAJ?$AAM?$AA?$AA@ 004849ec     libucrt:lcidtoname_downlevel.obj
 0002:0001c9f8       ??_C@_1M@DNMLCIHB@?$AAe?$AAs?$AA?9?$AAV?$AAE?$AA?$AA@ 004849f8     libucrt:lcidtoname_downlevel.obj
 0002:0001ca04       ??_C@_1O@EOKHMKJK@?$AAs?$AAm?$AAs?$AA?9?$AAF?$AAI?$AA?$AA@ 00484a04     libucrt:lcidtoname_downlevel.obj
 0002:0001ca14       ??_C@_1M@CAFJMKOF@?$AAa?$AAr?$AA?9?$AAY?$AAE?$AA?$AA@ 00484a14     libucrt:lcidtoname_downlevel.obj
 0002:0001ca20       ??_C@_1M@CBFHIJLI@?$AAe?$AAn?$AA?9?$AAC?$AAB?$AA?$AA@ 00484a20     libucrt:lcidtoname_downlevel.obj
 0002:0001ca2c       ??_C@_1M@BGNFLDN@?$AAe?$AAs?$AA?9?$AAC?$AAO?$AA?$AA@ 00484a2c     libucrt:lcidtoname_downlevel.obj
 0002:0001ca38       ??_C@_1O@JMPHMAMC@?$AAs?$AAm?$AAn?$AA?9?$AAF?$AAI?$AA?$AA@ 00484a38     libucrt:lcidtoname_downlevel.obj
 0002:0001ca48       ??_C@_1M@JLANABKE@?$AAa?$AAr?$AA?9?$AAS?$AAY?$AA?$AA@ 00484a48     libucrt:lcidtoname_downlevel.obj
 0002:0001ca54       ??_C@_1M@HPKGCFGN@?$AAe?$AAn?$AA?9?$AAB?$AAZ?$AA?$AA@ 00484a54     libucrt:lcidtoname_downlevel.obj
 0002:0001ca60       ??_C@_1M@OLJCMLGM@?$AAe?$AAs?$AA?9?$AAP?$AAE?$AA?$AA@ 00484a60     libucrt:lcidtoname_downlevel.obj
 0002:0001ca6c       ??_C@_1M@MKKGFKLE@?$AAa?$AAr?$AA?9?$AAJ?$AAO?$AA?$AA@ 00484a6c     libucrt:lcidtoname_downlevel.obj
 0002:0001ca78       ??_C@_1M@EKPGLDNI@?$AAe?$AAn?$AA?9?$AAT?$AAT?$AA?$AA@ 00484a78     libucrt:lcidtoname_downlevel.obj
 0002:0001ca84       ??_C@_1M@OONGHFHE@?$AAe?$AAs?$AA?9?$AAA?$AAR?$AA?$AA@ 00484a84     libucrt:lcidtoname_downlevel.obj
 0002:0001ca90       ??_C@_1M@OOJFGBHE@?$AAa?$AAr?$AA?9?$AAL?$AAB?$AA?$AA@ 00484a90     libucrt:lcidtoname_downlevel.obj
 0002:0001ca9c       ??_C@_1M@GCEJHNEG@?$AAe?$AAn?$AA?9?$AAZ?$AAW?$AA?$AA@ 00484a9c     libucrt:lcidtoname_downlevel.obj
 0002:0001caa8       ??_C@_1M@JNOCAHJI@?$AAe?$AAs?$AA?9?$AAE?$AAC?$AA?$AA@ 00484aa8     libucrt:lcidtoname_downlevel.obj
 0002:0001cab4       ??_C@_1M@JEFHPGGB@?$AAa?$AAr?$AA?9?$AAK?$AAW?$AA?$AA@ 00484ab4     libucrt:lcidtoname_downlevel.obj
 0002:0001cac0       ??_C@_1M@MLKIBJOJ@?$AAe?$AAn?$AA?9?$AAP?$AAH?$AA?$AA@ 00484ac0     libucrt:lcidtoname_downlevel.obj
 0002:0001cacc       ??_C@_1M@BDNIPEND@?$AAe?$AAs?$AA?9?$AAC?$AAL?$AA?$AA@ 00484acc     libucrt:lcidtoname_downlevel.obj
 0002:0001cad8       ??_C@_1M@MPNMEKBD@?$AAa?$AAr?$AA?9?$AAA?$AAE?$AA?$AA@ 00484ad8     libucrt:lcidtoname_downlevel.obj
 0002:0001cae4       ??_C@_1M@KBJALCPI@?$AAe?$AAs?$AA?9?$AAU?$AAY?$AA?$AA@ 00484ae4     libucrt:lcidtoname_downlevel.obj
 0002:0001caf0       ??_C@_1M@LLCCOAGA@?$AAa?$AAr?$AA?9?$AAB?$AAH?$AA?$AA@ 00484af0     libucrt:lcidtoname_downlevel.obj
 0002:0001cafc       ??_C@_1M@PBFNCDEL@?$AAe?$AAs?$AA?9?$AAP?$AAY?$AA?$AA@ 00484afc     libucrt:lcidtoname_downlevel.obj
 0002:0001cb08       ??_C@_1M@EDGINPNP@?$AAa?$AAr?$AA?9?$AAQ?$AAA?$AA?$AA@ 00484b08     libucrt:lcidtoname_downlevel.obj
 0002:0001cb14       ??_C@_1M@MKDBIIJI@?$AAe?$AAs?$AA?9?$AAB?$AAO?$AA?$AA@ 00484b14     libucrt:lcidtoname_downlevel.obj
 0002:0001cb20       ??_C@_1M@CPKKEBLD@?$AAe?$AAs?$AA?9?$AAS?$AAV?$AA?$AA@ 00484b20     libucrt:lcidtoname_downlevel.obj
 0002:0001cb2c       ??_C@_1M@NDBGMMJL@?$AAe?$AAs?$AA?9?$AAH?$AAN?$AA?$AA@ 00484b2c     libucrt:lcidtoname_downlevel.obj
 0002:0001cb38       ??_C@_1M@JIJIBHDP@?$AAe?$AAs?$AA?9?$AAN?$AAI?$AA?$AA@ 00484b38     libucrt:lcidtoname_downlevel.obj
 0002:0001cb44       ??_C@_1M@CGFMKEEK@?$AAe?$AAs?$AA?9?$AAP?$AAR?$AA?$AA@ 00484b44     libucrt:lcidtoname_downlevel.obj
 0002:0001cb50       ??_C@_1O@ICJHKIIK@?$AAz?$AAh?$AA?9?$AAC?$AAH?$AAT?$AA?$AA@ 00484b50     libucrt:lcidtoname_downlevel.obj
 0002:0001cb60       ??_C@_15CLNEJCE@?$AAs?$AAr?$AA?$AA@ 00484b60     libucrt:lcidtoname_downlevel.obj
 0002:0001d288       ??_C@_1M@KAHEKEIG@?$AAa?$AAf?$AA?9?$AAz?$AAa?$AA?$AA@ 00485288     libucrt:lcidtoname_downlevel.obj
 0002:0001d294       ??_C@_1M@GIECOABL@?$AAa?$AAr?$AA?9?$AAa?$AAe?$AA?$AA@ 00485294     libucrt:lcidtoname_downlevel.obj
 0002:0001d2a0       ??_C@_1M@BMLMEKGI@?$AAa?$AAr?$AA?9?$AAb?$AAh?$AA?$AA@ 004852a0     libucrt:lcidtoname_downlevel.obj
 0002:0001d2ac       ??_C@_1M@DAPFDGGB@?$AAa?$AAr?$AA?9?$AAd?$AAz?$AA?$AA@ 004852ac     libucrt:lcidtoname_downlevel.obj
 0002:0001d2b8       ??_C@_1M@FJNKGKIG@?$AAa?$AAr?$AA?9?$AAe?$AAg?$AA?$AA@ 004852b8     libucrt:lcidtoname_downlevel.obj
 0002:0001d2c4       ??_C@_1M@FLGKKCLO@?$AAa?$AAr?$AA?9?$AAi?$AAq?$AA?$AA@ 004852c4     libucrt:lcidtoname_downlevel.obj
 0002:0001d2d0       ??_C@_1M@GNDIPALM@?$AAa?$AAr?$AA?9?$AAj?$AAo?$AA?$AA@ 004852d0     libucrt:lcidtoname_downlevel.obj
 0002:0001d2dc       ??_C@_1M@DDMJFMGJ@?$AAa?$AAr?$AA?9?$AAk?$AAw?$AA?$AA@ 004852dc     libucrt:lcidtoname_downlevel.obj
 0002:0001d2e8       ??_C@_1M@EJALMLHM@?$AAa?$AAr?$AA?9?$AAl?$AAb?$AA?$AA@ 004852e8     libucrt:lcidtoname_downlevel.obj
 0002:0001d2f4       ??_C@_1M@MOBDBLOC@?$AAa?$AAr?$AA?9?$AAl?$AAy?$AA?$AA@ 004852f4     libucrt:lcidtoname_downlevel.obj
 0002:0001d300       ??_C@_1M@JAOCLHDH@?$AAa?$AAr?$AA?9?$AAm?$AAa?$AA?$AA@ 00485300     libucrt:lcidtoname_downlevel.obj
 0002:0001d30c       ??_C@_1M@JHPMKJIE@?$AAa?$AAr?$AA?9?$AAo?$AAm?$AA?$AA@ 0048530c     libucrt:lcidtoname_downlevel.obj
 0002:0001d318       ??_C@_1M@OEPGHFNH@?$AAa?$AAr?$AA?9?$AAq?$AAa?$AA?$AA@ 00485318     libucrt:lcidtoname_downlevel.obj
 0002:0001d324       ??_C@_1M@KJDONENM@?$AAa?$AAr?$AA?9?$AAs?$AAa?$AA?$AA@ 00485324     libucrt:lcidtoname_downlevel.obj
 0002:0001d330       ??_C@_1M@DMJDKLKM@?$AAa?$AAr?$AA?9?$AAs?$AAy?$AA?$AA@ 00485330     libucrt:lcidtoname_downlevel.obj
 0002:0001d33c       ??_C@_1M@OMFIPEDC@?$AAa?$AAr?$AA?9?$AAt?$AAn?$AA?$AA@ 0048533c     libucrt:lcidtoname_downlevel.obj
 0002:0001d348       ??_C@_1M@IHMHGAON@?$AAa?$AAr?$AA?9?$AAy?$AAe?$AA?$AA@ 00485348     libucrt:lcidtoname_downlevel.obj
 0002:0001d354       ??_C@_1BG@KDCPGJGB@?$AAa?$AAz?$AA?9?$AAa?$AAz?$AA?9?$AAc?$AAy?$AAr?$AAl?$AA?$AA@ 00485354     libucrt:lcidtoname_downlevel.obj
 0002:0001d36c       ??_C@_1BG@IBCKDDOE@?$AAa?$AAz?$AA?9?$AAa?$AAz?$AA?9?$AAl?$AAa?$AAt?$AAn?$AA?$AA@ 0048536c     libucrt:lcidtoname_downlevel.obj
 0002:0001d384       ??_C@_1M@EGPFDCPD@?$AAb?$AAe?$AA?9?$AAb?$AAy?$AA?$AA@ 00485384     libucrt:lcidtoname_downlevel.obj
 0002:0001d390       ??_C@_1M@PCMGMCGC@?$AAb?$AAg?$AA?9?$AAb?$AAg?$AA?$AA@ 00485390     libucrt:lcidtoname_downlevel.obj
 0002:0001d39c       ??_C@_1M@BJBMFGOB@?$AAb?$AAn?$AA?9?$AAi?$AAn?$AA?$AA@ 0048539c     libucrt:lcidtoname_downlevel.obj
 0002:0001d3a8       ??_C@_1BG@EAKMMACD@?$AAb?$AAs?$AA?9?$AAb?$AAa?$AA?9?$AAl?$AAa?$AAt?$AAn?$AA?$AA@ 004853a8     libucrt:lcidtoname_downlevel.obj
 0002:0001d3c0       ??_C@_1M@KGADAODK@?$AAc?$AAa?$AA?9?$AAe?$AAs?$AA?$AA@ 004853c0     libucrt:lcidtoname_downlevel.obj
 0002:0001d3cc       ??_C@_1M@COAJPDHI@?$AAc?$AAs?$AA?9?$AAc?$AAz?$AA?$AA@ 004853cc     libucrt:lcidtoname_downlevel.obj
 0002:0001d3d8       ??_C@_1M@DHBHFONH@?$AAc?$AAy?$AA?9?$AAg?$AAb?$AA?$AA@ 004853d8     libucrt:lcidtoname_downlevel.obj
 0002:0001d3e4       ??_C@_1M@IMGKELGA@?$AAd?$AAa?$AA?9?$AAd?$AAk?$AA?$AA@ 004853e4     libucrt:lcidtoname_downlevel.obj
 0002:0001d3f0       ??_C@_1M@NNDGDNGA@?$AAd?$AAe?$AA?9?$AAa?$AAt?$AA?$AA@ 004853f0     libucrt:lcidtoname_downlevel.obj
 0002:0001d3fc       ??_C@_1M@IKDBHEEM@?$AAd?$AAe?$AA?9?$AAc?$AAh?$AA?$AA@ 004853fc     libucrt:lcidtoname_downlevel.obj
 0002:0001d408       ??_C@_1M@GFFOJMCJ@?$AAd?$AAe?$AA?9?$AAd?$AAe?$AA?$AA@ 00485408     libucrt:lcidtoname_downlevel.obj
 0002:0001d414       ??_C@_1M@MDNLKBPM@?$AAd?$AAe?$AA?9?$AAl?$AAi?$AA?$AA@ 00485414     libucrt:lcidtoname_downlevel.obj
 0002:0001d420       ??_C@_1M@NJBEEJNL@?$AAd?$AAe?$AA?9?$AAl?$AAu?$AA?$AA@ 00485420     libucrt:lcidtoname_downlevel.obj
 0002:0001d42c       ??_C@_1O@GNNELBAP@?$AAd?$AAi?$AAv?$AA?9?$AAm?$AAv?$AA?$AA@ 0048542c     libucrt:lcidtoname_downlevel.obj
 0002:0001d43c       ??_C@_1M@EJLEOGAE@?$AAe?$AAl?$AA?9?$AAg?$AAr?$AA?$AA@ 0048543c     libucrt:lcidtoname_downlevel.obj
 0002:0001d448       ??_C@_1M@GMPONJN@?$AAe?$AAn?$AA?9?$AAa?$AAu?$AA?$AA@ 00485448     libucrt:lcidtoname_downlevel.obj
 0002:0001d454       ??_C@_1M@NIDIIPGF@?$AAe?$AAn?$AA?9?$AAb?$AAz?$AA?$AA@ 00485454     libucrt:lcidtoname_downlevel.obj
 0002:0001d460       ??_C@_1M@JEHMIMFO@?$AAe?$AAn?$AA?9?$AAc?$AAa?$AA?$AA@ 00485460     libucrt:lcidtoname_downlevel.obj
 0002:0001d46c       ??_C@_1M@IGMJCDLA@?$AAe?$AAn?$AA?9?$AAc?$AAb?$AA?$AA@ 0048546c     libucrt:lcidtoname_downlevel.obj
 0002:0001d478       ??_C@_1M@BNFIGBKG@?$AAe?$AAn?$AA?9?$AAg?$AAb?$AA?$AA@ 00485478     libucrt:lcidtoname_downlevel.obj
 0002:0001d484       ??_C@_1M@LKIFDIGP@?$AAe?$AAn?$AA?9?$AAi?$AAe?$AA?$AA@ 00485484     libucrt:lcidtoname_downlevel.obj
 0002:0001d490       ??_C@_1M@PJKFGCCO@?$AAe?$AAn?$AA?9?$AAj?$AAm?$AA?$AA@ 00485490     libucrt:lcidtoname_downlevel.obj
 0002:0001d49c       ??_C@_1M@KPPKEPBO@?$AAe?$AAn?$AA?9?$AAn?$AAz?$AA?$AA@ 0048549c     libucrt:lcidtoname_downlevel.obj
 0002:0001d4a8       ??_C@_1M@GMDGLDOB@?$AAe?$AAn?$AA?9?$AAp?$AAh?$AA?$AA@ 004854a8     libucrt:lcidtoname_downlevel.obj
 0002:0001d4b4       ??_C@_1M@ONGIBJNA@?$AAe?$AAn?$AA?9?$AAt?$AAt?$AA?$AA@ 004854b4     libucrt:lcidtoname_downlevel.obj
 0002:0001d4c0       ??_C@_1M@LLODPCMM@?$AAe?$AAn?$AA?9?$AAu?$AAs?$AA?$AA@ 004854c0     libucrt:lcidtoname_downlevel.obj
 0002:0001d4cc       ??_C@_1M@LAKFNPAN@?$AAe?$AAn?$AA?9?$AAz?$AAa?$AA?$AA@ 004854cc     libucrt:lcidtoname_downlevel.obj
 0002:0001d4d8       ??_C@_1M@MFNHNHEO@?$AAe?$AAn?$AA?9?$AAz?$AAw?$AA?$AA@ 004854d8     libucrt:lcidtoname_downlevel.obj
 0002:0001d4e4       ??_C@_1M@EJEINPHM@?$AAe?$AAs?$AA?9?$AAa?$AAr?$AA?$AA@ 004854e4     libucrt:lcidtoname_downlevel.obj
 0002:0001d4f0       ??_C@_1M@GNKPCCJA@?$AAe?$AAs?$AA?9?$AAb?$AAo?$AA?$AA@ 004854f0     libucrt:lcidtoname_downlevel.obj
 0002:0001d4fc       ??_C@_1M@LEEGFONL@?$AAe?$AAs?$AA?9?$AAc?$AAl?$AA?$AA@ 004854fc     libucrt:lcidtoname_downlevel.obj
 0002:0001d508       ??_C@_1M@KGPDPBDF@?$AAe?$AAs?$AA?9?$AAc?$AAo?$AA?$AA@ 00485508     libucrt:lcidtoname_downlevel.obj
 0002:0001d514       ??_C@_1M@EIAHOHH@?$AAe?$AAs?$AA?9?$AAc?$AAr?$AA?$AA@ 00485514     libucrt:lcidtoname_downlevel.obj
 0002:0001d520       ??_C@_1M@LLPGMBIN@?$AAe?$AAs?$AA?9?$AAd?$AAo?$AA?$AA@ 00485520     libucrt:lcidtoname_downlevel.obj
 0002:0001d52c       ??_C@_1M@DKHMKNJA@?$AAe?$AAs?$AA?9?$AAe?$AAc?$AA?$AA@ 0048552c     libucrt:lcidtoname_downlevel.obj
 0002:0001d538       ??_C@_1M@GKGFPKAP@?$AAe?$AAs?$AA?9?$AAe?$AAs?$AA?$AA@ 00485538     libucrt:lcidtoname_downlevel.obj
 0002:0001d544       ??_C@_1M@LKHKGDLN@?$AAe?$AAs?$AA?9?$AAg?$AAt?$AA?$AA@ 00485544     libucrt:lcidtoname_downlevel.obj
 0002:0001d550       ??_C@_1M@HEIIGGJD@?$AAe?$AAs?$AA?9?$AAh?$AAn?$AA?$AA@ 00485550     libucrt:lcidtoname_downlevel.obj
 0002:0001d55c       ??_C@_1M@FBDHPPGD@?$AAe?$AAs?$AA?9?$AAm?$AAx?$AA?$AA@ 0048555c     libucrt:lcidtoname_downlevel.obj
 0002:0001d568       ??_C@_1M@DPAGLNDH@?$AAe?$AAs?$AA?9?$AAn?$AAi?$AA?$AA@ 00485568     libucrt:lcidtoname_downlevel.obj
 0002:0001d574       ??_C@_1M@MDGOPGDD@?$AAe?$AAs?$AA?9?$AAp?$AAa?$AA?$AA@ 00485574     libucrt:lcidtoname_downlevel.obj
 0002:0001d580       ??_C@_1M@EMAMGBGE@?$AAe?$AAs?$AA?9?$AAp?$AAe?$AA?$AA@ 00485580     libucrt:lcidtoname_downlevel.obj
 0002:0001d58c       ??_C@_1M@IBMCAOEC@?$AAe?$AAs?$AA?9?$AAp?$AAr?$AA?$AA@ 0048558c     libucrt:lcidtoname_downlevel.obj
 0002:0001d598       ??_C@_1M@FGMDIJED@?$AAe?$AAs?$AA?9?$AAp?$AAy?$AA?$AA@ 00485598     libucrt:lcidtoname_downlevel.obj
 0002:0001d5a4       ??_C@_1M@IIDEOLLL@?$AAe?$AAs?$AA?9?$AAs?$AAv?$AA?$AA@ 004855a4     libucrt:lcidtoname_downlevel.obj
 0002:0001d5b0       ??_C@_1M@GAOBIPA@?$AAe?$AAs?$AA?9?$AAu?$AAy?$AA?$AA@ 004855b0     libucrt:lcidtoname_downlevel.obj
 0002:0001d5bc       ??_C@_1M@JKFFICHJ@?$AAe?$AAs?$AA?9?$AAv?$AAe?$AA?$AA@ 004855bc     libucrt:lcidtoname_downlevel.obj
 0002:0001d5c8       ??_C@_1M@PNMLOJDF@?$AAe?$AAt?$AA?9?$AAe?$AAe?$AA?$AA@ 004855c8     libucrt:lcidtoname_downlevel.obj
 0002:0001d5d4       ??_C@_1M@GHHLIKEI@?$AAe?$AAu?$AA?9?$AAe?$AAs?$AA?$AA@ 004855d4     libucrt:lcidtoname_downlevel.obj
 0002:0001d5e0       ??_C@_1M@PBNONODE@?$AAf?$AAa?$AA?9?$AAi?$AAr?$AA?$AA@ 004855e0     libucrt:lcidtoname_downlevel.obj
 0002:0001d5ec       ??_C@_1M@JEEHPMIL@?$AAf?$AAi?$AA?9?$AAf?$AAi?$AA?$AA@ 004855ec     libucrt:lcidtoname_downlevel.obj
 0002:0001d5f8       ??_C@_1M@LMDCNDBA@?$AAf?$AAo?$AA?9?$AAf?$AAo?$AA?$AA@ 004855f8     libucrt:lcidtoname_downlevel.obj
 0002:0001d604       ??_C@_1M@JKEOHLDK@?$AAf?$AAr?$AA?9?$AAb?$AAe?$AA?$AA@ 00485604     libucrt:lcidtoname_downlevel.obj
 0002:0001d610       ??_C@_1M@NOHADPMI@?$AAf?$AAr?$AA?9?$AAc?$AAa?$AA?$AA@ 00485610     libucrt:lcidtoname_downlevel.obj
 0002:0001d61c       ??_C@_1M@KDHIHAEC@?$AAf?$AAr?$AA?9?$AAc?$AAh?$AA?$AA@ 0048561c     libucrt:lcidtoname_downlevel.obj
 0002:0001d628       ??_C@_1M@MMBBFGAK@?$AAf?$AAr?$AA?9?$AAf?$AAr?$AA?$AA@ 00485628     libucrt:lcidtoname_downlevel.obj
 0002:0001d634       ??_C@_1M@PAFNENNF@?$AAf?$AAr?$AA?9?$AAl?$AAu?$AA?$AA@ 00485634     libucrt:lcidtoname_downlevel.obj
 0002:0001d640       ??_C@_1M@EOHDJGDD@?$AAf?$AAr?$AA?9?$AAm?$AAc?$AA?$AA@ 00485640     libucrt:lcidtoname_downlevel.obj
 0002:0001d64c       ??_C@_1M@FAPLLOPF@?$AAg?$AAl?$AA?9?$AAe?$AAs?$AA?$AA@ 0048564c     libucrt:lcidtoname_downlevel.obj
 0002:0001d658       ??_C@_1M@FOPBFLOO@?$AAg?$AAu?$AA?9?$AAi?$AAn?$AA?$AA@ 00485658     libucrt:lcidtoname_downlevel.obj
 0002:0001d664       ??_C@_1M@KBMCINPM@?$AAh?$AAe?$AA?9?$AAi?$AAl?$AA?$AA@ 00485664     libucrt:lcidtoname_downlevel.obj
 0002:0001d670       ??_C@_1M@BBPHKFPJ@?$AAh?$AAi?$AA?9?$AAi?$AAn?$AA?$AA@ 00485670     libucrt:lcidtoname_downlevel.obj
 0002:0001d67c       ??_C@_1M@PMBNDPHD@?$AAh?$AAr?$AA?9?$AAb?$AAa?$AA?$AA@ 0048567c     libucrt:lcidtoname_downlevel.obj
 0002:0001d688       ??_C@_1M@BPCKOEGE@?$AAh?$AAr?$AA?9?$AAh?$AAr?$AA?$AA@ 00485688     libucrt:lcidtoname_downlevel.obj
 0002:0001d694       ??_C@_1M@GACBMHKE@?$AAh?$AAu?$AA?9?$AAh?$AAu?$AA?$AA@ 00485694     libucrt:lcidtoname_downlevel.obj
 0002:0001d6a0       ??_C@_1M@MILPAJJC@?$AAh?$AAy?$AA?9?$AAa?$AAm?$AA?$AA@ 004856a0     libucrt:lcidtoname_downlevel.obj
 0002:0001d6ac       ??_C@_1M@BABBICEC@?$AAi?$AAd?$AA?9?$AAi?$AAd?$AA?$AA@ 004856ac     libucrt:lcidtoname_downlevel.obj
 0002:0001d6b8       ??_C@_1M@BIKNHHPF@?$AAi?$AAs?$AA?9?$AAi?$AAs?$AA?$AA@ 004856b8     libucrt:lcidtoname_downlevel.obj
 0002:0001d6c4       ??_C@_1M@NMPCJPHE@?$AAi?$AAt?$AA?9?$AAc?$AAh?$AA?$AA@ 004856c4     libucrt:lcidtoname_downlevel.obj
 0002:0001d6d0       ??_C@_1M@GHKGFEDF@?$AAi?$AAt?$AA?9?$AAi?$AAt?$AA?$AA@ 004856d0     libucrt:lcidtoname_downlevel.obj
 0002:0001d6dc       ??_C@_1M@NIEJCJJA@?$AAj?$AAa?$AA?9?$AAj?$AAp?$AA?$AA@ 004856dc     libucrt:lcidtoname_downlevel.obj
 0002:0001d6e8       ??_C@_1M@JILFNBIM@?$AAk?$AAa?$AA?9?$AAg?$AAe?$AA?$AA@ 004856e8     libucrt:lcidtoname_downlevel.obj
 0002:0001d6f4       ??_C@_1M@PACPMGPH@?$AAk?$AAk?$AA?9?$AAk?$AAz?$AA?$AA@ 004856f4     libucrt:lcidtoname_downlevel.obj
 0002:0001d700       ??_C@_1M@IELFGMHA@?$AAk?$AAn?$AA?9?$AAi?$AAn?$AA?$AA@ 00485700     libucrt:lcidtoname_downlevel.obj
 0002:0001d70c       ??_C@_1O@IBBJHCH@?$AAk?$AAo?$AAk?$AA?9?$AAi?$AAn?$AA?$AA@ 0048570c     libucrt:lcidtoname_downlevel.obj
 0002:0001d71c       ??_C@_1M@DMHAEOGC@?$AAk?$AAo?$AA?9?$AAk?$AAr?$AA?$AA@ 0048571c     libucrt:lcidtoname_downlevel.obj
 0002:0001d728       ??_C@_1M@HBAHBIGA@?$AAk?$AAy?$AA?9?$AAk?$AAg?$AA?$AA@ 00485728     libucrt:lcidtoname_downlevel.obj
 0002:0001d734       ??_C@_1M@KPMILCJG@?$AAl?$AAt?$AA?9?$AAl?$AAt?$AA?$AA@ 00485734     libucrt:lcidtoname_downlevel.obj
 0002:0001d740       ??_C@_1M@BDEKKCA@?$AAl?$AAv?$AA?9?$AAl?$AAv?$AA?$AA@ 00485740     libucrt:lcidtoname_downlevel.obj
 0002:0001d74c       ??_C@_1M@ELCKCCJJ@?$AAm?$AAi?$AA?9?$AAn?$AAz?$AA?$AA@ 0048574c     libucrt:lcidtoname_downlevel.obj
 0002:0001d758       ??_C@_1M@CBOOLAPA@?$AAm?$AAk?$AA?9?$AAm?$AAk?$AA?$AA@ 00485758     libucrt:lcidtoname_downlevel.obj
 0002:0001d764       ??_C@_1M@GPHNBJKN@?$AAm?$AAl?$AA?9?$AAi?$AAn?$AA?$AA@ 00485764     libucrt:lcidtoname_downlevel.obj
 0002:0001d770       ??_C@_1M@PABJILIG@?$AAm?$AAn?$AA?9?$AAm?$AAn?$AA?$AA@ 00485770     libucrt:lcidtoname_downlevel.obj
 0002:0001d77c       ??_C@_1M@FGBKKIPG@?$AAm?$AAr?$AA?9?$AAi?$AAn?$AA?$AA@ 0048577c     libucrt:lcidtoname_downlevel.obj
 0002:0001d788       ??_C@_1M@NDBPDDAL@?$AAm?$AAs?$AA?9?$AAb?$AAn?$AA?$AA@ 00485788     libucrt:lcidtoname_downlevel.obj
 0002:0001d794       ??_C@_1M@OPIHOOPI@?$AAm?$AAs?$AA?9?$AAm?$AAy?$AA?$AA@ 00485794     libucrt:lcidtoname_downlevel.obj
 0002:0001d7a0       ??_C@_1M@PPDBCNFM@?$AAm?$AAt?$AA?9?$AAm?$AAt?$AA?$AA@ 004857a0     libucrt:lcidtoname_downlevel.obj
 0002:0001d7ac       ??_C@_1M@KDJDKMDD@?$AAn?$AAb?$AA?9?$AAn?$AAo?$AA?$AA@ 004857ac     libucrt:lcidtoname_downlevel.obj
 0002:0001d7b8       ??_C@_1M@KFCFLMJP@?$AAn?$AAl?$AA?9?$AAb?$AAe?$AA?$AA@ 004857b8     libucrt:lcidtoname_downlevel.obj
 0002:0001d7c4       ??_C@_1M@KPOPDDGO@?$AAn?$AAl?$AA?9?$AAn?$AAl?$AA?$AA@ 004857c4     libucrt:lcidtoname_downlevel.obj
 0002:0001d7d0       ??_C@_1M@LJKPEMLN@?$AAn?$AAn?$AA?9?$AAn?$AAo?$AA?$AA@ 004857d0     libucrt:lcidtoname_downlevel.obj
 0002:0001d7dc       ??_C@_1M@BDGHHBFL@?$AAn?$AAs?$AA?9?$AAz?$AAa?$AA?$AA@ 004857dc     libucrt:lcidtoname_downlevel.obj
 0002:0001d7e8       ??_C@_1M@IDEHOAP@?$AAp?$AAa?$AA?9?$AAi?$AAn?$AA?$AA@ 004857e8     libucrt:lcidtoname_downlevel.obj
 0002:0001d7f4       ??_C@_1M@HDBKGOGH@?$AAp?$AAl?$AA?9?$AAp?$AAl?$AA?$AA@ 004857f4     libucrt:lcidtoname_downlevel.obj
 0002:0001d800       ??_C@_1M@LJLLCMEH@?$AAp?$AAt?$AA?9?$AAb?$AAr?$AA?$AA@ 00485800     libucrt:lcidtoname_downlevel.obj
 0002:0001d80c       ??_C@_1M@NCMONAAL@?$AAp?$AAt?$AA?9?$AAp?$AAt?$AA?$AA@ 0048580c     libucrt:lcidtoname_downlevel.obj
 0002:0001d818       ??_C@_1O@EAKMAJDN@?$AAq?$AAu?$AAz?$AA?9?$AAb?$AAo?$AA?$AA@ 00485818     libucrt:lcidtoname_downlevel.obj
 0002:0001d828       ??_C@_1O@BHHPIGDN@?$AAq?$AAu?$AAz?$AA?9?$AAe?$AAc?$AA?$AA@ 00485828     libucrt:lcidtoname_downlevel.obj
 0002:0001d838       ??_C@_1O@GBAPEKMJ@?$AAq?$AAu?$AAz?$AA?9?$AAp?$AAe?$AA?$AA@ 00485838     libucrt:lcidtoname_downlevel.obj
 0002:0001d848       ??_C@_1M@CLGLEFBO@?$AAr?$AAo?$AA?9?$AAr?$AAo?$AA?$AA@ 00485848     libucrt:lcidtoname_downlevel.obj
 0002:0001d854       ??_C@_1M@CEEDODME@?$AAr?$AAu?$AA?9?$AAr?$AAu?$AA?$AA@ 00485854     libucrt:lcidtoname_downlevel.obj
 0002:0001d860       ??_C@_1M@HPKKKMPP@?$AAs?$AAa?$AA?9?$AAi?$AAn?$AA?$AA@ 00485860     libucrt:lcidtoname_downlevel.obj
 0002:0001d86c       ??_C@_1M@BKMAIGOJ@?$AAs?$AAe?$AA?9?$AAf?$AAi?$AA?$AA@ 0048586c     libucrt:lcidtoname_downlevel.obj
 0002:0001d878       ??_C@_1M@NDPIFLFI@?$AAs?$AAe?$AA?9?$AAn?$AAo?$AA?$AA@ 00485878     libucrt:lcidtoname_downlevel.obj
 0002:0001d884       ??_C@_1M@DANKKHJ@?$AAs?$AAe?$AA?9?$AAs?$AAe?$AA?$AA@ 00485884     libucrt:lcidtoname_downlevel.obj
 0002:0001d890       ??_C@_1M@PNBLONPJ@?$AAs?$AAk?$AA?9?$AAs?$AAk?$AA?$AA@ 00485890     libucrt:lcidtoname_downlevel.obj
 0002:0001d89c       ??_C@_1M@LFMODOAL@?$AAs?$AAl?$AA?9?$AAs?$AAi?$AA?$AA@ 0048589c     libucrt:lcidtoname_downlevel.obj
 0002:0001d8a8       ??_C@_1O@DFKOMPG@?$AAs?$AAm?$AAa?$AA?9?$AAn?$AAo?$AA?$AA@ 004858a8     libucrt:lcidtoname_downlevel.obj
 0002:0001d8b8       ??_C@_1O@NDKPBNNH@?$AAs?$AAm?$AAa?$AA?9?$AAs?$AAe?$AA?$AA@ 004858b8     libucrt:lcidtoname_downlevel.obj
 0002:0001d8c8       ??_C@_1O@PLLKBHAB@?$AAs?$AAm?$AAj?$AA?9?$AAn?$AAo?$AA?$AA@ 004858c8     libucrt:lcidtoname_downlevel.obj
 0002:0001d8d8       ??_C@_1O@CLEPOGCA@?$AAs?$AAm?$AAj?$AA?9?$AAs?$AAe?$AA?$AA@ 004858d8     libucrt:lcidtoname_downlevel.obj
 0002:0001d8e8       ??_C@_1O@DLGJGKMK@?$AAs?$AAm?$AAn?$AA?9?$AAf?$AAi?$AA?$AA@ 004858e8     libucrt:lcidtoname_downlevel.obj
 0002:0001d8f8       ??_C@_1O@OJDJGAJC@?$AAs?$AAm?$AAs?$AA?9?$AAf?$AAi?$AA?$AA@ 004858f8     libucrt:lcidtoname_downlevel.obj
 0002:0001d908       ??_C@_1M@BOFOGHPB@?$AAs?$AAq?$AA?9?$AAa?$AAl?$AA?$AA@ 00485908     libucrt:lcidtoname_downlevel.obj
 0002:0001d914       ??_C@_1BG@LJBBIPGB@?$AAs?$AAr?$AA?9?$AAb?$AAa?$AA?9?$AAc?$AAy?$AAr?$AAl?$AA?$AA@ 00485914     libucrt:lcidtoname_downlevel.obj
 0002:0001d92c       ??_C@_1BG@JLBENFOE@?$AAs?$AAr?$AA?9?$AAb?$AAa?$AA?9?$AAl?$AAa?$AAt?$AAn?$AA?$AA@ 0048592c     libucrt:lcidtoname_downlevel.obj
 0002:0001d944       ??_C@_1BG@KODPNHE@?$AAs?$AAr?$AA?9?$AAs?$AAp?$AA?9?$AAc?$AAy?$AAr?$AAl?$AA?$AA@ 00485944     libucrt:lcidtoname_downlevel.obj
 0002:0001d95c       ??_C@_1BG@CIOGKHPB@?$AAs?$AAr?$AA?9?$AAs?$AAp?$AA?9?$AAl?$AAa?$AAt?$AAn?$AA?$AA@ 0048595c     libucrt:lcidtoname_downlevel.obj
 0002:0001d974       ??_C@_1M@NGFJLMAC@?$AAs?$AAv?$AA?9?$AAf?$AAi?$AA?$AA@ 00485974     libucrt:lcidtoname_downlevel.obj
 0002:0001d980       ??_C@_1M@MPJEJAJC@?$AAs?$AAv?$AA?9?$AAs?$AAe?$AA?$AA@ 00485980     libucrt:lcidtoname_downlevel.obj
 0002:0001d98c       ??_C@_1M@MPNDHLFK@?$AAs?$AAw?$AA?9?$AAk?$AAe?$AA?$AA@ 0048598c     libucrt:lcidtoname_downlevel.obj
 0002:0001d998       ??_C@_1O@KOHBJJI@?$AAs?$AAy?$AAr?$AA?9?$AAs?$AAy?$AA?$AA@ 00485998     libucrt:lcidtoname_downlevel.obj
 0002:0001d9a8       ??_C@_1M@LDCEFHA@?$AAt?$AAa?$AA?9?$AAi?$AAn?$AA?$AA@ 004859a8     libucrt:lcidtoname_downlevel.obj
 0002:0001d9b4       ??_C@_1M@CNJOFAK@?$AAt?$AAe?$AA?9?$AAi?$AAn?$AA?$AA@ 004859b4     libucrt:lcidtoname_downlevel.obj
 0002:0001d9c0       ??_C@_1M@GNAECACD@?$AAt?$AAh?$AA?9?$AAt?$AAh?$AA?$AA@ 004859c0     libucrt:lcidtoname_downlevel.obj
 0002:0001d9cc       ??_C@_1M@CHBIHOJO@?$AAt?$AAn?$AA?9?$AAz?$AAa?$AA?$AA@ 004859cc     libucrt:lcidtoname_downlevel.obj
 0002:0001d9d8       ??_C@_1M@GCCMIGPJ@?$AAt?$AAr?$AA?9?$AAt?$AAr?$AA?$AA@ 004859d8     libucrt:lcidtoname_downlevel.obj
 0002:0001d9e4       ??_C@_1M@CELMCNBK@?$AAt?$AAt?$AA?9?$AAr?$AAu?$AA?$AA@ 004859e4     libucrt:lcidtoname_downlevel.obj
 0002:0001d9f0       ??_C@_1M@KLMCELGA@?$AAu?$AAk?$AA?9?$AAu?$AAa?$AA?$AA@ 004859f0     libucrt:lcidtoname_downlevel.obj
 0002:0001d9fc       ??_C@_1M@EPAJJAJF@?$AAu?$AAr?$AA?9?$AAp?$AAk?$AA?$AA@ 004859fc     libucrt:lcidtoname_downlevel.obj
 0002:0001da08       ??_C@_1BG@GEGPMCDJ@?$AAu?$AAz?$AA?9?$AAu?$AAz?$AA?9?$AAc?$AAy?$AAr?$AAl?$AA?$AA@ 00485a08     libucrt:lcidtoname_downlevel.obj
 0002:0001da20       ??_C@_1BG@EGGKJILM@?$AAu?$AAz?$AA?9?$AAu?$AAz?$AA?9?$AAl?$AAa?$AAt?$AAn?$AA?$AA@ 00485a20     libucrt:lcidtoname_downlevel.obj
 0002:0001da38       ??_C@_1M@GFOCLFF@?$AAv?$AAi?$AA?9?$AAv?$AAn?$AA?$AA@ 00485a38     libucrt:lcidtoname_downlevel.obj
 0002:0001da44       ??_C@_1M@CPAMEDFI@?$AAx?$AAh?$AA?9?$AAz?$AAa?$AA?$AA@ 00485a44     libucrt:lcidtoname_downlevel.obj
 0002:0001da50       ??_C@_1O@EBKIFIGN@?$AAz?$AAh?$AA?9?$AAc?$AAh?$AAs?$AA?$AA@ 00485a50     libucrt:lcidtoname_downlevel.obj
 0002:0001da60       ??_C@_1O@NMHPGANE@?$AAz?$AAh?$AA?9?$AAc?$AAh?$AAt?$AA?$AA@ 00485a60     libucrt:lcidtoname_downlevel.obj
 0002:0001da70       ??_C@_1M@LPINJOMC@?$AAz?$AAh?$AA?9?$AAc?$AAn?$AA?$AA@ 00485a70     libucrt:lcidtoname_downlevel.obj
 0002:0001da7c       ??_C@_1M@OCJEJODD@?$AAz?$AAh?$AA?9?$AAh?$AAk?$AA?$AA@ 00485a7c     libucrt:lcidtoname_downlevel.obj
 0002:0001da88       ??_C@_1M@DNDLJINH@?$AAz?$AAh?$AA?9?$AAm?$AAo?$AA?$AA@ 00485a88     libucrt:lcidtoname_downlevel.obj
 0002:0001da94       ??_C@_1M@MBFDNDND@?$AAz?$AAh?$AA?9?$AAs?$AAg?$AA?$AA@ 00485a94     libucrt:lcidtoname_downlevel.obj
 0002:0001daa0       ??_C@_1M@IMEPLEPE@?$AAz?$AAh?$AA?9?$AAt?$AAw?$AA?$AA@ 00485aa0     libucrt:lcidtoname_downlevel.obj
 0002:0001daac       ??_C@_1M@BBGHNHJP@?$AAz?$AAu?$AA?9?$AAz?$AAa?$AA?$AA@ 00485aac     libucrt:lcidtoname_downlevel.obj
 0002:0001dad4       ??_C@_1BA@BALFACEM@?$AAC?$AAO?$AAN?$AAO?$AAU?$AAT?$AA$?$AA?$AA@ 00485ad4     libucrt:initcon.obj
 0002:0001dc50       __infinity                 00485c50     libucrt:87tran.obj
 0002:0001dc5a       __minfinity                00485c5a     libucrt:87tran.obj
 0002:0001dc64       __logemax                  00485c64     libucrt:87tran.obj
 0002:0001dc8a       __OP_EXPjmptab             00485c8a     libucrt:87tran.obj
 0002:0001dcb0       __indefinite               00485cb0     libucrt:87disp.obj
 0002:0001dcba       __piby2                    00485cba     libucrt:87disp.obj
 0002:0001dcc4       __piby4                    00485cc4     libucrt:87disp.obj
 0002:0001dcf8       __DEFAULT_CW_in_mem        00485cf8     libucrt:common.obj
 0002:0001dcfa       __pi_by_2_to_61            00485cfa     libucrt:common.obj
 0002:0001dd34       ??_C@_03MGHMBJCF@log?$AA@  00485d34     libucrt:libm_error.obj
 0002:0001dd38       ??_C@_05HGHHAHAP@log10?$AA@ 00485d38     libucrt:libm_error.obj
 0002:0001dd40       ??_C@_03KHJOGHMM@exp?$AA@  00485d40     libucrt:libm_error.obj
 0002:0001dd44       ??_C@_03JGHBODFD@pow?$AA@  00485d44     libucrt:libm_error.obj
 0002:0001dd48       ??_C@_04FIHNOPOL@asin?$AA@ 00485d48     libucrt:libm_error.obj
 0002:0001dd50       ??_C@_04PDIFKINK@acos?$AA@ 00485d50     libucrt:libm_error.obj
 0002:0001dd58       ??_C@_04EIAKFFMI@sqrt?$AA@ 00485d58     libucrt:libm_error.obj
 0002:0001dd60       __real@3ff0000000000000    00485d60     libucrt:libm_error.obj
 0002:0001dd70       ___acrt_log10_table_t      00485d70     libucrt:log10_tables.obj
 0002:0001e180       ___acrt_log10_table_cb     00486180     libucrt:log10_tables.obj
 0002:0001e590       __real@3fe0000000000000    00486590     libucrt:powhlp.obj
 0002:0001e598       ??_C@_04FJHINJAO@tanh?$AA@ 00486598     libucrt:fpexcept.obj
 0002:0001e5a0       ??_C@_04MLLJIGOK@atan?$AA@ 004865a0     libucrt:fpexcept.obj
 0002:0001e5a8       ??_C@_05KNGEOGJB@atan2?$AA@ 004865a8     libucrt:fpexcept.obj
 0002:0001e5b0       ??_C@_03BLEJJJBH@sin?$AA@  004865b0     libucrt:fpexcept.obj
 0002:0001e5b4       ??_C@_03LALBNOCG@cos?$AA@  004865b4     libucrt:fpexcept.obj
 0002:0001e5b8       ??_C@_03IIINPABG@tan?$AA@  004865b8     libucrt:fpexcept.obj
 0002:0001e5bc       ??_C@_04GFPJNGEK@ceil?$AA@ 004865bc     libucrt:fpexcept.obj
 0002:0001e5c4       ??_C@_05PBJFFIGL@floor?$AA@ 004865c4     libucrt:fpexcept.obj
 0002:0001e5cc       ??_C@_04ODHECPBC@fabs?$AA@ 004865cc     libucrt:fpexcept.obj
 0002:0001e5d4       ??_C@_04EHEDPDJG@modf?$AA@ 004865d4     libucrt:fpexcept.obj
 0002:0001e5dc       ??_C@_05CEJMAHNP@ldexp?$AA@ 004865dc     libucrt:fpexcept.obj
 0002:0001e5e4       ??_C@_05KBKMEMPO@_cabs?$AA@ 004865e4     libucrt:fpexcept.obj
 0002:0001e5ec       ??_C@_06MEIMCGCF@_hypot?$AA@ 004865ec     libucrt:fpexcept.obj
 0002:0001e5f4       ??_C@_04KEPJIHGP@fmod?$AA@ 004865f4     libucrt:fpexcept.obj
 0002:0001e5fc       ??_C@_05GKKHEGJL@frexp?$AA@ 004865fc     libucrt:fpexcept.obj
 0002:0001e604       ??_C@_03MJLDFKDL@_y0?$AA@  00486604     libucrt:fpexcept.obj
 0002:0001e608       ??_C@_03NAKIGLHK@_y1?$AA@  00486608     libucrt:fpexcept.obj
 0002:0001e60c       ??_C@_03ONILCKOB@_yn?$AA@  0048660c     libucrt:fpexcept.obj
 0002:0001e610       ??_C@_05JGDBENOH@_logb?$AA@ 00486610     libucrt:fpexcept.obj
 0002:0001e618       ??_C@_0L@KDOEJCKC@_nextafter?$AA@ 00486618     libucrt:fpexcept.obj
 0002:0001e710       ??_C@_04COOMCNPB@sinh?$AA@ 00486710     libucrt:fpexcept.obj
 0002:0001e718       ??_C@_04HPJJNFIM@cosh?$AA@ 00486718     libucrt:fpexcept.obj
 0002:0001e720       __d_inf                    00486720     libucrt:util.obj
 0002:0001e728       __d_max                    00486728     libucrt:util.obj
 0002:0001e730       __d_mzero                  00486730     libucrt:util.obj
 0002:0001e760       __load_config_used         00486760     LIBCMT:loadcfg.obj
 0002:0001e7c0       ___safe_se_handler_table   004867c0     <linker-defined>
 0002:0001ea84       ___rtc_iaa                 00486a84     LIBCMT:_initsect_.obj
 0002:0001ea88       ___rtc_izz                 00486a88     LIBCMT:_initsect_.obj
 0002:0001ea8c       ___rtc_taa                 00486a8c     LIBCMT:_initsect_.obj
 0002:0001ea90       ___rtc_tzz                 00486a90     LIBCMT:_initsect_.obj
 0002:0001f184       __IMPORT_DESCRIPTOR_ADVAPI32 00487184     advapi32:ADVAPI32.dll
 0002:0001f198       __IMPORT_DESCRIPTOR_USER32 00487198     user32:USER32.dll
 0002:0001f1ac       __IMPORT_DESCRIPTOR_KERNEL32 004871ac     kernel32:KERNEL32.dll
 0002:0001f1c0       __NULL_IMPORT_DESCRIPTOR   004871c0     advapi32:ADVAPI32.dll
 0003:00000634       _GSS_C_NT_USER_NAME        00488634     pgssapi.obj
 0003:00000638       _GSS_C_NT_MACHINE_UID_NAME 00488638     pgssapi.obj
 0003:0000063c       _GSS_C_NT_STRING_UID_NAME  0048863c     pgssapi.obj
 0003:00000640       _GSS_C_NT_HOSTBASED_SERVICE_X 00488640     pgssapi.obj
 0003:00000644       _GSS_C_NT_HOSTBASED_SERVICE 00488644     pgssapi.obj
 0003:00000648       _GSS_C_NT_ANONYMOUS        00488648     pgssapi.obj
 0003:0000064c       _GSS_C_NT_EXPORT_NAME      0048864c     pgssapi.obj
 0003:000008a8       _ONE                       004888a8     sshcrcda.obj
 0003:000008b8       _default_logpolicy         004888b8     wincons.obj
 0003:000008bc       _console_antispoof_prompt  004888bc     wincons.obj
 0003:000008c8       ___security_cookie_complement 004888c8     LIBCMT:gs_cookie.obj
 0003:000008cc       ___security_cookie         004888cc     LIBCMT:gs_cookie.obj
 0003:000008d0       __fltused                  004888d0     LIBCMT:fltused.obj
 0003:000008e0       ___scrt_native_dllmain_reason 004888e0     LIBCMT:utility.obj
 0003:000008e4       ___scrt_default_matherr    004888e4     LIBCMT:matherr.obj
 0003:000008f0       ___isa_enabled             004888f0     LIBCMT:_cpu_disp_.obj
 0003:00000910       __NLG_Destination          00488910     libvcruntime:_exsup_.obj
 0003:00000920       ___abort_behavior          00488920     libucrt:abort.obj
 0003:00000928       __iob                      00488928     libucrt:_file.obj
 0003:000009e0       __lookuptrailbytes         004889e0     libucrt:read.obj
 0003:00000ae0       __pctype                   00488ae0     libucrt:ctype.obj
 0003:00000ae4       __pwctype                  00488ae4     libucrt:ctype.obj
 0003:00000aec       ___mb_cur_max              00488aec     libucrt:nlsdata.obj
 0003:00000af0       ___acrt_initial_locale_data 00488af0     libucrt:nlsdata.obj
 0003:00000ba8       ___acrt_initial_locale_pointers 00488ba8     libucrt:nlsdata.obj
 0003:00000bb0       ___acrt_wide_c_locale_string 00488bb0     libucrt:nlsdata.obj
 0003:00000bb8       ___badioinfo               00488bb8     libucrt:ioinit.obj
 0003:00000bf0       ___globallocalestatus      00488bf0     libucrt:glstatus.obj
 0003:00000ce8       __mbctype                  00488ce8     libucrt:mbctype.obj
 0003:00000df0       __mbcasemap                00488df0     libucrt:mbctype.obj
 0003:00000ef0       ___acrt_initial_multibyte_data 00488ef0     libucrt:mbctype.obj
 0003:00001110       ___acrt_current_multibyte_data 00489110     libucrt:mbctype.obj
 0003:00001114       ___acrt_lconv_static_decimal 00489114     libucrt:localeconv.obj
 0003:00001118       ___acrt_lconv_static_W_decimal 00489118     libucrt:localeconv.obj
 0003:00001120       ___acrt_lconv_c            00489120     libucrt:localeconv.obj
 0003:00001170       ___acrt_lconv              00489170     libucrt:localeconv.obj
 0003:00001224       ___dcrt_lowio_console_output_handle 00489224     libucrt:initcon.obj
 0003:00001230       _cbcurr                    00489230     callback.obj
 0003:00001234       _cbhead                    00489234     callback.obj
 0003:00001238       _cbtail                    00489238     callback.obj
 0003:0000123c       _notify_frontend           0048923c     callback.obj
 0003:00001240       _notify_ctx                00489240     callback.obj
 0003:0000124c       _cmdline_tooltype          0048924c     cmdline.obj
 0003:0000126c       _sent_eof                  0048926c     psftp.obj
 0003:000012b0       _ZERO                      004892b0     sshcrcda.obj
 0003:00001370       _ssh2_wrong_passphrase     00489370     sshpubk.obj
 0003:00001378       _random_active             00489378     sshrand.obj
 0003:000013a0       _console_batch_mode        004893a0     wincons.obj
 0003:000013a4       _gsslogmsg                 004893a4     wingss.obj
 0003:00001e4c       ___scrt_current_native_startup_state 00489e4c     LIBCMT:utility.obj
 0003:00001e50       ___scrt_native_startup_lock 00489e50     LIBCMT:utility.obj
 0003:00001e70       ?__type_info_root_node@@3U__type_info_node@@A 00489e70     LIBCMT:tncleanup.obj
 0003:00001e78       ___scrt_debugger_hook_flag 00489e78     LIBCMT:utility_desktop.obj
 0003:00001e7c       ___isa_available           00489e7c     LIBCMT:_cpu_disp_.obj
 0003:00001e80       ___favor                   00489e80     LIBCMT:_cpu_disp_.obj
 0003:00001efc       ___pPurecall               00489efc     libvcruntime:purevirt_data.obj
 0003:00001f00       ?pArgList@UnDecorator@@0PAVReplicator@@A 00489f00     libvcruntime:undname.obj
 0003:00001f04       ?pZNameList@UnDecorator@@0PAVReplicator@@A 00489f04     libvcruntime:undname.obj
 0003:00001f08       ?pTemplateArgList@UnDecorator@@0PAVReplicator@@A 00489f08     libvcruntime:undname.obj
 0003:00001f0c       ?gName@UnDecorator@@0PBDB  00489f0c     libvcruntime:undname.obj
 0003:00001f10       ?name@UnDecorator@@0PBDB   00489f10     libvcruntime:undname.obj
 0003:00001f14       ?outputString@UnDecorator@@0PADA 00489f14     libvcruntime:undname.obj
 0003:00001f18       ?maxStringLength@UnDecorator@@0HA 00489f18     libvcruntime:undname.obj
 0003:00001f1c       ?disableFlags@UnDecorator@@0KA 00489f1c     libvcruntime:undname.obj
 0003:00001f20       ?fExplicitTemplateParams@UnDecorator@@0_NA 00489f20     libvcruntime:undname.obj
 0003:00001f21       ?fGetTemplateArgumentList@UnDecorator@@0_NA 00489f21     libvcruntime:undname.obj
 0003:00001f24       ?m_pGetParameter@UnDecorator@@0P6APADJ@ZA 00489f24     libvcruntime:undname.obj
 0003:00001f3c       __nstream                  00489f3c     libucrt:_file.obj
 0003:00001f40       ___piob                    00489f40     libucrt:_file.obj
 0003:00001f44       __cflush                   00489f44     libucrt:_file.obj
 0003:00002070       __environ_table            0048a070     libucrt:environment_initialization.obj
 0003:00002074       __wenviron_table           0048a074     libucrt:environment_initialization.obj
 0003:00002078       ___dcrt_initial_wide_environment 0048a078     libucrt:environment_initialization.obj
 0003:0000207c       ___dcrt_initial_narrow_environment 0048a07c     libucrt:environment_initialization.obj
 0003:00002080       ___argc                    0048a080     libucrt:argv_data.obj
 0003:00002084       ___argv                    0048a084     libucrt:argv_data.obj
 0003:00002088       ___wargv                   0048a088     libucrt:argv_data.obj
 0003:0000208c       __acmdln                   0048a08c     libucrt:argv_data.obj
 0003:00002090       __wcmdln                   0048a090     libucrt:argv_data.obj
 0003:00002094       __pgmptr                   0048a094     libucrt:argv_data.obj
 0003:00002098       ___acrt_locale_changed_data 0048a098     libucrt:wsetlocale.obj
 0003:000020a0       __commode                  0048a0a0     libucrt:ncommode.obj
 0003:000020a4       ___acrt_atexit_table       0048a0a4     libucrt:onexit.obj
 0003:000020b0       ___acrt_at_quick_exit_table 0048a0b0     libucrt:onexit.obj
 0003:000020d4       ___acrt_current_locale_data 0048a0d4     libucrt:nlsdata.obj
 0003:00002214       ___acrt_stdout_buffer      0048a214     libucrt:_sftbuf.obj
 0003:00002218       ___acrt_stderr_buffer      0048a218     libucrt:_sftbuf.obj
 0003:00002220       ___pioinfo                 0048a220     libucrt:ioinit.obj
 0003:00002420       __nhandle                  0048a420     libucrt:ioinit.obj
 0003:00002500       ___mblocalename            0048a500     libucrt:mbctype.obj
 0003:00002504       ___mbcodepage              0048a504     libucrt:mbctype.obj
 0003:00002508       ___ismbcodepage            0048a508     libucrt:mbctype.obj
 0003:0000250c       ___mbulinfo                0048a50c     libucrt:mbctype.obj
 0003:00002520       __fmode                    0048a520     libucrt:txtmode.obj
 0003:00002524       ___acrt_lconv_static_null  0048a524     libucrt:localeconv.obj
 0003:00002528       ___acrt_lconv_static_W_null 0048a528     libucrt:localeconv.obj
 0003:0000252c       ___acrt_heap               0048a52c     libucrt:heap_handle.obj
 0003:00002534       ?_timezone@@3V?$dual_state_global@J@__crt_state_management@@A 0048a534     libucrt:timeset.obj
 0003:00002538       ?_daylight@@3V?$dual_state_global@H@__crt_state_management@@A 0048a538     libucrt:timeset.obj
 0003:0000253c       ?_dstbias@@3V?$dual_state_global@J@__crt_state_management@@A 0048a53c     libucrt:timeset.obj
 0003:00002600       __umaskval                 0048a600     libucrt:umask.obj
 0003:00002604       ___fastflag                0048a604     libucrt:fp_flags.obj
 0003:0000260c       _p_SetEntriesInAclA        0048a60c     <common>
 0003:00002610       _p_SetSecurityInfo         0048a610     <common>
 0003:00002614       _p_GetSecurityInfo         0048a614     <common>
 0003:00002618       _p_SetSecurityDescriptorOwner 0048a618     <common>
 0003:0000261c       _p_InitializeSecurityDescriptor 0048a61c     <common>
 0003:00002620       _p_GetTokenInformation     0048a620     <common>
 0003:00002624       _p_OpenProcessToken        0048a624     <common>
 0003:00002628       _p_select                  0048a628     <common>
 0003:0000262c       _p_CryptProtectMemory      0048a62c     <common>
 0003:00002630       _cmdline_session_name      0048a630     <common>
 0003:00002634       _loaded_session            0048a634     <common>
 0003:00002638       _default_port              0048a638     <common>
 0003:0000263c       _default_protocol          0048a63c     <common>
 0003:00002640       _flags                     0048a640     <common>
 0003:00002644       _p_WSAEnumNetworkEvents    0048a644     <common>
 0003:00002648       _p_WSAGetLastError         0048a648     <common>
 0003:0000264c       _p_WSAEventSelect          0048a64c     <common>
 0003:00002650       _p_WSAAsyncSelect          0048a650     <common>
 0003:00002654       _conf                      0048a654     <common>
 0003:00002658       _homedir                   0048a658     <common>
 0003:0000265c       _pwd                       0048a65c     <common>
 0003:00002660       _restricted_acl            0048a660     <common>
 0003:00002668       ?_OptionsStorage@?1??__local_stdio_scanf_options@@9@9 0048a668     <common>
 0003:00002670       ?_OptionsStorage@?1??__local_stdio_printf_options@@9@9 0048a670     <common>
 0003:00002678       ___scrt_ucrt_dll_is_in_use 0048a678     <common>
 0003:0000267c       ___dyn_tls_dtor_callback   0048a67c     <common>
 0003:00002680       ___dyn_tls_init_callback   0048a680     <common>
 0003:00002684       __pDestructExceptionObject 0048a684     <common>
 0003:00002688       __pmatherr                 0048a688     <common>
 0003:0000268c       ___use_sse2_mathfcns       0048a68c     <common>

 entry point at        0001:00042585

 Static symbols

 0001:00000000       _agentf_free               00401000 f   agentf.obj
 0001:00000049       _agentf_send               00401049 f   agentf.obj
 0001:0000009c       _agentf_send_eof           0040109c f   agentf.obj
 0001:000000d0       _agentf_log_close_msg      004010d0 f   agentf.obj
 0001:000000dc       _agentf_set_input_wanted   004010dc f   agentf.obj
 0001:00000117       _agentf_callback           00401117 f   agentf.obj
 0001:0000013d       _agentf_got_response       0040113d f   agentf.obj
 0001:000001aa       _agentf_try_forward        004011aa f   agentf.obj
 0001:00000699       _run_idempotent_callback   00401699 f   callback.obj
 0001:0000070f       _cmdline_check_unavailable 0040170f f   cmdline.obj
 0001:00001c39       _cmdline_save_param        00402c39 f   cmdline.obj
 0001:00001c9f       _conf_clear                00402c9f f   conf.obj
 0001:00001cc9       _conf_cmp                  00402cc9 f   conf.obj
 0001:00001cc9       _conf_cmp_constkey         00402cc9 f   conf.obj
 0001:0000230f       _conf_insert               0040330f f   conf.obj
 0001:000026be       _free_entry                004036be f   conf.obj
 0001:00002c52       _ecc_edwards_cond_overwrite 00403c52 f   ecc.obj
 0001:00002ca5       _ecc_edwards_cond_swap     00403ca5 f   ecc.obj
 0001:00002f66       _ecc_edwards_point_new_empty 00403f66 f   ecc.obj
 0001:000030d2       _ecc_edwards_point_new_imported 004040d2 f   ecc.obj
 0001:00003113       _ecc_montgomery_cond_overwrite 00404113 f   ecc.obj
 0001:00003144       _ecc_montgomery_cond_swap  00404144 f   ecc.obj
 0001:000036b4       _ecc_montgomery_point_new_empty 004046b4 f   ecc.obj
 0001:00003922       _ecc_weierstrass_add_prologue 00404922 f   ecc.obj
 0001:00003a5b       _ecc_weierstrass_cond_overwrite 00404a5b f   ecc.obj
 0001:00003a9d       _ecc_weierstrass_cond_swap 00404a9d f   ecc.obj
 0001:00003b8d       _ecc_weierstrass_epilogue  00404b8d f   ecc.obj
 0001:00003e15       _ecc_weierstrass_normalise 00404e15 f   ecc.obj
 0001:00003f2f       _ecc_weierstrass_point_new_empty 00404f2f f   ecc.obj
 0001:00004096       _ecc_weierstrass_point_new_imported 00405096 f   ecc.obj
 0001:0000420d       _ecc_weierstrass_select_into 0040520d f   ecc.obj
 0001:00004254       _ecc_weierstrass_tangent_slope 00405254 f   ecc.obj
 0001:00004328       _projective_eq             00405328 f   ecc.obj
 0001:0000436d       _sk_handle_plug            0040536d f   winhsock.obj
 0001:0000436d       _sk_error_plug             0040536d f   errsock.obj
 0001:00004380       _sk_error_close            00405380 f   errsock.obj
 0001:00004894       _logevent_internal         00405894 f   logging.obj
 0001:00004a1b       _logfopen_callback         00405a1b f   logging.obj
 0001:00004bdd       _logprintf                 00405bdd f   logging.obj
 0001:00004c0a       _logwrite                  00405c0a f   logging.obj
 0001:00004ca9       _xlatlognam                00405ca9 f   logging.obj
 0001:00004e2d       _mainchan_free             00405e2d f   mainchan.obj
 0001:00004e63       _mainchan_open_confirmation 00405e63 f   mainchan.obj
 0001:00005072       _mainchan_open_failure     00406072 f   mainchan.obj
 0001:000050af       _mainchan_send             004060af f   mainchan.obj
 0001:000050ef       _mainchan_send_eof         004060ef f   mainchan.obj
 0001:00005164       _mainchan_set_input_wanted 00406164 f   mainchan.obj
 0001:0000519a       _mainchan_log_close_msg    0040619a f   mainchan.obj
 0001:000051a6       _mainchan_rcvd_exit_status 004061a6 f   mainchan.obj
 0001:000051f7       _mainchan_rcvd_exit_signal 004061f7 f   mainchan.obj
 0001:0000526b       _mainchan_rcvd_exit_signal_numeric 0040626b f   mainchan.obj
 0001:000052d6       _mainchan_request_response 004062d6 f   mainchan.obj
 0001:0000561e       _mainchan_log_exit_signal_common 0040661e f   mainchan.obj
 0001:0000574c       _mainchan_ready            0040674c f   mainchan.obj
 0001:00005848       _mainchan_try_fallback_command 00406848 f   mainchan.obj
 0001:0000588a       _ssh_signal_lookup         0040688a f   mainchan.obj
 0001:00005b81       _BinarySource_data_avail   00406b81 f   marshal.obj
 0001:00005dd3       _bufchain_sink_write       00406dd3 f   marshal.obj
 0001:00005e02       _stdio_sink_write          00406e02 f   marshal.obj
 0001:00006c04       _monty_reduce              00407c04 f   mpint.obj
 0001:00006c40       _monty_reduce_internal     00407c40 f   mpint.obj
 0001:00006dab       _mp_add_integer_into_shifted_by_words 00407dab f   mpint.obj
 0001:00006e8e       _mp_add_masked_integer_into 00407e8e f   mpint.obj
 0001:00006eeb       _mp_add_masked_into        00407eeb f   mpint.obj
 0001:00006f43       _mp_alloc_from_scratch     00407f43 f   mpint.obj
 0001:00006f8d       _mp_bezout_into            00407f8d f   mpint.obj
 0001:000079a6       _mp_find_highest_nonzero_word_pair 004089a6 f   mpint.obj
 0001:00007ace       _mp_from_bytes_int         00408ace f   mpint.obj
 0001:00007d41       _mp_get_hex_internal       00408d41 f   mpint.obj
 0001:0000820d       _mp_make_sized             0040920d f   mpint.obj
 0001:0000841f       _mp_mul_add_simple         0040941f f   mpint.obj
 0001:00008568       _mp_mul_internal           00409568 f   mpint.obj
 0001:00008c8a       _mp_word                   00409c8a f   mpint.obj
 0001:00008ca0       _recip_approx_32           00409ca0 f   mpint.obj
 0001:00008d6d       _trim_leading_zeroes       00409d6d f   mpint.obj
 0001:00008e6f       _pinger_schedule           00409e6f f   pinger.obj
 0001:00008eba       _pinger_timer              00409eba f   pinger.obj
 0001:00008eea       _pfd_closing               00409eea f   portfwd.obj
 0001:00008f1f       _pfl_closing               00409f1f f   portfwd.obj
 0001:00008f2a       _pfd_receive               00409f2a f   portfwd.obj
 0001:000093b1       _pfd_sent                  0040a3b1 f   portfwd.obj
 0001:000093c9       _pfd_chan_free             0040a3c9 f   portfwd.obj
 0001:000093f9       _pfd_open_confirmation     0040a3f9 f   portfwd.obj
 0001:0000946d       _pfd_open_failure          0040a46d f   portfwd.obj
 0001:000094bf       _pfd_send                  0040a4bf f   portfwd.obj
 0001:000094f9       _pfd_send_eof              0040a4f9 f   portfwd.obj
 0001:00009529       _pfd_set_input_wanted      0040a529 f   portfwd.obj
 0001:0000956a       _pfd_log_close_msg         0040a56a f   portfwd.obj
 0001:00009576       _pfl_accepting             0040a576 f   portfwd.obj
 0001:0000960b       _free_portfwd_state        0040a60b f   portfwd.obj
 0001:00009635       _free_portlistener_state   0040a635 f   portfwd.obj
 0001:00009650       _ipv4_to_string            0040a650 f   portfwd.obj
 0001:0000967c       _ipv6_to_string            0040a67c f   portfwd.obj
 0001:0000971d       _pfd_close                 0040a71d f   portfwd.obj
 0001:00009739       _pfl_listen                0040a739 f   portfwd.obj
 0001:000097eb       _pfl_terminate             0040a7eb f   portfwd.obj
 0001:00009807       _pfr_cmp                   0040a807 f   portfwd.obj
 0001:0000a143       _wrap_lportfwd_open        0040b143 f   portfwd.obj
 0001:0000a1a9       _sk_proxy_plug             0040b1a9 f   proxy.obj
 0001:0000a1c2       _sk_proxy_close            0040b1c2 f   proxy.obj
 0001:0000a1e9       _sk_proxy_write            0040b1e9 f   proxy.obj
 0001:0000a228       _sk_proxy_write_oob        0040b228 f   proxy.obj
 0001:0000a273       _sk_proxy_write_eof        0040b273 f   proxy.obj
 0001:0000a290       _sk_proxy_set_frozen       0040b290 f   proxy.obj
 0001:0000a362       _sk_proxy_socket_error     0040b362 f   proxy.obj
 0001:0000a382       _plug_proxy_log            0040b382 f   proxy.obj
 0001:0000a3a7       _plug_proxy_closing        0040b3a7 f   proxy.obj
 0001:0000a3eb       _plug_proxy_receive        0040b3eb f   proxy.obj
 0001:0000a446       _plug_proxy_sent           0040b446 f   proxy.obj
 0001:0000a46d       _plug_proxy_accepting      0040b46d f   proxy.obj
 0001:0000a4d4       _dns_log_msg               0040b4d4 f   proxy.obj
 0001:0000a805       _get_line_end              0040b805 f   proxy.obj
 0001:0000ac60       _plug_closing              0040bc60 f   proxy.obj
 0001:0000ad5b       _proxy_for_destination     0040bd5b f   proxy.obj
 0001:0000bacb       $LN104                     0040cacb     proxy.obj
 0001:0000c363       _sftp_cmd_open             0040d363 f   psftp.obj
 0001:0000c3d8       _sftp_cmd_lcd              0040d3d8 f   psftp.obj
 0001:0000c43a       _sftp_cmd_lpwd             0040d43a f   psftp.obj
 0001:0000c45b       _sftp_cmd_pling            0040d45b f   psftp.obj
 0001:0000c470       _sftp_cmd_help             0040d470 f   psftp.obj
 0001:0000c552       _psftp_output              0040d552 f   psftp.obj
 0001:0000c581       _psftp_eof                 0040d581 f   psftp.obj
 0001:0000c845       _bare_name_compare         0040d845 f   psftp.obj
 0001:0000ca93       _do_sftp_cleanup           0040da93 f   psftp.obj
 0001:0000cb05       _do_sftp_init              0040db05 f   psftp.obj
 0001:0000cc7f       _not_connected             0040dc7f f   psftp.obj
 0001:0000cca8       _psftp_connect             0040dca8 f   psftp.obj
 0001:0000d41b       _sftp_action_chmod         0040e41b f   psftp.obj
 0001:0000d50e       _sftp_action_mv            0040e50e f   psftp.obj
 0001:0000d5fd       _sftp_action_rm            0040e5fd f   psftp.obj
 0001:0000d64b       _sftp_action_rmdir         0040e64b f   psftp.obj
 0001:0000d77f       _sftp_cmd_free             0040e77f f   psftp.obj
 0001:0000ec65       _stripctrl_string          0040fc65 f   psftp.obj
 0001:0000ec80       _usage                     0040fc80 f   psftp.obj
 0001:0000f07b       _gppb                      0041007b f   settings.obj
 0001:0000f0c2       _gppfile                   004100c2 f   settings.obj
 0001:0000f0fc       _gppfont                   004100fc f   settings.obj
 0001:0000f136       _gppi                      00410136 f   settings.obj
 0001:0000f158       _gppi_raw                  00410158 f   settings.obj
 0001:0000f177       _gppmap                    00410177 f   settings.obj
 0001:0000f284       _gpps                      00410284 f   settings.obj
 0001:0000f2b0       _gpps_raw                  004102b0 f   settings.obj
 0001:0000f2e5       _gprefs                    004102e5 f   settings.obj
 0001:0000f317       _gprefs_from_str           00410317 f   settings.obj
 0001:0001070c       _read_clip_setting         0041170c f   settings.obj
 0001:0001093c       _fxp_got_attrs             0041193c f   sftp.obj
 0001:00010979       _fxp_got_handle            00411979 f   sftp.obj
 0001:000109d2       _fxp_got_status            004119d2 f   sftp.obj
 0001:0001110d       _sftp_alloc_request        0041210d f   sftp.obj
 0001:000112d7       _share_halfchannel_cmp     004122d7 f   sshshare.obj
 0001:000112d7       _sftp_reqcmp               004122d7 f   sftp.obj
 0001:000112d7       _share_xchannel_us_cmp     004122d7 f   sshshare.obj
 0001:000112d7       _share_connstate_cmp       004122d7 f   sshshare.obj
 0001:000112d7       _sftp_reqfind              004122d7 f   sftp.obj
 0001:00011591       _xfer_init                 00412591 f   sftp.obj
 0001:0001182e       _sftp_pkt_BinarySink_write 0041282e f   sftpcommon.obj
 0001:0001197e       _ssh_socket_log            0041297e f   ssh.obj
 0001:000119b4       _ssh_closing               004129b4 f   ssh.obj
 0001:000119f4       _ssh_receive               004129f4 f   ssh.obj
 0001:00011a56       _ssh_sent                  00412a56 f   ssh.obj
 0001:00011a85       _ssh_test_for_upstream     00412a85 f   ssh.obj
 0001:00011acf       _ssh_init                  00412acf f   ssh.obj
 0001:00011bbb       _ssh_free                  00412bbb f   ssh.obj
 0001:00011c5c       _ssh_reconfig              00412c5c f   ssh.obj
 0001:00011cad       _ssh_send                  00412cad f   ssh.obj
 0001:00011cf4       _ssh_sendbuffer            00412cf4 f   ssh.obj
 0001:00011d3d       _ssh_size                  00412d3d f   ssh.obj
 0001:00011d68       _ssh_get_specials          00412d68 f   ssh.obj
 0001:00011dc4       _ssh_special               00412dc4 f   ssh.obj
 0001:00011de4       _ssh_unthrottle            00412de4 f   ssh.obj
 0001:00011e00       _ssh_connected             00412e00 f   ssh.obj
 0001:00011e0d       _ssh_sendok                00412e0d f   ssh.obj
 0001:00011e2d       _ssh_ldisc                 00412e2d f   ssh.obj
 0001:00011e57       _ssh_provide_ldisc         00412e57 f   ssh.obj
 0001:00011e63       _ssh_return_exitcode       00412e63 f   ssh.obj
 0001:00011e91       _ssh_cfg_info              00412e91 f   ssh.obj
 0001:00011ea8       _connect_to_host           00412ea8 f   ssh.obj
 0001:000120b0       _ssh_add_special           004130b0 f   ssh.obj
 0001:000120f2       _ssh_bpp_output_raw_data_callback 004130f2 f   ssh.obj
 0001:00012189       _ssh_cache_conf_values     00413189 f   ssh.obj
 0001:00012216       _ssh_connect_bpp           00413216 f   ssh.obj
 0001:00012285       _ssh_connect_ppl           00413285 f   ssh.obj
 0001:000122fb       _ssh_got_ssh_version       004132fb f   ssh.obj
 0001:00012697       _ssh_hostport_setup        00413697 f   ssh.obj
 0001:00012731       _ssh_initiate_connection_close 00413731 f   ssh.obj
 0001:00012896       _ssh_shutdown              00413896 f   ssh.obj
 0001:000128f0       _ssh_shutdown_internal     004138f0 f   ssh.obj
 0001:000129da       _ssh_throttle_all          004139da f   ssh.obj
 0001:00012aab       _ssh1_bpp_free             00413aab f   ssh1bpp.obj
 0001:00012b0c       _ssh1_bpp_handle_input     00413b0c f   ssh1bpp.obj
 0001:00012ed2       _ssh1_bpp_handle_output    00413ed2 f   ssh1bpp.obj
 0001:00012f2f       _ssh1_bpp_queue_disconnect 00413f2f f   ssh1bpp.obj
 0001:00012f5e       _ssh1_bpp_new_pktout       00413f5e f   ssh1bpp.obj
 0001:00012f93       _ssh1_bpp_format_packet    00413f93 f   ssh1bpp.obj
 0001:000133de       _ssh1_connection_free      004143de f   ssh1connection.obj
 0001:000134a1       _ssh1_connection_process_queue 004144a1 f   ssh1connection.obj
 0001:000135fc       _ssh1_connection_special_cmd 004145fc f   ssh1connection.obj
 0001:0001365e       _ssh1_connection_want_user_input 0041465e f   ssh1connection.obj
 0001:00013666       _ssh1_connection_got_user_input 00414666 f   ssh1connection.obj
 0001:000136bb       _ssh1_connection_reconfigure 004146bb f   ssh1connection.obj
 0001:000136e9       _ssh1_lportfwd_open        004146e9 f   ssh1connection.obj
 0001:00013781       _ssh1_agent_forwarding_permitted 00414781 f   ssh1connection.obj
 0001:000137a5       _ssh1_terminal_size        004147a5 f   ssh1connection.obj
 0001:000137cb       _ssh1_stdout_unthrottle    004147cb f   ssh1connection.obj
 0001:000137f0       _ssh1_throttle_all_channels 004147f0 f   ssh1connection.obj
 0001:0001382f       _ssh1_ldisc_option         0041482f f   ssh1connection.obj
 0001:0001383c       _ssh1_set_ldisc_option     0041483c f   ssh1connection.obj
 0001:0001384d       _ssh1_enable_x_fwd         0041484d f   ssh1connection.obj
 0001:00013856       _ssh1_enable_agent_fwd     00414856 f   ssh1connection.obj
 0001:0001385f       _ssh1_set_wants_user_input 0041485f f   ssh1connection.obj
 0001:0001386f       _ssh1channel_write         0041486f f   ssh1connection.obj
 0001:000138d9       _ssh1channel_write_eof     004148d9 f   ssh1connection.obj
 0001:000138f2       _ssh1channel_initiate_close 004148f2 f   ssh1connection.obj
 0001:00013935       _ssh1channel_unthrottle    00414935 f   ssh1connection.obj
 0001:00013960       _ssh1channel_get_conf      00414960 f   ssh1connection.obj
 0001:0001396b       _ssh1_channel_check_close  0041496b f   ssh1connection.obj
 0001:00013a5e       _ssh1_channel_close_local  00414a5e f   ssh1connection.obj
 0001:00013b1d       _ssh1_channel_try_eof      00414b1d f   ssh1connection.obj
 0001:00013bd7       _ssh1_check_termination_callback 00414bd7 f   ssh1connection.obj
 0001:00013bdc       _ssh1_connection_filter_queue 00414bdc f   ssh1connection.obj
 0001:00013f10       _ssh1_rportfwd_cmp         00414f10 f   ssh1connection.obj
 0001:00013f4c       _ssh1mainchan_write        00414f4c f   ssh1connection-client.obj
 0001:00013f83       _ssh1mainchan_write_eof    00414f83 f   ssh1connection-client.obj
 0001:00013fa3       _ssh1mainchan_request_x11_forwarding 00414fa3 f   ssh1connection-client.obj
 0001:00014009       _ssh1mainchan_request_agent_forwarding 00415009 f   ssh1connection-client.obj
 0001:0001403e       _ssh1mainchan_request_pty  0041503e f   ssh1connection-client.obj
 0001:0001410c       _ssh1mainchan_start_shell  0041510c f   ssh1connection-client.obj
 0001:00014141       _ssh1mainchan_start_command 00415141 f   ssh1connection-client.obj
 0001:00014187       _ssh1mainchan_send_terminal_size_change 00415187 f   ssh1connection-client.obj
 0001:00014221       _ssh1_connection_process_succfail 00415221 f   ssh1connection-client.obj
 0001:0001424b       _ssh1_connection_process_trivial_succfails 0041524b f   ssh1connection-client.obj
 0001:000146cf       _ssh1_queue_succfail_handler 004156cf f   ssh1connection-client.obj
 0001:000147de       _ssh1_rportfwd_response    004157de f   ssh1connection-client.obj
 0001:000148a0       _ssh1_session_confirm_callback 004158a0 f   ssh1connection-client.obj
 0001:000148db       _ssh1mainchan_queue_response 004158db f   ssh1connection-client.obj
 0001:00014901       _ssh1mainchan_succfail_wantreply 00415901 f   ssh1connection-client.obj
 0001:00014915       _ssh1_login_free           00415915 f   ssh1login.obj
 0001:000149ee       _ssh1_login_process_queue  004159ee f   ssh1login.obj
 0001:00016555       _ssh1_login_special_cmd    00417555 f   ssh1login.obj
 0001:0001659d       _ssh1_login_want_user_input 0041759d f   ssh1login.obj
 0001:000165a5       _ssh1_login_got_user_input 004175a5 f   ssh1login.obj
 0001:000165ba       _ssh1_login_reconfigure    004175ba f   ssh1login.obj
 0001:000165d1       _ssh1_login_agent_callback 004175d1 f   ssh1login.obj
 0001:00016601       _ssh1_login_agent_query    00417601 f   ssh1login.obj
 0001:0001664f       _ssh1_login_dialog_callback 0041764f f   ssh1login.obj
 0001:000166c1       _ssh1_login_pop            004176c1 f   ssh1login.obj
 0001:000166ed       _ssh1_login_setup_tis_scc  004176ed f   ssh1login.obj
 0001:00016728       _ssh2_bpp_free             00417728 f   ssh2bpp.obj
 0001:00016757       _ssh2_bpp_handle_input     00417757 f   ssh2bpp.obj
 0001:00016f88       _ssh2_bpp_handle_output    00417f88 f   ssh2bpp.obj
 0001:000170ae       _ssh2_bpp_new_pktout       004180ae f   ssh2bpp.obj
 0001:000170dd       _ssh2_bpp_enable_pending_compression 004180dd f   ssh2bpp.obj
 0001:00017142       _ssh2_bpp_format_packet    00418142 f   ssh2bpp.obj
 0001:00017237       _ssh2_bpp_format_packet_inner 00418237 f   ssh2bpp.obj
 0001:000174c0       _ssh2_bpp_free_incoming_crypto 004184c0 f   ssh2bpp.obj
 0001:000174f1       _ssh2_bpp_free_outgoing_crypto 004184f1 f   ssh2bpp.obj
 0001:00017856       _ssh2_bare_bpp_free        00418856 f   ssh2bpp-bare.obj
 0001:00017870       _ssh2_bare_bpp_handle_input 00418870 f   ssh2bpp-bare.obj
 0001:00017a76       _ssh2_bare_bpp_handle_output 00418a76 f   ssh2bpp-bare.obj
 0001:00017ab0       _ssh2_bare_bpp_new_pktout  00418ab0 f   ssh2bpp-bare.obj
 0001:00017ad6       _ssh2_bare_bpp_format_packet 00418ad6 f   ssh2bpp-bare.obj
 0001:00017dc9       _ssh2_set_wants_user_input 00418dc9 f   ssh2connection.obj
 0001:00017dd5       _ssh2channel_write         00418dd5 f   ssh2connection.obj
 0001:00017e23       _ssh2channel_write_eof     00418e23 f   ssh2connection.obj
 0001:00017e3c       _ssh2channel_initiate_close 00418e3c f   ssh2connection.obj
 0001:00017e7f       _ssh2channel_unthrottle    00418e7f f   ssh2connection.obj
 0001:00017ed0       _ssh2channel_get_conf      00418ed0 f   ssh2connection.obj
 0001:00017edb       _ssh2channel_window_override_removed 00418edb f   ssh2connection.obj
 0001:00017f23       _ssh2channel_x11_sharing_handover 00418f23 f   ssh2connection.obj
 0001:00017f6f       _ssh2channel_hint_channel_is_simple 00418f6f f   ssh2connection.obj
 0001:00017f99       _ssh2_connection_free      00418f99 f   ssh2connection.obj
 0001:0001806c       _ssh2_connection_process_queue 0041906c f   ssh2connection.obj
 0001:000181eb       _ssh2_connection_get_specials 004191eb f   ssh2connection.obj
 0001:00018240       _ssh2_connection_special_cmd 00419240 f   ssh2connection.obj
 0001:000182a5       _ssh2_connection_want_user_input 004192a5 f   ssh2connection.obj
 0001:000182ad       _ssh2_connection_got_user_input 004192ad f   ssh2connection.obj
 0001:000182f3       _ssh2_connection_reconfigure 004192f3 f   ssh2connection.obj
 0001:00018321       _ssh2_lportfwd_open        00419321 f   ssh2connection.obj
 0001:00018374       _ssh2_add_x11_display      00419374 f   ssh2connection.obj
 0001:00018374       _ssh1_add_x11_display      00419374 f   ssh1connection.obj
 0001:0001838e       _ssh2_add_sharing_x11_display 0041938e f   ssh2connection.obj
 0001:000183af       _ssh2_remove_sharing_x11_display 004193af f   ssh2connection.obj
 0001:000183cc       _ssh2_send_packet_from_downstream 004193cc f   ssh2connection.obj
 0001:0001840f       _ssh2_alloc_sharing_channel 0041940f f   ssh2connection.obj
 0001:0001843f       _ssh2_delete_sharing_channel 0041943f f   ssh2connection.obj
 0001:00018464       _ssh2_sharing_queue_global_request 00419464 f   ssh2connection.obj
 0001:0001847e       _ssh2_sharing_no_more_downstreams 0041947e f   ssh2connection.obj
 0001:00018493       _ssh2_agent_forwarding_permitted 00419493 f   ssh2connection.obj
 0001:000184b7       _ssh2_terminal_size        004194b7 f   ssh2connection.obj
 0001:000184dd       _ssh2_stdout_unthrottle    004194dd f   ssh2connection.obj
 0001:000184f7       _ssh2_stdin_backlog        004194f7 f   ssh2connection.obj
 0001:00018525       _ssh2_throttle_all_channels 00419525 f   ssh2connection.obj
 0001:00018557       _ssh2_ldisc_option         00419557 f   ssh2connection.obj
 0001:00018564       _ssh2_set_ldisc_option     00419564 f   ssh2connection.obj
 0001:00018575       _ssh2_enable_x_fwd         00419575 f   ssh2connection.obj
 0001:0001857e       _ssh2_enable_agent_fwd     0041957e f   ssh2connection.obj
 0001:00018587       _ssh2_channel_check_close  00419587 f   ssh2connection.obj
 0001:00018631       _ssh2_channel_check_throttle 00419631 f   ssh2connection.obj
 0001:00018662       _ssh2_channel_close_local  00419662 f   ssh2connection.obj
 0001:000186d3       _ssh2_channel_destroy      004196d3 f   ssh2connection.obj
 0001:00018720       _ssh2_channel_free         00419720 f   ssh2connection.obj
 0001:000187ef       _ssh2_channel_open_failure_error_text 004197ef f   ssh2connection.obj
 0001:00018866       _ssh2_channel_try_eof      00419866 f   ssh2connection.obj
 0001:000189c8       _ssh2_check_termination_callback 004199c8 f   ssh2connection.obj
 0001:00018a06       _ssh2_connection_filter_queue 00419a06 f   ssh2connection.obj
 0001:00019512       $LN203                     0041a512     ssh2connection.obj
 0001:000195e6       _ssh2_handle_winadj_response 0041a5e6 f   ssh2connection.obj
 0001:0001963c       _ssh2_set_window           0041a63c f   ssh2connection.obj
 0001:0001971b       _ssh2_sharing_globreq_response 0041a71b f   ssh2connection.obj
 0001:00019734       _ssh2_try_send             0041a734 f   ssh2connection.obj
 0001:00019854       _chan_open_forwarded_tcpip 0041a854 f   ssh2connection-client.obj
 0001:000199a0       _chan_open_x11             0041a9a0 f   ssh2connection-client.obj
 0001:00019a6a       _ssh2_channel_response     0041aa6a f   ssh2connection-client.obj
 0001:00019d68       _ssh2_rportfwd_cmp         0041ad68 f   ssh2connection-client.obj
 0001:00019da2       _ssh2_rportfwd_globreq_response 0041ada2 f   ssh2connection-client.obj
 0001:0001ba38       _ssh_transient_hostkey_cache_cmp 0041ca38 f   ssh2transhk.obj
 0001:0001ba52       _ssh_transient_hostkey_cache_find 0041ca52 f   ssh2transhk.obj
 0001:0001bb6b       _ssh2_transport_free       0041cb6b f   ssh2transport.obj
 0001:0001bcfb       _ssh2_transport_process_queue 0041ccfb f   ssh2transport.obj
 0001:0001c961       _ssh2_transport_get_specials 0041d961 f   ssh2transport.obj
 0001:0001ca2a       _ssh2_transport_special_cmd 0041da2a f   ssh2transport.obj
 0001:0001caa4       _ssh2_transport_want_user_input 0041daa4 f   ssh2transport.obj
 0001:0001cab6       _ssh2_transport_got_user_input 0041dab6 f   ssh2transport.obj
 0001:0001cac8       _ssh2_transport_reconfigure 0041dac8 f   ssh2transport.obj
 0001:0001cca5       _ssh2_transport_queued_data_size 0041dca5 f   ssh2transport.obj
 0001:0001ccc6       _ec_signkey_invalid        0041dcc6 f   sshecc.obj
 0001:0001ccc6       _ssh_comp_none_init        0041dcc6 f   ssh2transport.obj
 0001:0001ccc6       _sk_error_peer_info        0041dcc6 f   errsock.obj
 0001:0001ccc6       _ssh1_stdin_backlog        0041dcc6 f   ssh1connection.obj
 0001:0001ccc6       _sk_namedpipeserver_peer_info 0041dcc6 f   winnps.obj
 0001:0001ccc6       _no_op_initialize          0041dcc6 f   libucrt:wsetlocale.obj
 0001:0001ccc6       _zombiechan_log_close_msg  0041dcc6 f   sshcommon.obj
 0001:0001ccc6       _dss_invalid               0041dcc6 f   sshdss.obj
 0001:0001ccc6       _ssh_decomp_none_init      0041dcc6 f   ssh2transport.obj
 0001:0001cd8d       _ssh2_kexinit_addalg       0041dd8d f   ssh2transport.obj
 0001:0001cdd4       _ssh2_mkkey                0041ddd4 f   ssh2transport.obj
 0001:0001cef1       _ssh2_scan_kexinits        0041def1 f   ssh2transport.obj
 0001:0001d41d       $LN121                     0041e41d     ssh2transport.obj
 0001:0001d43d       _ssh2_transport_confirm_weak_crypto_primitive 0041e43d f   ssh2transport.obj
 0001:0001d4a8       _ssh2_transport_filter_queue 0041e4a8 f   ssh2transport.obj
 0001:0001d592       _ssh2_transport_gss_update 0041e592 f   ssh2transport.obj
 0001:0001d784       _ssh2_transport_higher_layer_packet_callback 0041e784 f   ssh2transport.obj
 0001:0001d784       _ssh_ppl_ic_process_queue_callback 0041e784 f   sshcommon.obj
 0001:0001d9a3       _ssh2_transport_set_max_data_size 0041e9a3 f   ssh2transport.obj
 0001:0001d9c0       _ssh2_transport_timer      0041e9c0 f   ssh2transport.obj
 0001:0001da7c       _ssh2_transport_timer_update 0041ea7c f   ssh2transport.obj
 0001:0001db48       _ssh2_write_kexinit_lists  0041eb48 f   ssh2transport.obj
 0001:0001e2da       _weak_algorithm_compare    0041f2da f   ssh2transport.obj
 0001:0001e2f1       _ssh2_userauth_free        0041f2f1 f   ssh2userauth.obj
 0001:0001e40d       _ssh2_userauth_process_queue 0041f40d f   ssh2userauth.obj
 0001:000208ab       _ssh2_userauth_want_user_input 004218ab f   ssh2userauth.obj
 0001:000208b3       _ssh2_userauth_got_user_input 004218b3 f   ssh2userauth.obj
 0001:000208c8       _ssh2_userauth_reconfigure 004218c8 f   ssh2userauth.obj
 0001:000208df       _ssh2_userauth_add_session_id 004218df f   ssh2userauth.obj
 0001:0002090e       _ssh2_userauth_add_sigblob 0042190e f   ssh2userauth.obj
 0001:00020a68       _ssh2_userauth_agent_callback 00421a68 f   ssh2userauth.obj
 0001:00020a9b       _ssh2_userauth_agent_query 00421a9b f   ssh2userauth.obj
 0001:00020aec       _ssh2_userauth_antispoof_msg 00421aec f   ssh2userauth.obj
 0001:00020b81       _ssh2_userauth_filter_queue 00421b81 f   ssh2userauth.obj
 0001:00020c69       _ssh2_userauth_gss_packet  00421c69 f   ssh2userauth.obj
 0001:00020e08       _ssh2_userauth_pop         00421e08 f   ssh2userauth.obj
 0001:00020e34       _aes256_cbc_hw_encrypt     00421e34 f   sshaes.obj
 0001:00020e4e       _aes256_cbc_hw_decrypt     00421e4e f   sshaes.obj
 0001:00020e68       _aes256_sdctr_hw           00421e68 f   sshaes.obj
 0001:00020e82       _aes_select                00421e82 f   sshaes.obj
 0001:00020e9e       _aes_sw_new                00421e9e f   sshaes.obj
 0001:00020ebb       _aes_sw_free               00421ebb f   sshaes.obj
 0001:00020edc       _aes_sw_setiv_cbc          00421edc f   sshaes.obj
 0001:00020ef3       _aes_sw_setiv_sdctr        00421ef3 f   sshaes.obj
 0001:00020f42       _aes_sw_setkey             00421f42 f   sshaes.obj
 0001:00020f63       _aes_hw_new                00421f63 f   sshaes.obj
 0001:00020f9d       _aes_hw_free               00421f9d f   sshaes.obj
 0001:00020fc3       _aes_hw_setiv_cbc          00421fc3 f   sshaes.obj
 0001:00020fd3       _aes_hw_setiv_sdctr        00421fd3 f   sshaes.obj
 0001:00020fec       _aes_hw_setkey             00421fec f   sshaes.obj
 0001:0002101e       _aes128_cbc_hw_encrypt     0042201e f   sshaes.obj
 0001:00021038       _aes128_cbc_hw_decrypt     00422038 f   sshaes.obj
 0001:00021052       _aes128_sdctr_sw           00422052 f   sshaes.obj
 0001:00021052       _aes256_sdctr_sw           00422052 f   sshaes.obj
 0001:00021052       _aes192_sdctr_sw           00422052 f   sshaes.obj
 0001:00021057       _aes128_sdctr_hw           00422057 f   sshaes.obj
 0001:00021071       _aes256_cbc_sw_encrypt     00422071 f   sshaes.obj
 0001:00021071       _aes192_cbc_sw_encrypt     00422071 f   sshaes.obj
 0001:00021071       _aes128_cbc_sw_encrypt     00422071 f   sshaes.obj
 0001:00021076       _aes192_cbc_hw_encrypt     00422076 f   sshaes.obj
 0001:00021090       _aes192_cbc_hw_decrypt     00422090 f   sshaes.obj
 0001:000210aa       _aes192_sdctr_hw           004220aa f   sshaes.obj
 0001:000210c4       _aes256_cbc_sw_decrypt     004220c4 f   sshaes.obj
 0001:000210c4       _aes128_cbc_sw_decrypt     004220c4 f   sshaes.obj
 0001:000210c4       _aes192_cbc_sw_decrypt     004220c4 f   sshaes.obj
 0001:000210c9       _GET_64BIT_LSB_FIRST       004220c9 f   sshaes.obj
 0001:0002114a       _PUT_64BIT_LSB_FIRST       0042214a f   sshaes.obj
 0001:0002119e       _aes_cbc_ni_decrypt        0042219e f   sshaes.obj
 0001:000211f8       _aes_cbc_ni_encrypt        004221f8 f   sshaes.obj
 0001:0002123d       _aes_cbc_sw_decrypt        0042223d f   sshaes.obj
 0001:0002134b       _aes_cbc_sw_encrypt        0042234b f   sshaes.obj
 0001:00021395       _aes_hw_available_cached   00422395 f   sshaes.obj
 0001:000213ec       _aes_ni_128_d              004223ec f   sshaes.obj
 0001:0002147e       _aes_ni_128_e              0042247e f   sshaes.obj
 0001:00021510       _aes_ni_192_d              00422510 f   sshaes.obj
 0001:000215c4       _aes_ni_192_e              004225c4 f   sshaes.obj
 0001:00021678       _aes_ni_256_d              00422678 f   sshaes.obj
 0001:0002174e       _aes_ni_256_e              0042274e f   sshaes.obj
 0001:00021824       _aes_ni_key_expand         00422824 f   sshaes.obj
 0001:00021a35       _aes_sdctr_ni              00422a35 f   sshaes.obj
 0001:00021aab       _aes_sdctr_sw              00422aab f   sshaes.obj
 0001:00021bbd       _aes_sliced_d_parallel     00422bbd f   sshaes.obj
 0001:000221f8       _aes_sliced_e_parallel     004231f8 f   sshaes.obj
 0001:000227fa       _aes_sliced_e_serial       004237fa f   sshaes.obj
 0001:00022c0b       _aes_sliced_key_setup      00423c0b f   sshaes.obj
 0001:0002351d       _aes_sliced_round_d_parallel 0042451d f   sshaes.obj
 0001:000241df       _aes_sliced_round_d_parallel_first 004251df f   sshaes.obj
 0001:000246df       _aes_sliced_round_e_parallel 004256df f   sshaes.obj
 0001:00024eb1       _aes_sliced_round_e_parallel_last 00425eb1 f   sshaes.obj
 0001:000253cc       _aes_sliced_round_e_serial 004263cc f   sshaes.obj
 0001:00025ddd       _aes_sliced_round_e_serial_last 00426ddd f   sshaes.obj
 0001:000263e7       _memxor16                  004273e7 f   sshaes.obj
 0001:00026443       _arcfour_new               00427443 f   ssharcf.obj
 0001:00026460       _arcfour_free              00427460 f   ssharcf.obj
 0001:00026481       _arcfour_ssh2_setkey       00427481 f   ssharcf.obj
 0001:000264d7       _arcfour_ssh2_block        004274d7 f   ssharcf.obj
 0001:000264f2       _arcfour_block             004274f2 f   ssharcf.obj
 0001:0002654a       _arcfour_setkey            0042754a f   ssharcf.obj
 0001:00026644       _aes256_pubkey_cipher      00427644 f   sshauxcrypt.obj
 0001:000266be       _des3_pubkey_cipher        004276be f   sshauxcrypt.obj
 0001:00026783       _des_xdmauth_cipher        00427783 f   sshauxcrypt.obj
 0001:0002687f       _blowfish_new              0042787f f   sshblowf.obj
 0001:0002689c       _blowfish_free             0042789c f   sshblowf.obj
 0001:000268bd       _blowfish_ssh_setkey       004278bd f   sshblowf.obj
 0001:000268ee       _blowfish_ssh1_setiv       004278ee f   sshblowf.obj
 0001:00026912       _blowfish_ssh2_setiv       00427912 f   sshblowf.obj
 0001:00026936       _blowfish_ssh1_encrypt_blk 00427936 f   sshblowf.obj
 0001:00026951       _blowfish_ssh1_decrypt_blk 00427951 f   sshblowf.obj
 0001:0002696c       _blowfish_ssh2_encrypt_blk 0042796c f   sshblowf.obj
 0001:00026987       _blowfish_ssh2_decrypt_blk 00427987 f   sshblowf.obj
 0001:000269a2       _blowfish_ssh2_sdctr       004279a2 f   sshblowf.obj
 0001:000269bd       _GET_32BIT_LSB_FIRST       004279bd f   sshblowf.obj
 0001:000269bd       _GET_32BIT_LSB_FIRST       004279bd f   sshccp.obj
 0001:000269e0       _GET_32BIT_MSB_FIRST       004279e0 f   ssh2bpp.obj
 0001:000269e0       _GET_32BIT_MSB_FIRST       004279e0 f   sshblowf.obj
 0001:00026a03       _blowfish_decrypt          00427a03 f   sshblowf.obj
 0001:00026e29       _blowfish_encrypt          00427e29 f   sshblowf.obj
 0001:0002762c       _blowfish_lsb_decrypt_cbc  0042862c f   sshblowf.obj
 0001:0002772d       _blowfish_lsb_encrypt_cbc  0042872d f   sshblowf.obj
 0001:00027823       _blowfish_msb_decrypt_cbc  00428823 f   sshblowf.obj
 0001:00027930       _blowfish_msb_encrypt_cbc  00428930 f   sshblowf.obj
 0001:00027a34       _blowfish_msb_sdctr        00428a34 f   sshblowf.obj
 0001:00027b1f       _poly_ssh2_new             00428b1f f   sshccp.obj
 0001:00027b33       _poly_start                00428b33 f   sshccp.obj
 0001:00027b57       _poly_genresult            00428b57 f   sshccp.obj
 0001:00027b6b       _poly_text_name            00428b6b f   sshccp.obj
 0001:00027b71       _ccp_new                   00428b71 f   sshccp.obj
 0001:00027bb1       _ccp_free                  00428bb1 f   sshccp.obj
 0001:00027bf0       _ssh1mainchan_succfail_nowantreply 00428bf0 f   ssh1connection-client.obj
 0001:00027bf0       _ssh1channel_window_override_removed 00428bf0 f   ssh1connection.obj
 0001:00027bf0       _ssh_decomp_none_cleanup   00428bf0 f   ssh2transport.obj
 0001:00027bf0       _ssh_comp_none_cleanup     00428bf0 f   ssh2transport.obj
 0001:00027bf0       _ssh1mainchan_hint_channel_is_simple 00428bf0 f   ssh1connection-client.obj
 0001:00027bf0       _ccp_iv                    00428bf0 f   sshccp.obj
 0001:00027bf0       _nullplug_socket_log       00428bf0 f   nullplug.obj
 0001:00027bf0       _ssh2_userauth_special_cmd 00428bf0 f   ssh2userauth.obj
 0001:00027bf0       _poly_setkey               00428bf0 f   sshccp.obj
 0001:00027bf0       _ssh1_rportfwd_remove      00428bf0 f   ssh1connection.obj
 0001:00027bf0       _share_sent                00428bf0 f   sshshare.obj
 0001:00027bf0       _x11_log                   00428bf0 f   x11fwd.obj
 0001:00027bf0       _nullplug_closing          00428bf0 f   nullplug.obj
 0001:00027bf0       _arcfour_ssh2_setiv        00428bf0 f   ssharcf.obj
 0001:00027bf0       _pfl_log                   00428bf0 f   portfwd.obj
 0001:00027bf0       _poly_ssh2_free            00428bf0 f   sshccp.obj
 0001:00027bf0       _nullplug_sent             00428bf0 f   nullplug.obj
 0001:00027bf0       _ssh_comp_none_block       00428bf0 f   ssh2transport.obj
 0001:00027bf0       _ssh_verstring_queue_disconnect 00428bf0 f   sshverstring.obj
 0001:00027bf0       _nullplug_receive          00428bf0 f   nullplug.obj
 0001:00027bf0       _pfd_log                   00428bf0 f   portfwd.obj
 0001:00027bf1       _ccp_key                   00428bf1 f   sshccp.obj
 0001:00027c1e       _ccp_encrypt               00428c1e f   sshccp.obj
 0001:00027c1e       _ccp_decrypt               00428c1e f   sshccp.obj
 0001:00027c39       _ccp_encrypt_length        00428c39 f   sshccp.obj
 0001:00027c39       _ccp_decrypt_length        00428c39 f   sshccp.obj
 0001:00027c67       _bigval_add                00428c67 f   sshccp.obj
 0001:00027cce       _bigval_final_reduce       00428cce f   sshccp.obj
 0001:00027d71       _bigval_import_le          00428d71 f   sshccp.obj
 0001:00027dbf       _bigval_mul_mod_p          00428dbf f   sshccp.obj
 0001:00028116       _ccp_length_op             00429116 f   sshccp.obj
 0001:00028188       _chacha20_encrypt          00429188 f   sshccp.obj
 0001:000281d6       _chacha20_iv               004291d6 f   sshccp.obj
 0001:00028236       _chacha20_key              00429236 f   sshccp.obj
 0001:000282e6       _chacha20_round            004292e6 f   sshccp.obj
 0001:0002863d       _poly1305_feed             0042963d f   sshccp.obj
 0001:000286c3       _poly1305_feed_chunk       004296c3 f   sshccp.obj
 0001:0002873d       _poly1305_finalise         0042973d f   sshccp.obj
 0001:000287cd       _poly1305_init             004297cd f   sshccp.obj
 0001:000287ef       _poly1305_key              004297ef f   sshccp.obj
 0001:00028887       _poly_BinarySink_write     00429887 f   sshccp.obj
 0001:00028929       _pktin_free_queue_callback 00429929 f   sshcommon.obj
 0001:00028954       _zombiechan_free           00429954 f   sshcommon.obj
 0001:00028981       _zombiechan_send           00429981 f   sshcommon.obj
 0001:000289a7       _zombiechan_set_input_wanted 004299a7 f   sshcommon.obj
 0001:000289cb       _zombiechan_do_nothing     004299cb f   sshcommon.obj
 0001:000289ef       _zombiechan_open_failure   004299ef f   sshcommon.obj
 0001:00028a13       _ssh1mainchan_start_subsystem 00429a13 f   ssh1connection-client.obj
 0001:00028a13       _ssh1mainchan_send_env_var 00429a13 f   ssh1connection-client.obj
 0001:00028a13       _ssh_decomp_none_block     00429a13 f   ssh2transport.obj
 0001:00028a13       _ssh2_userauth_get_specials 00429a13 f   ssh2userauth.obj
 0001:00028a13       _ssh1mainchan_send_signal  00429a13 f   ssh1connection-client.obj
 0001:00028a13       _ssh1mainchan_send_serial_break 00429a13 f   ssh1connection-client.obj
 0001:00028ef7       _pq_ensure_unlinked        00429ef7 f   sshcommon.obj
 0001:00028f47       _pq_in_after               00429f47 f   sshcommon.obj
 0001:00028fca       _pq_out_after              00429fca f   sshcommon.obj
 0001:0002903e       _pq_unlink_common          0042a03e f   sshcommon.obj
 0001:0002990f       _ssh_bpp_input_raw_data_callback 0042a90f f   sshcommon.obj
 0001:00029927       _ssh_bpp_output_packet_callback 0042a927 f   sshcommon.obj
 0001:00029980       _ssh_pkt_BinarySink_write  0042a980 f   sshcommon.obj
 0001:00029d4d       _check_crc                 0042ad4d f   sshcrcda.obj
 0001:00029de7       _crc_update                0042ade7 f   sshcrcda.obj
 0001:0002a09c       _des_cbc_new               0042b09c f   sshdes.obj
 0001:0002a0b9       _des_cbc_free              0042b0b9 f   sshdes.obj
 0001:0002a0da       _des_cbc_setkey            0042b0da f   sshdes.obj
 0001:0002a0f9       _des3_cbc1_setiv           0042b0f9 f   sshdes.obj
 0001:0002a0f9       _des_cbc_setiv             0042b0f9 f   sshdes.obj
 0001:0002a10e       _des_cbc_encrypt           0042b10e f   sshdes.obj
 0001:0002a190       _des_cbc_decrypt           0042b190 f   sshdes.obj
 0001:0002a212       _des3_cbc1_setkey          0042b212 f   sshdes.obj
 0001:0002a212       _des3_sdctr_setkey         0042b212 f   sshdes.obj
 0001:0002a247       _des3_cbc1_cbc_encrypt     0042b247 f   sshdes.obj
 0001:0002a304       _des3_cbc1_cbc_decrypt     0042b304 f   sshdes.obj
 0001:0002a3b5       _des3_sdctr_new            0042b3b5 f   sshdes.obj
 0001:0002a3b5       _des3_cbc1_new             0042b3b5 f   sshdes.obj
 0001:0002a3d2       _des3_sdctr_free           0042b3d2 f   sshdes.obj
 0001:0002a3d2       _des3_cbc1_free            0042b3d2 f   sshdes.obj
 0001:0002a3f3       _des3_sdctr_setiv          0042b3f3 f   sshdes.obj
 0001:0002a434       _des3_sdctr_encrypt_decrypt 0042b434 f   sshdes.obj
 0001:0002a56d       _des3_cbc3_new             0042b56d f   sshdes.obj
 0001:0002a58a       _des3_cbc3_free            0042b58a f   sshdes.obj
 0001:0002a5ab       _des3_cbc3_setkey          0042b5ab f   sshdes.obj
 0001:0002a5e0       _des3_cbc3_setiv           0042b5e0 f   sshdes.obj
 0001:0002a60c       _des3_cbc3_cbc_encrypt     0042b60c f   sshdes.obj
 0001:0002a6ee       _des3_cbc3_cbc_decrypt     0042b6ee f   sshdes.obj
 0001:0002a7d4       _bitsel                    0042b7d4 f   sshdes.obj
 0001:0002a82c       _des_FP                    0042b82c f   sshdes.obj
 0001:0002a8a5       _des_IP                    0042b8a5 f   sshdes.obj
 0001:0002a91e       _des_S                     0042b91e f   sshdes.obj
 0001:0002aa32       _des_f                     0042ba32 f   sshdes.obj
 0001:0002aabc       _des_inner_cipher          0042babc f   sshdes.obj
 0001:0002ada5       _des_load_lr               0042bda5 f   sshdes.obj
 0001:0002adeb       _des_store_lr              0042bdeb f   sshdes.obj
 0001:0002ae29       _dh_group1_construct       0042be29 f   sshdh.obj
 0001:0002ae4c       _dh_group14_construct      0042be4c f   sshdh.obj
 0001:0002af5d       _dh_init                   0042bf5d f   sshdh.obj
 0001:0002b054       _dss_freekey               0042c054 f   sshdss.obj
 0001:0002b0ae       _dss_new_pub               0042c0ae f   sshdss.obj
 0001:0002b175       _dss_cache_str             0042c175 f   sshdss.obj
 0001:0002b1c3       _dss_verify                0042c1c3 f   sshdss.obj
 0001:0002b3fd       _dss_public_blob           0042c3fd f   sshdss.obj
 0001:0002b446       _dss_private_blob          0042c446 f   sshdss.obj
 0001:0002b45c       _dss_new_priv              0042c45c f   sshdss.obj
 0001:0002b572       _dss_new_priv_openssh      0042c572 f   sshdss.obj
 0001:0002b605       _dss_openssh_blob          0042c605 f   sshdss.obj
 0001:0002b64c       _dss_pubkey_bits           0042c64c f   sshdss.obj
 0001:0002b684       _dss_sign                  0042c684 f   sshdss.obj
 0001:0002b8e5       _ecdsa_new_priv_openssh    0042c8e5 f   sshecc.obj
 0001:0002b968       _ecdsa_openssh_blob        0042c968 f   sshecc.obj
 0001:0002b9a1       _ec_shared_pubkey_bits     0042c9a1 f   sshecc.obj
 0001:0002b9ae       _ecdsa_verify              0042c9ae f   sshecc.obj
 0001:0002bba5       _eddsa_verify              0042cba5 f   sshecc.obj
 0001:0002bd22       _ecdsa_sign                0042cd22 f   sshecc.obj
 0001:0002bea9       _eddsa_sign                0042cea9 f   sshecc.obj
 0001:0002c0da       _ssh_ecdhkex_w_setup       0042d0da f   sshecc.obj
 0001:0002c11c       _ssh_ecdhkex_m_setup       0042d11c f   sshecc.obj
 0001:0002c1af       _ssh_ecdhkex_w_getpublic   0042d1af f   sshecc.obj
 0001:0002c1cb       _ssh_ecdhkex_m_getpublic   0042d1cb f   sshecc.obj
 0001:0002c221       _ssh_ecdhkex_w_getkey      0042d221 f   sshecc.obj
 0001:0002c285       _ssh_ecdhkex_m_getkey      0042d285 f   sshecc.obj
 0001:0002c35e       _ssh_ecdhkex_w_cleanup     0042d35e f   sshecc.obj
 0001:0002c36c       _ec_p256                   0042d36c f   sshecc.obj
 0001:0002c45a       _ssh_ecdhkex_m_cleanup     0042d45a f   sshecc.obj
 0001:0002c468       _ec_p384                   0042d468 f   sshecc.obj
 0001:0002c556       _ec_p521                   0042d556 f   sshecc.obj
 0001:0002c644       _ec_curve25519             0042d644 f   sshecc.obj
 0001:0002c6f8       _ec_ed25519                0042d6f8 f   sshecc.obj
 0001:0002c80c       _ecdsa_freekey             0042d80c f   sshecc.obj
 0001:0002c83b       _eddsa_freekey             0042d83b f   sshecc.obj
 0001:0002c86a       _ecdsa_new_pub             0042d86a f   sshecc.obj
 0001:0002c91f       _eddsa_new_pub             0042d91f f   sshecc.obj
 0001:0002c9d2       _ecdsa_cache_str           0042d9d2 f   sshecc.obj
 0001:0002ca17       _eddsa_cache_str           0042da17 f   sshecc.obj
 0001:0002ca5c       _ecdsa_public_blob         0042da5c f   sshecc.obj
 0001:0002ca97       _eddsa_public_blob         0042da97 f   sshecc.obj
 0001:0002cac4       _ecdsa_private_blob        0042dac4 f   sshecc.obj
 0001:0002caf9       _eddsa_private_blob        0042daf9 f   sshecc.obj
 0001:0002cb2e       _ecdsa_new_priv            0042db2e f   sshecc.obj
 0001:0002cb77       _eddsa_new_priv            0042db77 f   sshecc.obj
 0001:0002cbc9       _eddsa_new_priv_openssh    0042dbc9 f   sshecc.obj
 0001:0002cceb       _eddsa_openssh_blob        0042dceb f   sshecc.obj
 0001:0002cdb3       _BinarySink_put_epoint     0042ddb3 f   sshecc.obj
 0001:0002ce76       _BinarySink_put_mp_le_unsigned 0042de76 f   sshecc.obj
 0001:0002cec0       _BinarySink_put_wpoint     0042dec0 f   sshecc.obj
 0001:0002cf9f       _BinarySource_get_wpoint   0042df9f f   sshecc.obj
 0001:0002cfc9       _ecc_cache_str_shared      0042dfc9 f   sshecc.obj
 0001:0002d028       _ecdsa_decode              0042e028 f   sshecc.obj
 0001:0002d148       _ecdsa_signing_exponent_from_data 0042e148 f   sshecc.obj
 0001:0002d1d1       _eddsa_decode              0042e1d1 f   sshecc.obj
 0001:0002d268       _eddsa_exponent_from_hash  0042e268 f   sshecc.obj
 0001:0002d2ce       _eddsa_signing_exponent_from_data 0042e2ce f   sshecc.obj
 0001:0002d35a       _initialise_common         0042e35a f   sshecc.obj
 0001:0002d38a       _initialise_wcurve         0042e38a f   sshecc.obj
 0001:0002d3d0       _mp__from_string_literal   0042e3d0 f   sshdh.obj
 0001:0002d3d0       _mp__from_string_literal   0042e3d0 f   sshecc.obj
 0001:0002d478       _ssh_gssapi_acquire_cred   0042e478 f   sshgssc.obj
 0001:0002d5af       _ssh_gssapi_display_status 0042e5af f   sshgssc.obj
 0001:0002d698       _ssh_gssapi_free_mic       0042e698 f   sshgssc.obj
 0001:0002d69d       _ssh_gssapi_free_tok       0042e69d f   sshgssc.obj
 0001:0002d6b9       _ssh_gssapi_get_mic        0042e6b9 f   sshgssc.obj
 0001:0002d6de       _ssh_gssapi_import_name    0042e6de f   sshgssc.obj
 0001:0002d735       _ssh_gssapi_indicate_mech  0042e735 f   sshgssc.obj
 0001:0002d750       _ssh_gssapi_init_sec_context 0042e750 f   sshgssc.obj
 0001:0002d7f8       _ssh_gssapi_release_cred   0042e7f8 f   sshgssc.obj
 0001:0002d83c       _ssh_gssapi_release_name   0042e83c f   sshgssc.obj
 0001:0002d858       _ssh_gssapi_verify_mic     0042e858 f   sshgssc.obj
 0001:0002d87d       _hmac_new                  0042e87d f   sshhmac.obj
 0001:0002d97d       _hmac_free                 0042e97d f   sshhmac.obj
 0001:0002d9d0       _hmac_key                  0042e9d0 f   sshhmac.obj
 0001:0002db39       _hmac_start                0042eb39 f   sshhmac.obj
 0001:0002db5d       _hmac_genresult            0042eb5d f   sshhmac.obj
 0001:0002dbbf       _hmac_text_name            0042ebbf f   sshhmac.obj
 0001:0002dbf5       _ssh2_mac_prepare          0042ebf5 f   sshmac.obj
 0001:0002dcbd       _md5_new                   0042ecbd f   sshmd5.obj
 0001:0002dce5       _md5_copy                  0042ece5 f   sshmd5.obj
 0001:0002dd07       _md5_free                  0042ed07 f   sshmd5.obj
 0001:0002dd22       _md5_final                 0042ed22 f   sshmd5.obj
 0001:0002de7f       _MD5_BinarySink_write      0042ee7f f   sshmd5.obj
 0001:0002df56       _MD5_Block                 0042ef56 f   sshmd5.obj
 0001:0002eca0       _prng_seed_BinarySink_write 0042fca0 f   sshprng.obj
 0001:0002eec1       _key_type_fp               0042fec1 f   sshpubk.obj
 0001:0002f162       $LN18                      00430162     sshpubk.obj
 0001:0002f349       _read_blob                 00430349 f   sshpubk.obj
 0001:0002f456       _read_body                 00430456 f   sshpubk.obj
 0001:0002f4bd       _read_header               004304bd f   sshpubk.obj
 0001:0002f826       _rsa_ssh1_load_main        00430826 f   sshpubk.obj
 0001:0003051b       _ssh2_ppk_derivekey        0043151b f   sshpubk.obj
 0001:00030979       _userkey_parse_line_counter 00431979 f   sshpubk.obj
 0001:00030a04       _random_create             00431a04 f   sshrand.obj
 0001:00030b2e       _random_seed_callback      00431b2e f   sshrand.obj
 0001:00030b48       _random_timer              00431b48 f   sshrand.obj
 0001:00030bb0       _rsa2_freekey              00431bb0 f   sshrsa.obj
 0001:00030bc8       _rsa2_new_pub              00431bc8 f   sshrsa.obj
 0001:00030c62       _rsa2_cache_str            00431c62 f   sshrsa.obj
 0001:00030c71       _rsa2_public_blob          00431c71 f   sshrsa.obj
 0001:00030ca4       _rsa2_private_blob         00431ca4 f   sshrsa.obj
 0001:00030ce0       _rsa2_new_priv             00431ce0 f   sshrsa.obj
 0001:00030d70       _rsa2_new_priv_openssh     00431d70 f   sshrsa.obj
 0001:00030dfb       _rsa2_openssh_blob         00431dfb f   sshrsa.obj
 0001:00030e4d       _rsa2_pubkey_bits          00431e4d f   sshrsa.obj
 0001:00030e85       _rsa2_verify               00431e85 f   sshrsa.obj
 0001:00030fc1       _rsa2_sign                 00431fc1 f   sshrsa.obj
 0001:00031157       _append_hex_to_strbuf      00432157 f   sshrsa.obj
 0001:00031157       _append_hex_to_strbuf      00432157 f   sshdss.obj
 0001:0003138e       _oaep_mask                 0043238e f   sshrsa.obj
 0001:00031455       _rsa2_hash_alg_for_flags   00432455 f   sshrsa.obj
 0001:00031490       _rsa_pkcs1_prefix_for_hash 00432490 f   sshrsa.obj
 0001:000314e3       _rsa_pkcs1_signature_string 004324e3 f   sshrsa.obj
 0001:0003158d       _rsa_privkey_op            0043258d f   sshrsa.obj
 0001:00031b17       _sha256_select             00432b17 f   sshsh256.obj
 0001:00031b30       _sha256_sw_new             00432b30 f   sshsh256.obj
 0001:00031b77       _sha256_sw_copy            00432b77 f   sshsh256.obj
 0001:00031bab       _sha256_ni_new             00432bab f   sshsh256.obj
 0001:00031bfa       _sha256_sw_free            00432bfa f   sshsh256.obj
 0001:00031c18       _sha256_ni_free            00432c18 f   sshsh256.obj
 0001:00031c18       _sha1_ni_free              00432c18 f   sshsha.obj
 0001:00031c39       _sha256_sw_final           00432c39 f   sshsh256.obj
 0001:00031c86       _sha256_ni_final           00432c86 f   sshsh256.obj
 0001:00031cdb       _sha256_block_pad          00432cdb f   sshsh256.obj
 0001:00031d5a       _sha1_block_write          00432d5a f   sshsha.obj
 0001:00031d5a       _sha256_block_write        00432d5a f   sshsh256.obj
 0001:00031db0       _sha256_hw_available_cached 00432db0 f   sshsh256.obj
 0001:00031dd1       _sha1_ni_alloc             00432dd1 f   sshsha.obj
 0001:00031dd1       _sha256_ni_alloc           00432dd1 f   sshsh256.obj
 0001:00031dee       _sha256_ni_block           00432dee f   sshsh256.obj
 0001:000320e4       _sha256_ni_write           004330e4 f   sshsh256.obj
 0001:00032120       _sha256_sw_block           00433120 f   sshsh256.obj
 0001:0003241e       _sha256_sw_round           0043341e f   sshsh256.obj
 0001:000324a6       _sha256_sw_write           004334a6 f   sshsh256.obj
 0001:000324e2       _sha512_new                004334e2 f   sshsh512.obj
 0001:00032516       _sha512_copy               00433516 f   sshsh512.obj
 0001:0003253e       _sha512_free               0043353e f   sshsh512.obj
 0001:0003255f       _sha512_final              0043355f f   sshsh512.obj
 0001:0003257f       _sha384_new                0043357f f   sshsh512.obj
 0001:000325b3       _sha384_final              004335b3 f   sshsh512.obj
 0001:000325d3       _GET_64BIT_MSB_FIRST       004335d3 f   sshdes.obj
 0001:000325d3       _GET_64BIT_MSB_FIRST       004335d3 f   sshsh512.obj
 0001:000325d3       _GET_64BIT_MSB_FIRST       004335d3 f   marshal.obj
 0001:000326da       _SHA512_BinarySink_write   004336da f   sshsh512.obj
 0001:00032829       _SHA512_Block              00433829 f   sshsh512.obj
 0001:00033703       _sha1_select               00434703 f   sshsha.obj
 0001:0003371c       _sha1_sw_new               0043471c f   sshsha.obj
 0001:00033760       _sha1_sw_copy              00434760 f   sshsha.obj
 0001:0003378f       _sha1_ni_new               0043478f f   sshsha.obj
 0001:000337de       _sha256_ni_copy            004347de f   sshsh256.obj
 0001:000337de       _sha1_ni_copy              004347de f   sshsha.obj
 0001:0003380f       _sha1_sw_free              0043480f f   sshsha.obj
 0001:0003382a       _sha1_sw_final             0043482a f   sshsha.obj
 0001:00033877       _sha1_ni_final             00434877 f   sshsha.obj
 0001:000338cd       _sha1_block_pad            004348cd f   sshsha.obj
 0001:0003394c       _sha256_hw_available       0043494c f   sshsh256.obj
 0001:0003394c       _sha1_hw_available         0043494c f   sshsha.obj
 0001:00033995       _sha1_hw_available_cached  00434995 f   sshsha.obj
 0001:000339b6       _sha1_ni_block             004349b6 f   sshsha.obj
 0001:00033bf8       _sha1_ni_write             00434bf8 f   sshsha.obj
 0001:00033c34       _sha1_sw_block             00434c34 f   sshsha.obj
 0001:00034052       _sha1_sw_write             00435052 f   sshsha.obj
 0001:0003408e       _share_receive             0043508e f   sshshare.obj
 0001:00034270       _share_listen_closing      00435270 f   sshshare.obj
 0001:000342a1       _share_listen_accepting    004352a1 f   sshshare.obj
 0001:00034416       _share_closing             00435416 f   sshshare.obj
 0001:00034450       _log_downstream            00435450 f   sshshare.obj
 0001:00034485       _log_general               00435485 f   sshshare.obj
 0001:000344b5       _send_packet_to_downstream 004354b5 f   sshshare.obj
 0001:00034681       _share_add_channel         00435681 f   sshshare.obj
 0001:00034719       _share_add_forwarding      00435719 f   sshshare.obj
 0001:00034763       _share_add_xchannel        00435763 f   sshshare.obj
 0001:000347d9       _share_begin_cleanup       004357d9 f   sshshare.obj
 0001:000347f5       _share_channel_server_cmp  004357f5 f   sshshare.obj
 0001:000347f5       _handle_cmp_evtomain       004357f5 f   winhandl.obj
 0001:000347f5       _ssh2_channelcmp           004357f5 f   ssh2connection.obj
 0001:000347f5       _ssh1_channelcmp           004357f5 f   ssh1connection.obj
 0001:00034810       _share_connstate_free      00435810 f   sshshare.obj
 0001:00034a23       _share_disconnect          00435a23 f   sshshare.obj
 0001:00034a73       _share_find_channel_by_server 00435a73 f   sshshare.obj
 0001:00034a9a       _share_find_halfchannel    00435a9a f   sshshare.obj
 0001:00034abc       _share_find_unused_id      00435abc f   sshshare.obj
 0001:00034bad       _share_find_xchannel_by_server 00435bad f   sshshare.obj
 0001:00034bd4       _share_forwarding_cmp      00435bd4 f   sshshare.obj
 0001:00034c05       _share_got_pkt_from_downstream 00435c05 f   sshshare.obj
 0001:00035790       _share_remove_channel      00436790 f   sshshare.obj
 0001:000357e0       _share_remove_forwarding   004367e0 f   sshshare.obj
 0001:00035800       _share_remove_halfchannel  00436800 f   sshshare.obj
 0001:00035820       _share_remove_xchannel     00436820 f   sshshare.obj
 0001:00035851       _share_send_verstring      00436851 f   sshshare.obj
 0001:000359e3       _share_try_cleanup         004369e3 f   sshshare.obj
 0001:00035bf2       _share_xchannel_add_message 00436bf2 f   sshshare.obj
 0001:00035d39       _share_xchannel_free       00436d39 f   sshshare.obj
 0001:00035d5e       _share_channel_us_cmp      00436d5e f   sshshare.obj
 0001:00035d5e       _share_xchannel_server_cmp 00436d5e f   sshshare.obj
 0001:00036102       _ssh_verstring_free        00437102 f   sshverstring.obj
 0001:00036145       _ssh_verstring_handle_input 00437145 f   sshverstring.obj
 0001:00036477       _ssh_verstring_handle_output 00437477 f   sshverstring.obj
 0001:000364a9       _ssh_verstring_new_pktout  004374a9 f   sshverstring.obj
 0001:000364c5       _ssh_detect_bugs           004374c5 f   sshverstring.obj
 0001:00036aa3       _ssh_version_includes_v1   00437aa3 f   sshverstring.obj
 0001:00036abb       _ssh_version_includes_v2   00437abb f   sshverstring.obj
 0001:00036ad3       _ssh_versioncmp            00437ad3 f   sshverstring.obj
 0001:00036b50       _sk_handle_socket_error    00437b50 f   winhsock.obj
 0001:00036b50       _sk_error_socket_error     00437b50 f   errsock.obj
 0001:00036c2b       _ssh_verstring_send        00437c2b f   sshverstring.obj
 0001:000374e6       $LN127                     004384e6     sshzlib.obj
 0001:000375e8       _lz77_advance              004385e8 f   sshzlib.obj
 0001:000376a3       _lz77_compress             004386a3 f   sshzlib.obj
 0001:00037ab1       _lz77_hash                 00438ab1 f   sshzlib.obj
 0001:00037ae2       _outbits                   00438ae2 f   sshzlib.obj
 0001:00037b47       _zlib_emit_char            00438b47 f   sshzlib.obj
 0001:00037b81       _zlib_freetable            00438b81 f   sshzlib.obj
 0001:00037bd5       _zlib_huflookup            00438bd5 f   sshzlib.obj
 0001:00037c40       _zlib_literal              00438c40 f   sshzlib.obj
 0001:00037c78       _zlib_match                00438c78 f   sshzlib.obj
 0001:00037de1       _zlib_mkonetab             00438de1 f   sshzlib.obj
 0001:00037f25       _zlib_mktable              00438f25 f   sshzlib.obj
 0001:00038013       _stripctrl_check_line_limit 00439013 f   stripctrl.obj
 0001:000380bf       _stripctrl_locale_BinarySink_write 004390bf f   stripctrl.obj
 0001:0003820d       _stripctrl_locale_put_wc   0043920d f   stripctrl.obj
 0001:000382d2       _stripctrl_locale_try_consume 004392d2 f   stripctrl.obj
 0001:00038365       _stripctrl_new_common      00439365 f   stripctrl.obj
 0001:00038423       _compare_timer_contexts    00439423 f   timing.obj
 0001:00038436       _compare_timers            00439436 f   timing.obj
 0001:00038490       _init_timers               00439490 f   timing.obj
 0001:0003861a       _add234_internal           0043961a f   tree234.obj
 0001:00038b38       _countnode234              00439b38 f   tree234.obj
 0001:00038bcf       _delpos234_internal        00439bcf f   tree234.obj
 0001:00039188       _freenode234               0043a188 f   tree234.obj
 0001:000398e1       _dupvprintf_inner          0043a8e1 f   utils.obj
 0001:00039a06       _host_strchr_internal      0043aa06 f   utils.obj
 0001:00039cad       _strbuf_BinarySink_write   0043acad f   utils.obj
 0001:00039e17       _strbuf_new_general        0043ae17 f   utils.obj
 0001:00039f2b       _uninitialised_queue_idempotent_callback 0043af2b f   utils.obj
 0001:00039f78       _bisearch                  0043af78 f   wcwidth.obj
 0001:0003a032       _wc_match_fragment         0043b032 f   wildcard.obj
 0001:0003a142       _wc_match_inner            0043b142 f   wildcard.obj
 0001:0003a2ec       _console_askappend         0043b2ec f   wincons.obj
 0001:0003a3d2       _console_logging_error     0043b3d2 f   wincons.obj
 0001:0003a3fa       _console_eventlog          0043b3fa f   wincons.obj
 0001:0003aa47       _console_write             0043ba47 f   wincons.obj
 0001:0003ab4b       _localexp_to_exp_lifetime  0043bb4b f   wingss.obj
 0001:0003b07a       _ssh_sspi_acquire_cred     0043c07a f   wingss.obj
 0001:0003b0ea       _ssh_sspi_bind_fns         0043c0ea f   wingss.obj
 0001:0003b13c       _ssh_sspi_display_status   0043c13c f   wingss.obj
 0001:0003b1f0       _ssh_sspi_free_mic         0043c1f0 f   wingss.obj
 0001:0003b200       _ssh_sspi_free_tok         0043c200 f   wingss.obj
 0001:0003b222       _ssh_sspi_get_mic          0043c222 f   wingss.obj
 0001:0003b2f8       _ssh_sspi_import_name      0043c2f8 f   wingss.obj
 0001:0003b31f       _ssh_sspi_indicate_mech    0043c31f f   wingss.obj
 0001:0003b335       _ssh_sspi_init_sec_context 0043c335 f   wingss.obj
 0001:0003b418       _ssh_sspi_release_cred     0043c418 f   wingss.obj
 0001:0003b44c       _ssh_sspi_release_name     0043c44c f   wingss.obj
 0001:0003b46a       _ssh_sspi_verify_mic       0043c46a f   wingss.obj
 0001:0003b541       _handle_destroy            0043c541 f   winhandl.obj
 0001:0003b57e       _ssh2_channelfind          0043c57e f   ssh2connection.obj
 0001:0003b57e       _handle_find_evtomain      0043c57e f   winhandl.obj
 0001:0003b57e       _ssh1_channelfind          0043c57e f   ssh1connection.obj
 0001:0003b818       _handle_input_threadfunc@4 0043c818 f   winhandl.obj
 0001:0003ba31       _handle_output_threadfunc@4 0043ca31 f   winhandl.obj
 0001:0003bb41       _handle_throttle           0043cb41 f   winhandl.obj
 0001:0003bb6b       _handle_try_output         0043cb6b f   winhandl.obj
 0001:0003bca6       _sk_handle_close           0043cca6 f   winhsock.obj
 0001:0003bd05       _sk_handle_write           0043cd05 f   winhsock.obj
 0001:0003bd20       _sk_handle_write_oob       0043cd20 f   winhsock.obj
 0001:0003bd25       _sk_handle_write_eof       0043cd25 f   winhsock.obj
 0001:0003bd36       _sk_handle_set_frozen      0043cd36 f   winhsock.obj
 0001:0003bdbb       _sk_handle_peer_info       0043cdbb f   winhsock.obj
 0001:0003be46       _handle_gotdata            0043ce46 f   winhsock.obj
 0001:0003bedb       _handle_sentdata           0043cedb f   winhsock.obj
 0001:0003bf23       _handle_socket_unfreeze    0043cf23 f   winhsock.obj
 0001:0003bfc8       _handle_stderr             0043cfc8 f   winhsock.obj
 0001:0003c0ee       _errstring_compare         0043d0ee f   winmisc.obj
 0001:0003c0f3       _errstring_find            0043d0f3 f   winmisc.obj
 0001:0003c560       _sk_net_plug               0043d560 f   winnet.obj
 0001:0003c573       _sk_net_close              0043d573 f   winnet.obj
 0001:0003c5d6       _sk_net_write              0043d5d6 f   winnet.obj
 0001:0003c627       _sk_net_write_oob          0043d627 f   winnet.obj
 0001:0003c69d       _sk_net_write_eof          0043d69d f   winnet.obj
 0001:0003c6d8       _sk_net_set_frozen         0043d6d8 f   winnet.obj
 0001:0003c718       _sk_net_socket_error       0043d718 f   winnet.obj
 0001:0003c720       _sk_net_peer_info          0043d720 f   winnet.obj
 0001:0003c879       _cmpforsearch              0043d879 f   winnet.obj
 0001:0003c88f       _cmpfortree                0043d88f f   winnet.obj
 0001:0003c8d7       _ipv4_is_local_addr        0043d8d7 f   winnet.obj
 0001:0003cfff       _sk_extractaddr_tmp        0043dfff f   winnet.obj
 0001:0003d961       _sk_net_accept             0043e961 f   winnet.obj
 0001:0003dd94       _sk_nextaddr               0043ed94 f   winnet.obj
 0001:0003de08       _sk_startup                0043ee08 f   winnet.obj
 0001:0003de3c       _socket_error_callback     0043ee3c f   winnet.obj
 0001:0003dea8       _try_connect               0043eea8 f   winnet.obj
 0001:0003e431       $LN42                      0043f431     winnet.obj
 0001:0003e4c1       $LN40                      0043f4c1     winnet.obj
 0001:0003e9fc       _sk_namedpipeserver_plug   0043f9fc f   winnps.obj
 0001:0003ea0f       _sk_namedpipeserver_close  0043fa0f f   winnps.obj
 0001:0003ea6d       _sk_namedpipeserver_socket_error 0043fa6d f   winnps.obj
 0001:0003ea75       _create_named_pipe         0043fa75 f   winnps.obj
 0001:0003eadc       _named_pipe_accept         0043fadc f   winnps.obj
 0001:0003eaf5       _named_pipe_accept_loop    0043faf5 f   winnps.obj
 0001:0003eba2       _named_pipe_connect_callback 0043fba2 f   winnps.obj
 0001:0003f5ab       _really_restrict_process_acl 004405ab f   winsecur.obj
 0001:0003f798       _command_read_thread@4     00440798 f   winsftp.obj
 0001:00040298       _make_name                 00441298 f   winshare.obj
 0001:000402c4       _obfuscate_name            004412c4 f   winshare.obj
 0001:000405dc       _access_random_seed        004415dc f   winstore.obj
 0001:00040838       _hostkey_regname           00441838 f   winstore.obj
 0001:00040bd7       _try_random_seed           00441bd7 f   winstore.obj
 0001:00040c71       _try_random_seed_and_free  00441c71 f   winstore.obj
 0001:00040fa4       _x11_closing               00441fa4 f   x11fwd.obj
 0001:00040ffb       _x11_receive               00441ffb f   x11fwd.obj
 0001:00041019       _x11_sent                  00442019 f   x11fwd.obj
 0001:0004102d       _x11_chan_free             0044202d f   x11fwd.obj
 0001:0004108c       _x11_send                  0044208c f   x11fwd.obj
 0001:000413b3       _x11_send_eof              004423b3 f   x11fwd.obj
 0001:000413f6       _x11_set_input_wanted      004423f6 f   x11fwd.obj
 0001:0004143b       _x11_log_close_msg         0044243b f   x11fwd.obj
 0001:00041447       _GET_16BIT_X11             00442447 f   x11fwd.obj
 0001:00041474       _PUT_16BIT_X11             00442474 f   x11fwd.obj
 0001:000419e7       _x11_parse_ip              004429e7 f   x11fwd.obj
 0001:00041a51       _x11_send_init_error       00442a51 f   x11fwd.obj
 0001:00041de3       _x11_verify                00442de3 f   x11fwd.obj
 0001:00041ffb       _xdmseen_cmp               00442ffb f   x11fwd.obj
 0001:00042040       $$000000                   00443040     LIBCMT:chkstk.obj
 0001:00042070       $$000000                   00443070     LIBCMT:llmul.obj
 0001:000420b0       $$000000                   004430b0     LIBCMT:llshl.obj
 0001:000420d0       $$000000                   004430d0     LIBCMT:ullshr.obj
 0001:000422f0       $$000000                   004432f0     LIBCMT:ulldiv.obj
 0001:00042358       ?pre_c_initialization@@YAHXZ 00443358 f   LIBCMT:exe_main.obj
 0001:000423fc       ?post_pgo_initialization@@YAHXZ 004433fc f   LIBCMT:exe_main.obj
 0001:00042404       ?pre_cpp_initialization@@YAXXZ 00443404 f   LIBCMT:exe_main.obj
 0001:00042416       ?__scrt_common_main_seh@@YAHXZ 00443416 f   LIBCMT:exe_main.obj
 0001:000425ac       ?find_pe_section@@YAPAU_IMAGE_SECTION_HEADER@@QAEI@Z 004435ac f   LIBCMT:utility.obj
 0001:00042a37       ?is_managed_app@@YA_NXZ    00443a37 f   libucrt:exit.obj
 0001:00042b30       $$000000                   00443b30     LIBCMT:_sehprolg4_.obj
 0001:00042d40       $$000000                   00443d40     libvcruntime:memchr.obj
 0001:00042df0       $$000000                   00443df0     libvcruntime:memcpy.obj
 0001:00043054       TrailingUpVec              00444054     libvcruntime:memcpy.obj
 0001:00043100       TrailingDownVec            00444100     libvcruntime:memcpy.obj
 0001:00043370       $$000000                   00444370     libvcruntime:memmove.obj
 0001:000435d4       TrailingUpVec              004445d4     libvcruntime:memmove.obj
 0001:00043680       TrailingDownVec            00444680     libvcruntime:memmove.obj
 0001:000438f0       $$000000                   004448f0     libvcruntime:strchr.obj
 0001:00043a20       $$000000                   00444a20     libvcruntime:strrchr.obj
 0001:00043b60       $$000000                   00444b60     libvcruntime:memset.obj
 0001:000453ba       $LN1281                    004463ba     libvcruntime:_memcmp_.obj
 0001:00045440       $$000000                   00446440     libvcruntime:strstr.obj
 0001:000456b0       _ValidateLocalCookies      004466b0 f   libvcruntime:_chandler4_.obj
 0001:000458a0       $$000000                   004468a0     libvcruntime:_exsup4_.obj
 0001:00045930       __unwind_handler4          00446930 f   libvcruntime:_exsup4_.obj
 0001:00045ad3       ?try_get_function@@YAPAXW4function_id@?A0x89697e75@@QBDQBW4module_id@2@2@Z 00446ad3 f   libvcruntime:winapi_downlevel.obj
 0001:00045b73       ?try_get_module@@YAPAUHINSTANCE__@@W4module_id@?A0x89697e75@@@Z 00446b73 f   libvcruntime:winapi_downlevel.obj
 0001:00045d80       $$000000                   00446d80     libvcruntime:_exsup_.obj
 0001:00045da0       __unwind_handler           00446da0 f   libvcruntime:_exsup_.obj
 0001:00045eb7       ??$common_assert_to_message_box@_W@@YAXQB_W0IQAX@Z 00446eb7 f   libucrt:assert.obj
 0001:00045f53       ??$common_assert_to_message_box_build_string@_W@@YAXQA_WIQB_W1IQAX@Z 00446f53 f   libucrt:assert.obj
 0001:00046498       ??$common_assert_to_stderr@_W@@YAXQB_W0I@Z 00447498 f   libucrt:assert.obj
 0001:00046543       ?common_assert_to_stderr_direct@@YAXQB_W0I@Z 00447543 f   libucrt:assert.obj
 0001:000465f4       ?get_assert_format@@YAPB_W_W@Z 004475f4 f   libucrt:assert.obj
 0001:000466d0       $$000000                   004476d0     libucrt:strlen.obj
 0001:00046851       ??$common_fsopen@D@@YAPAU_iobuf@@QBD0H@Z 00447851 f   libucrt:fopen.obj
 0001:00047990       $$000000                   00448990     libucrt:strcmp.obj
 0001:00047a20       $$000000                   00448a20     libucrt:strncmp.obj
 0001:00047aa0       $$000000                   00448aa0     libucrt:strspn.obj
 0001:00047b9c       _common_flush_all          00448b9c f   libucrt:fflush.obj
 0001:00047d46       ??R<lambda_b51c0495177f500e782686251704ae76>@@QBEIXZ 00448d46 f   libucrt:fwrite.obj
 0001:0004804f       ??$common_vsprintf@Vstandard_base@__crt_stdio_output@@D@@YAH_KQADIQBDQAU__crt_locale_pointers@@1@Z 0044904f f   libucrt:output.obj
 0001:000481cb       ??$common_vsprintf@Vstandard_base@__crt_stdio_output@@_W@@YAH_KQA_WIQB_WQAU__crt_locale_pointers@@QAD@Z 004491cb f   libucrt:output.obj
 0001:00048805       ??R<lambda_481dd5778c961fbcd3b60b650e9b9dc4>@@QBEHXZ 00449805 f   libucrt:output.obj
 0001:000488c2       ??R<lambda_4f2c1eaeead2a5fc776db5b62ea0fb9b>@@QBEHXZ 004498c2 f   libucrt:output.obj
 0001:00048c4e       $LN54                      00449c4e     libucrt:output.obj
 0001:00048d6a       $LN54                      00449d6a     libucrt:output.obj
 0001:00048e8a       $LN54                      00449e8a     libucrt:output.obj
 0001:00048faa       $LN54                      00449faa     libucrt:output.obj
 0001:0004a1c2       $LN19                      0044b1c2     libucrt:output.obj
 0001:0004b14d       ??$common_tox_l@$1?internal_isupper_l@@YA_NHQAU__crt_locale_pointers@@@Z$1?internal_map_lower@@YAHH0@Z@@YAHHKQAU__crt_locale_pointers@@@Z 0044c14d f   libucrt:tolower_toupper.obj
 0001:0004b297       ?internal_isupper_l@@YA_NHQAU__crt_locale_pointers@@@Z 0044c297 f   libucrt:tolower_toupper.obj
 0001:0004b450       $$000000                   0044c450     libucrt:strcat.obj
 0001:0004b570       $$000000                   0044c570     libucrt:strcspn.obj
 0001:0004b62f       ??R<lambda_9a20e10065b92b5193c3597a66cba9d4>@@QBEHXZ 0044c62f f   libucrt:fputs.obj
 0001:0004bc1b       ??$common_vsscanf@D@@YAH_KQBDI1QAU__crt_locale_pointers@@QAD@Z 0044cc1b f   libucrt:input.obj
 0001:0004c610       $LN38                      0044d610     libucrt:input.obj
 0001:0004c714       $LN21                      0044d714     libucrt:input.obj
 0001:0004cef1       ??R<lambda_79c077965043167fb4fbb9f601780f11>@@QBE_NXZ 0044def1 f   libucrt:input.obj
 0001:0004cef1       ??R<lambda_4794eb6df3f6f7d20e048423b4e04b2b>@@QBE_NXZ 0044def1 f   libucrt:input.obj
 0001:0004cef1       ??R<lambda_24bca0711811e6233a81aece93ea4a83>@@QBE_NXZ 0044def1 f   libucrt:input.obj
 0001:0004fb05       $LN22                      00450b05     libucrt:input.obj
 0001:0005027e       $LN18                      0045127e     libucrt:input.obj
 0001:000505d0       ?shortsort@@YAXPAD0IP6AHPBX1@Z@Z 004515d0 f   libucrt:qsort.obj
 0001:00050670       ?swap@@YAXPAD0I@Z          00451670 f   libucrt:qsort.obj
 0001:00050a69       ?atexit_exception_filter@@YAHK@Z 00451a69 f   libucrt:exit.obj
 0001:00050a7c       ?common_exit@@YAXHW4_crt_exit_cleanup_mode@@W4_crt_exit_return_mode@@@Z 00451a7c f   libucrt:exit.obj
 0001:00050b95       ?exit_or_terminate_process@@YAXI@Z 00451b95 f   libucrt:exit.obj
 0001:00050bd6       ?try_cor_exit_process@@YAXI@Z 00451bd6 f   libucrt:exit.obj
 0001:00050cd1       ??$common_system@D@@YAHQBD@Z 00451cd1 f   libucrt:system.obj
 0001:00050f40       ??$common_timespec_get@U_timespec64@@@@YAHQAU_timespec64@@H@Z 00451f40 f   libucrt:time.obj
 0001:0005114a       ??$common_fgets@D@@YAPADQADHV__crt_stdio_stream@@@Z 0045214a f   libucrt:fgets.obj
 0001:00051624       _call_wsetlocale           00452624 f   libucrt:setlocale.obj
 0001:0005187d       ?_mbrtowc_s_l@@YAHPAHPA_WPBDIPAU_Mbstatet@@PAU__crt_locale_pointers@@@Z 0045287d f   libucrt:mbrtowc.obj
 0001:00051a8d       ?_wcrtomb_s_l@@YAHQAHQADI_WQAU_Mbstatet@@QAU__crt_locale_pointers@@@Z 00452a8d f   libucrt:wcrtomb.obj
 0001:00051be0       ??$common_dupenv_s@D@@YAHQAPADQAIQBDH2H@Z 00452be0 f   libucrt:getenv.obj
 0001:00051c3b       ??$common_dupenv_s_nolock@D@@YAHQAPADQAIQBDH2H@Z 00452c3b f   libucrt:getenv.obj
 0001:00051ce0       ??$common_getenv@D@@YAPADQBD@Z 00452ce0 f   libucrt:getenv.obj
 0001:00051d60       ??$common_getenv_nolock@D@@YAPADQBD@Z 00452d60 f   libucrt:getenv.obj
 0001:00051dd0       ??$common_getenv_s@D@@YAHQAIQADIQBD@Z 00452dd0 f   libucrt:getenv.obj
 0001:00051e25       ??$common_getenv_s_nolock@D@@YAHQAIQADIQBD@Z 00452e25 f   libucrt:getenv.obj
 0001:00051f10       $$000000                   00452f10     libucrt:strncpy.obj
 0001:00052247       ??$common_configure_argv@D@@YAHW4_crt_argv_mode@@@Z 00453247 f   libucrt:argv_parsing.obj
 0001:0005236b       ??$parse_command_line@D@@YAXPADPAPAD0PAI2@Z 0045336b f   libucrt:argv_parsing.obj
 0001:00052540       ??$common_get_or_create_environment_nolock@D@@YAPAPADXZ 00453540 f   libucrt:environment_initialization.obj
 0001:0005256f       ??$common_initialize_environment_nolock@D@@YAHXZ 0045356f f   libucrt:environment_initialization.obj
 0001:000525c8       ??$create_environment@D@@YAQAPADQAD@Z 004535c8 f   libucrt:environment_initialization.obj
 0001:00052699       ??$free_environment@_W@@YAXQAPA_W@Z 00453699 f   libucrt:environment_initialization.obj
 0001:00052699       ??$free_environment@D@@YAXQAPAD@Z 00453699 f   libucrt:environment_initialization.obj
 0001:000526c8       ??$initialize_environment_by_cloning_nolock@D@@YAHXZ 004536c8 f   libucrt:environment_initialization.obj
 0001:00052787       ??$uninitialize_environment_internal@D@@YAXAAPAPAD@Z 00453787 f   libucrt:environment_initialization.obj
 0001:000527a2       ??$uninitialize_environment_internal@_W@@YAXAAPAPA_W@Z 004537a2 f   libucrt:environment_initialization.obj
 0001:00052a06       _uninitialize_c            00453a06 f   libucrt:initialization.obj
 0001:00052a06       _initialize_environment    00453a06 f   libucrt:initialization.obj
 0001:00052a06       _initialize_global_state_isolation 00453a06 f   libucrt:initialization.obj
 0001:00052a06       _report_memory_leaks       00453a06 f   libucrt:initialization.obj
 0001:00052a06       _uninitialize_global_state_isolation 00453a06 f   libucrt:initialization.obj
 0001:00052a06       _zombiechan_want_close     00453a06 f   sshcommon.obj
 0001:00052abb       ??R<lambda_2af78c5f5901b1372d98f9ab3177dfa6>@@QBEXXZ 00453abb f   libucrt:wsetlocale.obj
 0001:00052b17       ??R<lambda_e378711a6f6581bf7f0efd7cdf97f5d9>@@QBEXXZ 00453b17 f   libucrt:wsetlocale.obj
 0001:00052ed9       __copytlocinfo_nolock      00453ed9 f   libucrt:wsetlocale.obj
 0001:00053340       __wsetlocale_get_all       00454340 f   libucrt:wsetlocale.obj
 0001:000534d9       __wsetlocale_nolock        004544d9 f   libucrt:wsetlocale.obj
 0001:000537be       __wsetlocale_set_cat       004547be f   libucrt:wsetlocale.obj
 0001:00053cb7       ??R<lambda_275893d493268fdec8709772e3fcec0e>@@QBEHXZ 00454cb7 f   libucrt:onexit.obj
 0001:00053dd7       ??R<lambda_4e60a939b0d047cfe11ddc22648dfba9>@@QBEHXZ 00454dd7 f   libucrt:onexit.obj
 0001:00053fac       _initialize_global_variables 00454fac f   libucrt:initialization.obj
 0001:00053fbe       _initialize_c              00454fbe f   libucrt:initialization.obj
 0001:00053fd8       _uninitialize_environment  00454fd8 f   libucrt:initialization.obj
 0001:00053fe0       _initialize_pointers       00454fe0 f   libucrt:initialization.obj
 0001:0005401d       _uninitialize_vcruntime    0045501d f   libucrt:initialization.obj
 0001:00054026       _uninitialize_allocated_memory 00455026 f   libucrt:initialization.obj
 0001:00054534       ??$common_xtox@K_W@@YAHKQA_WII_N@Z 00455534 f   libucrt:xtoa.obj
 0001:000545c2       ??$common_xtox_s@K_W@@YAHKQA_WII_N@Z 004555c2 f   libucrt:xtoa.obj
 0001:0005476e       ??$common_tcsncat_s@_W@@YAHQA_WIQB_WI@Z 0045576e f   libucrt:wcsncat_s.obj
 0001:000548cb       ??$common_show_message_box@_W@@YAHQB_W0I@Z 004558cb f   libucrt:crtmbox.obj
 0001:000549a4       ??$message_box_wait_thread@_W@@YGKQAX@Z 004559a4 f   libucrt:crtmbox.obj
 0001:00054a4a       ??R<lambda_b721fa326cdb32351d23dfa67958c160>@@QBEHXZ 00455a4a f   libucrt:setvbuf.obj
 0001:00054ae4       ?set_buffer@@YAHV__crt_stdio_stream@@QADIH@Z 00455ae4 f   libucrt:setvbuf.obj
 0001:00054c0f       ?get_global_action_nolock@@YAPAP6AXH@ZH@Z 00455c0f f   libucrt:signal.obj
 0001:00054c51       ?siglookup@@YAPAU__crt_signal_action_t@@HQAU1@@Z 00455c51 f   libucrt:signal.obj
 0001:00055161       ?find_or_allocate_unused_stream_nolock@@YA?AV__crt_stdio_stream@@XZ 00456161 f   libucrt:stream.obj
 0001:00055494       ??$common_openfile@D@@YAPAU_iobuf@@QBD0HV__crt_stdio_stream@@@Z 00456494 f   libucrt:openfile.obj
 0001:00055617       ??$translate_text_mode_nolock@D@@YAHHQADI@Z 00456617 f   libucrt:read.obj
 0001:0005576e       ??$translate_text_mode_nolock@_W@@YAHHQA_WI@Z 0045676e f   libucrt:read.obj
 0001:0005592e       ?translate_ansi_or_utf8_nolock@@YAHHQADIQA_WI@Z 0045692e f   libucrt:read.obj
 0001:00055a7e       ?translate_utf16_from_console_nolock@@YAHHQA_WI@Z 00456a7e f   libucrt:read.obj
 0001:00055fc7       ??$common_refill_and_read_nolock@D@@YAHV__crt_stdio_stream@@@Z 00456fc7 f   libucrt:_filbuf.obj
 0001:0005642f       ?construct_ptd@@YAXQAU__acrt_ptd@@QAPAU__crt_locale_data@@@Z 0045742f f   libucrt:per_thread_data.obj
 0001:000564a8       ?destroy_fls@@YGXPAX@Z     004574a8 f   libucrt:per_thread_data.obj
 0001:000564c9       ?destroy_ptd@@YAXQAU__acrt_ptd@@@Z 004574c9 f   libucrt:per_thread_data.obj
 0001:00056572       ?replace_current_thread_locale_nolock@@YAXQAU__acrt_ptd@@QAU__crt_locale_data@@@Z 00457572 f   libucrt:per_thread_data.obj
 0001:00056935       ?write_double_translated_ansi_nolock@@YA?AUwrite_result@?A0x47fa6670@@HQBDI@Z 00457935 f   libucrt:write.obj
 0001:00056ae8       ?write_double_translated_unicode_nolock@@YA?AUwrite_result@?A0x47fa6670@@QBDI@Z 00457ae8 f   libucrt:write.obj
 0001:00056b55       ?write_requires_double_translation_nolock@@YA_NH@Z 00457b55 f   libucrt:write.obj
 0001:00056bcb       ?write_text_ansi_nolock@@YA?AUwrite_result@?A0x47fa6670@@HQBDI@Z 00457bcb f   libucrt:write.obj
 0001:00056caa       ?write_text_utf16le_nolock@@YA?AUwrite_result@?A0x47fa6670@@HQBDI@Z 00457caa f   libucrt:write.obj
 0001:00056d98       ?write_text_utf8_nolock@@YA?AUwrite_result@?A0x47fa6670@@HQBDI@Z 00457d98 f   libucrt:write.obj
 0001:000571bc       ??$common_flush_and_write_nolock@D@@YAHHV__crt_stdio_stream@@@Z 004581bc f   libucrt:_flsbuf.obj
 0001:000572cd       ??$common_flush_and_write_nolock@_W@@YAHHV__crt_stdio_stream@@@Z 004582cd f   libucrt:_flsbuf.obj
 0001:000573e2       ??$write_buffer_nolock@D@@YA_NDV__crt_stdio_stream@@@Z 004583e2 f   libucrt:_flsbuf.obj
 0001:000574ae       ??$write_buffer_nolock@_W@@YA_N_WV__crt_stdio_stream@@@Z 004584ae f   libucrt:_flsbuf.obj
 0001:00057c40       ?fp_format_a@@YAHQBNPADIQADIH_NIQAU__crt_locale_pointers@@@Z 00458c40 f   libucrt:cvt.obj
 0001:00057f43       ?fp_format_e@@YAHQBNQADI1IH_NIQAU__crt_locale_pointers@@@Z 00458f43 f   libucrt:cvt.obj
 0001:00057fde       ?fp_format_e_internal@@YAHQADIH_NIQAU_strflt@@1QAU__crt_locale_pointers@@@Z 00458fde f   libucrt:cvt.obj
 0001:00058129       ?fp_format_f@@YAHQBNQADI1IHQAU__crt_locale_pointers@@@Z 00459129 f   libucrt:cvt.obj
 0001:000581b6       ?fp_format_f_internal@@YAHQADIHQAU_strflt@@_NQAU__crt_locale_pointers@@@Z 004591b6 f   libucrt:cvt.obj
 0001:0005828d       ?fp_format_g@@YAHQBNQADI1IH_NIQAU__crt_locale_pointers@@@Z 0045928d f   libucrt:cvt.obj
 0001:00058355       ?fp_format_nan_or_infinity@@YAHW4__acrt_fp_class@@_NPADI1@Z 00459355 f   libucrt:cvt.obj
 0001:0005844d       ?shift_bytes@@YAXQADI0H@Z  0045944d f   libucrt:cvt.obj
 0001:000585cb       ?fputwc_binary_nolock@@YAG_WV__crt_stdio_stream@@@Z 004595cb f   libucrt:fputwc.obj
 0001:00058738       ?initialize_inherited_file_handles_nolock@@YAXXZ 00459738 f   libucrt:ioinit.obj
 0001:000587ee       ?initialize_stdio_handles_nolock@@YAXXZ 004597ee f   libucrt:ioinit.obj
 0001:0005895f       ?__acrt_LCMapStringA_stat@@YAHPAU__crt_locale_pointers@@PB_WKPBDHPADHHH@Z 0045995f f   libucrt:lcmapstringa.obj
 0001:00058c28       ?compute_iso_week@@YAHHHH@Z 00459c28 f   libucrt:wcsftime.obj
 0001:00058c76       ?compute_iso_week_internal@@YAHHHH@Z 00459c76 f   libucrt:wcsftime.obj
 0001:00058d0b       ?compute_iso_year@@YAHHHH@Z 00459d0b f   libucrt:wcsftime.obj
 0001:00058d36       ?expand_time@@YA_NPAU__crt_locale_pointers@@_WPBUtm@@PAPA_WPAIPBU__crt_lc_time_data@@_N@Z 00459d36 f   libucrt:wcsftime.obj
 0001:00059812       $LN193                     0045a812     libucrt:wcsftime.obj
 0001:00059832       ?store_number@@YAXHHQAPA_WQAI_W@Z 0045a832 f   libucrt:wcsftime.obj
 0001:000598d4       ?store_number_without_lead_zeroes@@YAXHQAPA_WQAI@Z 0045a8d4 f   libucrt:wcsftime.obj
 0001:0005993b       ?store_string@@YAXPB_WQAPA_WQAI@Z 0045a93b f   libucrt:wcsftime.obj
 0001:0005996c       ?store_winword@@YA_NQAU__crt_locale_pointers@@HQBUtm@@QAPA_WQAIQBU__crt_lc_time_data@@@Z 0045a96c f   libucrt:wcsftime.obj
 0001:00059fd0       $$000000                   0045afd0     libucrt:_strnicm.obj
 0001:0005a03c       ?<helper_func_stdcall>@<lambda_5a01b672d24c8480ee9d6bdb50dd3881>@@CGHPA_W@Z 0045b03c f   libucrt:winapi_thunks.obj
 0001:0005a12e       ?try_get_CompareStringEx@@YAP6GHPB_WK0H0HPAU_nlsversioninfo@@PAXJ@ZXZ 0045b12e f   libucrt:winapi_thunks.obj
 0001:0005a148       ?try_get_MessageBoxA@@YAP6GHPAUHWND__@@PBD1I@ZXZ 0045b148 f   libucrt:winapi_thunks.obj
 0001:0005a162       ?try_get_MessageBoxW@@YAP6GHPAUHWND__@@PB_W1I@ZXZ 0045b162 f   libucrt:winapi_thunks.obj
 0001:0005a17c       ?try_get_function@@YAPAXW4function_id@?A0x352e5c4b@@QBDQBW4module_id@2@2@Z 0045b17c f   libucrt:winapi_thunks.obj
 0001:0005a218       ?try_get_module@@YAPAUHINSTANCE__@@W4module_id@?A0x352e5c4b@@@Z 0045b218 f   libucrt:winapi_thunks.obj
 0001:0005acd8       ??$common_spawnv@D@@YAHHQBDQBQBD1@Z 0045bcd8 f   libucrt:spawnv.obj
 0001:0005aef3       ??$execute_command@D@@YAHHQBDQBQBD1@Z 0045bef3 f   libucrt:spawnv.obj
 0001:0005b119       ??R<lambda_5056f36f92c185fae794536d1ce2027b>@@QBE_NXZ 0045c119 f   libucrt:spawnv.obj
 0001:0005b264       ??$common_spawnvp@D@@YAHHQBDQBQBD1@Z 0045c264 f   libucrt:spawnvp.obj
 0001:0005b623       ??$common_lseek@J@@YAJHJH@Z 0045c623 f   libucrt:lseek.obj
 0001:0005b70e       ??$common_lseek@_J@@YA_JH_JH@Z 0045c70e f   libucrt:lseek.obj
 0001:0005b813       ??$common_lseek_nolock@J@@YAJHJH@Z 0045c813 f   libucrt:lseek.obj
 0001:0005b86a       ??$common_lseek_nolock@_J@@YA_JH_JH@Z 0045c86a f   libucrt:lseek.obj
 0001:0005b8e8       ?common_lseek_do_seek_nolock@@YAJQAXJH@Z 0045c8e8 f   libucrt:lseek.obj
 0001:0005ba0a       ?_mbstowcs_l_helper@@YAIPA_WPBDIPAU__crt_locale_pointers@@@Z 0045ca0a f   libucrt:mbstowcs.obj
 0001:0005bc86       ?_wcstombs_l_helper@@YAIPADPB_WIPAU__crt_locale_pointers@@@Z 0045cc86 f   libucrt:wcstombs.obj
 0001:0005c0d2       ??$common_tcsncpy_s@_W@@YAHQA_WIQB_WI@Z 0045d0d2 f   libucrt:wcsncpy_s.obj
 0001:0005c1aa       ?<helper_func_cdecl>@<lambda_62bb7ecb46d0a77b591a051c43eb5ad1>@@CAHPBX0@Z 0045d1aa f   libucrt:argv_wildcards.obj
 0001:0005c1c2       ??$common_expand_argv_wildcards@D@@YAHQAPADQAPAPAD@Z 0045d1c2 f   libucrt:argv_wildcards.obj
 0001:0005c352       ??$copy_and_add_argument_to_buffer@D@@YAHQBD0IAAV?$argument_list@D@?A0xb0e4b824@@@Z 0045d352 f   libucrt:argv_wildcards.obj
 0001:0005c3e8       ??$expand_argument_wildcards@D@@YAHQAD0AAV?$argument_list@D@?A0xb0e4b824@@@Z 0045d3e8 f   libucrt:argv_wildcards.obj
 0001:0005c6c3       ??R<lambda_ad1ced32f4ac17aa236e5ef05d6b3b7c>@@QBEXXZ 0045d6c3 f   libucrt:mbctype.obj
 0001:0005c787       ?CPtoLocaleName@@YAPB_WH@Z 0045d787 f   libucrt:mbctype.obj
 0001:0005c7c5       ?getSystemCP@@YAHH@Z       0045d7c5 f   libucrt:mbctype.obj
 0001:0005c838       ?setSBCS@@YAXPAU__crt_multibyte_data@@@Z 0045d838 f   libucrt:mbctype.obj
 0001:0005c89d       ?setSBUpLow@@YAXPAU__crt_multibyte_data@@@Z 0045d89d f   libucrt:mbctype.obj
 0001:0005ca31       ?setmbcp_internal@@YAHH_N@Z 0045da31 f   libucrt:mbctype.obj
 0001:0005cde3       _memcpy_s                  0045dde3 f   libucrt:assert.obj
 0001:0005cde3       _memcpy_s                  0045dde3 f   libucrt:input.obj
 0001:0005cde3       _memcpy_s                  0045dde3 f   libucrt:cfout.obj
 0001:0005cde3       _memcpy_s                  0045dde3 f   libucrt:mbctype.obj
 0001:0005cde3       _memcpy_s                  0045dde3 f   libucrt:fread.obj
 0001:0005ce64       ?x_ismbbtype_l@@YAHPAU__crt_locale_pointers@@IHH@Z 0045de64 f   libucrt:ismbbyte.obj
 0001:0005ced5       ?find_end_of_double_null_terminated_sequence@@YAPB_WQB_W@Z 0045ded5 f   libucrt:get_environment_from_os.obj
 0001:0005cf8f       ??$common_set_variable_in_environment_nolock@D@@YAHQADH@Z 0045df8f f   libucrt:setenv.obj
 0001:0005d1ca       ??$copy_environment@D@@YAPAPADQAPAD@Z 0045e1ca f   libucrt:setenv.obj
 0001:0005d27b       ??$find_in_environment_nolock@D@@YAHQBDI@Z 0045e27b f   libucrt:setenv.obj
 0001:0005e20c       ?free_crt_array_internal@@YAXQAPBXI@Z 0045f20c f   libucrt:inittime.obj
 0001:0005e248       ?initialize_lc_time@@YA_NQAU__crt_lc_time_data@@QAU__crt_locale_data@@@Z 0045f248 f   libucrt:inittime.obj
 0001:0005eba5       _GetLocaleNameFromDefault  0045fba5 f   libucrt:get_qualified_locale.obj
 0001:0005ec2e       _GetLocaleNameFromLangCountry 0045fc2e f   libucrt:get_qualified_locale.obj
 0001:0005ecc8       _GetLocaleNameFromLanguage 0045fcc8 f   libucrt:get_qualified_locale.obj
 0001:0005ed23       _GetPrimaryLen             0045fd23 f   libucrt:get_qualified_locale.obj
 0001:0005ed57       _LangCountryEnumProcEx@12  0045fd57 f   libucrt:get_qualified_locale.obj
 0001:0005f041       _LanguageEnumProcEx@12     00460041 f   libucrt:get_qualified_locale.obj
 0001:0005f102       _ProcessCodePage           00460102 f   libucrt:get_qualified_locale.obj
 0001:0005f1e9       _TestDefaultCountry        004601e9 f   libucrt:get_qualified_locale.obj
 0001:0005f234       _TranslateName             00460234 f   libucrt:get_qualified_locale.obj
 0001:0005f472       _CountryEnumProc@4         00460472 f   libucrt:getqloc_downlevel.obj
 0001:0005f51b       _GetLcidFromCountry        0046051b f   libucrt:getqloc_downlevel.obj
 0001:0005f566       _GetLcidFromLangCountry    00460566 f   libucrt:getqloc_downlevel.obj
 0001:0005f601       _GetLcidFromLanguage       00460601 f   libucrt:getqloc_downlevel.obj
 0001:0005f662       _GetPrimaryLen             00460662 f   libucrt:getqloc_downlevel.obj
 0001:0005f68e       _LangCountryEnumProc@4     0046068e f   libucrt:getqloc_downlevel.obj
 0001:0005f8de       _LanguageEnumProc@4        004608de f   libucrt:getqloc_downlevel.obj
 0001:0005f9b6       _LcidFromHexString         004609b6 f   libucrt:getqloc_downlevel.obj
 0001:0005fa07       _ProcessCodePage           00460a07 f   libucrt:getqloc_downlevel.obj
 0001:0005faea       _TestDefaultCountry        00460aea f   libucrt:getqloc_downlevel.obj
 0001:0005fb0e       _TestDefaultLanguage       00460b0e f   libucrt:getqloc_downlevel.obj
 0001:0005fb7e       _TranslateName             00460b7e f   libucrt:getqloc_downlevel.obj
 0001:0005ffef       ___hw_cw_sse2              00460fef f   libucrt:ieee87.obj
 0001:0006047a       __hw_cw                    0046147a f   libucrt:ieee87.obj
 0001:000606cc       ??$common_sopen_dispatch@D@@YAHQBDHHHQAHH@Z 004616cc f   libucrt:open.obj
 0001:00060798       ?configure_text_mode@@YAHHUfile_options@?A0x704126de@@HAAW4__crt_lowio_text_mode@@@Z 00461798 f   libucrt:open.obj
 0001:000609e5       ?create_file@@YAPAXQB_WQAU_SECURITY_ATTRIBUTES@@Ufile_options@?A0x704126de@@@Z 004619e5 f   libucrt:open.obj
 0001:00060a0a       ?decode_open_create_flags@@YAKH@Z 00461a0a f   libucrt:open.obj
 0001:00060a7a       ?decode_options@@YA?AUfile_options@?A0x704126de@@HHH@Z 00461a7a f   libucrt:open.obj
 0001:00060bf6       ?truncate_ctrl_z_if_present@@YAHH@Z 00461bf6 f   libucrt:open.obj
 0001:000627f2       ?tzset_from_environment_nolock@@YAXPAD@Z 004637f2 f   libucrt:tzset.obj
 0001:000629c7       ?tzset_from_system_nolock@@YAXXZ 004639c7 f   libucrt:tzset.obj
 0001:00062b22       ?tzset_nolock@@YAXXZ       00463b22 f   libucrt:tzset.obj
 0001:00062c53       ___get_abstract_control_sse2 00463c53 f   libucrt:_fenvutils.obj
 0001:00062cd0       ___get_abstract_control_x87 00463cd0 f   libucrt:_fenvutils.obj
 0001:00062d43       ___get_machine_control     00463d43 f   libucrt:_fenvutils.obj
 0001:00062db4       ___get_machine_control_sse2 00463db4 f   libucrt:_fenvutils.obj
 0001:00062e34       ___get_machine_status_sse2 00463e34 f   libucrt:_fenvutils.obj
 0001:00062e95       ___get_machine_status_x87  00463e95 f   libucrt:_fenvutils.obj
 0001:000630e1       ?GetTableIndexFromLocaleName@@YAHPB_W@Z 004640e1 f   libucrt:lcidtoname_downlevel.obj
 0001:00063273       ??$construct_command_line@D@@YAHQBQBDQAPAD@Z 00464273 f   libucrt:cenvarg.obj
 0001:0006333b       ??$construct_environment_block@D@@YAHQBQBDQAPAD@Z 0046433b f   libucrt:cenvarg.obj
 0001:00063667       ??$common_getpath@D@@YAPADQBDQADI@Z 00464667 f   libucrt:getpath.obj
 0001:000637e0       ?InternalCompareStringA@@YAHPAU__crt_locale_pointers@@PB_WKPBDH2HH@Z 004647e0 f   libucrt:comparestringa.obj
 0001:00063ad0       ??$common_tcsncpy_s@D@@YAHQADIQBDI@Z 00464ad0 f   libucrt:strncpy_s.obj
 0001:00063b90       $$000000                   00464b90     libucrt:strpbrk.obj
 0001:00063c74       ?initialize_multibyte@@YAHXZ 00464c74 f   libucrt:multibyte_initializer.obj
 0001:00063c83       ?InternalGetLocaleInfoA@@YAHQAU__crt_locale_pointers@@QB_WKQADH@Z 00464c83 f   libucrt:getlocaleinfoa.obj
 0001:000643d0       $$000000                   004653d0     libucrt:log10.obj
 0001:00064520       $$000000                   00465520     libucrt:ceil_pentium4.obj
 0001:00064690       $$000000                   00465690     libucrt:log10_pentium4.obj
 0001:00064920       $$000000                   00465920     libucrt:87tran.obj
 0001:00064b20       $$000000                   00465b20     libucrt:87disp.obj
 0001:00064d20       $$000000                   00465d20     libucrt:common.obj
 0001:00064eb0       $$000000                   00465eb0     libucrt:genexcep.obj
 0001:00065eb0       $$000000                   00466eb0     LIBCMT:ulldvrm.obj
 0001:00065f50       $$000000                   00466f50     LIBCMT:_sehprolg4gs_.obj
 0001:00065fb0       $$000000                   00466fb0     LIBCMT:lldvrm.obj
 0001:00066090       $$000000                   00467090     LIBCMT:alloca16.obj
 0001:000660c0       $$000000                   004670c0     LIBCMT:_ftol2_.obj
 0002:00000258       ?pre_cpp_initializer@@3P6AXXZA 00468258     LIBCMT:exe_main.obj
 0002:00000264       ?pre_c_initializer@@3P6AHXZA 00468264     LIBCMT:exe_main.obj
 0002:00000268       ?post_pgo_initializer@@3P6AHXZA 00468268     LIBCMT:exe_main.obj
 0002:000002a0       _agentf_channelvt          004682a0     agentf.obj
 0002:00000cc0       _ErrorSocket_sockvt        00468cc0     errsock.obj
 0002:00000f68       _mainchan_channelvt        00468f68     mainchan.obj
 0002:000019e4       _nullplug_plugvt           004699e4     nullplug.obj
 0002:00001a00       _oids                      00469a00     pgssapi.obj
 0002:00001a90       _PortForwarding_plugvt     00469a90     portfwd.obj
 0002:00001aa4       _PortListener_plugvt       00469aa4     portfwd.obj
 0002:00001ab8       _PortForwarding_channelvt  00469ab8     portfwd.obj
 0002:00001e84       _ProxySocket_sockvt        00469e84     proxy.obj
 0002:00001ea4       _ProxySocket_plugvt        00469ea4     proxy.obj
 0002:00003810       _psftp_seat_vt             0046b810     psftp.obj
 0002:00005038       ?defaults@?BG@??load_open_settings@@9@9 0046d038     settings.obj
 0002:00005090       ?defaults@?BJ@??load_open_settings@@9@9 0046d090     settings.obj
 0002:000050b0       _ciphernames               0046d0b0     settings.obj
 0002:00005120       _kexnames                  0046d120     settings.obj
 0002:00005180       _hknames                   0046d180     settings.obj
 0002:000063bc       ?messages@?1??fxp_got_status@@9@9 0046e3bc     sftp.obj
 0002:00006860       _Ssh_plugvt                0046e860     ssh.obj
 0002:000069fc       _ssh1_bpp_vtable           0046e9fc     ssh1bpp.obj
 0002:00006cc0       _ssh1_connection_vtable    0046ecc0     ssh1connection.obj
 0002:00006ce8       _ssh1_connlayer_vtable     0046ece8     ssh1connection.obj
 0002:00006d48       _ssh1channel_vtable        0046ed48     ssh1connection.obj
 0002:00006ff0       _ssh1mainchan_vtable       0046eff0     ssh1connection-client.obj
 0002:00007268       _ssh1_login_vtable         0046f268     ssh1login.obj
 0002:000080dc       _ssh2_bpp_vtable           004700dc     ssh2bpp.obj
 0002:00008410       _ssh2_bare_bpp_vtable      00470410     ssh2bpp-bare.obj
 0002:00008460       _ssh2_connlayer_vtable     00470460     ssh2connection.obj
 0002:000084c0       ?reasons@?1??ssh2_channel_open_failure_error_text@@9@9 004704c0     ssh2connection.obj
 0002:000084d4       _ssh2_connection_vtable    004704d4     ssh2connection.obj
 0002:000084f8       _ssh2channel_vtable        004704f8     ssh2connection.obj
 0002:00009608       _ssh_comp_none             00471608     ssh2transport.obj
 0002:0000962c       _compressions              0047162c     ssh2transport.obj
 0002:00009634       _ssh2_transport_vtable     00471634     ssh2transport.obj
 0002:00009658       _kexlist_descr             00471658     ssh2transport.obj
 0002:00009678       ?ssh2_disconnect_reasons@?1??ssh2_common_filter_queue@@9@9 00471678     ssh2transport.obj
 0002:000096e8       _macs                      004716e8     ssh2transport.obj
 0002:000096f8       _buggymacs                 004716f8     ssh2transport.obj
 0002:0000a0d0       _ssh2_userauth_vtable      004720d0     ssh2userauth.obj
 0002:0000ab58       _ssh_rijndael_lysator      00472b58     sshaes.obj
 0002:0000ab98       _aes_list                  00472b98     sshaes.obj
 0002:0000abb4       _key_setup_round_constants 00472bb4     sshaes.obj
 0002:0000b3f0       _arcfour_list              004733f0     ssharcf.obj
 0002:0000b518       _blowfish_list             00473518     sshblowf.obj
 0002:0000b520       _parray                    00473520     sshblowf.obj
 0002:0000b568       _sbox0                     00473568     sshblowf.obj
 0002:0000b968       _sbox1                     00473968     sshblowf.obj
 0002:0000bd68       _sbox2                     00473d68     sshblowf.obj
 0002:0000c168       _sbox3                     00474168     sshblowf.obj
 0002:0000c698       _ccp_list                  00474698     sshccp.obj
 0002:0000c69c       ?constant@?1??chacha20_key@@9@9 0047469c     sshccp.obj
 0002:0000c760       _zombiechan_channelvt      00474760     sshcommon.obj
 0002:0000c7b8       ?modes_names_types@?1??get_ttymodes_from_conf@@9@9 004747b8     sshcommon.obj
 0002:0000ca40       ?valid_bitmap@?1??ssh2_bpp_check_unimplemented@@9@9 00474a40     sshcommon.obj
 0002:0000da58       _des_list                  00475a58     sshdes.obj
 0002:0000da60       _des3_list                 00475a60     sshdes.obj
 0002:0000da68       ?tbl@?1??des_S@@9@9        00475a68     sshdes.obj
 0002:0000ddb8       ?PC1@?1??des_key_setup@@9@9 00475db8     sshdes.obj
 0002:0000ddf4       ?PC2_7531@?1??des_key_setup@@9@9 00475df4     sshdes.obj
 0002:0000de14       ?PC2_6420@?1??des_key_setup@@9@9 00475e14     sshdes.obj
 0002:0000de38       ?leftshifts@?1??des_key_setup@@9@9 00475e38     sshdes.obj
 0002:0000decc       _extra_group1              00475ecc     sshdh.obj
 0002:0000ded4       _ssh_diffiehellman_group1_sha1 00475ed4     sshdh.obj
 0002:0000dee8       _group1_list               00475ee8     sshdh.obj
 0002:0000deec       _extra_group14             00475eec     sshdh.obj
 0002:0000def4       _ssh_diffiehellman_group14_sha256 00475ef4     sshdh.obj
 0002:0000df08       _ssh_diffiehellman_group14_sha1 00475f08     sshdh.obj
 0002:0000df1c       _group14_list              00475f1c     sshdh.obj
 0002:0000df24       _extra_gex                 00475f24     sshdh.obj
 0002:0000df2c       _ssh_diffiehellman_gex_sha256 00475f2c     sshdh.obj
 0002:0000df40       _ssh_diffiehellman_gex_sha1 00475f40     sshdh.obj
 0002:0000df54       _gex_list                  00475f54     sshdh.obj
 0002:0000df5c       _ssh_gssk5_diffiehellman_gex_sha1 00475f5c     sshdh.obj
 0002:0000df70       _ssh_gssk5_diffiehellman_group14_sha1 00475f70     sshdh.obj
 0002:0000df84       _ssh_gssk5_diffiehellman_group1_sha1 00475f84     sshdh.obj
 0002:0000df98       _gssk5_sha1_kex_list       00475f98     sshdh.obj
 0002:0000e508       _nistp256_oid              00476508     sshecc.obj
 0002:0000e520       _nistp384_oid              00476520     sshecc.obj
 0002:0000e538       _nistp521_oid              00476538     sshecc.obj
 0002:0000e550       _kex_extra_curve25519      00476550     sshecc.obj
 0002:0000e5a0       _ec_kex_list               004765a0     sshecc.obj
 0002:0000fe10       ?sha1_asn1_prefix@?2??rsa_pkcs1_prefix_for_hash@@9@9 00477e10     sshrsa.obj
 0002:0000fe20       ?sha256_asn1_prefix@?3??rsa_pkcs1_prefix_for_hash@@9@9 00477e20     sshrsa.obj
 0002:0000fe34       ?sha512_asn1_prefix@?4??rsa_pkcs1_prefix_for_hash@@9@9 00477e34     sshrsa.obj
 0002:0000fe48       _ssh_rsa_kex_extra_sha1    00477e48     sshrsa.obj
 0002:0000fe4c       _ssh_rsa_kex_extra_sha256  00477e4c     sshrsa.obj
 0002:0000fe50       _ssh_rsa_kex_sha1          00477e50     sshrsa.obj
 0002:0000fe64       _ssh_rsa_kex_sha256        00477e64     sshrsa.obj
 0002:0000fe78       _rsa_kex_list              00477e78     sshrsa.obj
 0002:00010110       _sha256_initial_state      00478110     sshsh256.obj
 0002:00010130       _sha256_round_constants    00478130     sshsh256.obj
 0002:000104a0       ?iv@?1??SHA512_Core_Init@@9@9 004784a0     sshsh512.obj
 0002:000104e0       ?iv@?1??SHA384_Core_Init@@9@9 004784e0     sshsh512.obj
 0002:00010520       ?k@?1??SHA512_Block@@9@9   00478520     sshsh512.obj
 0002:0001082c       _sha1_initial_state        0047882c     sshsha.obj
 0002:00010900       ?expected_verstring_prefix@?1??share_receive@@9@9 00478900     sshshare.obj
 0002:00010930       _ssh_sharing_conn_plugvt   00478930     sshshare.obj
 0002:00010944       _ssh_sharing_listen_plugvt 00478944     sshshare.obj
 0002:00010958       ?reason@?2??share_try_cleanup@@9@9 00478958     sshshare.obj
 0002:00010980       ?lang@?2??share_try_cleanup@@9@9 00478980     sshshare.obj
 0002:00011034       _ssh_verstring_vtable      00479034     sshverstring.obj
 0002:00011798       ?lenlenmap@?1??zlib_decompress_block@@9@9 00479798     sshzlib.obj
 0002:000117b0       _mirrorbytes               004797b0     sshzlib.obj
 0002:000118b0       _lencodes                  004798b0     sshzlib.obj
 0002:00011a10       _distcodes                 00479a10     sshzlib.obj
 0002:00011e70       ?base64_chars@?1??base64_encode_atom@@9@9 00479e70     utils.obj
 0002:00012080       ?combining@?1??mk_wcwidth@@9@9 0047a080     wcwidth.obj
 0002:000124f0       ?wide@?1??mk_wcwidth@@9@9  0047a4f0     wcwidth.obj
 0002:00012840       ?ambiguous@?1??mk_wcwidth_cjk@@9@9 0047a840     wcwidth.obj
 0002:00012e38       ?absentmsg_batch@?1??console_verify_ssh_host_key@@9@9 0047ae38     wincons.obj
 0002:00012ef8       ?absentmsg@?1??console_verify_ssh_host_key@@9@9 0047aef8     wincons.obj
 0002:000130b8       ?wrongmsg_batch@?1??console_verify_ssh_host_key@@9@9 0047b0b8     wincons.obj
 0002:00013200       ?wrongmsg@?1??console_verify_ssh_host_key@@9@9 0047b200     wincons.obj
 0002:000134a8       ?abandoned@?1??console_verify_ssh_host_key@@9@9 0047b4a8     wincons.obj
 0002:000134c0       ?msg@?1??console_confirm_weak_crypto_primitive@@9@9 0047b4c0     wincons.obj
 0002:00013540       ?msg_batch@?1??console_confirm_weak_crypto_primitive@@9@9 0047b540     wincons.obj
 0002:000135b4       ?abandoned@?1??console_confirm_weak_crypto_primitive@@9@9 0047b5b4     wincons.obj
 0002:000135d0       ?msg@?1??console_confirm_weak_cached_hostkey@@9@9 0047b5d0     wincons.obj
 0002:000136d0       ?msg_batch@?1??console_confirm_weak_cached_hostkey@@9@9 0047b6d0     wincons.obj
 0002:000137c4       ?abandoned@?1??console_confirm_weak_cached_hostkey@@9@9 0047b7c4     wincons.obj
 0002:000137e0       ?msgtemplate@?1??console_askappend@@9@9 0047b7e0     wincons.obj
 0002:00013920       ?msgtemplate_batch@?1??console_askappend@@9@9 0047b920     wincons.obj
 0002:00013970       ?message@?1??old_keyfile_warning@@9@9 0047b970     wincons.obj
 0002:00013ad8       _default_logpolicy_vt      0047bad8     wincons.obj
 0002:0001448c       _HandleSocket_sockvt       0047c48c     winhsock.obj
 0002:000145dc       ?hex@?1??escape_registry_key@@9@9 0047c5dc     winmisc.obj
 0002:0001469c       _NetSocket_sockvt          0047c69c     winnet.obj
 0002:00015338       _NamedPipeServerSocket_sockvt 0047d338     winnps.obj
 0002:000154e4       ?nastyace@?1??really_restrict_process_acl@@9@9 0047d4e4     winsecur.obj
 0002:00015730       ?eventtypes@?N@??do_eventsel_loop@@9@9 0047d730     winsftp.obj
 0002:00015928       _reg_jumplist_key          0047d928     winstore.obj
 0002:0001592c       _reg_jumplist_value        0047d92c     winstore.obj
 0002:00015930       _puttystr                  0047d930     winstore.obj
 0002:00015ab0       _unitab_xterm_std          0047dab0     winucs.obj
 0002:00015af0       _iso_8859_1                0047daf0     winucs.obj
 0002:00015bb0       _iso_8859_2                0047dbb0     winucs.obj
 0002:00015c70       _iso_8859_3                0047dc70     winucs.obj
 0002:00015d30       _iso_8859_4                0047dd30     winucs.obj
 0002:00015df0       _iso_8859_5                0047ddf0     winucs.obj
 0002:00015eb0       _iso_8859_6                0047deb0     winucs.obj
 0002:00015f70       _iso_8859_7                0047df70     winucs.obj
 0002:00016030       _iso_8859_8                0047e030     winucs.obj
 0002:000160f0       _iso_8859_9                0047e0f0     winucs.obj
 0002:000161b0       _iso_8859_10               0047e1b0     winucs.obj
 0002:00016270       _iso_8859_11               0047e270     winucs.obj
 0002:00016330       _iso_8859_13               0047e330     winucs.obj
 0002:000163f0       _iso_8859_14               0047e3f0     winucs.obj
 0002:000164b0       _iso_8859_15               0047e4b0     winucs.obj
 0002:00016570       _iso_8859_16               0047e570     winucs.obj
 0002:00016630       _roman8                    0047e630     winucs.obj
 0002:000166f0       _koi8_u                    0047e6f0     winucs.obj
 0002:000167f0       _vscii                     0047e7f0     winucs.obj
 0002:000169f0       _dec_mcs                   0047e9f0     winucs.obj
 0002:00016ab0       _mazovia                   0047eab0     winucs.obj
 0002:00016bb0       _cp_list                   0047ebb0     winucs.obj
 0002:00016e00       ?poorman_scoacs@?BG@??init_ucs@@9@9 0047ee00     winucs.obj
 0002:00016e88       ?poorman_latin1@?BG@??init_ucs@@9@9 0047ee88     winucs.obj
 0002:00016eec       ?poorman_vt100@?BG@??init_ucs@@9@9 0047eeec     winucs.obj
 0002:00016f10       ?cyrtab@?1??xlat_uskbd2cyrllic@@9@9 0047ef10     winucs.obj
 0002:00017010       ?composetbl@?1??check_compose_internal@@9@9 0047f010     winucs.obj
 0002:00017874       _X11Connection_plugvt      0047f874     x11fwd.obj
 0002:00017888       _X11Connection_channelvt   0047f888     x11fwd.obj
 0002:00017c44       _GS_ExceptionPointers      0047fc44     LIBCMT:gs_report.obj
 0002:00017c4c       ?module_names@?A0x89697e75@@3QBQB_WB 0047fc4c     libvcruntime:winapi_downlevel.obj
 0002:00017cfc       ?candidate_modules@?1??try_get_FlsAlloc@@YAP6GKP6GXPAX@Z@ZXZ@4QBW4module_id@?A0x89697e75@@B 0047fcfc     libvcruntime:winapi_downlevel.obj
 0002:00017d10       ?candidate_modules@?1??try_get_FlsFree@@YAP6GHK@ZXZ@4QBW4module_id@?A0x89697e75@@B 0047fd10     libvcruntime:winapi_downlevel.obj
 0002:00017d2c       ?candidate_modules@?1??try_get_FlsSetValue@@YAP6GHKPAX@ZXZ@4QBW4module_id@?A0x89697e75@@B 0047fd2c     libvcruntime:winapi_downlevel.obj
 0002:00017d40       ?candidate_modules@?1??try_get_InitializeCriticalSectionEx@@YAP6GHPAU_RTL_CRITICAL_SECTION@@KK@ZXZ@4QBW4module_id@?A0x89697e75@@B 0047fd40     libvcruntime:winapi_downlevel.obj
 0002:00017d68       ?tokenTable@@3QBQBDB       0047fd68     libvcruntime:undname.obj
 0002:00017da0       ?nameTable@@3QBQBDB        0047fda0     libvcruntime:undname.obj
 0002:00017ee4       ?rttiTable@@3QBQBDB        0047fee4     libvcruntime:undname.obj
 0002:000193dc       ?comspec_name@?1???$common_system@D@@YAHQBD@Z@4QBDB 004813dc     libucrt:system.obj
 0002:000193e4       ?cmd_exe@?1???$common_system@D@@YAHQBD@Z@4QBDB 004813e4     libucrt:system.obj
 0002:000193ec       ?slash_c@?1???$common_system@D@@YAHQBD@Z@4QBDB 004813ec     libucrt:system.obj
 0002:00019558       __first_127char            00481558     libucrt:wsetlocale.obj
 0002:00019600       ___acrt_initializers       00481600     libucrt:initialization.obj
 0002:00019678       _errtable                  00481678     libucrt:errno.obj
 0002:0001a540       _module_names              00482540     libucrt:winapi_thunks.obj
 0002:0001a9e0       ?candidate_modules@?1??try_get_AreFileApisANSI@@YAP6GHXZXZ@4QBW4module_id@?A0x352e5c4b@@B 004829e0     libucrt:winapi_thunks.obj
 0002:0001a9f4       ?candidate_modules@?1??try_get_CompareStringEx@@YAP6GHPB_WK0H0HPAU_nlsversioninfo@@PAXJ@ZXZ@4QBW4module_id@?A0x352e5c4b@@B 004829f4     libucrt:winapi_thunks.obj
 0002:0001aa0c       ?candidate_modules@?1??try_get_EnumSystemLocalesEx@@YAP6GHP6GHPA_WKJ@ZKJPAX@ZXZ@4QBW4module_id@?A0x352e5c4b@@B 00482a0c     libucrt:winapi_thunks.obj
 0002:0001aa28       ?candidate_modules@?1??try_get_FlsAlloc@@YAP6GKP6GXPAX@Z@ZXZ@4QBW4module_id@?A0x352e5c4b@@B 00482a28     libucrt:winapi_thunks.obj
 0002:0001aa30       ?candidate_modules@?1??try_get_FlsFree@@YAP6GHK@ZXZ@4QBW4module_id@?A0x352e5c4b@@B 00482a30     libucrt:winapi_thunks.obj
 0002:0001aa38       ?candidate_modules@?1??try_get_FlsGetValue@@YAP6GPAXK@ZXZ@4QBW4module_id@?A0x352e5c4b@@B 00482a38     libucrt:winapi_thunks.obj
 0002:0001aa40       ?candidate_modules@?1??try_get_FlsSetValue@@YAP6GHKPAX@ZXZ@4QBW4module_id@?A0x352e5c4b@@B 00482a40     libucrt:winapi_thunks.obj
 0002:0001aa48       ?candidate_modules@?1??try_get_GetActiveWindow@@YAP6GPAUHWND__@@XZXZ@4QBW4module_id@?A0x352e5c4b@@B 00482a48     libucrt:winapi_thunks.obj
 0002:0001aa60       ?candidate_modules@?1??try_get_GetCurrentPackageId@@YAP6GJPAIPAE@ZXZ@4QBW4module_id@?A0x352e5c4b@@B 00482a60     libucrt:winapi_thunks.obj
 0002:0001aa7c       ?candidate_modules@?1??try_get_GetDateFormatEx@@YAP6GHPB_WKPBU_SYSTEMTIME@@0PA_WH0@ZXZ@4QBW4module_id@?A0x352e5c4b@@B 00482a7c     libucrt:winapi_thunks.obj
 0002:0001aa94       ?candidate_modules@?1??try_get_GetLastActivePopup@@YAP6GPAUHWND__@@PAU2@@ZXZ@4QBW4module_id@?A0x352e5c4b@@B 00482a94     libucrt:winapi_thunks.obj
 0002:0001aab0       ?candidate_modules@?1??try_get_GetLocaleInfoEx@@YAP6GHPB_WKPA_WH@ZXZ@4QBW4module_id@?A0x352e5c4b@@B 00482ab0     libucrt:winapi_thunks.obj
 0002:0001aac8       ?candidate_modules@?1??try_get_GetProcessWindowStation@@YAP6GPAUHWINSTA__@@XZXZ@4QBW4module_id@?A0x352e5c4b@@B 00482ac8     libucrt:winapi_thunks.obj
 0002:0001aae8       ?candidate_modules@?1??try_get_GetSystemTimePreciseAsFileTime@@YAP6GXPAU_FILETIME@@@ZXZ@4QBW4module_id@?A0x352e5c4b@@B 00482ae8     libucrt:winapi_thunks.obj
 0002:0001ab0c       ?candidate_modules@?1??try_get_GetTimeFormatEx@@YAP6GHPB_WKPBU_SYSTEMTIME@@0PA_WH@ZXZ@4QBW4module_id@?A0x352e5c4b@@B 00482b0c     libucrt:winapi_thunks.obj
 0002:0001ab24       ?candidate_modules@?1??try_get_GetUserDefaultLocaleName@@YAP6GHPA_WH@ZXZ@4QBW4module_id@?A0x352e5c4b@@B 00482b24     libucrt:winapi_thunks.obj
 0002:0001ab48       ?candidate_modules@?1??try_get_GetUserObjectInformationW@@YAP6GHPAXH0KPAK@ZXZ@4QBW4module_id@?A0x352e5c4b@@B 00482b48     libucrt:winapi_thunks.obj
 0002:0001ab6c       ?candidate_modules@?1??try_get_InitializeCriticalSectionEx@@YAP6GHPAU_RTL_CRITICAL_SECTION@@KK@ZXZ@4QBW4module_id@?A0x352e5c4b@@B 00482b6c     libucrt:winapi_thunks.obj
 0002:0001ab74       ?candidate_modules@?1??try_get_IsValidLocaleName@@YAP6GHPB_W@ZXZ@4QBW4module_id@?A0x352e5c4b@@B 00482b74     libucrt:winapi_thunks.obj
 0002:0001ab90       ?candidate_modules@?1??try_get_LCMapStringEx@@YAP6GHPB_WK0HPA_WHPAU_nlsversioninfo@@PAXJ@ZXZ@4QBW4module_id@?A0x352e5c4b@@B 00482b90     libucrt:winapi_thunks.obj
 0002:0001aba8       ?candidate_modules@?1??try_get_LCIDToLocaleName@@YAP6GHKPA_WHK@ZXZ@4QBW4module_id@?A0x352e5c4b@@B 00482ba8     libucrt:winapi_thunks.obj
 0002:0001abc4       ?candidate_modules@?1??try_get_LocaleNameToLCID@@YAP6GKPB_WK@ZXZ@4QBW4module_id@?A0x352e5c4b@@B 00482bc4     libucrt:winapi_thunks.obj
 0002:0001abe0       ?candidate_modules@?1??try_get_MessageBoxA@@YAP6GHPAUHWND__@@PBD1I@ZXZ@4QBW4module_id@?A0x352e5c4b@@B 00482be0     libucrt:winapi_thunks.obj
 0002:0001abf4       ?candidate_modules@?1??try_get_MessageBoxW@@YAP6GHPAUHWND__@@PB_W1I@ZXZ@4QBW4module_id@?A0x352e5c4b@@B 00482bf4     libucrt:winapi_thunks.obj
 0002:0001ac08       ?dot_slash@?CD@???$common_spawnv@D@@YAHHQBDQBQBD1@Z@4QBDB 00482c08     libucrt:spawnv.obj
 0002:0001ac0c       ?extensions@?DB@???$common_spawnv@D@@YAHHQBDQBQBD1@Z@4QAY04$$CBDA 00482c0c     libucrt:spawnv.obj
 0002:0001ac20       __mb_locale_names          00482c20     libucrt:mbctype.obj
 0002:0001ba48       _LcidToLocaleNameTable     00483a48     libucrt:lcidtoname_downlevel.obj
 0002:0001cb68       _LocaleNameToIndexTable    00484b68     libucrt:lcidtoname_downlevel.obj
 0002:0001dab8       ?equal_sign@?BP@???$construct_environment_block@D@@YAHQBQBDQAPAD@Z@4QBDB 00485ab8     libucrt:cenvarg.obj
 0002:0001dabc       _over                      00485abc     libucrt:fpctrl.obj
 0002:0001dac8       _under                     00485ac8     libucrt:fpctrl.obj
 0002:0001daf0       LOG_name                   00485af0     libucrt:log10.obj
 0002:0001db00       _One                       00485b00     libucrt:ceil_pentium4.obj
 0002:0001db10       _Bns                       00485b10     libucrt:ceil_pentium4.obj
 0002:0001db20       _Zero                      00485b20     libucrt:ceil_pentium4.obj
 0002:0001db30       _S                         00485b30     libucrt:ceil_pentium4.obj
 0002:0001db40       _NegZero                   00485b40     libucrt:ceil_pentium4.obj
 0002:0001db50       emask                      00485b50     libucrt:log10_pentium4.obj
 0002:0001db60       CC                         00485b60     libucrt:log10_pentium4.obj
 0002:0001db70       Magic                      00485b70     libucrt:log10_pentium4.obj
 0002:0001db80       hi_mask                    00485b80     libucrt:log10_pentium4.obj
 0002:0001db90       LOG10_2                    00485b90     libucrt:log10_pentium4.obj
 0002:0001dba0       place_L                    00485ba0     libucrt:log10_pentium4.obj
 0002:0001dbc0       One                        00485bc0     libucrt:log10_pentium4.obj
 0002:0001dbd0       Zero                       00485bd0     libucrt:log10_pentium4.obj
 0002:0001dbe0       Two52                      00485be0     libucrt:log10_pentium4.obj
 0002:0001dbf0       Infs                       00485bf0     libucrt:log10_pentium4.obj
 0002:0001dc00       NaN                        00485c00     libucrt:log10_pentium4.obj
 0002:0001dc10       coeff                      00485c10     libucrt:log10_pentium4.obj
 0002:0001dc6e       _log2max                   00485c6e     libucrt:87tran.obj
 0002:0001dc78       _smallarg                  00485c78     libucrt:87tran.obj
 0002:0001dc82       _half                      00485c82     libucrt:87tran.obj
 0002:0001dcce       One                        00485cce     libucrt:87disp.obj
 0002:0001dcd6       Three                      00485cd6     libucrt:87disp.obj
 0002:0001dcde       XAMtoTagTab                00485cde     libucrt:87disp.obj
 0002:0001dcf0       One                        00485cf0     libucrt:common.obj
 0002:0001dd04       DblMax                     00485d04     libucrt:common.obj
 0002:0001dd0c       DblMin                     00485d0c     libucrt:common.obj
 0002:0001dd14       IeeeAdjO                   00485d14     libucrt:common.obj
 0002:0001dd1c       IeeeAdjU                   00485d1c     libucrt:common.obj
 0002:0001dd24       _infinity                  00485d24     libucrt:common.obj
 0002:0001dd2c       _zero                      00485d2c     libucrt:common.obj
 0002:0001e628       ?_names@?1??_get_fname@@9@9 00486628     libucrt:fpexcept.obj
 0002:0001ea98       __sehtable$?__scrt_common_main_seh@@YAHXZ 00486a98     LIBCMT:exe_main.obj
 0002:0001eab8       __sehtable$___scrt_is_nonwritable_in_current_image 00486ab8     LIBCMT:utility.obj
 0002:0001ead8       __sehtable$_fclose         00486ad8     libucrt:fclose.obj
 0002:0001eaf8       __sehtable$??$common_fsopen@D@@YAPAU_iobuf@@QBD0H@Z 00486af8     libucrt:fopen.obj
 0002:0001eb18       __sehtable$_fread_s        00486b18     libucrt:fread.obj
 0002:0001eb38       __sehtable$_fflush         00486b38     libucrt:fflush.obj
 0002:0001eb58       __sehtable$_common_flush_all 00486b58     libucrt:fflush.obj
 0002:0001eb80       __sehtable$??$?RV<lambda_11b4f7b0d3157825a5656a18eba1ae27>@@AAV<lambda_b51c0495177f500e782686251704ae76>@@V<lambda_cf89b47920b5017557bfe891e78aca36>@@@?$__crt_seh_guarded_call@I@@QAEI$$QAV<lambda_11b4f7b0d3157825a5656a18eba1ae27>@@AAV<lambda_b51c0495177f500e782686251704ae76>@@$$QAV<lambda_cf89b47920b5017557bfe891e78aca36>@@@Z 00486b80     libucrt:fwrite.obj
 0002:0001eba0       __sehtable$??$?RV<lambda_db08b09ef7aa9d4f8620ce68402612bc>@@AAV<lambda_4f2c1eaeead2a5fc776db5b62ea0fb9b>@@V<lambda_3ae262bc35d4ba6a3825c4f6bcaaf95c>@@@?$__crt_seh_guarded_call@H@@QAEH$$QAV<lambda_db08b09ef7aa9d4f8620ce68402612bc>@@AAV<lambda_4f2c1eaeead2a5fc776db5b62ea0fb9b>@@$$QAV<lambda_3ae262bc35d4ba6a3825c4f6bcaaf95c>@@@Z 00486ba0     libucrt:output.obj
 0002:0001ebc0       __sehtable$??$?RV<lambda_ab9923ffb5d694ec0d78876dd103e44f>@@AAV<lambda_481dd5778c961fbcd3b60b650e9b9dc4>@@V<lambda_7923d86c9e3f319b415918ec4b39749c>@@@?$__crt_seh_guarded_call@H@@QAEH$$QAV<lambda_ab9923ffb5d694ec0d78876dd103e44f>@@AAV<lambda_481dd5778c961fbcd3b60b650e9b9dc4>@@$$QAV<lambda_7923d86c9e3f319b415918ec4b39749c>@@@Z 00486bc0     libucrt:output.obj
 0002:0001ebe0       __sehtable$??$?RV<lambda_b0cac3301889906f8da68b04e3d9a7f4>@@AAV<lambda_9a20e10065b92b5193c3597a66cba9d4>@@V<lambda_24b35df97fd4c1fecac72a72d95cc146>@@@?$__crt_seh_guarded_call@H@@QAEH$$QAV<lambda_b0cac3301889906f8da68b04e3d9a7f4>@@AAV<lambda_9a20e10065b92b5193c3597a66cba9d4>@@$$QAV<lambda_24b35df97fd4c1fecac72a72d95cc146>@@@Z 00486be0     libucrt:fputs.obj
 0002:0001ec00       __sehtable$?common_exit@@YAXHW4_crt_exit_cleanup_mode@@W4_crt_exit_return_mode@@@Z 00486c00     libucrt:exit.obj
 0002:0001ec28       __sehtable$_fgetc          00486c28     libucrt:fgetc.obj
 0002:0001ec48       __sehtable$??$common_fgets@D@@YAPADQADHV__crt_stdio_stream@@@Z 00486c48     libucrt:fgets.obj
 0002:0001ec68       __sehtable$_fputc          00486c68     libucrt:fputc.obj
 0002:0001ec88       __sehtable$_rewind         00486c88     libucrt:rewind.obj
 0002:0001eca8       __sehtable$_ungetc         00486ca8     libucrt:ungetc.obj
 0002:0001ecc8       __sehtable$_setlocale      00486cc8     libucrt:setlocale.obj
 0002:0001ece8       __sehtable$??$common_getenv@D@@YAPADQBD@Z 00486ce8     libucrt:getenv.obj
 0002:0001ed08       __sehtable$??$common_getenv_s@D@@YAHQAIQADIQBD@Z 00486d08     libucrt:getenv.obj
 0002:0001ed28       __sehtable$??$common_dupenv_s@D@@YAHQAPADQAIQBDH2H@Z 00486d28     libucrt:getenv.obj
 0002:0001ed48       __sehtable$___acrt_uninitialize_locale 00486d48     libucrt:wsetlocale.obj
 0002:0001ed68       __sehtable$??$?RV<lambda_70818de7b02deff9841e8b0962a60ed9>@@AAV<lambda_2af78c5f5901b1372d98f9ab3177dfa6>@@AAV<lambda_f51fe5fd7c79a33db34fc9310f277369>@@@?$__crt_seh_guarded_call@X@@QAEX$$QAV<lambda_70818de7b02deff9841e8b0962a60ed9>@@AAV<lambda_2af78c5f5901b1372d98f9ab3177dfa6>@@AAV<lambda_f51fe5fd7c79a33db34fc9310f277369>@@@Z 00486d68     libucrt:wsetlocale.obj
 0002:0001ed88       __sehtable$??$?RV<lambda_c76fdea48760d5f9368b465f31df4405>@@AAV<lambda_e378711a6f6581bf7f0efd7cdf97f5d9>@@V<lambda_e927a58b2a85c081d733e8c6192ae2d2>@@@?$__crt_seh_guarded_call@X@@QAEX$$QAV<lambda_c76fdea48760d5f9368b465f31df4405>@@AAV<lambda_e378711a6f6581bf7f0efd7cdf97f5d9>@@$$QAV<lambda_e927a58b2a85c081d733e8c6192ae2d2>@@@Z 00486d88     libucrt:wsetlocale.obj
 0002:0001eda8       __sehtable$??$?RV<lambda_800076c951b434888f4765a74a194fcc>@@AAV<lambda_4e60a939b0d047cfe11ddc22648dfba9>@@V<lambda_6dbb1268764f43b569ce7b67e331d33a>@@@?$__crt_seh_guarded_call@H@@QAEH$$QAV<lambda_800076c951b434888f4765a74a194fcc>@@AAV<lambda_4e60a939b0d047cfe11ddc22648dfba9>@@$$QAV<lambda_6dbb1268764f43b569ce7b67e331d33a>@@@Z 00486da8     libucrt:onexit.obj
 0002:0001edc8       __sehtable$??$?RV<lambda_995298e7d72eb4c2aab26c0585b3abe5>@@AAV<lambda_275893d493268fdec8709772e3fcec0e>@@V<lambda_293819299cbf9a7022e18b56a874bb5c>@@@?$__crt_seh_guarded_call@H@@QAEH$$QAV<lambda_995298e7d72eb4c2aab26c0585b3abe5>@@AAV<lambda_275893d493268fdec8709772e3fcec0e>@@$$QAV<lambda_293819299cbf9a7022e18b56a874bb5c>@@@Z 00486dc8     libucrt:onexit.obj
 0002:0001ede8       __sehtable$_terminate      00486de8     libucrt:terminate.obj
 0002:0001ee08       __sehtable$??$?RV<lambda_d92cfe8357b99225085016881b624cb0>@@AAV<lambda_b721fa326cdb32351d23dfa67958c160>@@V<lambda_42d75b0848218ec137fa420c8ba9fdf9>@@@?$__crt_seh_guarded_call@H@@QAEH$$QAV<lambda_d92cfe8357b99225085016881b624cb0>@@AAV<lambda_b721fa326cdb32351d23dfa67958c160>@@$$QAV<lambda_42d75b0848218ec137fa420c8ba9fdf9>@@@Z 00486e08     libucrt:setvbuf.obj
 0002:0001ee28       __sehtable$_raise          00486e28     libucrt:signal.obj
 0002:0001ee48       __sehtable$??$?RV<lambda_a048d3beccc847880fc8490e18b82769>@@AAV<lambda_ec61778202f4f5fc7e7711acc23c3bca>@@V<lambda_f7496a158712204296dd6628a163878e>@@@?$__crt_seh_guarded_call@P6AXH@Z@@QAEP6AXH@Z$$QAV<lambda_a048d3beccc847880fc8490e18b82769>@@AAV<lambda_ec61778202f4f5fc7e7711acc23c3bca>@@$$QAV<lambda_f7496a158712204296dd6628a163878e>@@@Z 00486e48     libucrt:signal.obj
 0002:0001ee68       __sehtable$??$?RV<lambda_123407a5e2ac06da108355a851863b7a>@@AAV<lambda_2fe9b910cf3cbf4a0ab98a02ba45b3ec>@@V<lambda_ae55bdf541ad94d75914d381c370e64d>@@@?$__crt_seh_guarded_call@H@@QAEH$$QAV<lambda_123407a5e2ac06da108355a851863b7a>@@AAV<lambda_2fe9b910cf3cbf4a0ab98a02ba45b3ec>@@$$QAV<lambda_ae55bdf541ad94d75914d381c370e64d>@@@Z 00486e68     libucrt:close.obj
 0002:0001ee88       __sehtable$?__acrt_stdio_allocate_stream@@YA?AV__crt_stdio_stream@@XZ 00486e88     libucrt:stream.obj
 0002:0001eea8       __sehtable$__read          00486ea8     libucrt:read.obj
 0002:0001eec8       __sehtable$??$?RV<lambda_9df27f884b057bc3edfc946cb5b7cf47>@@AAV<lambda_e69574bed617af4e071282c136b37893>@@V<lambda_cc0d902bcbbeb830f749456577db4721>@@@?$__crt_seh_guarded_call@X@@QAEX$$QAV<lambda_9df27f884b057bc3edfc946cb5b7cf47>@@AAV<lambda_e69574bed617af4e071282c136b37893>@@$$QAV<lambda_cc0d902bcbbeb830f749456577db4721>@@@Z 00486ec8     libucrt:per_thread_data.obj
 0002:0001eee8       __sehtable$??$?RV<lambda_3518db117f0e7cdb002338c5d3c47b6c>@@AAV<lambda_b2ea41f6bbb362cd97d94c6828d90b61>@@V<lambda_abdedf541bb04549bc734292b4a045d4>@@@?$__crt_seh_guarded_call@X@@QAEX$$QAV<lambda_3518db117f0e7cdb002338c5d3c47b6c>@@AAV<lambda_b2ea41f6bbb362cd97d94c6828d90b61>@@$$QAV<lambda_abdedf541bb04549bc734292b4a045d4>@@@Z 00486ee8     libucrt:per_thread_data.obj
 0002:0001ef08       __sehtable$??$?RV<lambda_51b6e8b1eb166f2a3faf91f424b38130>@@AAV<lambda_6250bd4b2a391816dd638c3bf72b0bcb>@@V<lambda_0b5a4a3e68152e1d9b943535f5f47bed>@@@?$__crt_seh_guarded_call@X@@QAEX$$QAV<lambda_51b6e8b1eb166f2a3faf91f424b38130>@@AAV<lambda_6250bd4b2a391816dd638c3bf72b0bcb>@@$$QAV<lambda_0b5a4a3e68152e1d9b943535f5f47bed>@@@Z 00486f08     libucrt:per_thread_data.obj
 0002:0001ef28       __sehtable$??$?RV<lambda_5b71d36f03204c0beab531769a5b5694>@@AAV<lambda_be2b3da3f62db62e9dad5dc70221a656>@@V<lambda_8f9ce462984622f9bf76b59e2aaaf805>@@@?$__crt_seh_guarded_call@X@@QAEX$$QAV<lambda_5b71d36f03204c0beab531769a5b5694>@@AAV<lambda_be2b3da3f62db62e9dad5dc70221a656>@@$$QAV<lambda_8f9ce462984622f9bf76b59e2aaaf805>@@@Z 00486f28     libucrt:per_thread_data.obj
 0002:0001ef48       __sehtable$??$?RV<lambda_61cee617f5178ae960314fd4d05640a0>@@AAV<lambda_6978c1fb23f02e42e1d9e99668cc68aa>@@V<lambda_9cd88cf8ad10232537feb2133f08c833>@@@?$__crt_seh_guarded_call@H@@QAEH$$QAV<lambda_61cee617f5178ae960314fd4d05640a0>@@AAV<lambda_6978c1fb23f02e42e1d9e99668cc68aa>@@$$QAV<lambda_9cd88cf8ad10232537feb2133f08c833>@@@Z 00486f48     libucrt:commit.obj
 0002:0001ef68       __sehtable$__write         00486f68     libucrt:write.obj
 0002:0001ef88       __sehtable$___acrt_initialize_lowio 00486f88     libucrt:ioinit.obj
 0002:0001efa8       __sehtable$??$?RV<lambda_9227be29367c048ad7fd93a717dcb1a1>@@AAV<lambda_a463b7b0560cfcaf9b17f27c6ef46564>@@V<lambda_ccea11b5727ccf69be64f5f5d9a08d9f>@@@?$__crt_seh_guarded_call@H@@QAEH$$QAV<lambda_9227be29367c048ad7fd93a717dcb1a1>@@AAV<lambda_a463b7b0560cfcaf9b17f27c6ef46564>@@$$QAV<lambda_ccea11b5727ccf69be64f5f5d9a08d9f>@@@Z 00486fa8     libucrt:winapi_thunks.obj
 0002:0001efc8       __sehtable$__fcloseall     00486fc8     libucrt:closeall.obj
 0002:0001efe8       __sehtable$??$?RV<lambda_eee62cb4a147bfbb98180ad682ce6e17>@@AAV<lambda_5056f36f92c185fae794536d1ce2027b>@@V<lambda_57c77e0e75d6a1e6f8ecaa6bd26c2518>@@@?$__crt_seh_guarded_call@_N@@QAE_N$$QAV<lambda_eee62cb4a147bfbb98180ad682ce6e17>@@AAV<lambda_5056f36f92c185fae794536d1ce2027b>@@$$QAV<lambda_57c77e0e75d6a1e6f8ecaa6bd26c2518>@@@Z 00486fe8     libucrt:spawnv.obj
 0002:0001f008       __sehtable$??$common_lseek@J@@YAJHJH@Z 00487008     libucrt:lseek.obj
 0002:0001f028       __sehtable$??$common_lseek@_J@@YA_JH_JH@Z 00487028     libucrt:lseek.obj
 0002:0001f048       __sehtable$___acrt_update_thread_multibyte_data 00487048     libucrt:mbctype.obj
 0002:0001f068       __sehtable$??$?RV<lambda_978dc153c237d78434369da87b74ff60>@@AAV<lambda_ad1ced32f4ac17aa236e5ef05d6b3b7c>@@V<lambda_4a8533e2866a575feecb8298ce776b0d>@@@?$__crt_seh_guarded_call@X@@QAEX$$QAV<lambda_978dc153c237d78434369da87b74ff60>@@AAV<lambda_ad1ced32f4ac17aa236e5ef05d6b3b7c>@@$$QAV<lambda_4a8533e2866a575feecb8298ce776b0d>@@@Z 00487068     libucrt:mbctype.obj
 0002:0001f088       __sehtable$__alloc_osfhnd  00487088     libucrt:osfinfo.obj
 0002:0001f0a8       __sehtable$___acrt_lowio_ensure_fh_exists 004870a8     libucrt:osfinfo.obj
 0002:0001f0c8       __sehtable$___acrt_update_thread_locale_data 004870c8     libucrt:locale_refcounting.obj
 0002:0001f0e8       __sehtable$__query_new_handler 004870e8     libucrt:new_handler.obj
 0002:0001f108       __sehtable$??$common_sopen_dispatch@D@@YAHQBDHHHQAHH@Z 00487108     libucrt:open.obj
 0002:0001f128       __sehtable$___tzset        00487128     libucrt:tzset.obj
 0002:0001f148       __sehtable$___set_fpsr_sse2 00487148     libucrt:fpctrl.obj
 0002:0001f168       __sehtable$__IsNonwritableInCurrentImage 00487168     LIBCMT:pesect.obj
 0002:0001f522       .idata$6                   00487522     advapi32:ADVAPI32.dll
 0002:0001f5a8       .idata$6                   004875a8     user32:USER32.dll
 0002:0001fb0c       .idata$6                   00487b0c     kernel32:KERNEL32.dll
 0003:00000000       _subkeytypes               00488000     conf.obj
 0003:00000318       _valuetypes                00488318     conf.obj
 0003:00000630       _nullplug_plug             00488630     nullplug.obj
 0003:00000650       _gss_mech_krb5_desc        00488650     pgssapi.obj
 0003:00000658       _sftp_lookup               00488658     psftp.obj
 0003:00000888       _psftp_seat                00488888     psftp.obj
 0003:0000088c       _pktin_freeq_head          0048888c     sshcommon.obj
 0003:0000089c       _ic_pktin_free             0048889c     sshcommon.obj
 0003:000008ac       ?algs_with_oid@?1??ec_alg_by_oid@@9@9 004888ac     sshecc.obj
 0003:000008c0       _sftp_ssh_socket           004888c0     winsftp.obj
 0003:000008c4       _netevent                  004888c4     winsftp.obj
 0003:00000900       ?__vcrt_flsindex@@3KA      00488900     libvcruntime:per_thread_data.obj
 0003:000009d0       __ctype_loc_style          004889d0     libucrt:wsetlocale.obj
 0003:000009d4       _errno_no_memory           004889d4     libucrt:errno.obj
 0003:000009d8       _doserrno_no_memory        004889d8     libucrt:errno.obj
 0003:00000ae8       ___acrt_flsindex           00488ae8     libucrt:per_thread_data.obj
 0003:00000bf4       ___rgctypeflag             00488bf4     libucrt:mbctype.obj
 0003:00000bf8       ___rgcode_page_info        00488bf8     libucrt:mbctype.obj
 0003:00001178       _tzstd_program             00489178     libucrt:timeset.obj
 0003:000011b8       _tzdst_program             004891b8     libucrt:timeset.obj
 0003:000011f8       _tzname_states             004891f8     libucrt:timeset.obj
 0003:00001200       _dststart                  00489200     libucrt:tzset.obj
 0003:0000120c       _dstend                    0048920c     libucrt:tzset.obj
 0003:00001220       ?__DAZ_ENABLED@?1??__set_fpsr_sse2@@9@9 00489220     libucrt:fpctrl.obj
 0003:00001244       _cmdline_password          00489244     cmdline.obj
 0003:00001248       ?tried_once@?1??cmdline_get_passwd_input@@9@9 00489248     cmdline.obj
 0003:00001249       _seen_hostname_argument    00489249     cmdline.obj
 0003:0000124a       _seen_port_argument        0048924a     cmdline.obj
 0003:00001250       _saves                     00489250     cmdline.obj
 0003:00001268       _psftp_logctx              00489268     psftp.obj
 0003:0000126d       _verbose                   0048926d     psftp.obj
 0003:00001270       _backend                   00489270     psftp.obj
 0003:00001274       _string_scc                00489274     psftp.obj
 0003:00001278       _received_data             00489278     psftp.obj
 0003:0000128c       _stderr_bs                 0048928c     psftp.obj
 0003:00001290       _stderr_ss                 00489290     psftp.obj
 0003:0000129c       _stderr_scc                0048929c     psftp.obj
 0003:000012a0       _fxp_error_message         004892a0     sftp.obj
 0003:000012a4       _fxp_errtype               004892a4     sftp.obj
 0003:000012a8       _sftp_requests             004892a8     sftp.obj
 0003:000012ac       ?initialised@?1??aes_hw_available_cached@@9@9 004892ac     sshaes.obj
 0003:000012ad       ?hw_available@?1??aes_hw_available_cached@@9@9 004892ad     sshaes.obj
 0003:000012b4       ?curve@?1??ec_p256@@9@9    004892b4     sshecc.obj
 0003:000012d8       ?initialised@?1??ec_p256@@9@9 004892d8     sshecc.obj
 0003:000012d9       ?initialised@?1??ec_p384@@9@9 004892d9     sshecc.obj
 0003:000012da       ?initialised@?1??ec_p521@@9@9 004892da     sshecc.obj
 0003:000012db       ?initialised@?1??ec_curve25519@@9@9 004892db     sshecc.obj
 0003:000012dc       ?curve@?1??ec_p384@@9@9    004892dc     sshecc.obj
 0003:00001300       ?curve@?1??ec_p521@@9@9    00489300     sshecc.obj
 0003:00001324       ?curve@?1??ec_curve25519@@9@9 00489324     sshecc.obj
 0003:00001348       ?curve@?1??ec_ed25519@@9@9 00489348     sshecc.obj
 0003:0000136c       ?initialised@?1??ec_ed25519@@9@9 0048936c     sshecc.obj
 0003:0000137c       _random_timer_ctx          0048937c     sshrand.obj
 0003:00001380       _global_prng               00489380     sshrand.obj
 0003:00001384       _next_noise_collection     00489384     sshrand.obj
 0003:00001388       ?initialised@?1??sha256_hw_available_cached@@9@9 00489388     sshsh256.obj
 0003:00001389       ?hw_available@?1??sha256_hw_available_cached@@9@9 00489389     sshsh256.obj
 0003:0000138a       ?initialised@?1??sha1_hw_available_cached@@9@9 0048938a     sshsha.obj
 0003:0000138b       ?hw_available@?1??sha1_hw_available_cached@@9@9 0048938b     sshsha.obj
 0003:0000138c       _timers                    0048938c     timing.obj
 0003:00001390       _timer_contexts            00489390     timing.obj
 0003:00001394       _now                       00489394     timing.obj
 0003:00001398       ?attempted@?1??got_crypt@@9@9 00489398     wincapi.obj
 0003:00001399       ?successful@?1??got_crypt@@9@9 00489399     wincapi.obj
 0003:0000139c       ?crypt@?1??got_crypt@@9@9  0048939c     wincapi.obj
 0003:000013a8       _p_AcquireCredentialsHandleA 004893a8     wingss.obj
 0003:000013ac       _p_InitializeSecurityContextA 004893ac     wingss.obj
 0003:000013b0       _p_FreeContextBuffer       004893b0     wingss.obj
 0003:000013b4       _p_FreeCredentialsHandle   004893b4     wingss.obj
 0003:000013b8       _p_DeleteSecurityContext   004893b8     wingss.obj
 0003:000013bc       _p_QueryContextAttributesA 004893bc     wingss.obj
 0003:000013c0       _p_MakeSignature           004893c0     wingss.obj
 0003:000013c4       _p_VerifySignature         004893c4     wingss.obj
 0003:000013c8       _p_AddDllDirectory         004893c8     wingss.obj
 0003:000013cc       ?kernel32_module@?1??ssh_gss_setup@@9@9 004893cc     wingss.obj
 0003:000013d0       _handles_by_evtomain       004893d0     winhandl.obj
 0003:000013d4       ?kernel32_module@?1??sk_handle_peer_info@@9@9 004893d4     winhsock.obj
 0003:000013d8       ?p_GetNamedPipeClientProcessId@?1??sk_handle_peer_info@@9@9 004893d8     winhsock.obj
 0003:000013dc       ?tried_usernameex@?2??get_username@@9@9 004893dc     winmisc.obj
 0003:000013e0       ?sysdir@?1??load_system32_dll@@9@9 004893e0     winmisc.obj
 0003:000013e4       ?sysdirsize@?1??load_system32_dll@@9@9 004893e4     winmisc.obj
 0003:000013e8       _errstrings                004893e8     winmisc.obj
 0003:000013ec       ?p_GetUserNameExA@?1??get_username@@9@9 004893ec     winmisc.obj
 0003:000013f0       ?kernel32_module@?1??dll_hijacking_protection@@9@9 004893f0     winmisc.obj
 0003:000013f4       ?p_SetDefaultDllDirectories@?1??dll_hijacking_protection@@9@9 004893f4     winmisc.obj
 0003:000013f8       ?kernel32_module@?1??init_winver@@9@9 004893f8     winmisc.obj
 0003:000013fc       ?p_GetVersionExA@?1??init_winver@@9@9 004893fc     winmisc.obj
 0003:00001400       _winsock_module            00489400     winnet.obj
 0003:00001404       _winsock2_module           00489404     winnet.obj
 0003:00001408       _wship6_module             00489408     winnet.obj
 0003:0000140c       _sktree                    0048940c     winnet.obj
 0003:00001410       _p_WSAStartup              00489410     winnet.obj
 0003:00001414       _p_WSACleanup              00489414     winnet.obj
 0003:00001418       _p_closesocket             00489418     winnet.obj
 0003:0000141c       _p_ntohl                   0048941c     winnet.obj
 0003:00001420       _p_htonl                   00489420     winnet.obj
 0003:00001424       _p_htons                   00489424     winnet.obj
 0003:00001428       _p_ntohs                   00489428     winnet.obj
 0003:0000142c       _p_gethostname             0048942c     winnet.obj
 0003:00001430       _p_gethostbyname           00489430     winnet.obj
 0003:00001434       _p_getservbyname           00489434     winnet.obj
 0003:00001438       _p_inet_addr               00489438     winnet.obj
 0003:0000143c       _p_inet_ntoa               0048943c     winnet.obj
 0003:00001440       _p_inet_ntop               00489440     winnet.obj
 0003:00001444       _p_connect                 00489444     winnet.obj
 0003:00001448       _p_bind                    00489448     winnet.obj
 0003:0000144c       _p_setsockopt              0048944c     winnet.obj
 0003:00001450       _p_socket                  00489450     winnet.obj
 0003:00001454       _p_listen                  00489454     winnet.obj
 0003:00001458       _p_send                    00489458     winnet.obj
 0003:0000145c       _p_shutdown                0048945c     winnet.obj
 0003:00001460       _p_ioctlsocket             00489460     winnet.obj
 0003:00001464       _p_accept                  00489464     winnet.obj
 0003:00001468       _p_getpeername             00489468     winnet.obj
 0003:0000146c       _p_recv                    0048946c     winnet.obj
 0003:00001470       _p_WSAIoctl                00489470     winnet.obj
 0003:00001474       _p_getaddrinfo             00489474     winnet.obj
 0003:00001478       _p_freeaddrinfo            00489478     winnet.obj
 0003:0000147c       _p_getnameinfo             0048947c     winnet.obj
 0003:00001480       _p_gai_strerror            00489480     winnet.obj
 0003:00001484       _p_WSAAddressToStringA     00489484     winnet.obj
 0003:00001488       _wsadata                   00489488     winnet.obj
 0003:00001618       _local_interfaces          00489618     winnet.obj
 0003:00001ad8       _n_local_interfaces        00489ad8     winnet.obj
 0003:00001adc       _wincrypt_module           00489adc     winnoise.obj
 0003:00001ae0       _p_CryptAcquireContextA    00489ae0     winnoise.obj
 0003:00001ae4       _p_CryptGenRandom          00489ae4     winnoise.obj
 0003:00001ae8       _p_CryptReleaseContext     00489ae8     winnoise.obj
 0003:00001aec       ?attempted@?1??got_advapi@@9@9 00489aec     winsecur.obj
 0003:00001aed       ?successful@?1??got_advapi@@9@9 00489aed     winsecur.obj
 0003:00001af0       _worldsid                  00489af0     winsecur.obj
 0003:00001af4       _networksid                00489af4     winsecur.obj
 0003:00001af8       _usersid                   00489af8     winsecur.obj
 0003:00001afc       ?advapi@?1??got_advapi@@9@9 00489afc     winsecur.obj
 0003:00001b00       _tried_shgetfolderpath     00489b00     winstore.obj
 0003:00001b04       _shell32_module            00489b04     winstore.obj
 0003:00001b08       _p_SHGetFolderPathA        00489b08     winstore.obj
 0003:00001b0c       ?c@?1??check_compose_internal@@9@9 00489b0c     winucs.obj
 0003:00001b10       ?buf@?1??cp_name@@9@9      00489b10     winucs.obj
 0003:00001b30       _GS_ExceptionRecord        00489b30     LIBCMT:gs_report.obj
 0003:00001b80       _GS_ContextRecord          00489b80     LIBCMT:gs_report.obj
 0003:00001e54       ?module_local_atexit_table@@3U_onexit_table_t@@A 00489e54     LIBCMT:utility.obj
 0003:00001e60       ?module_local_at_quick_exit_table@@3U_onexit_table_t@@A 00489e60     LIBCMT:utility.obj
 0003:00001e6c       ?is_initialized_as_dll@@3_NA 00489e6c     LIBCMT:utility.obj
 0003:00001e84       ?__vcrt_startup_thread_ptd@@3U__vcrt_ptd@@A 00489e84     libvcruntime:per_thread_data.obj
 0003:00001eac       ___vcrt_lock_table         00489eac     libvcruntime:locks.obj
 0003:00001ec4       ___vcrt_locks_initialized  00489ec4     libvcruntime:locks.obj
 0003:00001ec8       ?module_handles@@3PAPAUHINSTANCE__@@A 00489ec8     libvcruntime:winapi_downlevel.obj
 0003:00001ed8       ?encoded_function_pointers@@3PAPAXA 00489ed8     libvcruntime:winapi_downlevel.obj
 0003:00001f28       ?heap@@3V_HeapManager@@A   00489f28     libvcruntime:undname.obj
 0003:00001f48       _c_termination_complete    00489f48     libucrt:exit.obj
 0003:00001f4c       _thread_local_exit_callback_func 00489f4c     libucrt:exit.obj
 0003:00001f50       ?c_exit_complete@?5??common_exit@@YAXHW4_crt_exit_cleanup_mode@@W4_crt_exit_return_mode@@@Z@4_NA 00489f50     libucrt:exit.obj
 0003:00001f54       ?mbst@?1??mbrtowc@@9@4U_Mbstatet@@A 00489f54     libucrt:mbrtowc.obj
 0003:00001f5c       ___acrt_app_type           00489f5c     libucrt:report_runtime_error.obj
 0003:00001f60       _user_matherr              00489f60     libucrt:matherr.obj
 0003:00001f68       ?program_name@?5???$common_configure_argv@D@@YAHW4_crt_argv_mode@@@Z@4PADA 00489f68     libucrt:argv_parsing.obj
 0003:0000209c       ___acrt_global_new_mode    0048a09c     libucrt:new_mode.obj
 0003:000020bc       ___acrt_invalid_parameter_handler 0048a0bc     libucrt:invalid_parameter.obj
 0003:000020c0       ___acrt_error_mode         0048a0c0     libucrt:set_error_mode.obj
 0003:000020c4       _ctrlc_action              0048a0c4     libucrt:signal.obj
 0003:000020c8       _ctrlbreak_action          0048a0c8     libucrt:signal.obj
 0003:000020cc       _abort_action              0048a0cc     libucrt:signal.obj
 0003:000020d0       _term_action               0048a0d0     libucrt:signal.obj
 0003:000020d8       ___acrt_lock_table         0048a0d8     libucrt:locks.obj
 0003:00002210       ___acrt_locks_initialized  0048a210     libucrt:locks.obj
 0003:0000221c       _enable_percent_n          0048a21c     libucrt:printf_count_output.obj
 0003:00002428       _module_handles            0048a428     libucrt:winapi_thunks.obj
 0003:00002478       _encoded_function_pointers 0048a478     libucrt:winapi_thunks.obj
 0003:000024f8       ?static_enum_proc@?1??enum_system_locales_ex_nolock@@YAHQ6GHPA_WKJ@Z@Z@4P6GH0KJ@ZA 0048a4f8     libucrt:winapi_thunks.obj
 0003:000024fc       ?state_cache@?1??__acrt_is_packaged_app@@9@4JA 0048a4fc     libucrt:winapi_thunks.obj
 0003:00002518       _fSystemSet                0048a518     libucrt:mbctype.obj
 0003:0000251c       ?initialized@?1??__acrt_initialize_multibyte@@9@4_NA 0048a51c     libucrt:mbctype.obj
 0003:00002530       ___acrt_new_handler        0048a530     libucrt:new_handler.obj
 0003:00002540       __tzname                   0048a540     libucrt:timeset.obj
 0003:00002544       _last_tz                   0048a544     libucrt:tzset.obj
 0003:00002548       _tz_api_used               0048a548     libucrt:tzset.obj
 0003:00002550       _tz_info                   0048a550     libucrt:tzset.obj
 0003:000025fc       ?first_time@?1??__tzset@@9@4JA 0048a5fc     libucrt:tzset.obj
 0003:00002608       __pmatherr_set             0048a608     libucrt:libm_error.obj
 0004:00000000       __guard_fids____dcrt_uninitialize_environments_nolock 0048b000     libucrt:environment_initialization.obj
 0004:00000008       __guard_fids__             0048b008     libucrt:wsetlocale.obj
 0004:00000020       __guard_fids__             0048b020     libucrt:initialization.obj
 0004:00000080       __guard_fids_??$common_show_message_box@_W@@YAHQB_W0I@Z 0048b080     libucrt:crtmbox.obj
 0004:00000084       __guard_fids____acrt_initialize_ptd 0048b084     libucrt:per_thread_data.obj
 0004:00000088       __guard_fids__             0048b088     libucrt:stdio_initializer.obj
 0004:0000008c       __guard_fids__             0048b08c     libucrt:stdio_initializer.obj
 0004:00000090       __guard_fids_??$?RV<lambda_9227be29367c048ad7fd93a717dcb1a1>@@AAV<lambda_a463b7b0560cfcaf9b17f27c6ef46564>@@V<lambda_ccea11b5727ccf69be64f5f5d9a08d9f>@@@?$__crt_seh_guarded_call@H@@QAEH$$QAV<lambda_9227be29367c048ad7fd93a717dcb1a1>@@AAV<lambda_a463b7b0560cfcaf9b17f27c6ef46564>@@$$QAV<lambda_ccea11b5727ccf69be64f5f5d9a08d9f>@@@Z 0048b090     libucrt:winapi_thunks.obj
 0004:00000094       __guard_fids_??$expand_argument_wildcards@D@@YAHQAD0AAV?$argument_list@D@?A0xb0e4b824@@@Z 0048b094     libucrt:argv_wildcards.obj
 0004:00000098       __guard_fids__             0048b098     libucrt:locale_initializer.obj
 0004:0000009c       __guard_fids__GetLocaleNameFromLangCountry 0048b09c     libucrt:get_qualified_locale.obj
 0004:000000a0       __guard_fids__GetLocaleNameFromLanguage 0048b0a0     libucrt:get_qualified_locale.obj
 0004:000000a4       __guard_fids__GetLcidFromLangCountry 0048b0a4     libucrt:getqloc_downlevel.obj
 0004:000000a8       __guard_fids__GetLcidFromLanguage 0048b0a8     libucrt:getqloc_downlevel.obj
 0004:000000ac       __guard_fids__GetLcidFromCountry 0048b0ac     libucrt:getqloc_downlevel.obj
 0004:000000b0       __guard_fids__             0048b0b0     libucrt:multibyte_initializer.obj
 0004:000000b4       __guard_fids__             0048b0b4     libucrt:timeset_initializer.obj
 0004:000000b8       __guard_fids__             0048b0b8     libucrt:console_output_initializer.obj
 0004:000000bc       __guard_fids____libm_error_support 0048b0bc     libucrt:libm_error.obj
 0004:000000c0       __guard_fids__             0048b0c0     libucrt:sse2_initializer.obj
 0004:000000c4       __guard_fids__             0048b0c4     LIBCMT:exe_main.obj
 0004:000000c8       __guard_fids__             0048b0c8     LIBCMT:exe_main.obj
 0004:000000cc       __guard_fids__             0048b0cc     LIBCMT:exe_main.obj
 0004:000000d0       __guard_fids_?pre_c_initialization@@YAHXZ 0048b0d0     LIBCMT:exe_main.obj
 0004:000000d8       __guard_fids____scrt_set_unhandled_exception_filter 0048b0d8     LIBCMT:utility_desktop.obj
 0004:000000dc       __guard_fids__             0048b0dc     LIBCMT:guard_support.obj
 0004:000000e0       __guard_fids____vcrt_initialize_ptd 0048b0e0     libvcruntime:per_thread_data.obj
 0005:000001e0       $R000000                   0048c1e0     psftp.res
 0005:00000308       $R000128                   0048c308     psftp.res
 0005:000005f0       $R000410                   0048c5f0     psftp.res
 0005:00000c58       $R000A78                   0048cc58     psftp.res
 0005:00000d08       $R000B28                   0048cd08     psftp.res
 0005:00000e38       $R000C58                   0048ce38     psftp.res
 0005:00001168       $R000F88                   0048d168     psftp.res
 0005:000011c8       $R000FE8                   0048d1c8     psftp.res
