 puttygen

 Timestamp is 5fe829fc (Sun Dec 27 13:30:20 2020)

 Preferred load address is 00400000

 Start         Length     Name                   Class
 0001:00000000 0003c597H .text$mn                CODE
 0002:00000000 0000026cH .idata$5                DATA
 0002:0000026c 00000004H .00cfg                  DATA
 0002:00000270 00000004H .CRT$XCA                DATA
 0002:00000274 00000004H .CRT$XCAA               DATA
 0002:00000278 00000004H .CRT$XCZ                DATA
 0002:0000027c 00000004H .CRT$XIA                DATA
 0002:00000280 00000004H .CRT$XIAA               DATA
 0002:00000284 00000004H .CRT$XIAC               DATA
 0002:00000288 00000010H .CRT$XIC                DATA
 0002:00000298 00000004H .CRT$XIZ                DATA
 0002:0000029c 00000004H .CRT$XPA                DATA
 0002:000002a0 00000008H .CRT$XPX                DATA
 0002:000002a8 00000004H .CRT$XPXA               DATA
 0002:000002ac 00000004H .CRT$XPZ                DATA
 0002:000002b0 00000004H .CRT$XTA                DATA
 0002:000002b4 0000000cH .CRT$XTZ                DATA
 0002:000002c0 0000d870H .rdata                  DATA
 0002:0000db2c 00000000H .rdata$r                DATA
 0002:0000db30 0000000cH .rdata$sxdata           DATA
 0002:0000db3c 000002b8H .rdata$zzzdbg           DATA
 0002:0000ddf4 00000004H .rtc$IAA                DATA
 0002:0000ddf8 00000004H .rtc$IZZ                DATA
 0002:0000ddfc 00000004H .rtc$TAA                DATA
 0002:0000de00 00000008H .rtc$TZZ                DATA
 0002:0000de08 0000060cH .xdata$x                DATA
 0002:0000e414 00000000H .edata                  DATA
 0002:0000e414 00000064H .idata$2                DATA
 0002:0000e478 00000014H .idata$3                DATA
 0002:0000e48c 0000026cH .idata$4                DATA
 0002:0000e6f8 00000ad2H .idata$6                DATA
 0003:00000000 00000fa0H .data                   DATA
 0003:00000fa0 00000000H .data$r                 DATA
 0003:00000fa0 00004018H .bss                    DATA
 0004:00000000 00000094H .gfids$x                DATA
 0004:00000094 00000020H .gfids$y                DATA
 0005:00000000 00000300H .rsrc$01                DATA
 0005:00000300 00001b40H .rsrc$02                DATA

  Address         Publics by Value              Rva+Base       Lib:Object

 0000:00000000       __except_list              00000000     <absolute>
 0000:00000000       ___guard_longjmp_count     00000000     <absolute>
 0000:00000000       ___guard_fids_count        00000000     <absolute>
 0000:00000000       ___guard_longjmp_table     00000000     <absolute>
 0000:00000000       ___guard_iat_table         00000000     <absolute>
 0000:00000000       ___guard_iat_count         00000000     <absolute>
 0000:00000000       ___guard_fids_table        00000000     <absolute>
 0000:00000000       ___dynamic_value_reloc_table 00000000     <absolute>
 0000:00000003       ___safe_se_handler_count   00000003     <absolute>
 0000:00000100       ___guard_flags             00000100     <absolute>
 0000:00000000       ___ImageBase               00400000     <linker-defined>
 0001:00000000       _ecc_edwards_add           00401000 f   ecc.obj
 0001:000002c1       _ecc_weierstrass_curve     004012c1 f   ecc.obj
 0001:000002c1       _ecc_edwards_curve         004012c1 f   ecc.obj
 0001:00000325       _ecc_edwards_eq            00401325 f   ecc.obj
 0001:00000382       _ecc_edwards_get_affine    00401382 f   ecc.obj
 0001:00000410       _ecc_edwards_multiply      00401410 f   ecc.obj
 0001:000004f7       _ecc_edwards_point_copy    004014f7 f   ecc.obj
 0001:00000539       _ecc_edwards_point_free    00401539 f   ecc.obj
 0001:00000570       _ecc_edwards_point_new     00401570 f   ecc.obj
 0001:000005c2       _ecc_edwards_point_new_from_y 004015c2 f   ecc.obj
 0001:000007a8       _ecc_montgomery_curve      004017a8 f   ecc.obj
 0001:00000863       _ecc_montgomery_diff_add   00401863 f   ecc.obj
 0001:000009f9       _ecc_montgomery_double     004019f9 f   ecc.obj
 0001:00000b22       _ecc_montgomery_get_affine 00401b22 f   ecc.obj
 0001:00000b7a       _ecc_montgomery_multiply   00401b7a f   ecc.obj
 0001:00000c64       _ecc_montgomery_point_copy 00401c64 f   ecc.obj
 0001:00000c90       _ecc_montgomery_point_free 00401c90 f   ecc.obj
 0001:00000cb7       _ecc_montgomery_point_new  00401cb7 f   ecc.obj
 0001:00000d09       _ecc_weierstrass_add       00401d09 f   ecc.obj
 0001:00000ded       _ecc_weierstrass_add_general 00401ded f   ecc.obj
 0001:0000110f       _ecc_weierstrass_double    0040210f f   ecc.obj
 0001:000012b1       _ecc_weierstrass_get_affine 004022b1 f   ecc.obj
 0001:000012f3       _ecc_weierstrass_is_identity 004022f3 f   ecc.obj
 0001:00001307       _ecc_weierstrass_multiply  00402307 f   ecc.obj
 0001:0000146f       _ecc_weierstrass_point_copy 0040246f f   ecc.obj
 0001:000014a6       _ecc_weierstrass_point_free 004024a6 f   ecc.obj
 0001:000014d5       _ecc_weierstrass_point_new 004024d5 f   ecc.obj
 0001:00001524       _ecc_weierstrass_point_new_from_x 00402524 f   ecc.obj
 0001:00001631       _ecc_weierstrass_point_new_identity 00402631 f   ecc.obj
 0001:0000169e       _ecc_weierstrass_point_valid 0040269e f   ecc.obj
 0001:00001a31       _BinarySink_put_mp_ssh2_from_string 00402a31 f   import.obj
 0001:00001a95       _BinarySink_put_mp_sshcom_from_string 00402a95 f   import.obj
 0001:00001b9c       ___local_stdio_printf_options 00402b9c f i import.obj
 0001:00001ba2       ___local_stdio_scanf_options 00402ba2 f i import.obj
 0001:00001ba8       __vfprintf_l               00402ba8 f i import.obj
 0001:00001bcb       __vsscanf_l                00402bcb f i import.obj
 0001:00001bf0       _export_ssh1               00402bf0 f   import.obj
 0001:00001bf3       _export_ssh2               00402bf3 f   import.obj
 0001:00001c3f       _fprintf                   00402c3f f i import.obj
 0001:00001c57       _import_encrypted          00402c57 f   import.obj
 0001:00001cea       _import_possible           00402cea f   import.obj
 0001:00001d04       _import_ssh2               00402d04 f   import.obj
 0001:00001d50       _import_target_type        00402d50 f   import.obj
 0001:00003d10       _sscanf                    00404d10 f i import.obj
 0001:00004897       _strip_crlf                00405897 f   import.obj
 0001:000048be       _BinarySink_put_asciz      004058be f   marshal.obj
 0001:000048d8       _BinarySink_put_byte       004058d8 f   marshal.obj
 0001:000048ea       _BinarySink_put_data       004058ea f   marshal.obj
 0001:000048fd       _BinarySink_put_datapl     004058fd f   marshal.obj
 0001:00004912       _BinarySink_put_padding    00405912 f   marshal.obj
 0001:0000496a       _BinarySink_put_string     0040596a f   marshal.obj
 0001:00004989       _BinarySink_put_stringpl   00405989 f   marshal.obj
 0001:0000499e       _BinarySink_put_stringsb   0040599e f   marshal.obj
 0001:000049bc       _BinarySink_put_stringz    004059bc f   marshal.obj
 0001:000049d7       _BinarySink_put_uint16     004059d7 f   marshal.obj
 0001:000049fb       _BinarySink_put_uint32     004059fb f   marshal.obj
 0001:00004a2f       _BinarySink_put_uint64     00405a2f f   marshal.obj
 0001:00004acf       _BinarySource_get_asciz    00405acf f   marshal.obj
 0001:00004b16       _BinarySource_get_byte     00405b16 f   marshal.obj
 0001:00004b36       _BinarySource_get_data     00405b36 f   marshal.obj
 0001:00004b63       _BinarySource_get_string   00405b63 f   marshal.obj
 0001:00004bd1       _BinarySource_get_uint16   00405bd1 f   marshal.obj
 0001:00004c02       _BinarySource_get_uint32   00405c02 f   marshal.obj
 0001:00004c46       _safefree                  00405c46 f   memory.obj
 0001:00004c52       _safegrowarray             00405c52 f   memory.obj
 0001:00004d67       _safemalloc                00405d67 f   memory.obj
 0001:00004da5       _saferealloc               00405da5 f   memory.obj
 0001:00004dea       _buildinfo                 00405dea f   misc.obj
 0001:00004e84       _out_of_memory             00405e84 f   misc.obj
 0001:00004e90       _BinarySink_put_mp_ssh1    00405e90 f   mpint.obj
 0001:00004ef7       _BinarySink_put_mp_ssh2    00405ef7 f   mpint.obj
 0001:00004f3b       _BinarySource_get_mp_ssh1  00405f3b f   mpint.obj
 0001:00004faa       _BinarySource_get_mp_ssh2  00405faa f   mpint.obj
 0001:00004ff8       _modsqrt_new               00405ff8 f   mpint.obj
 0001:00005085       _monty_add                 00406085 f   mpint.obj
 0001:000050cc       _monty_export              004060cc f   mpint.obj
 0001:000050ef       _monty_export_into         004060ef f   mpint.obj
 0001:0000514e       _monty_free                0040614e f   mpint.obj
 0001:00005198       _monty_identity            00406198 f   mpint.obj
 0001:000051a0       _monty_import              004061a0 f   mpint.obj
 0001:000051b6       _monty_import_into         004061b6 f   mpint.obj
 0001:000051db       _monty_invert              004061db f   mpint.obj
 0001:00005208       _monty_modsqrt             00406208 f   mpint.obj
 0001:000053d0       _monty_mul                 004063d0 f   mpint.obj
 0001:000053f7       _monty_mul_into            004063f7 f   mpint.obj
 0001:000054b3       _monty_new                 004064b3 f   mpint.obj
 0001:0000556f       _monty_pow                 0040656f f   mpint.obj
 0001:0000575d       _monty_sub                 0040675d f   mpint.obj
 0001:0000579c       _mp_add                    0040679c f   mpint.obj
 0001:000057c8       _mp_add_integer_into       004067c8 f   mpint.obj
 0001:000058af       _mp_add_into               004068af f   mpint.obj
 0001:00005c84       _mp_clear                  00406c84 f   mpint.obj
 0001:00005c99       _mp_cmp_eq                 00406c99 f   mpint.obj
 0001:00005ce7       _mp_cmp_hs                 00406ce7 f   mpint.obj
 0001:00005d0a       _mp_cond_add_into          00406d0a f   mpint.obj
 0001:00005d32       _mp_cond_clear             00406d32 f   mpint.obj
 0001:00005d52       _mp_cond_sub_into          00406d52 f   mpint.obj
 0001:00005d7d       _mp_cond_swap              00406d7d f   mpint.obj
 0001:00005ddc       _mp_copy                   00406ddc f   mpint.obj
 0001:00005e05       _mp_copy_into              00406e05 f   mpint.obj
 0001:00005e42       _mp_div                    00406e42 f   mpint.obj
 0001:00005e66       _mp_divmod_into            00406e66 f   mpint.obj
 0001:000063b0       _mp_eq_integer             004073b0 f   mpint.obj
 0001:000064ff       _mp_free                   004074ff f   mpint.obj
 0001:0000651b       _mp_from_bytes_be          0040751b f   mpint.obj
 0001:00006591       _mp_from_bytes_le          00407591 f   mpint.obj
 0001:000065a6       _mp_from_decimal           004075a6 f   mpint.obj
 0001:000065bd       _mp_from_decimal_pl        004075bd f   mpint.obj
 0001:0000663b       _mp_from_hex               0040763b f   mpint.obj
 0001:00006652       _mp_from_hex_pl            00407652 f   mpint.obj
 0001:00006720       _mp_from_integer           00407720 f   mpint.obj
 0001:00006758       _mp_get_bit                00407758 f   mpint.obj
 0001:00006778       _mp_get_byte               00407778 f   mpint.obj
 0001:00006798       _mp_get_decimal            00407798 f   mpint.obj
 0001:0000696b       _mp_get_hex                0040796b f   mpint.obj
 0001:00006a02       _mp_get_integer            00407a02 f   mpint.obj
 0001:00006a42       _mp_get_nbits              00407a42 f   mpint.obj
 0001:00006a9c       _mp_hs_integer             00407a9c f   mpint.obj
 0001:00006af6       _mp_invert                 00407af6 f   mpint.obj
 0001:00006b1a       _mp_invert_mod_2to         00407b1a f   mpint.obj
 0001:00006e05       _mp_lshift_fixed_into      00407e05 f   mpint.obj
 0001:00006ecb       _mp_max                    00407ecb f   mpint.obj
 0001:00006ef6       _mp_max_bits               00407ef6 f   mpint.obj
 0001:00006f00       _mp_max_bytes              00407f00 f   mpint.obj
 0001:00006f0a       _mp_max_into               00407f0a f   mpint.obj
 0001:00006f2c       _mp_min                    00407f2c f   mpint.obj
 0001:00006f57       _mp_min_into               00407f57 f   mpint.obj
 0001:00006f79       _mp_mod                    00407f79 f   mpint.obj
 0001:00006f9d       _mp_modadd                 00407f9d f   mpint.obj
 0001:00006fc8       _mp_modmul                 00407fc8 f   mpint.obj
 0001:00006ff3       _mp_modpow                 00407ff3 f   mpint.obj
 0001:00007079       _mp_mul                    00408079 f   mpint.obj
 0001:00007191       _mp_mul_integer_into       00408191 f   mpint.obj
 0001:000074df       _mp_mul_into               004084df f   mpint.obj
 0001:00007522       _mp_neg_into               00408522 f   mpint.obj
 0001:00007541       _mp_new                    00408541 f   mpint.obj
 0001:00007553       _mp_or_into                00408553 f   mpint.obj
 0001:00007588       _mp_power_2                00408588 f   mpint.obj
 0001:000075aa       _mp_random_bits_fn         004085aa f   mpint.obj
 0001:000075fd       _mp_random_in_range_fn     004085fd f   mpint.obj
 0001:0000764c       _mp_reduce_mod_2to         0040864c f   mpint.obj
 0001:00007674       _mp_rshift_fixed           00408674 f   mpint.obj
 0001:000076ad       _mp_rshift_fixed_into      004086ad f   mpint.obj
 0001:00007718       _mp_rshift_safe            00408718 f   mpint.obj
 0001:0000783f       _mp_select_into            0040883f f   mpint.obj
 0001:00007883       _mp_set_bit                00408883 f   mpint.obj
 0001:000078d2       _mp_sub                    004088d2 f   mpint.obj
 0001:000078fd       _mp_sub_integer_into       004088fd f   mpint.obj
 0001:00007921       _mp_sub_into               00408921 f   mpint.obj
 0001:00007ab5       __get_startup_thread_locale_mode 00408ab5 f   LIBCMT:thread_locale.obj
 0001:00007ab5       __matherr                  00408ab5 f   LIBCMT:matherr.obj
 0001:00007ab5       __get_startup_new_mode     00408ab5 f   LIBCMT:new_mode.obj
 0001:00007ab5       ___scrt_initialize_winrt   00408ab5 f   LIBCMT:utility_desktop.obj
 0001:00007ab5       _import_ssh1               00408ab5 f   import.obj
 0001:00007ab5       _schedule_timer            00408ab5 f   notiming.obj
 0001:00007ab5       __get_startup_commit_mode  00408ab5 f   LIBCMT:commit_mode.obj
 0001:0000d0c7       _aes256_decrypt_pubkey     0040e0c7 f   sshauxcrypt.obj
 0001:0000d0ec       _aes256_encrypt_pubkey     0040e0ec f   sshauxcrypt.obj
 0001:0000d166       _des3_decrypt_pubkey       0040e166 f   sshauxcrypt.obj
 0001:0000d18b       _des3_decrypt_pubkey_ossh  0040e18b f   sshauxcrypt.obj
 0001:0000d1b4       _des3_encrypt_pubkey       0040e1b4 f   sshauxcrypt.obj
 0001:0000d1d9       _des3_encrypt_pubkey_ossh  0040e1d9 f   sshauxcrypt.obj
 0001:0000d2a6       _hash_simple               0040e2a6 f   sshauxcrypt.obj
 0001:0000d2cf       _mac_simple                0040e2cf f   sshauxcrypt.obj
 0001:0000d312       _bcrypt_genblock           0040e312 f   sshbcrypt.obj
 0001:0000d39f       _bcrypt_hash               0040e39f f   sshbcrypt.obj
 0001:0000d3ea       _bcrypt_setup              0040e3ea f   sshbcrypt.obj
 0001:0000d442       _openssh_bcrypt            0040e442 f   sshbcrypt.obj
 0001:0000df46       _blowfish_expandkey        0040ef46 f   sshblowf.obj
 0001:0000e2c8       _blowfish_free_context     0040f2c8 f   sshblowf.obj
 0001:0000e2cd       _blowfish_initkey          0040f2cd f   sshblowf.obj
 0001:0000e51f       _blowfish_lsb_encrypt_ecb  0040f51f f   sshblowf.obj
 0001:0000e5c3       _blowfish_make_context     0040f5c3 f   sshblowf.obj
 0001:0000f548       _des_key_setup             00410548 f   sshdes.obj
 0001:0000fe53       _dss_gen_k                 00410e53 f   sshdss.obj
 0001:0000ff48       _dsa_generate              00410f48 f   sshdssg.obj
 0001:000117ed       _ec_alg_by_oid             004127ed f   sshecc.obj
 0001:00011834       _ec_alg_oid                00412834 f   sshecc.obj
 0001:00011848       _ec_ed_alg_and_curve_by_bits 00412848 f   sshecc.obj
 0001:00011874       _ec_nist_alg_and_curve_by_bits 00412874 f   sshecc.obj
 0001:00011a44       _ecdsa_public              00412a44 f   sshecc.obj
 0001:00011c1a       _eddsa_public              00412c1a f   sshecc.obj
 0001:00011e05       _ecdsa_generate            00412e05 f   sshecdsag.obj
 0001:00011e60       _eddsa_generate            00412e60 f   sshecdsag.obj
 0001:00012272       _MD5Final                  00413272 f   sshmd5.obj
 0001:0001237b       _MD5Init                   0041337b f   sshmd5.obj
 0001:00012ffb       _invent_firstbits          00413ffb f   sshprime.obj
 0001:00013256       _primegen                  00414256 f   sshprime.obj
 0001:0001371c       _prng_add_entropy          0041471c f   sshprng.obj
 0001:00013822       _prng_new                  00414822 f   sshprng.obj
 0001:000138a9       _prng_read                 004148a9 f   sshprng.obj
 0001:00013990       _prng_seed_begin           00414990 f   sshprng.obj
 0001:000139d7       _prng_seed_bits            004149d7 f   sshprng.obj
 0001:000139e5       _prng_seed_finish          004149e5 f   sshprng.obj
 0001:00013a81       __vsnprintf_l              00414a81 f i sshpubk.obj
 0001:00013ab3       _base64_encode             00414ab3 f   sshpubk.obj
 0001:00013b25       _find_pubkey_alg           00414b25 f   sshpubk.obj
 0001:00013b3c       _find_pubkey_alg_len       00414b3c f   sshpubk.obj
 0001:00013bf8       _key_type                  00414bf8 f   sshpubk.obj
 0001:00013e72       _key_type_to_str           00414e72 f   sshpubk.obj
 0001:000140c3       _rsa_ssh1_encrypted        004150c3 f   sshpubk.obj
 0001:000143ae       _rsa_ssh1_loadkey          004153ae f   sshpubk.obj
 0001:00014468       _rsa_ssh1_savekey          00415468 f   sshpubk.obj
 0001:000145fb       _sprintf                   004155fb f i sshpubk.obj
 0001:00014615       _ssh1_pubkey_str           00415615 f   sshpubk.obj
 0001:00014678       _ssh1_write_pubkey         00415678 f   sshpubk.obj
 0001:0001469e       _ssh2_fingerprint          0041569e f   sshpubk.obj
 0001:000146d0       _ssh2_fingerprint_blob     004156d0 f   sshpubk.obj
 0001:000147c7       _ssh2_load_userkey         004157c7 f   sshpubk.obj
 0001:00014e99       _ssh2_pubkey_openssh_str   00415e99 f   sshpubk.obj
 0001:00014fd2       _ssh2_save_userkey         00415fd2 f   sshpubk.obj
 0001:0001530a       _ssh2_userkey_encrypted    0041630a f   sshpubk.obj
 0001:00015463       _ssh2_write_pubkey         00416463 f   sshpubk.obj
 0001:000155e6       _random_add_noise          004165e6 f   sshrand.obj
 0001:00015671       _random_get_savedata       00416671 f   sshrand.obj
 0001:000156ab       _random_read               004166ab f   sshrand.obj
 0001:000156e2       _random_reseed             004166e2 f   sshrand.obj
 0001:00015712       _random_save_seed          00416712 f   sshrand.obj
 0001:00015747       _random_seed_bits          00416747 f   sshrand.obj
 0001:0001578e       _random_setup_special      0041678e f   sshrand.obj
 0001:00015ca2       _rsa2_invalid              00416ca2 f   sshrsa.obj
 0001:00015cfa       _BinarySource_get_rsa_ssh1_priv 00416cfa f   sshrsa.obj
 0001:00015d0f       _BinarySource_get_rsa_ssh1_pub 00416d0f f   sshrsa.obj
 0001:00015d7e       _crt_modpow                00416d7e f   sshrsa.obj
 0001:00015ec6       _freersakey                00416ec6 f   sshrsa.obj
 0001:00015f0d       _freersapriv               00416f0d f   sshrsa.obj
 0001:000160b4       _rsa_ssh1_fingerprint      004170b4 f   sshrsa.obj
 0001:000161b5       _rsa_ssh1_public_blob      004171b5 f   sshrsa.obj
 0001:00016206       _rsa_verify                00417206 f   sshrsa.obj
 0001:00016325       _rsastr_fmt                00417325 f   sshrsa.obj
 0001:00016350       _rsa_generate              00417350 f   sshrsag.obj
 0001:000170f9       _SHA384_Final              004180f9 f   sshsh512.obj
 0001:00017138       _SHA384_Init               00418138 f   sshsh512.obj
 0001:00018028       _SHA512_Final              00419028 f   sshsh512.obj
 0001:00018161       _SHA512_Init               00419161 f   sshsh512.obj
 0001:00018ad6       _add234                    00419ad6 f   tree234.obj
 0001:00019038       _find234                   0041a038 f   tree234.obj
 0001:00019051       _findrelpos234             0041a051 f   tree234.obj
 0001:00019153       _index234                  0041a153 f   tree234.obj
 0001:000191cd       _newtree234                0041a1cd f   tree234.obj
 0001:000191e6       _search234_start           0041a1e6 f   tree234.obj
 0001:00019206       _search234_step            0041a206 f   tree234.obj
 0001:000192e9       _base64_decode_atom        0041a2e9 f   utils.obj
 0001:000193d5       _base64_encode_atom        0041a3d5 f   utils.obj
 0001:00019454       _burnstr                   0041a454 f   utils.obj
 0001:00019475       _dupcat_fn                 0041a475 f   utils.obj
 0001:000194f4       _dupprintf                 0041a4f4 f   utils.obj
 0001:00019505       _dupstr                    0041a505 f   utils.obj
 0001:00019534       _dupvprintf                0041a534 f   utils.obj
 0001:000195cc       _fgetline                  0041a5cc f   utils.obj
 0001:00019656       _mkstr                     0041a656 f   utils.obj
 0001:00019685       _ptrlen_eq_ptrlen          0041a685 f   utils.obj
 0001:000196a9       _ptrlen_eq_string          0041a6a9 f   utils.obj
 0001:000196d3       _smemeq                    0041a6d3 f   utils.obj
 0001:00019732       _strbuf_append             0041a732 f   utils.obj
 0001:00019772       _strbuf_catf               0041a772 f   utils.obj
 0001:00019788       _strbuf_catfv              0041a788 f   utils.obj
 0001:000197bd       _strbuf_free               0041a7bd f   utils.obj
 0001:000197e9       _strbuf_new                0041a7e9 f   utils.obj
 0001:00019839       _strbuf_new_nm             0041a839 f   utils.obj
 0001:00019842       _strbuf_to_str             0041a842 f   utils.obj
 0001:00019858       _strendswith               0041a858 f   utils.obj
 0001:00019890       _string_length_for_printf  0041a890 f   utils.obj
 0001:0001989f       _strstartswith             0041a89f f   utils.obj
 0001:000198bf       _vsnprintf                 0041a8bf f i utils.obj
 0001:000198f0       _beginbox                  0041a8f0 f   winctrls.obj
 0001:00019927       _bigeditctrl               0041a927 f   winctrls.obj
 0001:000199e5       _ctlposinit                0041a9e5 f   winctrls.obj
 0001:00019a71       _doctl                     0041aa71 f   winctrls.obj
 0001:00019b44       _endbox                    0041ab44 f   winctrls.obj
 0001:00019bb3       _init_common_controls      0041abb3 f   winctrls.obj
 0001:00019c38       _progressbar               0041ac38 f   winctrls.obj
 0001:00019c95       _radioline                 0041ac95 f   winctrls.obj
 0001:00019e5e       _static2btn                0041ae5e f   winctrls.obj
 0001:00019f7f       _staticbtn                 0041af7f f   winctrls.obj
 0001:0001a03c       _staticddl                 0041b03c f   winctrls.obj
 0001:0001a107       _staticedit                0041b107 f   winctrls.obj
 0001:0001a1f5       _staticpassedit            0041b1f5 f   winctrls.obj
 0001:0001a213       _statictext                0041b213 f   winctrls.obj
 0001:0001a2d0       _has_embedded_chm          0041b2d0 f   winhelp.obj
 0001:0001a307       _has_help                  0041b307 f   winhelp.obj
 0001:0001a320       _init_help                 0041b320 f   winhelp.obj
 0001:0001a3a0       _launch_help               0041b3a0 f   winhelp.obj
 0001:0001a590       _quit_help                 0041b590 f   winhelp.obj
 0001:0001a5c0       _shutdown_help             0041b5c0 f   winhelp.obj
 0001:0001a605       _dll_hijacking_protection  0041b605 f   winmisc.obj
 0001:0001a66b       _filename_free             0041b66b f   winmisc.obj
 0001:0001a681       _filename_from_str         0041b681 f   winmisc.obj
 0001:0001a6a1       _filename_to_str           0041b6a1 f   winmisc.obj
 0001:0001a6a8       _load_system32_dll         0041b6a8 f   winmisc.obj
 0001:0001a721       _registry_get_string       0041b721 f   winmisc.obj
 0001:0001a7d7       _win_strerror              0041b7d7 f   winmisc.obj
 0001:0001a8e8       _smemclr                   0041b8e8 f   winmiscs.obj
 0001:0001a902       _noise_get_heavy           0041b902 f   winnoise.obj
 0001:0001a9d9       _noise_regular             0041b9d9 f   winnoise.obj
 0001:0001aaee       _prng_reseed_time_ms       0041baee f   winnoise.obj
 0001:0001ab1a       _win_read_random           0041bb1a f   winnoise.obj
 0001:0001c16d       _WinMain@16                0041d16d f   winpgen.obj
 0001:0001c25f       _cleanup_exit              0041d25f f   winpgen.obj
 0001:0001c346       _load_key_file             0041d346 f   winpgen.obj
 0001:0001c6a3       _modalfatalbox             0041d6a3 f   winpgen.obj
 0001:0001c6d8       _nonfatal                  0041d6d8 f   winpgen.obj
 0001:0001c707       _old_keyfile_warning       0041d707 f   winpgen.obj
 0001:0001ca01       _ui_set_key_type           0041da01 f   winpgen.obj
 0001:0001ca39       _ui_set_state              0041da39 f   winpgen.obj
 0001:0001ce03       _ui_update_key_type_ctrls  0041de03 f   winpgen.obj
 0001:0001ce89       _get_user_sid              0041de89 f   winsecur.obj
 0001:0001cfa8       _getsids                   0041dfa8 f   winsecur.obj
 0001:0001d08e       _got_advapi                0041e08e f   winsecur.obj
 0001:0001d298       _restrict_process_acl      0041e298 f   winsecur.obj
 0001:0001d4e2       _read_random_seed          0041e4e2 f   winstore.obj
 0001:0001d61f       _write_random_seed         0041e61f f   winstore.obj
 0001:0001d652       _ltime                     0041e652 f   wintime.obj
 0001:0001d6d9       _GetDlgItemText_alloc      0041e6d9 f   winutils.obj
 0001:0001d72b       _message_box               0041e72b f   winutils.obj
 0001:0001d7e2       _pgp_fingerprints          0041e7e2 f   winutils.obj
 0001:0001d7f9       _request_file              0041e7f9 f   winutils.obj
 0001:0001d8ad       _split_into_argv           0041e8ad f   winutils.obj
 0001:0001daf6       @__security_check_cookie@4 0041eaf6 f   LIBCMT:_secchk_.obj
 0001:0001db10       __allmul                   0041eb10 f   LIBCMT:llmul.obj
 0001:0001db50       __allshl                   0041eb50 f   LIBCMT:llshl.obj
 0001:0001db70       __aullshr                  0041eb70 f   LIBCMT:ullshr.obj
 0001:0001db8f       ___raise_securityfailure   0041eb8f f   LIBCMT:gs_report.obj
 0001:0001dbb7       ___report_gsfailure        0041ebb7 f   LIBCMT:gs_report.obj
 0001:0001dcb2       ___report_rangecheckfailure 0041ecb2 f   LIBCMT:gs_report.obj
 0001:0001dcbe       ___report_securityfailure  0041ecbe f   LIBCMT:gs_report.obj
 0001:0001dd90       __chkstk                   0041ed90 f   LIBCMT:chkstk.obj
 0001:0001dd90       __alloca_probe             0041ed90 f   LIBCMT:chkstk.obj
 0001:0001ddc0       __aulldiv                  0041edc0 f   LIBCMT:ulldiv.obj
 0001:0001e04e       _WinMainCRTStartup         0041f04e f   LIBCMT:exe_winmain.obj
 0001:0001e058       ??$__crt_fast_encode_pointer@PAX@@YAPAXQAX@Z 0041f058 f i libvcruntime:winapi_downlevel.obj
 0001:0001e058       ??$__crt_fast_encode_pointer@PAP6AXXZ@@YAPAP6AXXZQAP6AXXZ@Z 0041f058 f i LIBCMT:utility.obj
 0001:0001e0b9       ___scrt_acquire_startup_lock 0041f0b9 f   LIBCMT:utility.obj
 0001:0001e0ee       ___scrt_initialize_crt     0041f0ee f   LIBCMT:utility.obj
 0001:0001e127       ___scrt_initialize_onexit_tables 0041f127 f   LIBCMT:utility.obj
 0001:0001e1be       ___scrt_is_nonwritable_in_current_image 0041f1be f   LIBCMT:utility.obj
 0001:0001e248       ___scrt_release_startup_lock 0041f248 f   LIBCMT:utility.obj
 0001:0001e265       ___scrt_uninitialize_crt   0041f265 f   LIBCMT:utility.obj
 0001:0001e28d       __onexit                   0041f28d f   LIBCMT:utility.obj
 0001:0001e2c8       _atexit                    0041f2c8 f   LIBCMT:utility.obj
 0001:0001e2dd       ___security_init_cookie    0041f2dd f   LIBCMT:gs_support.obj
 0001:0001e379       __get_startup_argv_mode    0041f379 f   LIBCMT:argv_mode.obj
 0001:0001e37d       __get_startup_file_mode    0041f37d f   LIBCMT:file_mode.obj
 0001:0001e383       ?__scrt_initialize_type_info@@YAXXZ 0041f383 f   LIBCMT:tncleanup.obj
 0001:0001e38f       __initialize_default_precision 0041f38f f   LIBCMT:default_precision.obj
 0001:0001e3b0       ___scrt_initialize_default_local_stdio_options 0041f3b0 f   LIBCMT:default_local_stdio_options.obj
 0001:0001e3cd       ___scrt_is_user_matherr_present 0041f3cd f   LIBCMT:matherr_detection.obj
 0001:0001e3d9       ___scrt_get_dyn_tls_init_callback 0041f3d9 f   LIBCMT:dyn_tls_init.obj
 0001:0001e3df       ___scrt_get_dyn_tls_dtor_callback 0041f3df f   LIBCMT:dyn_tls_dtor.obj
 0001:0001e3e5       ___scrt_fastfail           0041f3e5 f   LIBCMT:utility_desktop.obj
 0001:0001e500       ___scrt_get_show_window_mode 0041f500 f   LIBCMT:utility_desktop.obj
 0001:0001e533       ___scrt_set_unhandled_exception_filter 0041f533 f   LIBCMT:utility_desktop.obj
 0001:0001e53f       ___scrt_unhandled_exception_filter@4 0041f53f f   LIBCMT:utility_desktop.obj
 0001:0001e580       __crt_debugger_hook        0041f580 f   LIBCMT:utility_desktop.obj
 0001:0001e588       __RTC_Initialize           0041f588 f   LIBCMT:_initsect_.obj
 0001:0001e5b3       __RTC_Terminate            0041f5b3 f   LIBCMT:_initsect_.obj
 0001:0001e5de       @_guard_check_icall@4      0041f5de f i LIBCMT:checkcfg.obj
 0001:0001e5f0       __SEH_prolog4              0041f5f0 f   LIBCMT:_sehprolg4_.obj
 0001:0001e636       __SEH_epilog4              0041f636 f   LIBCMT:_sehprolg4_.obj
 0001:0001e64b       ___isa_available_init      0041f64b f   LIBCMT:_cpu_disp_.obj
 0001:0001e7e5       ___scrt_is_ucrt_dll_in_use 0041f7e5 f   LIBCMT:ucrt_detection.obj
 0001:0001e7f1       ___except_validate_jump_buffer 0041f7f1 f i libvcruntime:jbcxrval.obj
 0001:0001e7f1       @_guard_check_icall_nop@4  0041f7f1 f i LIBCMT:guard_support.obj
 0001:0001e7f1       __initialize_invalid_parameter_handler 0041f7f1 f i LIBCMT:invalid_parameter_handler.obj
 0001:0001e7f1       ___except_validate_context_record 0041f7f1 f i libvcruntime:jbcxrval.obj
 0001:0001e7f1       __initialize_denormal_control 0041f7f1 f i LIBCMT:denormal_control.obj
 0001:0001e7f2       _IsProcessorFeaturePresent@4 0041f7f2 f   kernel32:KERNEL32.dll
 0001:0001e7f8       _memcmp                    0041f7f8 f   libvcruntime:_memcmp_.obj
 0001:0001ff80       _memset                    00420f80 f   libvcruntime:memset.obj
 0001:000200e0       _strchr                    004210e0 f   libvcruntime:strchr.obj
 0001:0002014e       ___from_strstr_to_strchr   0042114e     libvcruntime:strchr.obj
 0001:00020210       _memchr                    00421210 f   libvcruntime:memchr.obj
 0001:000202c0       _memcpy                    004212c0 f   libvcruntime:memcpy.obj
 0001:00020840       _memmove                   00421840 f   libvcruntime:memmove.obj
 0001:00020dc0       _strstr                    00421dc0 f   libvcruntime:strstr.obj
 0001:00021070       __except_handler4          00422070 f   libvcruntime:_chandler4_.obj
 0001:000211d6       ___vcrt_initialize         004221d6 f   libvcruntime:initialization.obj
 0001:000211ff       ___vcrt_uninitialize       004221ff f   libvcruntime:initialization.obj
 0001:00021220       __local_unwind4            00422220 f   libvcruntime:_exsup4_.obj
 0001:000212f6       __seh_longjmp_unwind4@4    004222f6 f   libvcruntime:_exsup4_.obj
 0001:0002131e       @_EH4_CallFilterFunc@8     0042231e f   libvcruntime:_exsup4_.obj
 0001:00021335       @_EH4_TransferToHandler@8  00422335 f   libvcruntime:_exsup4_.obj
 0001:0002134e       @_EH4_GlobalUnwind2@8      0042234e f   libvcruntime:_exsup4_.obj
 0001:00021367       @_EH4_LocalUnwind@16       00422367 f   libvcruntime:_exsup4_.obj
 0001:0002137e       ___vcrt_freefls@4          0042237e f   libvcruntime:per_thread_data.obj
 0001:0002139a       ___vcrt_initialize_ptd     0042239a f   libvcruntime:per_thread_data.obj
 0001:000213cd       ___vcrt_uninitialize_ptd   004223cd f   libvcruntime:per_thread_data.obj
 0001:000213e8       ___vcrt_initialize_locks   004223e8 f   libvcruntime:locks.obj
 0001:00021424       ___vcrt_uninitialize_locks 00422424 f   libvcruntime:locks.obj
 0001:00021574       ___vcrt_FlsAlloc           00422574 f   libvcruntime:winapi_downlevel.obj
 0001:000215ae       ___vcrt_FlsFree            004225ae f   libvcruntime:winapi_downlevel.obj
 0001:000215e8       ___vcrt_FlsSetValue        004225e8 f   libvcruntime:winapi_downlevel.obj
 0001:00021625       ___vcrt_InitializeCriticalSectionEx 00422625 f   libvcruntime:winapi_downlevel.obj
 0001:0002166b       ___vcrt_initialize_winapi_thunks 0042266b f   libvcruntime:winapi_downlevel.obj
 0001:000216a5       ___vcrt_uninitialize_winapi_thunks 004226a5 f   libvcruntime:winapi_downlevel.obj
 0001:000216d7       ___vcrt_initialize_pure_virtual_call_handler 004226d7 f   libvcruntime:purevirt_data.obj
 0001:00021700       __global_unwind2           00422700 f   libvcruntime:_exsup_.obj
 0001:00021765       __local_unwind2            00422765 f   libvcruntime:_exsup_.obj
 0001:000217e9       __abnormal_termination     004227e9 f   libvcruntime:_exsup_.obj
 0001:0002180c       __NLG_Notify1              0042280c f   libvcruntime:_exsup_.obj
 0001:00021815       __NLG_Notify               00422815 f   libvcruntime:_exsup_.obj
 0001:0002182c       __NLG_Dispatch             0042282c     libvcruntime:_exsup_.obj
 0001:0002182c       __NLG_Dispatch2            0042282c     libvcruntime:_exsup_.obj
 0001:00021834       __NLG_Call                 00422834 f   libvcruntime:_exsup_.obj
 0001:00021836       __NLG_Return2              00422836     libvcruntime:_exsup_.obj
 0001:00021e9b       ??$ftprintf@PAU_iobuf@@PB_WABQB_WABQB_WABI@?$__crt_char_traits@_W@@SAH$$QAPAU_iobuf@@$$QAPB_WABQB_W2ABI@Z 00422e9b f i libucrt:assert.obj
 0001:00021f7a       __vfwprintf_l              00422f7a f i libucrt:assert.obj
 0001:00021f9f       __vswprintf_c_l            00422f9f f i libucrt:assert.obj
 0001:00021fce       __wassert                  00422fce f   libucrt:assert.obj
 0001:00022016       _fwprintf                  00423016 f i libucrt:assert.obj
 0001:00022031       _swprintf                  00423031 f i libucrt:assert.obj
 0001:00022050       _strcmp                    00423050 f   libucrt:strcmp.obj
 0001:000220dc       __fclose_nolock            004230dc f   libucrt:fclose.obj
 0001:00022152       _fclose                    00423152 f   libucrt:fclose.obj
 0001:00022293       _fopen                     00423293 f   libucrt:fopen.obj
 0001:000222aa       ??$?RV<lambda_b0cac3301889906f8da68b04e3d9a7f4>@@AAV<lambda_9a20e10065b92b5193c3597a66cba9d4>@@V<lambda_24b35df97fd4c1fecac72a72d95cc146>@@@?$__crt_seh_guarded_call@H@@QAEH$$QAV<lambda_b0cac3301889906f8da68b04e3d9a7f4>@@AAV<lambda_9a20e10065b92b5193c3597a66cba9d4>@@$$QAV<lambda_24b35df97fd4c1fecac72a72d95cc146>@@@Z 004232aa f i libucrt:fputs.obj
 0001:000222fb       ??$__acrt_lock_stream_and_call@V<lambda_9a20e10065b92b5193c3597a66cba9d4>@@@@YAHQAU_iobuf@@$$QAV<lambda_9a20e10065b92b5193c3597a66cba9d4>@@@Z 004232fb f i libucrt:fputs.obj
 0001:00022371       _fputs                     00423371 f   libucrt:fputs.obj
 0001:0002244c       ??$?RV<lambda_ab9923ffb5d694ec0d78876dd103e44f>@@AAV<lambda_481dd5778c961fbcd3b60b650e9b9dc4>@@V<lambda_7923d86c9e3f319b415918ec4b39749c>@@@?$__crt_seh_guarded_call@H@@QAEH$$QAV<lambda_ab9923ffb5d694ec0d78876dd103e44f>@@AAV<lambda_481dd5778c961fbcd3b60b650e9b9dc4>@@$$QAV<lambda_7923d86c9e3f319b415918ec4b39749c>@@@Z 0042344c f i libucrt:output.obj
 0001:0002249d       ??$?RV<lambda_db08b09ef7aa9d4f8620ce68402612bc>@@AAV<lambda_4f2c1eaeead2a5fc776db5b62ea0fb9b>@@V<lambda_3ae262bc35d4ba6a3825c4f6bcaaf95c>@@@?$__crt_seh_guarded_call@H@@QAEH$$QAV<lambda_db08b09ef7aa9d4f8620ce68402612bc>@@AAV<lambda_4f2c1eaeead2a5fc776db5b62ea0fb9b>@@$$QAV<lambda_3ae262bc35d4ba6a3825c4f6bcaaf95c>@@@Z 0042349d f i libucrt:output.obj
 0001:000224ee       ??$__acrt_lock_stream_and_call@V<lambda_481dd5778c961fbcd3b60b650e9b9dc4>@@@@YAHQAU_iobuf@@$$QAV<lambda_481dd5778c961fbcd3b60b650e9b9dc4>@@@Z 004234ee f i libucrt:output.obj
 0001:00022516       ??$__acrt_lock_stream_and_call@V<lambda_4f2c1eaeead2a5fc776db5b62ea0fb9b>@@@@YAHQAU_iobuf@@$$QAV<lambda_4f2c1eaeead2a5fc776db5b62ea0fb9b>@@@Z 00423516 f i libucrt:output.obj
 0001:0002283f       ??$count@D@formatting_buffer@__crt_stdio_output@@QBEIXZ 0042383f f i libucrt:output.obj
 0001:00022857       ??$ensure_buffer_is_big_enough@D@formatting_buffer@__crt_stdio_output@@QAE_NI@Z 00423857 f i libucrt:output.obj
 0001:000228dd       ??$is_wide_character_specifier@D@__crt_stdio_output@@YA_N_KDW4length_modifier@0@@Z 004238dd f i libucrt:output.obj
 0001:0002291d       ??$is_wide_character_specifier@_W@__crt_stdio_output@@YA_N_K_WW4length_modifier@0@@Z 0042391d f i libucrt:output.obj
 0001:0002296c       ??$scratch_data@D@formatting_buffer@__crt_stdio_output@@QAEPADXZ 0042396c f i libucrt:output.obj
 0001:0002298a       ??$type_case_integer_parse_into_buffer@I@?$output_processor@DV?$string_output_adapter@D@__crt_stdio_output@@V?$standard_base@DV?$string_output_adapter@D@__crt_stdio_output@@@2@@__crt_stdio_output@@AAEXII_N@Z 0042398a f i libucrt:output.obj
 0001:0002298a       ??$type_case_integer_parse_into_buffer@I@?$output_processor@DV?$stream_output_adapter@D@__crt_stdio_output@@V?$standard_base@DV?$stream_output_adapter@D@__crt_stdio_output@@@2@@__crt_stdio_output@@AAEXII_N@Z 0042398a f i libucrt:output.obj
 0001:0002298a       ??$type_case_integer_parse_into_buffer@I@?$output_processor@_WV?$string_output_adapter@_W@__crt_stdio_output@@V?$standard_base@_WV?$string_output_adapter@_W@__crt_stdio_output@@@2@@__crt_stdio_output@@AAEXII_N@Z 0042398a f i libucrt:output.obj
 0001:0002298a       ??$type_case_integer_parse_into_buffer@I@?$output_processor@_WV?$stream_output_adapter@_W@__crt_stdio_output@@V?$standard_base@_WV?$stream_output_adapter@_W@__crt_stdio_output@@@2@@__crt_stdio_output@@AAEXII_N@Z 0042398a f i libucrt:output.obj
 0001:000229ff       ??$type_case_integer_parse_into_buffer@_K@?$output_processor@DV?$stream_output_adapter@D@__crt_stdio_output@@V?$standard_base@DV?$stream_output_adapter@D@__crt_stdio_output@@@2@@__crt_stdio_output@@AAEX_KI_N@Z 004239ff f i libucrt:output.obj
 0001:000229ff       ??$type_case_integer_parse_into_buffer@_K@?$output_processor@_WV?$stream_output_adapter@_W@__crt_stdio_output@@V?$standard_base@_WV?$stream_output_adapter@_W@__crt_stdio_output@@@2@@__crt_stdio_output@@AAEX_KI_N@Z 004239ff f i libucrt:output.obj
 0001:000229ff       ??$type_case_integer_parse_into_buffer@_K@?$output_processor@DV?$string_output_adapter@D@__crt_stdio_output@@V?$standard_base@DV?$string_output_adapter@D@__crt_stdio_output@@@2@@__crt_stdio_output@@AAEX_KI_N@Z 004239ff f i libucrt:output.obj
 0001:000229ff       ??$type_case_integer_parse_into_buffer@_K@?$output_processor@_WV?$string_output_adapter@_W@__crt_stdio_output@@V?$standard_base@_WV?$string_output_adapter@_W@__crt_stdio_output@@@2@@__crt_stdio_output@@AAEX_KI_N@Z 004239ff f i libucrt:output.obj
 0001:00022a87       ??$write_multiple_characters@V?$stream_output_adapter@D@__crt_stdio_output@@D@__crt_stdio_output@@YAXABV?$stream_output_adapter@D@0@DHQAH@Z 00423a87 f i libucrt:output.obj
 0001:00022ab3       ??$write_multiple_characters@V?$stream_output_adapter@_W@__crt_stdio_output@@D@__crt_stdio_output@@YAXABV?$stream_output_adapter@_W@0@DHQAH@Z 00423ab3 f i libucrt:output.obj
 0001:00022ae4       ??$write_multiple_characters@V?$string_output_adapter@D@__crt_stdio_output@@D@__crt_stdio_output@@YAXABV?$string_output_adapter@D@0@DHQAH@Z 00423ae4 f i libucrt:output.obj
 0001:00022b10       ??$write_multiple_characters@V?$string_output_adapter@_W@__crt_stdio_output@@D@__crt_stdio_output@@YAXABV?$string_output_adapter@_W@0@DHQAH@Z 00423b10 f i libucrt:output.obj
 0001:00022b41       ??0?$common_data@D@__crt_stdio_output@@IAE@XZ 00423b41 f i libucrt:output.obj
 0001:00022b88       ??0?$common_data@_W@__crt_stdio_output@@IAE@XZ 00423b88 f i libucrt:output.obj
 0001:00022bd4       ??0?$output_adapter_data@DV?$string_output_adapter@D@__crt_stdio_output@@@__crt_stdio_output@@IAE@ABV?$string_output_adapter@D@1@_KQBDQAU__crt_locale_pointers@@QAD@Z 00423bd4 f i libucrt:output.obj
 0001:00022bd4       ??0?$output_adapter_data@DV?$stream_output_adapter@D@__crt_stdio_output@@@__crt_stdio_output@@IAE@ABV?$stream_output_adapter@D@1@_KQBDQAU__crt_locale_pointers@@QAD@Z 00423bd4 f i libucrt:output.obj
 0001:00022c10       ??0?$output_adapter_data@_WV?$string_output_adapter@_W@__crt_stdio_output@@@__crt_stdio_output@@IAE@ABV?$string_output_adapter@_W@1@_KQB_WQAU__crt_locale_pointers@@QAD@Z 00423c10 f i libucrt:output.obj
 0001:00022c10       ??0?$output_adapter_data@_WV?$stream_output_adapter@_W@__crt_stdio_output@@@__crt_stdio_output@@IAE@ABV?$stream_output_adapter@_W@1@_KQB_WQAU__crt_locale_pointers@@QAD@Z 00423c10 f i libucrt:output.obj
 0001:00022c4c       ??0?$output_processor@DV?$string_output_adapter@D@__crt_stdio_output@@V?$standard_base@DV?$string_output_adapter@D@__crt_stdio_output@@@2@@__crt_stdio_output@@QAE@ABV?$string_output_adapter@D@1@_KQBDQAU__crt_locale_pointers@@QAD@Z 00423c4c f i libucrt:output.obj
 0001:00022c4c       ??0?$output_processor@DV?$stream_output_adapter@D@__crt_stdio_output@@V?$standard_base@DV?$stream_output_adapter@D@__crt_stdio_output@@@2@@__crt_stdio_output@@QAE@ABV?$stream_output_adapter@D@1@_KQBDQAU__crt_locale_pointers@@QAD@Z 00423c4c f i libucrt:output.obj
 0001:00022c81       ??0?$output_processor@_WV?$string_output_adapter@_W@__crt_stdio_output@@V?$standard_base@_WV?$string_output_adapter@_W@__crt_stdio_output@@@2@@__crt_stdio_output@@QAE@ABV?$string_output_adapter@_W@1@_KQB_WQAU__crt_locale_pointers@@QAD@Z 00423c81 f i libucrt:output.obj
 0001:00022c81       ??0?$output_processor@_WV?$stream_output_adapter@_W@__crt_stdio_output@@V?$standard_base@_WV?$stream_output_adapter@_W@__crt_stdio_output@@@2@@__crt_stdio_output@@QAE@ABV?$stream_output_adapter@_W@1@_KQB_WQAU__crt_locale_pointers@@QAD@Z 00423c81 f i libucrt:output.obj
 0001:00022cb6       ??0_LocaleUpdate@@QAE@QAU__crt_locale_pointers@@@Z 00423cb6 f i libucrt:output.obj
 0001:00022d39       ??1formatting_buffer@__crt_stdio_output@@QAE@XZ 00423d39 f i libucrt:output.obj
 0001:00022d53       ??4?$__crt_unique_heap_ptr@DU__crt_internal_free_policy@@@@QAEAAV0@$$QAV0@@Z 00423d53 f i libucrt:output.obj
 0001:00022ef1       ?crop_zeroes@__crt_stdio_output@@YAXPADQAU__crt_locale_pointers@@@Z 00423ef1 f i libucrt:output.obj
 0001:00022f48       ?find_next_state@?$output_processor@DV?$string_output_adapter@D@__crt_stdio_output@@V?$standard_base@DV?$string_output_adapter@D@__crt_stdio_output@@@2@@__crt_stdio_output@@ABE?AW4state@2@DW432@@Z 00423f48 f i libucrt:output.obj
 0001:00022f48       ?find_next_state@?$output_processor@DV?$stream_output_adapter@D@__crt_stdio_output@@V?$standard_base@DV?$stream_output_adapter@D@__crt_stdio_output@@@2@@__crt_stdio_output@@ABE?AW4state@2@DW432@@Z 00423f48 f i libucrt:output.obj
 0001:00022f7a       ?find_next_state@?$output_processor@_WV?$stream_output_adapter@_W@__crt_stdio_output@@V?$standard_base@_WV?$stream_output_adapter@_W@__crt_stdio_output@@@2@@__crt_stdio_output@@ABE?AW4state@2@_WW432@@Z 00423f7a f i libucrt:output.obj
 0001:00022f7a       ?find_next_state@?$output_processor@_WV?$string_output_adapter@_W@__crt_stdio_output@@V?$standard_base@_WV?$string_output_adapter@_W@__crt_stdio_output@@@2@@__crt_stdio_output@@ABE?AW4state@2@_WW432@@Z 00423f7a f i libucrt:output.obj
 0001:00022fae       ?force_decimal_point@__crt_stdio_output@@YAXPADQAU__crt_locale_pointers@@@Z 00423fae f i libucrt:output.obj
 0001:0002300a       ?parse_int_from_format_string@?$output_processor@DV?$stream_output_adapter@D@__crt_stdio_output@@V?$standard_base@DV?$stream_output_adapter@D@__crt_stdio_output@@@2@@__crt_stdio_output@@AAE_NQAH@Z 0042400a f i libucrt:output.obj
 0001:0002300a       ?parse_int_from_format_string@?$output_processor@DV?$string_output_adapter@D@__crt_stdio_output@@V?$standard_base@DV?$string_output_adapter@D@__crt_stdio_output@@@2@@__crt_stdio_output@@AAE_NQAH@Z 0042400a f i libucrt:output.obj
 0001:00023066       ?parse_int_from_format_string@?$output_processor@_WV?$stream_output_adapter@_W@__crt_stdio_output@@V?$standard_base@_WV?$stream_output_adapter@_W@__crt_stdio_output@@@2@@__crt_stdio_output@@AAE_NQAH@Z 00424066 f i libucrt:output.obj
 0001:00023066       ?parse_int_from_format_string@?$output_processor@_WV?$string_output_adapter@_W@__crt_stdio_output@@V?$standard_base@_WV?$string_output_adapter@_W@__crt_stdio_output@@@2@@__crt_stdio_output@@AAE_NQAH@Z 00424066 f i libucrt:output.obj
 0001:000230c4       ?process@?$output_processor@DV?$stream_output_adapter@D@__crt_stdio_output@@V?$standard_base@DV?$stream_output_adapter@D@__crt_stdio_output@@@2@@__crt_stdio_output@@QAEHXZ 004240c4 f i libucrt:output.obj
 0001:000231e0       ?process@?$output_processor@DV?$string_output_adapter@D@__crt_stdio_output@@V?$standard_base@DV?$string_output_adapter@D@__crt_stdio_output@@@2@@__crt_stdio_output@@QAEHXZ 004241e0 f i libucrt:output.obj
 0001:000232fc       ?process@?$output_processor@_WV?$stream_output_adapter@_W@__crt_stdio_output@@V?$standard_base@_WV?$stream_output_adapter@_W@__crt_stdio_output@@@2@@__crt_stdio_output@@QAEHXZ 004242fc f i libucrt:output.obj
 0001:0002341c       ?process@?$output_processor@_WV?$string_output_adapter@_W@__crt_stdio_output@@V?$standard_base@_WV?$string_output_adapter@_W@__crt_stdio_output@@@2@@__crt_stdio_output@@QAEHXZ 0042441c f i libucrt:output.obj
 0001:0002353c       ?state_case_flag@?$output_processor@DV?$stream_output_adapter@D@__crt_stdio_output@@V?$standard_base@DV?$stream_output_adapter@D@__crt_stdio_output@@@2@@__crt_stdio_output@@AAE_NXZ 0042453c f i libucrt:output.obj
 0001:0002353c       ?state_case_flag@?$output_processor@DV?$string_output_adapter@D@__crt_stdio_output@@V?$standard_base@DV?$string_output_adapter@D@__crt_stdio_output@@@2@@__crt_stdio_output@@AAE_NXZ 0042453c f i libucrt:output.obj
 0001:00023579       ?state_case_flag@?$output_processor@_WV?$stream_output_adapter@_W@__crt_stdio_output@@V?$standard_base@_WV?$stream_output_adapter@_W@__crt_stdio_output@@@2@@__crt_stdio_output@@AAE_NXZ 00424579 f i libucrt:output.obj
 0001:00023579       ?state_case_flag@?$output_processor@_WV?$string_output_adapter@_W@__crt_stdio_output@@V?$standard_base@_WV?$string_output_adapter@_W@__crt_stdio_output@@@2@@__crt_stdio_output@@AAE_NXZ 00424579 f i libucrt:output.obj
 0001:000235b6       ?state_case_normal@?$output_processor@DV?$stream_output_adapter@D@__crt_stdio_output@@V?$standard_base@DV?$stream_output_adapter@D@__crt_stdio_output@@@2@@__crt_stdio_output@@AAE_NXZ 004245b6 f i libucrt:output.obj
 0001:000235d5       ?state_case_normal@?$output_processor@DV?$string_output_adapter@D@__crt_stdio_output@@V?$standard_base@DV?$string_output_adapter@D@__crt_stdio_output@@@2@@__crt_stdio_output@@AAE_NXZ 004245d5 f i libucrt:output.obj
 0001:000235f4       ?state_case_normal@?$output_processor@_WV?$stream_output_adapter@_W@__crt_stdio_output@@V?$standard_base@_WV?$stream_output_adapter@_W@__crt_stdio_output@@@2@@__crt_stdio_output@@AAE_NXZ 004245f4 f i libucrt:output.obj
 0001:00023613       ?state_case_normal@?$output_processor@_WV?$string_output_adapter@_W@__crt_stdio_output@@V?$standard_base@_WV?$string_output_adapter@_W@__crt_stdio_output@@@2@@__crt_stdio_output@@AAE_NXZ 00424613 f i libucrt:output.obj
 0001:00023632       ?state_case_normal_common@?$output_processor@DV?$stream_output_adapter@D@__crt_stdio_output@@V?$standard_base@DV?$stream_output_adapter@D@__crt_stdio_output@@@2@@__crt_stdio_output@@AAE_NXZ 00424632 f i libucrt:output.obj
 0001:0002365c       ?state_case_normal_common@?$output_processor@DV?$string_output_adapter@D@__crt_stdio_output@@V?$standard_base@DV?$string_output_adapter@D@__crt_stdio_output@@@2@@__crt_stdio_output@@AAE_NXZ 0042465c f i libucrt:output.obj
 0001:00023686       ?state_case_normal_common@?$output_processor@_WV?$stream_output_adapter@_W@__crt_stdio_output@@V?$standard_base@_WV?$stream_output_adapter@_W@__crt_stdio_output@@@2@@__crt_stdio_output@@AAE_NXZ 00424686 f i libucrt:output.obj
 0001:000236a1       ?state_case_normal_common@?$output_processor@_WV?$string_output_adapter@_W@__crt_stdio_output@@V?$standard_base@_WV?$string_output_adapter@_W@__crt_stdio_output@@@2@@__crt_stdio_output@@AAE_NXZ 004246a1 f i libucrt:output.obj
 0001:000236bc       ?state_case_normal_tchar@?$output_processor@DV?$stream_output_adapter@D@__crt_stdio_output@@V?$standard_base@DV?$stream_output_adapter@D@__crt_stdio_output@@@2@@__crt_stdio_output@@AAE_ND@Z 004246bc f i libucrt:output.obj
 0001:0002371d       ?state_case_normal_tchar@?$output_processor@DV?$string_output_adapter@D@__crt_stdio_output@@V?$standard_base@DV?$string_output_adapter@D@__crt_stdio_output@@@2@@__crt_stdio_output@@AAE_ND@Z 0042471d f i libucrt:output.obj
 0001:0002377e       ?state_case_precision@?$output_processor@DV?$string_output_adapter@D@__crt_stdio_output@@V?$standard_base@DV?$string_output_adapter@D@__crt_stdio_output@@@2@@__crt_stdio_output@@AAE_NXZ 0042477e f i libucrt:output.obj
 0001:0002377e       ?state_case_precision@?$output_processor@DV?$stream_output_adapter@D@__crt_stdio_output@@V?$standard_base@DV?$stream_output_adapter@D@__crt_stdio_output@@@2@@__crt_stdio_output@@AAE_NXZ 0042477e f i libucrt:output.obj
 0001:000237a6       ?state_case_precision@?$output_processor@_WV?$string_output_adapter@_W@__crt_stdio_output@@V?$standard_base@_WV?$string_output_adapter@_W@__crt_stdio_output@@@2@@__crt_stdio_output@@AAE_NXZ 004247a6 f i libucrt:output.obj
 0001:000237a6       ?state_case_precision@?$output_processor@_WV?$stream_output_adapter@_W@__crt_stdio_output@@V?$standard_base@_WV?$stream_output_adapter@_W@__crt_stdio_output@@@2@@__crt_stdio_output@@AAE_NXZ 004247a6 f i libucrt:output.obj
 0001:000237cf       ?state_case_size@?$output_processor@DV?$stream_output_adapter@D@__crt_stdio_output@@V?$standard_base@DV?$stream_output_adapter@D@__crt_stdio_output@@@2@@__crt_stdio_output@@AAE_NXZ 004247cf f i libucrt:output.obj
 0001:00023938       ?state_case_size@?$output_processor@DV?$string_output_adapter@D@__crt_stdio_output@@V?$standard_base@DV?$string_output_adapter@D@__crt_stdio_output@@@2@@__crt_stdio_output@@AAE_NXZ 00424938 f i libucrt:output.obj
 0001:00023aa1       ?state_case_size@?$output_processor@_WV?$stream_output_adapter@_W@__crt_stdio_output@@V?$standard_base@_WV?$stream_output_adapter@_W@__crt_stdio_output@@@2@@__crt_stdio_output@@AAE_NXZ 00424aa1 f i libucrt:output.obj
 0001:00023c1d       ?state_case_size@?$output_processor@_WV?$string_output_adapter@_W@__crt_stdio_output@@V?$standard_base@_WV?$string_output_adapter@_W@__crt_stdio_output@@@2@@__crt_stdio_output@@AAE_NXZ 00424c1d f i libucrt:output.obj
 0001:00023d99       ?state_case_type@?$output_processor@DV?$stream_output_adapter@D@__crt_stdio_output@@V?$standard_base@DV?$stream_output_adapter@D@__crt_stdio_output@@@2@@__crt_stdio_output@@AAE_NXZ 00424d99 f i libucrt:output.obj
 0001:00023fc8       ?state_case_type@?$output_processor@DV?$string_output_adapter@D@__crt_stdio_output@@V?$standard_base@DV?$string_output_adapter@D@__crt_stdio_output@@@2@@__crt_stdio_output@@AAE_NXZ 00424fc8 f i libucrt:output.obj
 0001:000241f7       ?state_case_type@?$output_processor@_WV?$stream_output_adapter@_W@__crt_stdio_output@@V?$standard_base@_WV?$stream_output_adapter@_W@__crt_stdio_output@@@2@@__crt_stdio_output@@AAE_NXZ 004251f7 f i libucrt:output.obj
 0001:00024454       ?state_case_type@?$output_processor@_WV?$string_output_adapter@_W@__crt_stdio_output@@V?$standard_base@_WV?$string_output_adapter@_W@__crt_stdio_output@@@2@@__crt_stdio_output@@AAE_NXZ 00425454 f i libucrt:output.obj
 0001:000246b1       ?state_case_width@?$output_processor@DV?$string_output_adapter@D@__crt_stdio_output@@V?$standard_base@DV?$string_output_adapter@D@__crt_stdio_output@@@2@@__crt_stdio_output@@AAE_NXZ 004256b1 f i libucrt:output.obj
 0001:000246b1       ?state_case_width@?$output_processor@DV?$stream_output_adapter@D@__crt_stdio_output@@V?$standard_base@DV?$stream_output_adapter@D@__crt_stdio_output@@@2@@__crt_stdio_output@@AAE_NXZ 004256b1 f i libucrt:output.obj
 0001:000246dc       ?state_case_width@?$output_processor@_WV?$string_output_adapter@_W@__crt_stdio_output@@V?$standard_base@_WV?$string_output_adapter@_W@__crt_stdio_output@@@2@@__crt_stdio_output@@AAE_NXZ 004256dc f i libucrt:output.obj
 0001:000246dc       ?state_case_width@?$output_processor@_WV?$stream_output_adapter@_W@__crt_stdio_output@@V?$standard_base@_WV?$stream_output_adapter@_W@__crt_stdio_output@@@2@@__crt_stdio_output@@AAE_NXZ 004256dc f i libucrt:output.obj
 0001:00024708       ?to_integer_size@__crt_stdio_output@@YAIW4length_modifier@1@@Z 00425708 f i libucrt:output.obj
 0001:00024764       ?type_case_Z@?$output_processor@DV?$stream_output_adapter@D@__crt_stdio_output@@V?$standard_base@DV?$stream_output_adapter@D@__crt_stdio_output@@@2@@__crt_stdio_output@@AAE_NXZ 00425764 f i libucrt:output.obj
 0001:00024764       ?type_case_Z@?$output_processor@DV?$string_output_adapter@D@__crt_stdio_output@@V?$standard_base@DV?$string_output_adapter@D@__crt_stdio_output@@@2@@__crt_stdio_output@@AAE_NXZ 00425764 f i libucrt:output.obj
 0001:000247c7       ?type_case_Z@?$output_processor@_WV?$string_output_adapter@_W@__crt_stdio_output@@V?$standard_base@_WV?$string_output_adapter@_W@__crt_stdio_output@@@2@@__crt_stdio_output@@AAE_NXZ 004257c7 f i libucrt:output.obj
 0001:000247c7       ?type_case_Z@?$output_processor@_WV?$stream_output_adapter@_W@__crt_stdio_output@@V?$standard_base@_WV?$stream_output_adapter@_W@__crt_stdio_output@@@2@@__crt_stdio_output@@AAE_NXZ 004257c7 f i libucrt:output.obj
 0001:0002482a       ?type_case_a@?$output_processor@DV?$string_output_adapter@D@__crt_stdio_output@@V?$standard_base@DV?$string_output_adapter@D@__crt_stdio_output@@@2@@__crt_stdio_output@@AAE_NXZ 0042582a f i libucrt:output.obj
 0001:0002482a       ?type_case_a@?$output_processor@DV?$stream_output_adapter@D@__crt_stdio_output@@V?$standard_base@DV?$stream_output_adapter@D@__crt_stdio_output@@@2@@__crt_stdio_output@@AAE_NXZ 0042582a f i libucrt:output.obj
 0001:00024984       ?type_case_a@?$output_processor@_WV?$string_output_adapter@_W@__crt_stdio_output@@V?$standard_base@_WV?$string_output_adapter@_W@__crt_stdio_output@@@2@@__crt_stdio_output@@AAE_NXZ 00425984 f i libucrt:output.obj
 0001:00024984       ?type_case_a@?$output_processor@_WV?$stream_output_adapter@_W@__crt_stdio_output@@V?$standard_base@_WV?$stream_output_adapter@_W@__crt_stdio_output@@@2@@__crt_stdio_output@@AAE_NXZ 00425984 f i libucrt:output.obj
 0001:00024af6       ?type_case_c_tchar@?$output_processor@DV?$string_output_adapter@D@__crt_stdio_output@@V?$standard_base@DV?$string_output_adapter@D@__crt_stdio_output@@@2@@__crt_stdio_output@@AAE_ND@Z 00425af6 f i libucrt:output.obj
 0001:00024af6       ?type_case_c_tchar@?$output_processor@DV?$stream_output_adapter@D@__crt_stdio_output@@V?$standard_base@DV?$stream_output_adapter@D@__crt_stdio_output@@@2@@__crt_stdio_output@@AAE_ND@Z 00425af6 f i libucrt:output.obj
 0001:00024b86       ?type_case_c_tchar@?$output_processor@_WV?$string_output_adapter@_W@__crt_stdio_output@@V?$standard_base@_WV?$string_output_adapter@_W@__crt_stdio_output@@@2@@__crt_stdio_output@@AAE_N_W@Z 00425b86 f i libucrt:output.obj
 0001:00024b86       ?type_case_c_tchar@?$output_processor@_WV?$stream_output_adapter@_W@__crt_stdio_output@@V?$standard_base@_WV?$stream_output_adapter@_W@__crt_stdio_output@@@2@@__crt_stdio_output@@AAE_N_W@Z 00425b86 f i libucrt:output.obj
 0001:00024c1e       ?type_case_integer@?$output_processor@_WV?$stream_output_adapter@_W@__crt_stdio_output@@V?$standard_base@_WV?$stream_output_adapter@_W@__crt_stdio_output@@@2@@__crt_stdio_output@@AAE_NI_N@Z 00425c1e f i libucrt:output.obj
 0001:00024c1e       ?type_case_integer@?$output_processor@DV?$stream_output_adapter@D@__crt_stdio_output@@V?$standard_base@DV?$stream_output_adapter@D@__crt_stdio_output@@@2@@__crt_stdio_output@@AAE_NI_N@Z 00425c1e f i libucrt:output.obj
 0001:00024c1e       ?type_case_integer@?$output_processor@_WV?$string_output_adapter@_W@__crt_stdio_output@@V?$standard_base@_WV?$string_output_adapter@_W@__crt_stdio_output@@@2@@__crt_stdio_output@@AAE_NI_N@Z 00425c1e f i libucrt:output.obj
 0001:00024c1e       ?type_case_integer@?$output_processor@DV?$string_output_adapter@D@__crt_stdio_output@@V?$standard_base@DV?$string_output_adapter@D@__crt_stdio_output@@@2@@__crt_stdio_output@@AAE_NI_N@Z 00425c1e f i libucrt:output.obj
 0001:00024d68       ?type_case_n@?$output_processor@DV?$stream_output_adapter@D@__crt_stdio_output@@V?$standard_base@DV?$stream_output_adapter@D@__crt_stdio_output@@@2@@__crt_stdio_output@@AAE_NXZ 00425d68 f i libucrt:output.obj
 0001:00024d68       ?type_case_n@?$output_processor@_WV?$string_output_adapter@_W@__crt_stdio_output@@V?$standard_base@_WV?$string_output_adapter@_W@__crt_stdio_output@@@2@@__crt_stdio_output@@AAE_NXZ 00425d68 f i libucrt:output.obj
 0001:00024d68       ?type_case_n@?$output_processor@_WV?$stream_output_adapter@_W@__crt_stdio_output@@V?$standard_base@_WV?$stream_output_adapter@_W@__crt_stdio_output@@@2@@__crt_stdio_output@@AAE_NXZ 00425d68 f i libucrt:output.obj
 0001:00024d68       ?type_case_n@?$output_processor@DV?$string_output_adapter@D@__crt_stdio_output@@V?$standard_base@DV?$string_output_adapter@D@__crt_stdio_output@@@2@@__crt_stdio_output@@AAE_NXZ 00425d68 f i libucrt:output.obj
 0001:00024ddc       ?type_case_o@?$output_processor@_WV?$string_output_adapter@_W@__crt_stdio_output@@V?$standard_base@_WV?$string_output_adapter@_W@__crt_stdio_output@@@2@@__crt_stdio_output@@AAE_NXZ 00425ddc f i libucrt:output.obj
 0001:00024ddc       ?type_case_o@?$output_processor@DV?$stream_output_adapter@D@__crt_stdio_output@@V?$standard_base@DV?$stream_output_adapter@D@__crt_stdio_output@@@2@@__crt_stdio_output@@AAE_NXZ 00425ddc f i libucrt:output.obj
 0001:00024ddc       ?type_case_o@?$output_processor@_WV?$stream_output_adapter@_W@__crt_stdio_output@@V?$standard_base@_WV?$stream_output_adapter@_W@__crt_stdio_output@@@2@@__crt_stdio_output@@AAE_NXZ 00425ddc f i libucrt:output.obj
 0001:00024ddc       ?type_case_o@?$output_processor@DV?$string_output_adapter@D@__crt_stdio_output@@V?$standard_base@DV?$string_output_adapter@D@__crt_stdio_output@@@2@@__crt_stdio_output@@AAE_NXZ 00425ddc f i libucrt:output.obj
 0001:00024dfb       ?type_case_p@?$output_processor@_WV?$stream_output_adapter@_W@__crt_stdio_output@@V?$standard_base@_WV?$stream_output_adapter@_W@__crt_stdio_output@@@2@@__crt_stdio_output@@AAE_NXZ 00425dfb f i libucrt:output.obj
 0001:00024dfb       ?type_case_p@?$output_processor@DV?$string_output_adapter@D@__crt_stdio_output@@V?$standard_base@DV?$string_output_adapter@D@__crt_stdio_output@@@2@@__crt_stdio_output@@AAE_NXZ 00425dfb f i libucrt:output.obj
 0001:00024dfb       ?type_case_p@?$output_processor@DV?$stream_output_adapter@D@__crt_stdio_output@@V?$standard_base@DV?$stream_output_adapter@D@__crt_stdio_output@@@2@@__crt_stdio_output@@AAE_NXZ 00425dfb f i libucrt:output.obj
 0001:00024dfb       ?type_case_p@?$output_processor@_WV?$string_output_adapter@_W@__crt_stdio_output@@V?$standard_base@_WV?$string_output_adapter@_W@__crt_stdio_output@@@2@@__crt_stdio_output@@AAE_NXZ 00425dfb f i libucrt:output.obj
 0001:00024e13       ?type_case_s@?$output_processor@DV?$stream_output_adapter@D@__crt_stdio_output@@V?$standard_base@DV?$stream_output_adapter@D@__crt_stdio_output@@@2@@__crt_stdio_output@@AAE_NXZ 00425e13 f i libucrt:output.obj
 0001:00024e13       ?type_case_s@?$output_processor@DV?$string_output_adapter@D@__crt_stdio_output@@V?$standard_base@DV?$string_output_adapter@D@__crt_stdio_output@@@2@@__crt_stdio_output@@AAE_NXZ 00425e13 f i libucrt:output.obj
 0001:00024e86       ?type_case_s@?$output_processor@_WV?$stream_output_adapter@_W@__crt_stdio_output@@V?$standard_base@_WV?$stream_output_adapter@_W@__crt_stdio_output@@@2@@__crt_stdio_output@@AAE_NXZ 00425e86 f i libucrt:output.obj
 0001:00024e86       ?type_case_s@?$output_processor@_WV?$string_output_adapter@_W@__crt_stdio_output@@V?$standard_base@_WV?$string_output_adapter@_W@__crt_stdio_output@@@2@@__crt_stdio_output@@AAE_NXZ 00425e86 f i libucrt:output.obj
 0001:00024efa       ?type_case_s_compute_narrow_string_length@?$output_processor@_WV?$string_output_adapter@_W@__crt_stdio_output@@V?$standard_base@_WV?$string_output_adapter@_W@__crt_stdio_output@@@2@@__crt_stdio_output@@ABEHH_W@Z 00425efa f i libucrt:output.obj
 0001:00024efa       ?type_case_s_compute_narrow_string_length@?$output_processor@_WV?$stream_output_adapter@_W@__crt_stdio_output@@V?$standard_base@_WV?$stream_output_adapter@_W@__crt_stdio_output@@@2@@__crt_stdio_output@@ABEHH_W@Z 00425efa f i libucrt:output.obj
 0001:00024f3a       ?validate@?$stream_output_adapter@D@__crt_stdio_output@@QBE_NXZ 00425f3a f i libucrt:output.obj
 0001:00024f5b       ?validate@?$string_output_adapter@_W@__crt_stdio_output@@QBE_NXZ 00425f5b f i libucrt:output.obj
 0001:00024f5b       ?validate@?$c_string_character_source@D@__crt_strtox@@QBE_NXZ 00425f5b f i libucrt:atox.obj
 0001:00024f5b       ?validate@?$string_output_adapter@D@__crt_stdio_output@@QBE_NXZ 00425f5b f i libucrt:output.obj
 0001:00024f5b       ?validate@?$stream_output_adapter@_W@__crt_stdio_output@@QBE_NXZ 00425f5b f i libucrt:output.obj
 0001:00024f5b       ?validate@?$c_string_character_source@_W@__crt_strtox@@QBE_NXZ 00425f5b f i libucrt:atox.obj
 0001:00024f76       ?validate_stream_is_ansi_if_required@?$__acrt_stdio_char_traits@D@@SA_NQAU_iobuf@@@Z 00425f76 f i libucrt:output.obj
 0001:00024ff8       ?write_character@?$stream_output_adapter@D@__crt_stdio_output@@QBEXDQAH@Z 00425ff8 f i libucrt:output.obj
 0001:00025035       ?write_character@?$stream_output_adapter@_W@__crt_stdio_output@@QBEX_WQAH@Z 00426035 f i libucrt:output.obj
 0001:00025075       ?write_character@?$string_output_adapter@D@__crt_stdio_output@@QBE_NDQAH@Z 00426075 f i libucrt:output.obj
 0001:000250b7       ?write_character@?$string_output_adapter@_W@__crt_stdio_output@@QBE_N_WQAH@Z 004260b7 f i libucrt:output.obj
 0001:000250fc       ?write_stored_string_tchar@?$output_processor@DV?$stream_output_adapter@D@__crt_stdio_output@@V?$standard_base@DV?$stream_output_adapter@D@__crt_stdio_output@@@2@@__crt_stdio_output@@AAE_ND@Z 004260fc f i libucrt:output.obj
 0001:000251a3       ?write_stored_string_tchar@?$output_processor@DV?$string_output_adapter@D@__crt_stdio_output@@V?$standard_base@DV?$string_output_adapter@D@__crt_stdio_output@@@2@@__crt_stdio_output@@AAE_ND@Z 004261a3 f i libucrt:output.obj
 0001:0002524a       ?write_stored_string_tchar@?$output_processor@_WV?$stream_output_adapter@_W@__crt_stdio_output@@V?$standard_base@_WV?$stream_output_adapter@_W@__crt_stdio_output@@@2@@__crt_stdio_output@@AAE_N_W@Z 0042624a f i libucrt:output.obj
 0001:000252d5       ?write_stored_string_tchar@?$output_processor@_WV?$string_output_adapter@_W@__crt_stdio_output@@V?$standard_base@_WV?$string_output_adapter@_W@__crt_stdio_output@@@2@@__crt_stdio_output@@AAE_N_W@Z 004262d5 f i libucrt:output.obj
 0001:00025360       ?write_string@?$stream_output_adapter@D@__crt_stdio_output@@QBEXQBDHQAH1@Z 00426360 f i libucrt:output.obj
 0001:000253ea       ?write_string@?$stream_output_adapter@_W@__crt_stdio_output@@QBEXQB_WHQAH1@Z 004263ea f i libucrt:output.obj
 0001:00025477       ?write_string@?$string_output_adapter@D@__crt_stdio_output@@QBEXQBDHQAH1@Z 00426477 f i libucrt:output.obj
 0001:0002550a       ?write_string@?$string_output_adapter@_W@__crt_stdio_output@@QBEXQB_WHQAH1@Z 0042650a f i libucrt:output.obj
 0001:000255a4       ___stdio_common_vfprintf   004265a4 f   libucrt:output.obj
 0001:0002561b       ___stdio_common_vfwprintf  0042661b f   libucrt:output.obj
 0001:00025692       ___stdio_common_vsprintf   00426692 f   libucrt:output.obj
 0001:000256b6       ___stdio_common_vswprintf  004266b6 f   libucrt:output.obj
 0001:000256da       ??$assemble_floating_point_ind@N@__crt_strtox@@YAXAAN@Z 004266da f i libucrt:input.obj
 0001:00025709       ??$assemble_floating_point_infinity@N@__crt_strtox@@YAX_NAAN@Z 00426709 f i libucrt:input.obj
 0001:00025748       ??$assemble_floating_point_qnan@N@__crt_strtox@@YAX_NAAN@Z 00426748 f i libucrt:input.obj
 0001:00025787       ??$assemble_floating_point_snan@N@__crt_strtox@@YAX_NAAN@Z 00426787 f i libucrt:input.obj
 0001:000257cb       ??$assemble_floating_point_value_t@M@__crt_strtox@@YA?AW4SLD_STATUS@@_NH_KAAM@Z 004267cb f i libucrt:input.obj
 0001:000257fb       ??$assemble_floating_point_value_t@N@__crt_strtox@@YA?AW4SLD_STATUS@@_NH_KAAN@Z 004267fb f i libucrt:input.obj
 0001:0002585a       ??$assemble_floating_point_zero@N@__crt_strtox@@YAX_NAAN@Z 0042685a f i libucrt:input.obj
 0001:00025958       ??$convert_decimal_string_to_floating_type@M@__crt_strtox@@YA?AW4SLD_STATUS@@ABUfloating_point_string@0@AAM@Z 00426958 f i libucrt:input.obj
 0001:0002597b       ??$convert_decimal_string_to_floating_type@N@__crt_strtox@@YA?AW4SLD_STATUS@@ABUfloating_point_string@0@AAN@Z 0042697b f i libucrt:input.obj
 0001:0002599e       ??$convert_hexadecimal_string_to_floating_type@M@__crt_strtox@@YA?AW4SLD_STATUS@@ABUfloating_point_string@0@AAM@Z 0042699e f i libucrt:input.obj
 0001:000259c1       ??$convert_hexadecimal_string_to_floating_type@N@__crt_strtox@@YA?AW4SLD_STATUS@@ABUfloating_point_string@0@AAN@Z 004269c1 f i libucrt:input.obj
 0001:000259e4       ??$is_overflow_condition@_K@__crt_strtox@@YA_NI_K@Z 004269e4 f i libucrt:input.obj
 0001:00025a27       ??$make_input_adapter_character_source@V?$string_input_adapter@D@__crt_stdio_input@@@__crt_strtox@@YA?AV?$input_adapter_character_source@V?$string_input_adapter@D@__crt_stdio_input@@@0@QAV?$string_input_adapter@D@__crt_stdio_input@@_KQA_N@Z 00426a27 f i libucrt:input.obj
 0001:00025a45       ??$parse_floating_point@V?$input_adapter_character_source@V?$string_input_adapter@D@__crt_stdio_input@@@__crt_strtox@@M@__crt_strtox@@YA?AW4SLD_STATUS@@QAU__crt_locale_pointers@@V?$input_adapter_character_source@V?$string_input_adapter@D@__crt_stdio_input@@@0@QAM@Z 00426a45 f i libucrt:input.obj
 0001:00025ac0       ??$parse_floating_point@V?$input_adapter_character_source@V?$string_input_adapter@D@__crt_stdio_input@@@__crt_strtox@@N@__crt_strtox@@YA?AW4SLD_STATUS@@QAU__crt_locale_pointers@@V?$input_adapter_character_source@V?$string_input_adapter@D@__crt_stdio_input@@@0@QAN@Z 00426ac0 f i libucrt:input.obj
 0001:00025b3b       ??$parse_floating_point_from_source@V?$input_adapter_character_source@V?$string_input_adapter@D@__crt_stdio_input@@@__crt_strtox@@@__crt_strtox@@YA?AW4floating_point_parse_result@0@QAU__crt_locale_pointers@@AAV?$input_adapter_character_source@V?$string_input_adapter@D@__crt_stdio_input@@@0@AAUfloating_point_string@0@@Z 00426b3b f i libucrt:input.obj
 0001:00025fa2       ??$parse_floating_point_possible_infinity@DV?$input_adapter_character_source@V?$string_input_adapter@D@__crt_stdio_input@@@__crt_strtox@@_K@__crt_strtox@@YA?AW4floating_point_parse_result@0@AADAAV?$input_adapter_character_source@V?$string_input_adapter@D@__crt_stdio_input@@@0@_K@Z 00426fa2 f i libucrt:input.obj
 0001:00026063       ??$parse_floating_point_possible_nan@DV?$input_adapter_character_source@V?$string_input_adapter@D@__crt_stdio_input@@@__crt_strtox@@_K@__crt_strtox@@YA?AW4floating_point_parse_result@0@AADAAV?$input_adapter_character_source@V?$string_input_adapter@D@__crt_stdio_input@@@0@_K@Z 00427063 f i libucrt:input.obj
 0001:00026175       ??$parse_floating_point_possible_nan_is_ind@DV?$input_adapter_character_source@V?$string_input_adapter@D@__crt_stdio_input@@@__crt_strtox@@@__crt_strtox@@YA_NAADAAV?$input_adapter_character_source@V?$string_input_adapter@D@__crt_stdio_input@@@0@@Z 00427175 f i libucrt:input.obj
 0001:000261af       ??$parse_floating_point_possible_nan_is_snan@DV?$input_adapter_character_source@V?$string_input_adapter@D@__crt_stdio_input@@@__crt_strtox@@@__crt_strtox@@YA_NAADAAV?$input_adapter_character_source@V?$string_input_adapter@D@__crt_stdio_input@@@0@@Z 004271af f i libucrt:input.obj
 0001:000261e9       ??$parse_floating_point_write_result@M@__crt_strtox@@YA?AW4SLD_STATUS@@W4floating_point_parse_result@0@ABUfloating_point_string@0@QAM@Z 004271e9 f i libucrt:input.obj
 0001:000262f9       ??$parse_floating_point_write_result@N@__crt_strtox@@YA?AW4SLD_STATUS@@W4floating_point_parse_result@0@ABUfloating_point_string@0@QAN@Z 004272f9 f i libucrt:input.obj
 0001:000263fd       ??$parse_integer@_KV?$input_adapter_character_source@V?$string_input_adapter@D@__crt_stdio_input@@@__crt_strtox@@@__crt_strtox@@YA_KQAU__crt_locale_pointers@@V?$input_adapter_character_source@V?$string_input_adapter@D@__crt_stdio_input@@@0@H_N@Z 004273fd f i libucrt:input.obj
 0001:000266ae       ??$process_floating_point_specifier_t@M@?$input_processor@DV?$string_input_adapter@D@__crt_stdio_input@@@__crt_stdio_input@@AAE_NXZ 004276ae f i libucrt:input.obj
 0001:00026716       ??$process_floating_point_specifier_t@N@?$input_processor@DV?$string_input_adapter@D@__crt_stdio_input@@@__crt_stdio_input@@AAE_NXZ 00427716 f i libucrt:input.obj
 0001:0002677e       ??$process_string_specifier_tchar@D@?$input_processor@DV?$string_input_adapter@D@__crt_stdio_input@@@__crt_stdio_input@@AAE_NW4conversion_mode@1@D@Z 0042777e f i libucrt:input.obj
 0001:000268e0       ??$process_string_specifier_tchar@_W@?$input_processor@DV?$string_input_adapter@D@__crt_stdio_input@@@__crt_stdio_input@@AAE_NW4conversion_mode@1@_W@Z 004278e0 f i libucrt:input.obj
 0001:00026a4c       ??$skip_whitespace@Vstring_input_adapter@__crt_stdio_input@@D@__crt_stdio_input@@YAHAAV?$string_input_adapter@D@0@QAU__crt_locale_pointers@@@Z 00427a4c f i libucrt:input.obj
 0001:00026a7b       ??$write_floating_point@M@?$input_processor@DV?$string_input_adapter@D@__crt_stdio_input@@@__crt_stdio_input@@AAE_NABM@Z 00427a7b f i libucrt:input.obj
 0001:00026ab2       ??$write_floating_point@N@?$input_processor@DV?$string_input_adapter@D@__crt_stdio_input@@@__crt_stdio_input@@AAE_NABN@Z 00427ab2 f i libucrt:input.obj
 0001:00026aef       ??0?$format_string_parser@D@__crt_stdio_input@@QAE@_KQBE@Z 00427aef f i libucrt:input.obj
 0001:00026b39       ??0?$input_adapter_character_source@V?$string_input_adapter@D@__crt_stdio_input@@@__crt_strtox@@QAE@QAV?$string_input_adapter@D@__crt_stdio_input@@_KQA_N@Z 00427b39 f i libucrt:input.obj
 0001:00026b6a       ??0?$input_processor@DV?$string_input_adapter@D@__crt_stdio_input@@@__crt_stdio_input@@QAE@ABV?$string_input_adapter@D@1@_KQBDQAU__crt_locale_pointers@@QAD@Z 00427b6a f i libucrt:input.obj
 0001:00026bdc       ?advance@?$format_string_parser@D@__crt_stdio_input@@QAE_NXZ 00427bdc f i libucrt:input.obj
 0001:00026cfc       ?as_double@floating_point_value@__crt_strtox@@QBEAANXZ 00427cfc f i libucrt:input.obj
 0001:00026d21       ?as_float@floating_point_value@__crt_strtox@@QBEAAMXZ 00427d21 f i libucrt:input.obj
 0001:00026d46       ?assemble_floating_point_infinity@__crt_strtox@@YAX_NABVfloating_point_value@1@@Z 00427d46 f i libucrt:input.obj
 0001:00026d80       ?assemble_floating_point_value@__crt_strtox@@YA?AW4SLD_STATUS@@_KH_N1ABVfloating_point_value@1@@Z 00427d80 f i libucrt:input.obj
 0001:000270cc       ?assemble_floating_point_value_from_big_integer@__crt_strtox@@YA?AW4SLD_STATUS@@ABUbig_integer@1@I_N1ABVfloating_point_value@1@@Z 004280cc f i libucrt:input.obj
 0001:0002725a       ?assemble_floating_point_zero@__crt_strtox@@YAX_NABVfloating_point_value@1@@Z 0042825a f i libucrt:input.obj
 0001:0002728e       ?convert_decimal_string_to_floating_type_common@__crt_strtox@@YA?AW4SLD_STATUS@@ABUfloating_point_string@1@ABVfloating_point_value@1@@Z 0042828e f i libucrt:input.obj
 0001:00029051       ?convert_hexadecimal_string_to_floating_type_common@__crt_strtox@@YA?AW4SLD_STATUS@@ABUfloating_point_string@1@ABVfloating_point_value@1@@Z 0042a051 f i libucrt:input.obj
 0001:000290fd       ?denormal_mantissa_mask@floating_point_value@__crt_strtox@@QBE_KXZ 0042a0fd f i libucrt:input.obj
 0001:00029120       ?divide@__crt_strtox@@YA_KAAUbig_integer@1@ABU21@@Z 0042a120 f i libucrt:input.obj
 0001:000295ce       ?get@?$input_adapter_character_source@V?$string_input_adapter@D@__crt_stdio_input@@@__crt_strtox@@QAEDXZ 0042a5ce f i libucrt:input.obj
 0001:00029608       ?get@?$string_input_adapter@D@__crt_stdio_input@@QAEHXZ 0042a608 f i libucrt:input.obj
 0001:0002961e       ?invert@?$scanset_buffer@E@__crt_stdio_input@@QAEXXZ 0042a61e f i libucrt:input.obj
 0001:0002963c       ?is_character_allowed_in_string@?$input_processor@DV?$string_input_adapter@D@__crt_stdio_input@@@__crt_stdio_input@@ABE_NW4conversion_mode@2@H@Z 0042a63c f i libucrt:input.obj
 0001:00029682       ?length@?$format_string_parser@D@__crt_stdio_input@@QBEIXZ 0042a682 f i libucrt:input.obj
 0001:000296c3       ?normal_mantissa_mask@floating_point_value@__crt_strtox@@QBE_KXZ 0042a6c3 f i libucrt:input.obj
 0001:000296da       ?process@?$input_processor@DV?$string_input_adapter@D@__crt_stdio_input@@@__crt_stdio_input@@QAEHXZ 0042a6da f i libucrt:input.obj
 0001:0002975f       ?process_character_count_specifier@?$input_processor@DV?$string_input_adapter@D@__crt_stdio_input@@@__crt_stdio_input@@AAE_NXZ 0042a75f f i libucrt:input.obj
 0001:00029779       ?process_conversion_specifier@?$input_processor@DV?$string_input_adapter@D@__crt_stdio_input@@@__crt_stdio_input@@AAE_NXZ 0042a779 f i libucrt:input.obj
 0001:000297ed       ?process_floating_point_specifier@?$input_processor@DV?$string_input_adapter@D@__crt_stdio_input@@@__crt_stdio_input@@AAE_NXZ 0042a7ed f i libucrt:input.obj
 0001:0002981d       ?process_integer_specifier@?$input_processor@DV?$string_input_adapter@D@__crt_stdio_input@@@__crt_stdio_input@@AAE_NI_N@Z 0042a81d f i libucrt:input.obj
 0001:00029883       ?process_literal_character@?$input_processor@DV?$string_input_adapter@D@__crt_stdio_input@@@__crt_stdio_input@@AAE_NXZ 0042a883 f i libucrt:input.obj
 0001:000298b9       ?process_literal_character_tchar@?$input_processor@DV?$string_input_adapter@D@__crt_stdio_input@@@__crt_stdio_input@@AAE_ND@Z 0042a8b9 f i libucrt:input.obj
 0001:0002990f       ?process_state@?$input_processor@DV?$string_input_adapter@D@__crt_stdio_input@@@__crt_stdio_input@@AAE_NXZ 0042a90f f i libucrt:input.obj
 0001:00029945       ?process_string_specifier@?$input_processor@DV?$string_input_adapter@D@__crt_stdio_input@@@__crt_stdio_input@@AAE_NW4conversion_mode@2@@Z 0042a945 f i libucrt:input.obj
 0001:0002998d       ?process_whitespace@?$input_processor@DV?$string_input_adapter@D@__crt_stdio_input@@@__crt_stdio_input@@AAE_NXZ 0042a98d f i libucrt:input.obj
 0001:000299aa       ?restore_state@?$input_adapter_character_source@V?$string_input_adapter@D@__crt_stdio_input@@@__crt_strtox@@QAE_N_K@Z 0042a9aa f i libucrt:input.obj
 0001:000299cf       ?scan_conversion_specifier@?$format_string_parser@D@__crt_stdio_input@@AAE_NXZ 0042a9cf f i libucrt:input.obj
 0001:00029b3a       ?scan_optional_field_width@?$format_string_parser@D@__crt_stdio_input@@AAE_NXZ 0042ab3a f i libucrt:input.obj
 0001:00029bd9       ?scan_optional_length_modifier@?$format_string_parser@D@__crt_stdio_input@@AAEXXZ 0042abd9 f i libucrt:input.obj
 0001:00029cf9       ?scan_optional_literal_character_trail_bytes_tchar@?$format_string_parser@D@__crt_stdio_input@@AAE_ND@Z 0042acf9 f i libucrt:input.obj
 0001:00029d4e       ?scan_optional_wide_modifier@?$format_string_parser@D@__crt_stdio_input@@AAEXXZ 0042ad4e f i libucrt:input.obj
 0001:00029d6c       ?scan_scanset_range@?$format_string_parser@D@__crt_stdio_input@@AAE_NXZ 0042ad6c f i libucrt:input.obj
 0001:00029e73       ?set@?$scanset_buffer@E@__crt_stdio_input@@QAEXE@Z 0042ae73 f i libucrt:input.obj
 0001:00029e9e       ?set_wide_for_c_s_or_scanset@?$format_string_parser@D@__crt_stdio_input@@AAEXXZ 0042ae9e f i libucrt:input.obj
 0001:00029ebe       ?test@?$scanset_buffer@E@__crt_stdio_input@@QBE_NE@Z 0042aebe f i libucrt:input.obj
 0001:00029eef       ?to_floating_point_length@__crt_stdio_input@@YAIW4length_modifier@1@@Z 0042aeef f i libucrt:input.obj
 0001:00029f12       ?to_integer_length@__crt_stdio_input@@YAIW4length_modifier@1@@Z 0042af12 f i libucrt:input.obj
 0001:00029f6a       ?unget@?$input_adapter_character_source@V?$string_input_adapter@D@__crt_stdio_input@@@__crt_strtox@@QAEXD@Z 0042af6a f i libucrt:input.obj
 0001:00029fab       ?unget@?$string_input_adapter@D@__crt_stdio_input@@QAEXH@Z 0042afab f i libucrt:input.obj
 0001:00029fca       ?validate@?$format_string_parser@D@__crt_stdio_input@@QBE_NXZ 0042afca f i libucrt:input.obj
 0001:00029fe6       ?validate@?$input_adapter_character_source@V?$string_input_adapter@D@__crt_stdio_input@@@__crt_strtox@@QBE_NXZ 0042afe6 f i libucrt:input.obj
 0001:0002a007       ?validate@?$string_input_adapter@D@__crt_stdio_input@@QAE_NXZ 0042b007 f i libucrt:input.obj
 0001:0002a029       ?write_character@?$input_processor@DV?$string_input_adapter@D@__crt_stdio_input@@@__crt_stdio_input@@AAE_NQA_WIAAPA_WAAID@Z 0042b029 f i libucrt:input.obj
 0001:0002a09a       ?write_integer@?$input_processor@DV?$string_input_adapter@D@__crt_stdio_input@@@__crt_stdio_input@@AAE_N_K_N@Z 0042b09a f i libucrt:input.obj
 0001:0002a111       ___stdio_common_vsscanf    0042b111 f   libucrt:input.obj
 0001:0002a135       __chvalidchk_l             0042b135 f i libucrt:input.obj
 0001:0002a15f       __ischartype_l             0042b15f f i libucrt:input.obj
 0001:0002a192       _abort                     0042b192 f   libucrt:abort.obj
 0001:0002a1d5       __isdigit_l                0042b1d5 f i libucrt:_ctype.obj
 0001:0002a20d       __isspace_l                0042b20d f i libucrt:_ctype.obj
 0001:0002a245       _isdigit                   0042b245 f i libucrt:_ctype.obj
 0001:0002a272       _isspace                   0042b272 f i libucrt:_ctype.obj
 0001:0002a2a0       _strcpy                    0042b2a0 f   libucrt:strcat.obj
 0001:0002a2b0       _strcat                    0042b2b0 f   libucrt:strcat.obj
 0001:0002a3a0       _strlen                    0042b3a0 f   libucrt:strlen.obj
 0001:0002a430       _strncmp                   0042b430 f   libucrt:strncmp.obj
 0001:0002a4b0       _strncpy                   0042b4b0 f   libucrt:strncpy.obj
 0001:0002a5d4       ??$?RV<lambda_11b4f7b0d3157825a5656a18eba1ae27>@@AAV<lambda_b51c0495177f500e782686251704ae76>@@V<lambda_cf89b47920b5017557bfe891e78aca36>@@@?$__crt_seh_guarded_call@I@@QAEI$$QAV<lambda_11b4f7b0d3157825a5656a18eba1ae27>@@AAV<lambda_b51c0495177f500e782686251704ae76>@@$$QAV<lambda_cf89b47920b5017557bfe891e78aca36>@@@Z 0042b5d4 f i libucrt:fwrite.obj
 0001:0002a625       ??$__acrt_lock_stream_and_call@V<lambda_b51c0495177f500e782686251704ae76>@@@@YAIQAU_iobuf@@$$QAV<lambda_b51c0495177f500e782686251704ae76>@@@Z 0042b625 f i libucrt:fwrite.obj
 0001:0002a693       __fwrite_nolock            0042b693 f   libucrt:fwrite.obj
 0001:0002a80c       _fwrite                    0042b80c f   libucrt:fwrite.obj
 0001:0002a864       _free                      0042b864 f   libucrt:free.obj
 0001:0002a869       _malloc                    0042b869 f   libucrt:malloc.obj
 0001:0002a874       _realloc                   0042b874 f   libucrt:realloc.obj
 0001:0002a9e6       __tolower_l                0042b9e6 f   libucrt:tolower_toupper.obj
 0001:0002aa00       _tolower                   0042ba00 f   libucrt:tolower_toupper.obj
 0001:0002aa30       _strcspn                   0042ba30 f   libucrt:strcspn.obj
 0001:0002aa80       _strspn                    0042ba80 f   libucrt:strspn.obj
 0001:0002aac6       __fgetc_nolock             0042bac6 f   libucrt:fgetc.obj
 0001:0002ab02       __getc_nolock              0042bb02 f   libucrt:fgetc.obj
 0001:0002ab0d       _fgetc                     0042bb0d f   libucrt:fgetc.obj
 0001:0002acd4       _fgets                     0042bcd4 f   libucrt:fgets.obj
 0001:0002acdf       __fputc_nolock             0042bcdf f   libucrt:fputc.obj
 0001:0002ad08       _fputc                     0042bd08 f   libucrt:fputc.obj
 0001:0002ae0c       __fread_nolock_s           0042be0c f   libucrt:fread.obj
 0001:0002afd8       _fread                     0042bfd8 f   libucrt:fread.obj
 0001:0002aff5       _fread_s                   0042bff5 f   libucrt:fread.obj
 0001:0002b088       _rewind                    0042c088 f   libucrt:rewind.obj
 0001:0002b156       __ungetc_nolock            0042c156 f   libucrt:ungetc.obj
 0001:0002b245       _ungetc                    0042c245 f   libucrt:ungetc.obj
 0001:0002b2b5       ??$is_overflow_condition@K@__crt_strtox@@YA_NIK@Z 0042c2b5 f i libucrt:atox.obj
 0001:0002b2e8       ??$parse_integer@KV?$c_string_character_source@D@__crt_strtox@@@__crt_strtox@@YAKQAU__crt_locale_pointers@@V?$c_string_character_source@D@0@H_N@Z 0042c2e8 f i libucrt:atox.obj
 0001:0002b510       ??$parse_integer@KV?$c_string_character_source@_W@__crt_strtox@@@__crt_strtox@@YAKQAU__crt_locale_pointers@@V?$c_string_character_source@_W@0@H_N@Z 0042c510 f i libucrt:atox.obj
 0001:0002bbf5       ??$parse_integer@_KV?$c_string_character_source@D@__crt_strtox@@@__crt_strtox@@YA_KQAU__crt_locale_pointers@@V?$c_string_character_source@D@0@H_N@Z 0042cbf5 f i libucrt:atox.obj
 0001:0002be9b       ?unget@?$c_string_character_source@D@__crt_strtox@@QAEXD@Z 0042ce9b f i libucrt:atox.obj
 0001:0002bec3       ?unget@?$c_string_character_source@_W@__crt_strtox@@QAEX_W@Z 0042cec3 f i libucrt:atox.obj
 0001:0002beef       _atol                      0042ceef f   libucrt:atox.obj
 0001:0002bf19       ??$make_c_string_character_source@_WPAPA_W@__crt_strtox@@YA?AV?$c_string_character_source@_W@0@QB_WQAPA_W@Z 0042cf19 f i libucrt:strtox.obj
 0001:0002bf19       ??$make_c_string_character_source@D$$T@__crt_strtox@@YA?AV?$c_string_character_source@D@0@QBD$$T@Z 0042cf19 f i libucrt:atox.obj
 0001:0002bf19       ??$make_c_string_character_source@DPAPAD@__crt_strtox@@YA?AV?$c_string_character_source@D@0@QBDQAPAD@Z 0042cf19 f i libucrt:strtox.obj
 0001:0002bf34       _strtol                    0042cf34 f   libucrt:strtox.obj
 0001:0002bf60       _strtoul                   0042cf60 f   libucrt:strtox.obj
 0001:0002bf8c       _strtoull                  0042cf8c f   libucrt:strtox.obj
 0001:0002bfb8       _wcstol                    0042cfb8 f   libucrt:strtox.obj
 0001:0002bfe4       _iswctype                  0042cfe4 f   libucrt:iswctype.obj
 0001:0002c1b0       _getenv_s                  0042d1b0 f   libucrt:getenv.obj
 0001:0002c1bb       __Strftime_l               0042d1bb f   libucrt:strftime.obj
 0001:0002c2ea       _strftime                  0042d2ea f   libucrt:strftime.obj
 0001:0002c476       ___scrt_is_managed_app     0042d476 f   LIBCMT:utility_desktop.obj
 0001:0002c524       ___acrt_initialize_thread_local_exit_callback 0042d524 f   libucrt:exit.obj
 0001:0002c533       __c_exit                   0042d533 f   libucrt:exit.obj
 0001:0002c542       __cexit                    0042d542 f   libucrt:exit.obj
 0001:0002c551       __exit                     0042d551 f   libucrt:exit.obj
 0001:0002c567       __register_thread_local_exe_atexit_callback 0042d567 f   libucrt:exit.obj
 0001:0002c59f       _exit                      0042d59f f   libucrt:exit.obj
 0001:0002c5b5       __seh_filter_exe           0042d5b5 f   libucrt:exception_filter.obj
 0001:0002c728       __query_app_type           0042d728 f   libucrt:report_runtime_error.obj
 0001:0002c72e       __set_app_type             0042d72e f   libucrt:report_runtime_error.obj
 0001:0002c73d       ??$__crt_fast_encode_pointer@P6GXPAXK0@Z@@YAP6GXPAXK0@ZQ6GX0K0@Z@Z 0042d73d f i libucrt:exit.obj
 0001:0002c73d       ??$__crt_fast_encode_pointer@P6AHXZ@@YAP6AHXZQ6AHXZ@Z 0042d73d f i libucrt:onexit.obj
 0001:0002c73d       ??$__crt_fast_encode_pointer@P6AHPAU_exception@@@Z@@YAP6AHPAU_exception@@@ZQ6AH0@Z@Z 0042d73d f i libucrt:matherr.obj
 0001:0002c75c       ___acrt_has_user_matherr   0042d75c f   libucrt:matherr.obj
 0001:0002c775       ___acrt_initialize_user_matherr 0042d775 f   libucrt:matherr.obj
 0001:0002c789       ___acrt_invoke_user_matherr 0042d789 f   libucrt:matherr.obj
 0001:0002c7d2       ___setusermatherr          0042d7d2 f   libucrt:matherr.obj
 0001:0002ca80       ___acrt_allocate_buffer_for_argv 0042da80 f   libucrt:argv_parsing.obj
 0001:0002cad5       __configure_narrow_argv    0042dad5 f   libucrt:argv_parsing.obj
 0001:0002cce7       ??$uninitialize@A6AXAAPAPA_W@Z@?$dual_state_global@PAPA_W@__crt_state_management@@QAEXA6AXAAPAPA_W@Z@Z 0042dce7 f i libucrt:environment_initialization.obj
 0001:0002cce7       ??$uninitialize@A6AXAAPAPAD@Z@?$dual_state_global@PAPAD@__crt_state_management@@QAEXA6AXAAPAPAD@Z@Z 0042dce7 f i libucrt:environment_initialization.obj
 0001:0002cd5d       ?initialize@?$dual_state_global@P6AHI@Z@__crt_state_management@@QAEXQ6AHI@Z@Z 0042dd5d f i libucrt:new_handler.obj
 0001:0002cd5d       ?initialize@?$dual_state_global@P6AHPAU_exception@@@Z@__crt_state_management@@QAEXQ6AHPAU_exception@@@Z@Z 0042dd5d f i libucrt:matherr.obj
 0001:0002cd5d       ?initialize@?$dual_state_global@P6AXH@Z@__crt_state_management@@QAEXQ6AXH@Z@Z 0042dd5d f i libucrt:signal.obj
 0001:0002cd5d       ?initialize@?$dual_state_global@H@__crt_state_management@@QAEXH@Z 0042dd5d f i libucrt:timeset.obj
 0001:0002cd5d       ?initialize@?$dual_state_global@PAU__crt_locale_data@@@__crt_state_management@@QAEXQAU__crt_locale_data@@@Z 0042dd5d f i libucrt:initialization.obj
 0001:0002cd5d       ?initialize@?$dual_state_global@P6AXPB_W00II@Z@__crt_state_management@@QAEXQ6AXPB_W00II@Z@Z 0042dd5d f i libucrt:invalid_parameter.obj
 0001:0002cd5d       ?initialize@?$dual_state_global@J@__crt_state_management@@QAEXJ@Z 0042dd5d f i libucrt:timeset.obj
 0001:0002cd5d       ?initialize@?$dual_state_global@PAPAD@__crt_state_management@@QAEXQAPAD@Z 0042dd5d f i libucrt:environment_initialization.obj
 0001:0002cd8e       ___dcrt_get_or_create_narrow_environment_nolock 0042dd8e f   libucrt:environment_initialization.obj
 0001:0002cd93       ___dcrt_uninitialize_environments_nolock 0042dd93 f   libucrt:environment_initialization.obj
 0001:0002cdca       __initialize_narrow_environment 0042ddca f   libucrt:environment_initialization.obj
 0001:0002cdcf       __get_narrow_winmain_command_line 0042ddcf f   libucrt:argv_winmain.obj
 0001:0002ce22       __initterm                 0042de22 f   libucrt:initterm.obj
 0001:0002ce7e       __initterm_e               0042de7e f   libucrt:initterm.obj
 0001:0002cec3       __get_fmode                0042dec3 f   libucrt:setmode.obj
 0001:0002ceef       __set_fmode                0042deef f   libucrt:setmode.obj
 0001:0002cf2c       __setmode_nolock           0042df2c f   libucrt:setmode.obj
 0001:0002cffd       ___acrt_set_locale_changed 0042dffd f   libucrt:wsetlocale.obj
 0001:0002d008       ___acrt_uninitialize_locale 0042e008 f   libucrt:wsetlocale.obj
 0001:0002d05a       __configthreadlocale       0042e05a f   libucrt:wsetlocale.obj
 0001:0002d0bc       __query_new_mode           0042e0bc f   libucrt:new_mode.obj
 0001:0002d0c2       __set_new_mode             0042e0c2 f   libucrt:new_mode.obj
 0001:0002d0f1       ___p__commode              0042e0f1 f   libucrt:ncommode.obj
 0001:0002d0f7       ??$?RV<lambda_800076c951b434888f4765a74a194fcc>@@AAV<lambda_4e60a939b0d047cfe11ddc22648dfba9>@@V<lambda_6dbb1268764f43b569ce7b67e331d33a>@@@?$__crt_seh_guarded_call@H@@QAEH$$QAV<lambda_800076c951b434888f4765a74a194fcc>@@AAV<lambda_4e60a939b0d047cfe11ddc22648dfba9>@@$$QAV<lambda_6dbb1268764f43b569ce7b67e331d33a>@@@Z 0042e0f7 f i libucrt:onexit.obj
 0001:0002d148       ??$?RV<lambda_995298e7d72eb4c2aab26c0585b3abe5>@@AAV<lambda_275893d493268fdec8709772e3fcec0e>@@V<lambda_293819299cbf9a7022e18b56a874bb5c>@@@?$__crt_seh_guarded_call@H@@QAEH$$QAV<lambda_995298e7d72eb4c2aab26c0585b3abe5>@@AAV<lambda_275893d493268fdec8709772e3fcec0e>@@$$QAV<lambda_293819299cbf9a7022e18b56a874bb5c>@@@Z 0042e148 f i libucrt:onexit.obj
 0001:0002d199       ??$__acrt_lock_and_call@V<lambda_275893d493268fdec8709772e3fcec0e>@@@@YAHW4__acrt_lock_id@@$$QAV<lambda_275893d493268fdec8709772e3fcec0e>@@@Z 0042e199 f i libucrt:onexit.obj
 0001:0002d1c1       ??$__acrt_lock_and_call@V<lambda_4e60a939b0d047cfe11ddc22648dfba9>@@@@YAHW4__acrt_lock_id@@$$QAV<lambda_4e60a939b0d047cfe11ddc22648dfba9>@@@Z 0042e1c1 f i libucrt:onexit.obj
 0001:0002d44a       __crt_atexit               0042e44a f   libucrt:onexit.obj
 0001:0002d460       __execute_onexit_table     0042e460 f   libucrt:onexit.obj
 0001:0002d47d       __initialize_onexit_table  0042e47d f   libucrt:onexit.obj
 0001:0002d4ba       __register_onexit_function 0042e4ba f   libucrt:onexit.obj
 0001:0002d512       __should_initialize_environment 0042e512 f   LIBCMT:env_mode.obj
 0001:0002d512       ___acrt_uninitialize_command_line 0042e512 f   libucrt:argv_data.obj
 0001:0002d5d2       ___acrt_initialize         0042e5d2 f   libucrt:initialization.obj
 0001:0002d5e4       ___acrt_uninitialize       0042e5e4 f   libucrt:initialization.obj
 0001:0002d5f6       __controlfp_s              0042e5f6 f   libucrt:contrlfp.obj
 0001:0002d655       _terminate                 0042e655 f   libucrt:terminate.obj
 0001:0002d691       __free_base                0042e691 f   libucrt:free_base.obj
 0001:0002d6cb       __malloc_base              0042e6cb f   libucrt:malloc_base.obj
 0001:0002d719       _strcpy_s                  0042e719 f   libucrt:strcpy_s.obj
 0001:0002d773       __calloc_base              0042e773 f   libucrt:calloc_base.obj
 0001:0002d7d0       ___acrt_call_reportfault   0042e7d0 f   libucrt:invalid_parameter.obj
 0001:0002d90b       ___acrt_initialize_invalid_parameter_handler 0042e90b f   libucrt:invalid_parameter.obj
 0001:0002d91f       __invalid_parameter        0042e91f f   libucrt:invalid_parameter.obj
 0001:0002d99a       __invalid_parameter_noinfo 0042e99a f   libucrt:invalid_parameter.obj
 0001:0002d9aa       __invoke_watson            0042e9aa f   libucrt:invalid_parameter.obj
 0001:0002d9dd       ___acrt_errno_from_os_error 0042e9dd f   libucrt:errno.obj
 0001:0002da20       ___acrt_errno_map_os_error 0042ea20 f   libucrt:errno.obj
 0001:0002da43       ___doserrno                0042ea43 f   libucrt:errno.obj
 0001:0002da56       __errno                    0042ea56 f   libucrt:errno.obj
 0001:0002db56       __itow_s                   0042eb56 f   libucrt:xtoa.obj
 0001:0002db8b       __set_error_mode           0042eb8b f   libucrt:set_error_mode.obj
 0001:0002dbca       _wcscat_s                  0042ebca f   libucrt:wcscat_s.obj
 0001:0002dc3f       _wcscpy_s                  0042ec3f f   libucrt:wcscpy_s.obj
 0001:0002dd8c       _wcsncat_s                 0042ed8c f   libucrt:wcsncat_s.obj
 0001:0002de92       ___acrt_show_wide_message_box 0042ee92 f   libucrt:crtmbox.obj
 0001:0002de9d       ___acrt_initialize_stdio   0042ee9d f   libucrt:_file.obj
 0001:0002df65       ___acrt_iob_func           0042ef65 f   libucrt:_file.obj
 0001:0002df75       ___acrt_uninitialize_stdio 0042ef75 f   libucrt:_file.obj
 0001:0002dfc1       __lock_file                0042efc1 f   libucrt:_file.obj
 0001:0002dfd5       __unlock_file              0042efd5 f   libucrt:_file.obj
 0001:0002dfe9       ___acrt_stdio_flush_nolock 0042efe9 f   libucrt:fflush.obj
 0001:0002e04f       __fflush_nolock            0042f04f f   libucrt:fflush.obj
 0001:0002e096       __flushall                 0042f096 f   libucrt:fflush.obj
 0001:0002e177       _fflush                    0042f177 f   libucrt:fflush.obj
 0001:0002e1d0       ??$?RV<lambda_d92cfe8357b99225085016881b624cb0>@@AAV<lambda_b721fa326cdb32351d23dfa67958c160>@@V<lambda_42d75b0848218ec137fa420c8ba9fdf9>@@@?$__crt_seh_guarded_call@H@@QAEH$$QAV<lambda_d92cfe8357b99225085016881b624cb0>@@AAV<lambda_b721fa326cdb32351d23dfa67958c160>@@$$QAV<lambda_42d75b0848218ec137fa420c8ba9fdf9>@@@Z 0042f1d0 f i libucrt:setvbuf.obj
 0001:0002e221       ??$__acrt_lock_stream_and_call@V<lambda_b721fa326cdb32351d23dfa67958c160>@@@@YAHQAU_iobuf@@$$QAV<lambda_b721fa326cdb32351d23dfa67958c160>@@@Z 0042f221 f i libucrt:setvbuf.obj
 0001:0002e316       _setvbuf                   0042f316 f   libucrt:setvbuf.obj
 0001:0002e38c       ??$?RV<lambda_a048d3beccc847880fc8490e18b82769>@@AAV<lambda_ec61778202f4f5fc7e7711acc23c3bca>@@V<lambda_f7496a158712204296dd6628a163878e>@@@?$__crt_seh_guarded_call@P6AXH@Z@@QAEP6AXH@Z$$QAV<lambda_a048d3beccc847880fc8490e18b82769>@@AAV<lambda_ec61778202f4f5fc7e7711acc23c3bca>@@$$QAV<lambda_f7496a158712204296dd6628a163878e>@@@Z 0042f38c f i libucrt:signal.obj
 0001:0002e3e6       ??$__acrt_lock_and_call@V<lambda_ec61778202f4f5fc7e7711acc23c3bca>@@@@YAP6AXH@ZW4__acrt_lock_id@@$$QAV<lambda_ec61778202f4f5fc7e7711acc23c3bca>@@@Z 0042f3e6 f i libucrt:signal.obj
 0001:0002e478       ___acrt_get_sigabrt_handler 0042f478 f   libucrt:signal.obj
 0001:0002e48f       ___acrt_initialize_signal_handlers 0042f48f f   libucrt:signal.obj
 0001:0002e4ca       ___fpecode                 0042f4ca f   libucrt:signal.obj
 0001:0002e4d3       _raise                     0042f4d3 f   libucrt:signal.obj
 0001:0002e6db       ??$?RV<lambda_123407a5e2ac06da108355a851863b7a>@@AAV<lambda_2fe9b910cf3cbf4a0ab98a02ba45b3ec>@@V<lambda_ae55bdf541ad94d75914d381c370e64d>@@@?$__crt_seh_guarded_call@H@@QAEH$$QAV<lambda_123407a5e2ac06da108355a851863b7a>@@AAV<lambda_2fe9b910cf3cbf4a0ab98a02ba45b3ec>@@$$QAV<lambda_ae55bdf541ad94d75914d381c370e64d>@@@Z 0042f6db f i libucrt:close.obj
 0001:0002e75d       ??$__acrt_lowio_lock_fh_and_call@V<lambda_2fe9b910cf3cbf4a0ab98a02ba45b3ec>@@@@YAHH$$QAV<lambda_2fe9b910cf3cbf4a0ab98a02ba45b3ec>@@@Z 0042f75d f i libucrt:close.obj
 0001:0002e785       __close                    0042f785 f   libucrt:close.obj
 0001:0002e804       __close_nolock             0042f804 f   libucrt:close.obj
 0001:0002e8a0       __fileno                   0042f8a0 f   libucrt:fileno.obj
 0001:0002e8c6       ?__acrt_stdio_allocate_stream@@YA?AV__crt_stdio_stream@@XZ 0042f8c6 f   libucrt:stream.obj
 0001:0002e925       ?__acrt_stdio_free_stream@@YAXV__crt_stdio_stream@@@Z 0042f925 f   libucrt:stream.obj
 0001:0002ea23       ___acrt_stdio_free_buffer_nolock 0042fa23 f   libucrt:_freebuf.obj
 0001:0002ea61       ??$__acrt_stdio_parse_mode@D@@YA?AU__acrt_stdio_stream_mode@@QBD@Z 0042fa61 f i libucrt:openfile.obj
 0001:0002ed18       ?__acrt_stdio_parse_mode_D@@YA_NAAU__acrt_stdio_stream_mode@@@Z 0042fd18 f i libucrt:openfile.obj
 0001:0002ed33       ?__acrt_stdio_parse_mode_T@@YA_NAAU__acrt_stdio_stream_mode@@@Z 0042fd33 f i libucrt:openfile.obj
 0001:0002ed52       ?__acrt_stdio_parse_mode_b@@YA_NAAU__acrt_stdio_stream_mode@@@Z 0042fd52 f i libucrt:openfile.obj
 0001:0002ed72       ?__acrt_stdio_parse_mode_c@@YA_NAAU__acrt_stdio_stream_mode@@AA_N@Z 0042fd72 f i libucrt:openfile.obj
 0001:0002ed94       ?__acrt_stdio_parse_mode_n@@YA_NAAU__acrt_stdio_stream_mode@@AA_N@Z 0042fd94 f i libucrt:openfile.obj
 0001:0002edb6       ?__acrt_stdio_parse_mode_plus@@YA_NAAU__acrt_stdio_stream_mode@@AA_N@Z 0042fdb6 f i libucrt:openfile.obj
 0001:0002edeb       ?__acrt_stdio_parse_mode_t@@YA_NAAU__acrt_stdio_stream_mode@@@Z 0042fdeb f i libucrt:openfile.obj
 0001:0002ee0b       __openfile                 0042fe0b f   libucrt:openfile.obj
 0001:0002ee16       ___acrt_stdio_begin_temporary_buffering_nolock 0042fe16 f   libucrt:_sftbuf.obj
 0001:0002eecb       ___acrt_stdio_end_temporary_buffering_nolock 0042fecb f   libucrt:_sftbuf.obj
 0001:0002f070       ___acrt_initialize_lowio   00430070 f   libucrt:ioinit.obj
 0001:0002f0c6       ___acrt_uninitialize_lowio 004300c6 f   libucrt:ioinit.obj
 0001:0002f0f2       __mbtowc_l                 004300f2 f   libucrt:mbtowc.obj
 0001:0002f1ec       _mbtowc                    004301ec f   libucrt:mbtowc.obj
 0001:0002f206       __wctomb_s_l               00430206 f   libucrt:wctomb.obj
 0001:0002f327       _wctomb_s                  00430327 f   libucrt:wctomb.obj
 0001:0002f344       _strnlen                   00430344 f   libucrt:strnlen.obj
 0001:0002f46b       _wcsnlen                   0043046b f   libucrt:strnlen.obj
 0001:0002f622       ??$?RV<lambda_3518db117f0e7cdb002338c5d3c47b6c>@@AAV<lambda_b2ea41f6bbb362cd97d94c6828d90b61>@@V<lambda_abdedf541bb04549bc734292b4a045d4>@@@?$__crt_seh_guarded_call@X@@QAEX$$QAV<lambda_3518db117f0e7cdb002338c5d3c47b6c>@@AAV<lambda_b2ea41f6bbb362cd97d94c6828d90b61>@@$$QAV<lambda_abdedf541bb04549bc734292b4a045d4>@@@Z 00430622 f i libucrt:per_thread_data.obj
 0001:0002f672       ??$?RV<lambda_51b6e8b1eb166f2a3faf91f424b38130>@@AAV<lambda_6250bd4b2a391816dd638c3bf72b0bcb>@@V<lambda_0b5a4a3e68152e1d9b943535f5f47bed>@@@?$__crt_seh_guarded_call@X@@QAEX$$QAV<lambda_51b6e8b1eb166f2a3faf91f424b38130>@@AAV<lambda_6250bd4b2a391816dd638c3bf72b0bcb>@@$$QAV<lambda_0b5a4a3e68152e1d9b943535f5f47bed>@@@Z 00430672 f i libucrt:per_thread_data.obj
 0001:0002f6d3       ??$?RV<lambda_5b71d36f03204c0beab531769a5b5694>@@AAV<lambda_be2b3da3f62db62e9dad5dc70221a656>@@V<lambda_8f9ce462984622f9bf76b59e2aaaf805>@@@?$__crt_seh_guarded_call@X@@QAEX$$QAV<lambda_5b71d36f03204c0beab531769a5b5694>@@AAV<lambda_be2b3da3f62db62e9dad5dc70221a656>@@$$QAV<lambda_8f9ce462984622f9bf76b59e2aaaf805>@@@Z 004306d3 f i libucrt:per_thread_data.obj
 0001:0002f71e       ??$?RV<lambda_9df27f884b057bc3edfc946cb5b7cf47>@@AAV<lambda_e69574bed617af4e071282c136b37893>@@V<lambda_cc0d902bcbbeb830f749456577db4721>@@@?$__crt_seh_guarded_call@X@@QAEX$$QAV<lambda_9df27f884b057bc3edfc946cb5b7cf47>@@AAV<lambda_e69574bed617af4e071282c136b37893>@@$$QAV<lambda_cc0d902bcbbeb830f749456577db4721>@@@Z 0043071e f i libucrt:per_thread_data.obj
 0001:0002f766       ??$__acrt_lock_and_call@V<lambda_6250bd4b2a391816dd638c3bf72b0bcb>@@@@YAXW4__acrt_lock_id@@$$QAV<lambda_6250bd4b2a391816dd638c3bf72b0bcb>@@@Z 00430766 f i libucrt:per_thread_data.obj
 0001:0002f78e       ??$__acrt_lock_and_call@V<lambda_b2ea41f6bbb362cd97d94c6828d90b61>@@@@YAXW4__acrt_lock_id@@$$QAV<lambda_b2ea41f6bbb362cd97d94c6828d90b61>@@@Z 0043078e f i libucrt:per_thread_data.obj
 0001:0002f7b6       ??$__acrt_lock_and_call@V<lambda_be2b3da3f62db62e9dad5dc70221a656>@@@@YAXW4__acrt_lock_id@@$$QAV<lambda_be2b3da3f62db62e9dad5dc70221a656>@@@Z 004307b6 f i libucrt:per_thread_data.obj
 0001:0002f7de       ??$__acrt_lock_and_call@V<lambda_e69574bed617af4e071282c136b37893>@@@@YAXW4__acrt_lock_id@@$$QAV<lambda_e69574bed617af4e071282c136b37893>@@@Z 004307de f i libucrt:per_thread_data.obj
 0001:0002f994       ___acrt_getptd             00430994 f   libucrt:per_thread_data.obj
 0001:0002fa18       ___acrt_getptd_noexit      00430a18 f   libucrt:per_thread_data.obj
 0001:0002fa9d       ___acrt_initialize_ptd     00430a9d f   libucrt:per_thread_data.obj
 0001:0002fac9       ___acrt_uninitialize_ptd   00430ac9 f   libucrt:per_thread_data.obj
 0001:0002fae3       ___acrt_update_locale_info 00430ae3 f   libucrt:locale_update.obj
 0001:0002fb10       ___acrt_update_multibyte_info 00430b10 f   libucrt:locale_update.obj
 0001:0002fb3d       ?__acrt_fp_classify@@YA?AW4__acrt_fp_class@@ABN@Z 00430b3d f i libucrt:cvt.obj
 0001:0002fba9       ?__acrt_fp_is_negative@@YA_NABN@Z 00430ba9 f i libucrt:cvt.obj
 0001:00030408       ___acrt_fp_format          00431408 f   libucrt:cvt.obj
 0001:00030584       __fputwc_nolock            00431584 f   libucrt:fputwc.obj
 0001:000306aa       __get_printf_count_output  004316aa f   libucrt:printf_count_output.obj
 0001:000306bf       ___pctype_func             004316bf f   libucrt:ctype.obj
 0001:000306e5       __isctype_l                004316e5 f   libucrt:isctype.obj
 0001:000307b7       _fegetround                004317b7 f   libucrt:fegetround.obj
 0001:00030d52       __write                    00431d52 f   libucrt:write.obj
 0001:00030e3d       __write_nolock             00431e3d f   libucrt:write.obj
 0001:0003140f       ___acrt_stdio_flush_and_write_narrow_nolock 0043240f f   libucrt:_flsbuf.obj
 0001:0003141a       ___acrt_stdio_flush_and_write_wide_nolock 0043241a f   libucrt:_flsbuf.obj
 0001:00031425       __realloc_base             00432425 f   libucrt:realloc_base.obj
 0001:0003148e       __isleadbyte_l             0043248e f i libucrt:_wctype.obj
 0001:000316e4       ___acrt_LCMapStringA       004326e4 f   libucrt:lcmapstringa.obj
 0001:0003172f       __freea_crt                0043272f f i libucrt:lcmapstringa.obj
 0001:000318d0       ___acrt_stdio_refill_and_read_narrow_nolock 004328d0 f   libucrt:_filbuf.obj
 0001:00031dc3       __read                     00432dc3 f   libucrt:read.obj
 0001:00031ed6       __read_nolock              00432ed6 f   libucrt:read.obj
 0001:000325d4       __lseek                    004335d4 f   libucrt:lseek.obj
 0001:000325df       __lseeki64                 004335df f   libucrt:lseek.obj
 0001:000325fa       __lseeki64_nolock          004335fa f   libucrt:lseek.obj
 0001:00032615       ___acrt_stdio_allocate_buffer_nolock 00433615 f   libucrt:_getbuf.obj
 0001:000327eb       __mbstowcs_s_l             004337eb f   libucrt:mbstowcs.obj
 0001:000328ce       ___acrt_initialize_locks   004338ce f   libucrt:locks.obj
 0001:0003290f       ___acrt_lock               0043390f f   libucrt:locks.obj
 0001:00032926       ___acrt_uninitialize_locks 00433926 f   libucrt:locks.obj
 0001:00032957       ___acrt_unlock             00433957 f   libucrt:locks.obj
 0001:0003296e       __strnicoll                0043396e f   libucrt:strnicol.obj
 0001:00032997       __strnicoll_l              00433997 f   libucrt:strnicol.obj
 0001:00032a61       ??$__crt_time_is_leap_year@H@@YA_NH@Z 00433a61 f i libucrt:wcsftime.obj
 0001:00033c55       __Wcsftime_l               00434c55 f   libucrt:wcsftime.obj
 0001:00033f3b       ___acrt_AreFileApisANSI@0  00434f3b f   libucrt:winapi_thunks.obj
 0001:00033f89       ___acrt_CompareStringEx@36 00434f89 f   libucrt:winapi_thunks.obj
 0001:00033ffd       ___acrt_FlsAlloc@4         00434ffd f   libucrt:winapi_thunks.obj
 0001:00034053       ___acrt_FlsFree@4          00435053 f   libucrt:winapi_thunks.obj
 0001:000340a9       ___acrt_FlsGetValue@4      004350a9 f   libucrt:winapi_thunks.obj
 0001:000340ff       ___acrt_FlsSetValue@8      004350ff f   libucrt:winapi_thunks.obj
 0001:00034158       ___acrt_GetDateFormatEx@28 00435158 f   libucrt:winapi_thunks.obj
 0001:000341da       ___acrt_GetTimeFormatEx@24 004351da f   libucrt:winapi_thunks.obj
 0001:0003424a       ___acrt_InitializeCriticalSectionEx@12 0043524a f   libucrt:winapi_thunks.obj
 0001:000342ac       ___acrt_LCMapStringEx@36   004352ac f   libucrt:winapi_thunks.obj
 0001:00034334       ___acrt_LocaleNameToLCID@8 00435334 f   libucrt:winapi_thunks.obj
 0001:00034390       ___acrt_MessageBoxW@16     00435390 f   libucrt:winapi_thunks.obj
 0001:000343d9       ___acrt_can_show_message_box 004353d9 f   libucrt:winapi_thunks.obj
 0001:000343f2       ___acrt_get_parent_window  004353f2 f   libucrt:winapi_thunks.obj
 0001:00034471       ___acrt_initialize_winapi_thunks 00435471 f   libucrt:winapi_thunks.obj
 0001:00034497       ___acrt_is_interactive     00435497 f   libucrt:winapi_thunks.obj
 0001:0003453d       ___acrt_is_packaged_app    0043553d f   libucrt:winapi_thunks.obj
 0001:000345c4       ___acrt_uninitialize_winapi_thunks 004355c4 f   libucrt:winapi_thunks.obj
 0001:000349bc       ??1?$argument_list@D@?A0xb0e4b824@@QAE@XZ 004359bc f i libucrt:argv_wildcards.obj
 0001:000349e1       ?append@?$argument_list@D@?A0xb0e4b824@@QAEHQAD@Z 004359e1 f i libucrt:argv_wildcards.obj
 0001:00034a16       ?expand_if_necessary@?$argument_list@D@?A0xb0e4b824@@AAEHXZ 00435a16 f i libucrt:argv_wildcards.obj
 0001:00034a9d       ___acrt_expand_narrow_argv_wildcards 00435a9d f   libucrt:argv_wildcards.obj
 0001:00034aa8       ??$?RV<lambda_978dc153c237d78434369da87b74ff60>@@AAV<lambda_ad1ced32f4ac17aa236e5ef05d6b3b7c>@@V<lambda_4a8533e2866a575feecb8298ce776b0d>@@@?$__crt_seh_guarded_call@X@@QAEX$$QAV<lambda_978dc153c237d78434369da87b74ff60>@@AAV<lambda_ad1ced32f4ac17aa236e5ef05d6b3b7c>@@$$QAV<lambda_4a8533e2866a575feecb8298ce776b0d>@@@Z 00435aa8 f i libucrt:mbctype.obj
 0001:00034aeb       ??$__acrt_lock_and_call@V<lambda_ad1ced32f4ac17aa236e5ef05d6b3b7c>@@@@YAXW4__acrt_lock_id@@$$QAV<lambda_ad1ced32f4ac17aa236e5ef05d6b3b7c>@@@Z 00435aeb f i libucrt:mbctype.obj
 0001:00034f82       ___acrt_initialize_multibyte 00435f82 f   libucrt:mbctype.obj
 0001:00034fa1       ___acrt_update_thread_multibyte_data 00435fa1 f   libucrt:mbctype.obj
 0001:00035043       __setmbcp_nolock           00436043 f   libucrt:mbctype.obj
 0001:0003528d       __ismbblead                0043628d f   libucrt:ismbbyte.obj
 0001:000352a5       ___acrt_initialize_command_line 004362a5 f   libucrt:argv_data.obj
 0001:000352f5       ___dcrt_get_narrow_environment_from_os 004362f5 f   libucrt:get_environment_from_os.obj
 0001:000356b8       ___dcrt_set_variable_in_narrow_environment_nolock 004366b8 f   libucrt:setenv.obj
 0001:000356c3       ___acrt_lowio_create_handle_array 004366c3 f   libucrt:osfinfo.obj
 0001:0003573d       ___acrt_lowio_destroy_handle_array 0043673d f   libucrt:osfinfo.obj
 0001:00035772       ___acrt_lowio_ensure_fh_exists 00436772 f   libucrt:osfinfo.obj
 0001:0003580a       ___acrt_lowio_lock_fh      0043680a f   libucrt:osfinfo.obj
 0001:0003582d       ___acrt_lowio_set_os_handle 0043682d f   libucrt:osfinfo.obj
 0001:000358c1       ___acrt_lowio_unlock_fh    004368c1 f   libucrt:osfinfo.obj
 0001:000358e4       __alloc_osfhnd             004368e4 f   libucrt:osfinfo.obj
 0001:000359f6       __free_osfhnd              004369f6 f   libucrt:osfinfo.obj
 0001:00035a87       __get_osfhandle            00436a87 f   libucrt:osfinfo.obj
 0001:00035af1       ____lc_codepage_func       00436af1 f   libucrt:initctype.obj
 0001:00035b18       ___acrt_locale_free_monetary 00436b18 f   libucrt:initmon.obj
 0001:00035c16       ___acrt_locale_free_numeric 00436c16 f   libucrt:initnum.obj
 0001:00035cbb       ___acrt_locale_free_time   00436cbb f   libucrt:inittime.obj
 0001:00035d9f       ___acrt_GetStringTypeA     00436d9f f   libucrt:getstringtypea.obj
 0001:00035ebc       ___acrt_add_locale_ref     00436ebc f   libucrt:locale_refcounting.obj
 0001:00035f39       ___acrt_free_locale        00436f39 f   libucrt:locale_refcounting.obj
 0001:00036083       ___acrt_locale_add_lc_time_reference 00437083 f   libucrt:locale_refcounting.obj
 0001:000360ac       ___acrt_locale_free_lc_time_if_unreferenced 004370ac f   libucrt:locale_refcounting.obj
 0001:000360dc       ___acrt_locale_release_lc_time_reference 004370dc f   libucrt:locale_refcounting.obj
 0001:00036105       ___acrt_release_locale_ref 00437105 f   libucrt:locale_refcounting.obj
 0001:00036186       ___acrt_update_thread_locale_data 00437186 f   libucrt:locale_refcounting.obj
 0001:000361fd       __updatetlocinfoEx_nolock  004371fd f   libucrt:locale_refcounting.obj
 0001:0003624d       __recalloc                 0043724d f   libucrt:recalloc.obj
 0001:00036258       __recalloc_base            00437258 f   libucrt:recalloc.obj
 0001:000362c5       ___acrt_initialize_heap    004372c5 f   libucrt:heap_handle.obj
 0001:000362d6       ___acrt_uninitialize_heap  004372d6 f   libucrt:heap_handle.obj
 0001:000362e0       ___acrt_execute_initializers 004372e0 f   libucrt:shared_initialization.obj
 0001:00036363       ___acrt_execute_uninitializers 00437363 f   libucrt:shared_initialization.obj
 0001:000363b0       ___acrt_initialize_new_handler 004373b0 f   libucrt:new_handler.obj
 0001:000363c4       __callnewh                 004373c4 f   libucrt:new_handler.obj
 0001:00036408       __query_new_handler        00437408 f   libucrt:new_handler.obj
 0001:00036505       __clearfp                  00437505 f   libucrt:ieee87.obj
 0001:000365e3       __control87                004375e3 f   libucrt:ieee87.obj
 0001:0003697e       __fcloseall                0043797e f   libucrt:closeall.obj
 0001:00036a1e       ??$?RV<lambda_61cee617f5178ae960314fd4d05640a0>@@AAV<lambda_6978c1fb23f02e42e1d9e99668cc68aa>@@V<lambda_9cd88cf8ad10232537feb2133f08c833>@@@?$__crt_seh_guarded_call@H@@QAEH$$QAV<lambda_61cee617f5178ae960314fd4d05640a0>@@AAV<lambda_6978c1fb23f02e42e1d9e99668cc68aa>@@$$QAV<lambda_9cd88cf8ad10232537feb2133f08c833>@@@Z 00437a1e f i libucrt:commit.obj
 0001:00036ab6       ??$__acrt_lowio_lock_fh_and_call@V<lambda_6978c1fb23f02e42e1d9e99668cc68aa>@@@@YAHH$$QAV<lambda_6978c1fb23f02e42e1d9e99668cc68aa>@@@Z 00437ab6 f i libucrt:commit.obj
 0001:00036ade       __commit                   00437ade f   libucrt:commit.obj
 0001:00036b4d       __strnicmp                 00437b4d f   libucrt:strnicmp.obj
 0001:00036bb9       __strnicmp_l               00437bb9 f   libucrt:strnicmp.obj
 0001:0003724a       __sopen_nolock             0043824a f   libucrt:open.obj
 0001:0003729b       __sopen_s                  0043829b f   libucrt:open.obj
 0001:000372bb       __wsopen_nolock            004382bb f   libucrt:open.obj
 0001:000375e4       __isatty                   004385e4 f   libucrt:isatty.obj
 0001:0003763a       ___acrt_fp_strflt_to_string 0043863a f   libucrt:_fptostr.obj
 0001:000376f6       ??0scoped_fp_state_reset@?A0x48fbfdd4@@QAE@XZ 004386f6 f i libucrt:cfout.obj
 0001:00037720       ___acrt_fltout             00438720 f   libucrt:cfout.obj
 0001:00038de0       __getfpcontrolword         00439de0 f   libucrt:_fenvutils.obj
 0001:00038e23       __getfpstatusword          00439e23 f   libucrt:_fenvutils.obj
 0001:00038ecb       __setfpcontrolword         00439ecb f   libucrt:_fenvutils.obj
 0001:00038f4b       __setfpstatusword          00439f4b f   libucrt:_fenvutils.obj
 0001:00038fcb       __putwch_nolock            00439fcb f   libucrt:putwch.obj
 0001:00039010       ___strncnt                 0043a010 f   libucrt:strncnt.obj
 0001:000392d4       ___acrt_CompareStringA     0043a2d4 f   libucrt:comparestringa.obj
 0001:0003931c       __wcsicmp                  0043a31c f   libucrt:wcsicmp.obj
 0001:000393b1       __wcsicmp_l                0043a3b1 f   libucrt:wcsicmp.obj
 0001:00039491       ___acrt_initialize_timeset 0043a491 f   libucrt:timeset.obj
 0001:000394c8       ___daylight                0043a4c8 f   libucrt:timeset.obj
 0001:000394ce       ___dstbias                 0043a4ce f   libucrt:timeset.obj
 0001:000394d4       ___timezone                0043a4d4 f   libucrt:timeset.obj
 0001:000394da       ___tzname                  0043a4da f   libucrt:timeset.obj
 0001:000394e0       __get_daylight             0043a4e0 f   libucrt:timeset.obj
 0001:0003950c       __get_dstbias              0043a50c f   libucrt:timeset.obj
 0001:00039538       __get_timezone             0043a538 f   libucrt:timeset.obj
 0001:00039974       ___tzset                   0043a974 f   libucrt:tzset.obj
 0001:00039a81       ___acrt_DownlevelLocaleNameToLCID 0043aa81 f   libucrt:lcidtoname_downlevel.obj
 0001:00039b90       _qsort                     0043ab90 f   libucrt:qsort.obj
 0001:00039fdb       _strncpy_s                 0043afdb f   libucrt:strncpy_s.obj
 0001:00039ff0       _strpbrk                   0043aff0 f   libucrt:strpbrk.obj
 0001:0003a030       __mbsdec                   0043b030 f   libucrt:mbsdec.obj
 0001:0003a047       __mbsdec_l                 0043b047 f   libucrt:mbsdec.obj
 0001:0003a0e3       __msize                    0043b0e3 f   libucrt:msize.obj
 0001:0003a116       ___set_fpsr_sse2           0043b116 f   libucrt:fpctrl.obj
 0001:0003a18c       __clrfp                    0043b18c f   libucrt:fpctrl.obj
 0001:0003a19f       __ctrlfp                   0043b19f f   libucrt:fpctrl.obj
 0001:0003a1cb       __set_statfp               0043b1cb f   libucrt:fpctrl.obj
 0001:0003a226       __statfp                   0043b226 f   libucrt:fpctrl.obj
 0001:0003a238       __towlower_l               0043b238 f   libucrt:towlower.obj
 0001:0003a310       ___ascii_strnicmp          0043b310 f   libucrt:_strnicm.obj
 0001:0003a371       ___acrt_copy_path_to_wide_string 0043b371 f   libucrt:string_utilities.obj
 0001:0003a438       __chsize_nolock            0043b438 f   libucrt:chsize.obj
 0001:0003a5c9       _fegetenv                  0043b5c9 f   libucrt:fegetenv.obj
 0001:0003a5e6       _fesetenv                  0043b5e6 f   libucrt:fesetenv.obj
 0001:0003a62f       _feholdexcept              0043b62f f   libucrt:feholdexcept.obj
 0001:0003a680       _log10                     0043b680 f   libucrt:log10.obj
 0001:0003a6c0       __CIlog10                  0043b6c0 f   libucrt:log10.obj
 0001:0003a6fb       __CIlog10_default          0043b6fb f   libucrt:log10.obj
 0001:0003a70f       __log10_default            0043b70f     libucrt:log10.obj
 0001:0003a7d0       _ceil                      0043b7d0 f   libucrt:ceil_pentium4.obj
 0001:0003a810       __ceil_pentium4            0043b810 f   libucrt:ceil_pentium4.obj
 0001:0003a8ed       ___dcrt_lowio_initialize_console_output 0043b8ed f   libucrt:initcon.obj
 0001:0003a90c       ___dcrt_terminate_console_output 0043b90c f   libucrt:initcon.obj
 0001:0003a923       ___acrt_LCMapStringW       0043b923 f   libucrt:lcmapstringw.obj
 0001:0003a961       ___acrt_initialize_sse2    0043b961 f   libucrt:mathfcns.obj
 0001:0003a970       __CIlog10_pentium4         0043b970 f   libucrt:log10_pentium4.obj
 0001:0003a988       __log10_pentium4           0043b988     libucrt:log10_pentium4.obj
 0001:0003ac11       __fFEXP                    0043bc11     libucrt:87tran.obj
 0001:0003ac68       __rtinfpopse               0043bc68     libucrt:87tran.obj
 0001:0003ac6a       __rtinfnpopse              0043bc6a     libucrt:87tran.obj
 0001:0003ac7a       __fFLN                     0043bc7a     libucrt:87tran.obj
 0001:0003ad2f       __rtinfpop                 0043bd2f     libucrt:87tran.obj
 0001:0003ad31       __rtinfnpop                0043bd31     libucrt:87tran.obj
 0001:0003ad4e       __ffexpm1                  0043bd4e     libucrt:87tran.obj
 0001:0003ae00       __trandisp1                0043be00 f   libucrt:87disp.obj
 0001:0003ae67       __trandisp2                0043be67 f   libucrt:87disp.obj
 0001:0003aef3       __rttospopde               0043bef3     libucrt:87disp.obj
 0001:0003aef8       __rttospop                 0043bef8     libucrt:87disp.obj
 0001:0003aefa       __rtnospop                 0043befa     libucrt:87disp.obj
 0001:0003aefc       __rttosnpop                0043befc     libucrt:87disp.obj
 0001:0003aefd       __rtnospopde               0043befd     libucrt:87disp.obj
 0001:0003af04       __rtzeropop                0043bf04     libucrt:87disp.obj
 0001:0003af06       __rtzeronpop               0043bf06     libucrt:87disp.obj
 0001:0003af0b       __rtzerospop               0043bf0b     libucrt:87disp.obj
 0001:0003af18       __rtonepop                 0043bf18     libucrt:87disp.obj
 0001:0003af1a       __rtonenpop                0043bf1a     libucrt:87disp.obj
 0001:0003af1f       __tosnan1                  0043bf1f     libucrt:87disp.obj
 0001:0003af4a       __nosnan2                  0043bf4a     libucrt:87disp.obj
 0001:0003af4c       __tosnan2                  0043bf4c     libucrt:87disp.obj
 0001:0003af74       __nan2                     0043bf74     libucrt:87disp.obj
 0001:0003afb3       __rtindfpop                0043bfb3     libucrt:87disp.obj
 0001:0003afb5       __rtindfnpop               0043bfb5     libucrt:87disp.obj
 0001:0003afc6       __rttosnpopde              0043bfc6     libucrt:87disp.obj
 0001:0003afd0       __rtatan2inf               0043bfd0     libucrt:87disp.obj
 0001:0003afed       __rtchsifneg               0043bfed     libucrt:87disp.obj
 0001:0003b000       __twoToTOS                 0043c000 f   libucrt:common.obj
 0001:0003b015       __load_CW                  0043c015 f   libucrt:common.obj
 0001:0003b02c       __convertTOStoQNaN         0043c02c f   libucrt:common.obj
 0001:0003b045       __fload_withFB             0043c045 f   libucrt:common.obj
 0001:0003b088       __checkTOS_withFB          0043c088 f   libucrt:common.obj
 0001:0003b09e       __fast_exit                0043c09e f   libucrt:common.obj
 0001:0003b0ab       __math_exit                0043c0ab f   libucrt:common.obj
 0001:0003b0d5       __check_overflow_exit      0043c0d5 f   libucrt:common.obj
 0001:0003b0e9       __check_range_exit         0043c0e9 f   libucrt:common.obj
 0001:0003b190       __startTwoArgErrorHandling 0043c190 f   libucrt:genexcep.obj
 0001:0003b1a7       __startOneArgErrorHandling 0043c1a7 f   libucrt:genexcep.obj
 0001:0003b1e3       ___libm_error_support      0043c1e3 f   libucrt:libm_error.obj
 0001:0003b3fb       __ceil_default             0043c3fb f   libucrt:ceil.obj
 0001:0003b4b4       __d_inttype                0043c4b4 f   libucrt:powhlp.obj
 0001:0003b51e       __powhlp                   0043c51e f   libucrt:powhlp.obj
 0001:0003b649       __87except                 0043c649 f   libucrt:87except.obj
 0001:0003b754       __frnd                     0043c754 f   libucrt:frnd.obj
 0001:0003b76a       __errcode                  0043c76a f   libucrt:fpexcept.obj
 0001:0003b79e       __except1                  0043c79e f   libucrt:fpexcept.obj
 0001:0003b86c       __handle_exc               0043c86c f   libucrt:fpexcept.obj
 0001:0003ba4c       __raise_exc                0043ca4c f   libucrt:fpexcept.obj
 0001:0003ba6f       __raise_exc_ex             0043ca6f f   libucrt:fpexcept.obj
 0001:0003bd60       __set_errno_from_matherr   0043cd60 f   libucrt:fpexcept.obj
 0001:0003bd8f       __umatherr                 0043cd8f f   libucrt:fpexcept.obj
 0001:0003be31       __decomp                   0043ce31 f   libucrt:util.obj
 0001:0003bf05       __set_exp                  0043cf05 f   libucrt:util.obj
 0001:0003bf34       __sptype                   0043cf34 f   libucrt:util.obj
 0001:0003bf92       __fpclass                  0043cf92 f   libucrt:ieeemisc.obj
 0001:0003c040       __FindPESection            0043d040 f   LIBCMT:pesect.obj
 0001:0003c090       __IsNonwritableInCurrentImage 0043d090 f   LIBCMT:pesect.obj
 0001:0003c150       __ValidateImageBase        0043d150 f   LIBCMT:pesect.obj
 0001:0003c190       __aulldvrm                 0043d190 f   LIBCMT:ulldvrm.obj
 0001:0003c230       __SEH_prolog4_GS           0043d230 f   LIBCMT:_sehprolg4gs_.obj
 0001:0003c279       __SEH_epilog4_GS           0043d279 f   LIBCMT:_sehprolg4gs_.obj
 0001:0003c290       __alldvrm                  0043d290 f   LIBCMT:lldvrm.obj
 0001:0003c370       __alloca_probe_16          0043d370 f   LIBCMT:alloca16.obj
 0001:0003c386       __alloca_probe_8           0043d386     LIBCMT:alloca16.obj
 0001:0003c3a0       __ftol2_sse                0043d3a0 f   LIBCMT:_ftol2_.obj
 0001:0003c3a9       __ftol2_pentium4           0043d3a9 f   LIBCMT:_ftol2_.obj
 0001:0003c3bc       __ftol2_sse_excpt          0043d3bc f   LIBCMT:_ftol2_.obj
 0001:0003c3e0       __ftol2                    0043d3e0 f   LIBCMT:_ftol2_.obj
 0001:0003c456       _RtlUnwind@16              0043d456 f   kernel32:KERNEL32.dll
 0001:0003c460       _strrchr                   0043d460 f   libvcruntime:strrchr.obj
 0002:00000000       __imp__RegCloseKey@4       0043e000     advapi32:ADVAPI32.dll
 0002:00000004       __imp__RegCreateKeyA@12    0043e004     advapi32:ADVAPI32.dll
 0002:00000008       __imp__RegQueryValueExA@24 0043e008     advapi32:ADVAPI32.dll
 0002:0000000c       __imp__AllocateAndInitializeSid@44 0043e00c     advapi32:ADVAPI32.dll
 0002:00000010       __imp__CopySid@12          0043e010     advapi32:ADVAPI32.dll
 0002:00000014       __imp__GetLengthSid@4      0043e014     advapi32:ADVAPI32.dll
 0002:00000018       __imp__RegOpenKeyA@12      0043e018     advapi32:ADVAPI32.dll
 0002:0000001c       \177ADVAPI32_NULL_THUNK_DATA 0043e01c     advapi32:ADVAPI32.dll
 0002:00000020       __imp__GetOpenFileNameA@4  0043e020     comdlg32:COMDLG32.dll
 0002:00000024       __imp__GetSaveFileNameA@4  0043e024     comdlg32:COMDLG32.dll
 0002:00000028       \177COMDLG32_NULL_THUNK_DATA 0043e028     comdlg32:COMDLG32.dll
 0002:0000002c       __imp__DecodePointer@4     0043e02c     kernel32:KERNEL32.dll
 0002:00000030       __imp__SetEndOfFile@4      0043e030     kernel32:KERNEL32.dll
 0002:00000034       __imp__HeapSize@12         0043e034     kernel32:KERNEL32.dll
 0002:00000038       __imp__GetTimeZoneInformation@4 0043e038     kernel32:KERNEL32.dll
 0002:0000003c       __imp__CreateFileW@28      0043e03c     kernel32:KERNEL32.dll
 0002:00000040       __imp__FlushFileBuffers@4  0043e040     kernel32:KERNEL32.dll
 0002:00000044       __imp__GetProcessHeap@0    0043e044     kernel32:KERNEL32.dll
 0002:00000048       __imp__SetStdHandle@8      0043e048     kernel32:KERNEL32.dll
 0002:0000004c       __imp__SetEnvironmentVariableA@8 0043e04c     kernel32:KERNEL32.dll
 0002:00000050       __imp__FreeEnvironmentStringsW@4 0043e050     kernel32:KERNEL32.dll
 0002:00000054       __imp__GetEnvironmentStringsW@0 0043e054     kernel32:KERNEL32.dll
 0002:00000058       __imp__GetCommandLineW@0   0043e058     kernel32:KERNEL32.dll
 0002:0000005c       __imp__GetCommandLineA@0   0043e05c     kernel32:KERNEL32.dll
 0002:00000060       __imp__GetCPInfo@8         0043e060     kernel32:KERNEL32.dll
 0002:00000064       __imp__GetOEMCP@0          0043e064     kernel32:KERNEL32.dll
 0002:00000068       __imp__IsValidCodePage@4   0043e068     kernel32:KERNEL32.dll
 0002:0000006c       __imp__FindFirstFileExA@24 0043e06c     kernel32:KERNEL32.dll
 0002:00000070       __imp__LCMapStringW@24     0043e070     kernel32:KERNEL32.dll
 0002:00000074       __imp__CompareStringW@24   0043e074     kernel32:KERNEL32.dll
 0002:00000078       __imp__GetTimeFormatW@24   0043e078     kernel32:KERNEL32.dll
 0002:0000007c       __imp__GetDateFormatW@24   0043e07c     kernel32:KERNEL32.dll
 0002:00000080       __imp__SetFilePointerEx@20 0043e080     kernel32:KERNEL32.dll
 0002:00000084       __imp__ReadConsoleW@20     0043e084     kernel32:KERNEL32.dll
 0002:00000088       __imp__HeapReAlloc@16      0043e088     kernel32:KERNEL32.dll
 0002:0000008c       __imp__GetConsoleCP@0      0043e08c     kernel32:KERNEL32.dll
 0002:00000090       __imp__WaitForSingleObjectEx@12 0043e090     kernel32:KERNEL32.dll
 0002:00000094       __imp__OutputDebugStringW@4 0043e094     kernel32:KERNEL32.dll
 0002:00000098       __imp__HeapAlloc@12        0043e098     kernel32:KERNEL32.dll
 0002:0000009c       __imp__HeapFree@12         0043e09c     kernel32:KERNEL32.dll
 0002:000000a0       __imp__GetACP@0            0043e0a0     kernel32:KERNEL32.dll
 0002:000000a4       __imp__ExitProcess@4       0043e0a4     kernel32:KERNEL32.dll
 0002:000000a8       __imp__WideCharToMultiByte@32 0043e0a8     kernel32:KERNEL32.dll
 0002:000000ac       __imp__MultiByteToWideChar@24 0043e0ac     kernel32:KERNEL32.dll
 0002:000000b0       __imp__GetStringTypeW@16   0043e0b0     kernel32:KERNEL32.dll
 0002:000000b4       __imp__WriteConsoleW@20    0043e0b4     kernel32:KERNEL32.dll
 0002:000000b8       __imp__GetModuleHandleExW@12 0043e0b8     kernel32:KERNEL32.dll
 0002:000000bc       __imp__GetModuleFileNameW@12 0043e0bc     kernel32:KERNEL32.dll
 0002:000000c0       __imp__GetModuleFileNameA@12 0043e0c0     kernel32:KERNEL32.dll
 0002:000000c4       __imp__GetFileType@4       0043e0c4     kernel32:KERNEL32.dll
 0002:000000c8       __imp__GetStdHandle@4      0043e0c8     kernel32:KERNEL32.dll
 0002:000000cc       __imp__LoadLibraryExW@12   0043e0cc     kernel32:KERNEL32.dll
 0002:000000d0       __imp__TlsFree@4           0043e0d0     kernel32:KERNEL32.dll
 0002:000000d4       __imp__TlsSetValue@8       0043e0d4     kernel32:KERNEL32.dll
 0002:000000d8       __imp__GetProcAddress@8    0043e0d8     kernel32:KERNEL32.dll
 0002:000000dc       __imp__CreateFileA@28      0043e0dc     kernel32:KERNEL32.dll
 0002:000000e0       __imp__DeleteFileA@4       0043e0e0     kernel32:KERNEL32.dll
 0002:000000e4       __imp__WriteFile@20        0043e0e4     kernel32:KERNEL32.dll
 0002:000000e8       __imp__CloseHandle@4       0043e0e8     kernel32:KERNEL32.dll
 0002:000000ec       __imp__GetLastError@0      0043e0ec     kernel32:KERNEL32.dll
 0002:000000f0       __imp__GetCurrentProcessId@0 0043e0f0     kernel32:KERNEL32.dll
 0002:000000f4       __imp__FreeLibrary@4       0043e0f4     kernel32:KERNEL32.dll
 0002:000000f8       __imp__LoadResource@8      0043e0f8     kernel32:KERNEL32.dll
 0002:000000fc       __imp__LockResource@4      0043e0fc     kernel32:KERNEL32.dll
 0002:00000100       __imp__SizeofResource@8    0043e100     kernel32:KERNEL32.dll
 0002:00000104       __imp__FindResourceA@12    0043e104     kernel32:KERNEL32.dll
 0002:00000108       __imp__GetTempPathA@8      0043e108     kernel32:KERNEL32.dll
 0002:0000010c       __imp__GetSystemDirectoryA@8 0043e10c     kernel32:KERNEL32.dll
 0002:00000110       __imp__FormatMessageA@28   0043e110     kernel32:KERNEL32.dll
 0002:00000114       __imp__LoadLibraryA@4      0043e114     kernel32:KERNEL32.dll
 0002:00000118       __imp__GetConsoleMode@8    0043e118     kernel32:KERNEL32.dll
 0002:0000011c       __imp__FindClose@4         0043e11c     kernel32:KERNEL32.dll
 0002:00000120       __imp__FindFirstFileA@8    0043e120     kernel32:KERNEL32.dll
 0002:00000124       __imp__FindNextFileA@8     0043e124     kernel32:KERNEL32.dll
 0002:00000128       __imp__QueryPerformanceCounter@4 0043e128     kernel32:KERNEL32.dll
 0002:0000012c       __imp__GetProcessTimes@20  0043e12c     kernel32:KERNEL32.dll
 0002:00000130       __imp__GetCurrentProcess@0 0043e130     kernel32:KERNEL32.dll
 0002:00000134       __imp__GetCurrentThread@0  0043e134     kernel32:KERNEL32.dll
 0002:00000138       __imp__GetThreadTimes@20   0043e138     kernel32:KERNEL32.dll
 0002:0000013c       __imp__GetSystemTimeAsFileTime@4 0043e13c     kernel32:KERNEL32.dll
 0002:00000140       __imp__GetWindowsDirectoryA@8 0043e140     kernel32:KERNEL32.dll
 0002:00000144       __imp__GlobalMemoryStatus@4 0043e144     kernel32:KERNEL32.dll
 0002:00000148       __imp__CreateThread@24     0043e148     kernel32:KERNEL32.dll
 0002:0000014c       __imp__OpenProcess@12      0043e14c     kernel32:KERNEL32.dll
 0002:00000150       __imp__LocalAlloc@8        0043e150     kernel32:KERNEL32.dll
 0002:00000154       __imp__LocalFree@4         0043e154     kernel32:KERNEL32.dll
 0002:00000158       __imp__GetEnvironmentVariableA@12 0043e158     kernel32:KERNEL32.dll
 0002:0000015c       __imp__ReadFile@20         0043e15c     kernel32:KERNEL32.dll
 0002:00000160       __imp__GetLocalTime@4      0043e160     kernel32:KERNEL32.dll
 0002:00000164       __imp__SetCurrentDirectoryA@4 0043e164     kernel32:KERNEL32.dll
 0002:00000168       __imp__GetCurrentDirectoryA@8 0043e168     kernel32:KERNEL32.dll
 0002:0000016c       __imp__UnhandledExceptionFilter@4 0043e16c     kernel32:KERNEL32.dll
 0002:00000170       __imp__SetUnhandledExceptionFilter@4 0043e170     kernel32:KERNEL32.dll
 0002:00000174       __imp__TerminateProcess@8  0043e174     kernel32:KERNEL32.dll
 0002:00000178       __imp__IsProcessorFeaturePresent@4 0043e178     kernel32:KERNEL32.dll
 0002:0000017c       __imp__GetCurrentThreadId@0 0043e17c     kernel32:KERNEL32.dll
 0002:00000180       __imp__InitializeSListHead@4 0043e180     kernel32:KERNEL32.dll
 0002:00000184       __imp__IsDebuggerPresent@0 0043e184     kernel32:KERNEL32.dll
 0002:00000188       __imp__GetStartupInfoW@4   0043e188     kernel32:KERNEL32.dll
 0002:0000018c       __imp__GetModuleHandleW@4  0043e18c     kernel32:KERNEL32.dll
 0002:00000190       __imp__RtlUnwind@16        0043e190     kernel32:KERNEL32.dll
 0002:00000194       __imp__SetLastError@4      0043e194     kernel32:KERNEL32.dll
 0002:00000198       __imp__EnterCriticalSection@4 0043e198     kernel32:KERNEL32.dll
 0002:0000019c       __imp__LeaveCriticalSection@4 0043e19c     kernel32:KERNEL32.dll
 0002:000001a0       __imp__DeleteCriticalSection@4 0043e1a0     kernel32:KERNEL32.dll
 0002:000001a4       __imp__InitializeCriticalSectionAndSpinCount@8 0043e1a4     kernel32:KERNEL32.dll
 0002:000001a8       __imp__TlsAlloc@0          0043e1a8     kernel32:KERNEL32.dll
 0002:000001ac       __imp__TlsGetValue@4       0043e1ac     kernel32:KERNEL32.dll
 0002:000001b0       __imp__RaiseException@16   0043e1b0     kernel32:KERNEL32.dll
 0002:000001b4       \177KERNEL32_NULL_THUNK_DATA 0043e1b4     kernel32:KERNEL32.dll
 0002:000001b8       __imp__ShellExecuteA@24    0043e1b8     shell32:SHELL32.dll
 0002:000001bc       \177SHELL32_NULL_THUNK_DATA 0043e1bc     shell32:SHELL32.dll
 0002:000001c0       __imp__CheckMenuRadioItem@20 0043e1c0     user32:USER32.dll
 0002:000001c4       __imp__GetDesktopWindow@0  0043e1c4     user32:USER32.dll
 0002:000001c8       __imp__GetWindowLongA@8    0043e1c8     user32:USER32.dll
 0002:000001cc       __imp__GetWindowRect@8     0043e1cc     user32:USER32.dll
 0002:000001d0       __imp__GetWindowTextLengthA@4 0043e1d0     user32:USER32.dll
 0002:000001d4       __imp__GetWindowTextA@12   0043e1d4     user32:USER32.dll
 0002:000001d8       __imp__SetForegroundWindow@4 0043e1d8     user32:USER32.dll
 0002:000001dc       __imp__SetActiveWindow@4   0043e1dc     user32:USER32.dll
 0002:000001e0       __imp__AppendMenuA@16      0043e1e0     user32:USER32.dll
 0002:000001e4       __imp__EnableMenuItem@12   0043e1e4     user32:USER32.dll
 0002:000001e8       __imp__CreateMenu@0        0043e1e8     user32:USER32.dll
 0002:000001ec       __imp__SetMenu@8           0043e1ec     user32:USER32.dll
 0002:000001f0       __imp__EnableWindow@8      0043e1f0     user32:USER32.dll
 0002:000001f4       __imp__GetDlgItemInt@16    0043e1f4     user32:USER32.dll
 0002:000001f8       __imp__SetDlgItemInt@16    0043e1f8     user32:USER32.dll
 0002:000001fc       __imp__EndDialog@8         0043e1fc     user32:USER32.dll
 0002:00000200       __imp__DialogBoxParamA@20  0043e200     user32:USER32.dll
 0002:00000204       __imp__MoveWindow@24       0043e204     user32:USER32.dll
 0002:00000208       __imp__ShowWindow@8        0043e208     user32:USER32.dll
 0002:0000020c       __imp__PostMessageA@16     0043e20c     user32:USER32.dll
 0002:00000210       __imp__GetMessageTime@0    0043e210     user32:USER32.dll
 0002:00000214       __imp__GetCursorPos@4      0043e214     user32:USER32.dll
 0002:00000218       __imp__GetForegroundWindow@0 0043e218     user32:USER32.dll
 0002:0000021c       __imp__LoadIconA@8         0043e21c     user32:USER32.dll
 0002:00000220       __imp__GetQueueStatus@4    0043e220     user32:USER32.dll
 0002:00000224       __imp__GetClipboardOwner@0 0043e224     user32:USER32.dll
 0002:00000228       __imp__MapDialogRect@8     0043e228     user32:USER32.dll
 0002:0000022c       __imp__SetWindowLongA@12   0043e22c     user32:USER32.dll
 0002:00000230       __imp__MessageBeep@4       0043e230     user32:USER32.dll
 0002:00000234       __imp__MessageBoxA@16      0043e234     user32:USER32.dll
 0002:00000238       __imp__GetClientRect@8     0043e238     user32:USER32.dll
 0002:0000023c       __imp__SendDlgItemMessageA@20 0043e23c     user32:USER32.dll
 0002:00000240       __imp__IsDlgButtonChecked@8 0043e240     user32:USER32.dll
 0002:00000244       __imp__CheckRadioButton@16 0043e244     user32:USER32.dll
 0002:00000248       __imp__GetDlgItemTextA@16  0043e248     user32:USER32.dll
 0002:0000024c       __imp__SetDlgItemTextA@12  0043e24c     user32:USER32.dll
 0002:00000250       __imp__GetDlgItem@8        0043e250     user32:USER32.dll
 0002:00000254       __imp__SetWindowPos@28     0043e254     user32:USER32.dll
 0002:00000258       __imp__CreateWindowExA@48  0043e258     user32:USER32.dll
 0002:0000025c       __imp__SendMessageA@16     0043e25c     user32:USER32.dll
 0002:00000260       __imp__MessageBoxIndirectA@4 0043e260     user32:USER32.dll
 0002:00000264       __imp__GetCapture@0        0043e264     user32:USER32.dll
 0002:00000268       \177USER32_NULL_THUNK_DATA 0043e268     user32:USER32.dll
 0002:0000026c       ___guard_check_icall_fptr  0043e26c     LIBCMT:guard_support.obj
 0002:00000270       ___xc_a                    0043e270     LIBCMT:initializers.obj
 0002:00000278       ___xc_z                    0043e278     LIBCMT:initializers.obj
 0002:0000027c       ___xi_a                    0043e27c     LIBCMT:initializers.obj
 0002:00000288       ___acrt_stdio_initializer  0043e288     libucrt:stdio_initializer.obj
 0002:0000028c       ___acrt_multibyte_initializer 0043e28c     libucrt:multibyte_initializer.obj
 0002:00000290       ___acrt_timeset_initializer 0043e290     libucrt:timeset_initializer.obj
 0002:00000294       ___acrt_tran_sse2_initializer 0043e294     libucrt:sse2_initializer.obj
 0002:00000298       ___xi_z                    0043e298     LIBCMT:initializers.obj
 0002:0000029c       ___xp_a                    0043e29c     LIBCMT:initializers.obj
 0002:000002a0       ___acrt_locale_terminator  0043e2a0     libucrt:locale_initializer.obj
 0002:000002a4       ___dcrt_console_output_terminator 0043e2a4     libucrt:console_output_initializer.obj
 0002:000002a8       ___acrt_stdio_terminator   0043e2a8     libucrt:stdio_initializer.obj
 0002:000002ac       ___xp_z                    0043e2ac     LIBCMT:initializers.obj
 0002:000002b0       ___xt_a                    0043e2b0     LIBCMT:initializers.obj
 0002:000002b4       ___xt_z                    0043e2b4     LIBCMT:initializers.obj
 0002:000002c0       ??_C@_00CNPNBAHC@?$AA@     0043e2c0     conf.obj
 0002:000002c4       ??_C@_1BC@CGLMHCPF@?$AA?4?$AA?4?$AA?2?$AAe?$AAc?$AAc?$AA?4?$AAc?$AA?$AA@ 0043e2c4     ecc.obj
 0002:000002d8       ??_C@_1O@HAOLMPOI@?$AAw?$AAc?$AA?9?$AA?$DO?$AAs?$AAc?$AA?$AA@ 0043e2d8     ecc.obj
 0002:000002e8       ??_C@_1BI@DJNJMABL@?$AAQ?$AA?9?$AA?$DO?$AAw?$AAc?$AA?5?$AA?$DN?$AA?$DN?$AA?5?$AAw?$AAc?$AA?$AA@ 0043e2e8     ecc.obj
 0002:00000300       ??_C@_1DI@NAHPADHE@?$AA?$CB?$AAm?$AAp?$AA_?$AAe?$AAq?$AA_?$AAi?$AAn?$AAt?$AAe?$AAg?$AAe?$AAr?$AA?$CI?$AAl?$AAa?$AAm?$AAb?$AAd?$AAa?$AA_?$AAn?$AA?0?$AA?5?$AA0?$AA?$CJ?$AA?$AA@ 0043e300     ecc.obj
 0002:00000338       ??_C@_1BI@KHLCHIHB@?$AAQ?$AA?9?$AA?$DO?$AAm?$AAc?$AA?5?$AA?$DN?$AA?$DN?$AA?5?$AAm?$AAc?$AA?$AA@ 0043e338     ecc.obj
 0002:00000350       ??_C@_1CE@GJPMPIEA@?$AAP?$AAm?$AAi?$AAn?$AAu?$AAs?$AAQ?$AA?9?$AA?$DO?$AAm?$AAc?$AA?5?$AA?$DN?$AA?$DN?$AA?5?$AAm?$AAc?$AA?$AA@ 0043e350     ecc.obj
 0002:00000374       ??_C@_1O@PHDHDHCJ@?$AAe?$AAc?$AA?9?$AA?$DO?$AAs?$AAc?$AA?$AA@ 0043e374     ecc.obj
 0002:00000384       ??_C@_1BI@FMLAFEBA@?$AAQ?$AA?9?$AA?$DO?$AAe?$AAc?$AA?5?$AA?$DN?$AA?$DN?$AA?5?$AAe?$AAc?$AA?$AA@ 0043e384     ecc.obj
 0002:0000039c       ??_C@_01KDCPPGHE@r?$AA@    0043e39c     import.obj
 0002:000003a0       ??_C@_0BI@FLFNCGOJ@unable?5to?5open?5key?5file?$AA@ 0043e3a0     import.obj
 0002:000003b8       ??_C@_0BH@CFIIDOJD@unexpected?5end?5of?5file?$AA@ 0043e3b8     import.obj
 0002:000003d0       ??_C@_0M@ILJMFDEM@?9?9?9?9?9BEGIN?5?$AA@ 0043e3d0     import.obj
 0002:000003dc       ??_C@_0BB@KMOJJEAA@PRIVATE?5KEY?9?9?9?9?9?$AA@ 0043e3dc     import.obj
 0002:000003f0       ??_C@_0CM@NPEIAKFA@file?5does?5not?5begin?5with?5OpenSSH@ 0043e3f0     import.obj
 0002:0000041c       ??_C@_0CA@PEOGIGIM@?9?9?9?9?9BEGIN?5RSA?5PRIVATE?5KEY?9?9?9?9?9?$AA@ 0043e41c     import.obj
 0002:0000043c       ??_C@_0CA@EJDPJBKG@?9?9?9?9?9BEGIN?5DSA?5PRIVATE?5KEY?9?9?9?9?9?$AA@ 0043e43c     import.obj
 0002:0000045c       ??_C@_0BP@NKBJMJCC@?9?9?9?9?9BEGIN?5EC?5PRIVATE?5KEY?9?9?9?9?9?$AA@ 0043e45c     import.obj
 0002:0000047c       ??_C@_0CE@CCGPGCCL@?9?9?9?9?9BEGIN?5OPENSSH?5PRIVATE?5KEY?9?9@ 0043e47c     import.obj
 0002:000004a0       ??_C@_0CA@MCDHCKPE@this?5is?5a?5new?9style?5OpenSSH?5key?$AA@ 0043e4a0     import.obj
 0002:000004c0       ??_C@_0BG@JACBKHCO@unrecognised?5key?5type?$AA@ 0043e4c0     import.obj
 0002:000004d8       ??_C@_09KLIMLKKH@?9?9?9?9?9END?5?$AA@ 0043e4d8     import.obj
 0002:000004e4       ??_C@_0CB@EEPOJGBD@header?5found?5in?5body?5of?5key?5data@ 0043e4e4     import.obj
 0002:00000508       ??_C@_09OEEMHJLK@Proc?9Type?$AA@ 0043e508     import.obj
 0002:00000514       ??_C@_0CJ@LDIKJOJP@Proc?9Type?5is?5not?54?5?$CIonly?54?5is?5su@ 0043e514     import.obj
 0002:00000540       ??_C@_09NEFHHFED@ENCRYPTED?$AA@ 0043e540     import.obj
 0002:0000054c       ??_C@_08CGOODIEK@DEK?9Info?$AA@ 0043e54c     import.obj
 0002:00000558       ??_C@_0O@NJEIHBP@DES?9EDE3?9CBC?0?$AA@ 0043e558     import.obj
 0002:00000568       ??_C@_0N@NIBAJFKC@AES?9128?9CBC?0?$AA@ 0043e568     import.obj
 0002:00000578       ??_C@_0BD@ECLJDLBJ@unsupported?5cipher?$AA@ 0043e578     import.obj
 0002:0000058c       ??_C@_03IJFOLNOP@?$CF2x?$AA@ 0043e58c     import.obj
 0002:00000590       ??_C@_0CC@PACFOKNB@expected?5more?5iv?5data?5in?5DEK?9Inf@ 0043e590     import.obj
 0002:000005b4       ??_C@_0CH@NNCNICJE@more?5iv?5data?5than?5expected?5in?5DE@ 0043e5b4     import.obj
 0002:000005dc       ??_C@_0BI@ONFFGPPJ@invalid?5base64?5encoding?$AA@ 0043e5dc     import.obj
 0002:000005f4       ??_C@_0BF@BIBOAEDB@key?5body?5not?5present?$AA@ 0043e5f4     import.obj
 0002:0000060c       ??_C@_0DK@CJOBGJNG@encrypted?5key?5blob?5is?5not?5a?5mult@ 0043e60c     import.obj
 0002:00000648       ??_C@_0BH@ILCLGIND@ASN?41?5decoding?5failure?$AA@ 0043e648     import.obj
 0002:00000660       ??_C@_0BJ@BJKNILFA@Unsupported?5ECDSA?5curve?4?$AA@ 0043e660     import.obj
 0002:0000067c       ??_C@_0CE@JPOKGHFC@unable?5to?5create?5key?5data?5struct@ 0043e67c     import.obj
 0002:000006a0       ??_C@_07FOJFIGLJ@ssh?9dss?$AA@ 0043e6a0     import.obj
 0002:000006a8       ??_C@_07FDBDPOCJ@ssh?9rsa?$AA@ 0043e6a8     import.obj
 0002:000006b0       ??_C@_0BI@OCIDPLGO@version?5number?5mismatch?$AA@ 0043e6b0     import.obj
 0002:000006c8       ??_C@_1BI@NEAENEOL@?$AA?4?$AA?4?$AA?2?$AAi?$AAm?$AAp?$AAo?$AAr?$AAt?$AA?4?$AAc?$AA?$AA@ 0043e6c8     import.obj
 0002:000006e0       ??_C@_1BI@OCMMGGOI@?$AAp?$AAr?$AAi?$AAv?$AAp?$AAt?$AAr?$AA?5?$AA?$DO?$AA?5?$AA0?$AA?$AA@ 0043e6e0     import.obj
 0002:000006f8       ??_C@_1GE@ODPPFAAE@?$AAf?$AAa?$AAl?$AAs?$AAe?$AA?5?$AA?$CG?$AA?$CG?$AA?5?$AA?$CC?$AAB?$AAa?$AAd?$AA?5?$AAk?$AAe?$AAy?$AA?5?$AAt?$AAy?$AAp?$AAe?$AA?5?$AAf?$AAr?$AAo?$AAm?$AA?5?$AAl?$AAo?$AAa?$AAd@ 0043e6f8     import.obj
 0002:0000075c       ??_C@_0BF@EFHECHEJ@imported?9openssh?9key?$AA@ 0043e75c     import.obj
 0002:00000774       ??_C@_1BM@BLNMEGOK@?$AA?$CB?$AAg?$AAe?$AAt?$AA_?$AAe?$AAr?$AAr?$AA?$CI?$AAs?$AAr?$AAc?$AA?$CJ?$AA?$AA@ 0043e774     import.obj
 0002:00000790       ??_C@_0CB@BOBFMBAH@?9?9?9?9?9BEGIN?5RSA?5PRIVATE?5KEY?9?9?9?9?9?6@ 0043e790     import.obj
 0002:000007b4       ??_C@_0BP@ODCOGBOH@?9?9?9?9?9END?5RSA?5PRIVATE?5KEY?9?9?9?9?9?6?$AA@ 0043e7b4     import.obj
 0002:000007d4       ??_C@_0CB@MFBDNBMG@?9?9?9?9?9BEGIN?5DSA?5PRIVATE?5KEY?9?9?9?9?9?6@ 0043e7d4     import.obj
 0002:000007f8       ??_C@_0BP@DICIHBCG@?9?9?9?9?9END?5DSA?5PRIVATE?5KEY?9?9?9?9?9?6?$AA@ 0043e7f8     import.obj
 0002:00000818       ??_C@_0CA@CPFFLAKH@?9?9?9?9?9BEGIN?5EC?5PRIVATE?5KEY?9?9?9?9?9?6?$AA@ 0043e818     import.obj
 0002:00000838       ??_C@_0BO@HGAMCKLN@?9?9?9?9?9END?5EC?5PRIVATE?5KEY?9?9?9?9?9?6?$AA@ 0043e838     import.obj
 0002:00000858       ??_C@_1FI@KJACGKFK@?$AAf?$AAa?$AAl?$AAs?$AAe?$AA?5?$AA?$CG?$AA?$CG?$AA?5?$AA?$CC?$AAb?$AAa?$AAd?$AA?5?$AAk?$AAe?$AAy?$AA?5?$AAa?$AAl?$AAg?$AA?5?$AAi?$AAn?$AA?5?$AAo?$AAp?$AAe?$AAn?$AAs?$AAs?$AAh@ 0043e858     import.obj
 0002:000008b0       ??_C@_02GMLFBBN@wb?$AA@    0043e8b0     import.obj
 0002:000008b4       ??_C@_0CP@IBCPMBDO@Proc?9Type?3?54?0ENCRYPTED?6DEK?9Info?3@ 0043e8b4     import.obj
 0002:000008e4       ??_C@_04JFFKLGJF@?$CF02X?$AA@ 0043e8e4     import.obj
 0002:000008ec       ??_C@_02PHMGELLB@?6?6?$AA@ 0043e8ec     import.obj
 0002:000008f0       ??_C@_0DG@KBHECKJC@file?5does?5not?5begin?5with?5OpenSSH@ 0043e8f0     import.obj
 0002:00000928       ??_C@_0CC@JEIBOHLL@?9?9?9?9?9END?5OPENSSH?5PRIVATE?5KEY?9?9?9?9@ 0043e928     import.obj
 0002:0000094c       ??_C@_0P@BIAPCBNB@openssh?9key?9v1?$AA@ 0043e94c     import.obj
 0002:0000095c       ??_C@_0CI@NNFFABC@new?9style?5OpenSSH?5magic?5number?5m@ 0043e95c     import.obj
 0002:00000984       ??_C@_04CGFJFPFD@none?$AA@ 0043e984     import.obj
 0002:0000098c       ??_C@_0L@BBDJJPI@aes256?9cbc?$AA@ 0043e98c     import.obj
 0002:00000998       ??_C@_0L@EKGBGFCK@aes256?9ctr?$AA@ 0043e998     import.obj
 0002:000009a4       ??_C@_0BF@OAMBJABG@no?5cipher?5name?5found?$AA@ 0043e9a4     import.obj
 0002:000009bc       ??_C@_0BK@DPENDBAA@unrecognised?5cipher?5name?6?$AA@ 0043e9bc     import.obj
 0002:000009d8       ??_C@_06HKFNIIKC@bcrypt?$AA@ 0043e9d8     import.obj
 0002:000009e0       ??_C@_0BC@GHCNPPKF@no?5kdf?5name?5found?$AA@ 0043e9e0     import.obj
 0002:000009f4       ??_C@_0BH@MEOHIBNK@unrecognised?5kdf?5name?6?$AA@ 0043e9f4     import.obj
 0002:00000a0c       ??_C@_0CN@CIEIEFDG@expected?5empty?5options?5string?5fo@ 0043ea0c     import.obj
 0002:00000a3c       ??_C@_0CG@DLDLCJON@failed?5to?5parse?5bcrypt?5options?5s@ 0043ea3c     import.obj
 0002:00000a64       ??_C@_0BD@CFAFMELM@no?5key?5count?5found?$AA@ 0043ea64     import.obj
 0002:00000a78       ??_C@_0DL@LCEEFKHE@multiple?5keys?5in?5new?9style?5OpenS@ 0043ea78     import.obj
 0002:00000ab4       ??_C@_0CH@MKIPIFMI@no?5private?5key?5container?5string?5@ 0043eab4     import.obj
 0002:00000ae0       ??_C@_1FA@GHJJBAE@?$AAf?$AAa?$AAl?$AAs?$AAe?$AA?5?$AA?$CG?$AA?$CG?$AA?5?$AA?$CC?$AAB?$AAa?$AAd?$AA?5?$AAc?$AAi?$AAp?$AAh?$AAe?$AAr?$AA?5?$AAe?$AAn?$AAu?$AAm?$AAe?$AAr?$AAa?$AAt?$AAi?$AAo?$AAn@ 0043eae0     import.obj
 0002:00000b30       ??_C@_1EK@PEINCIEP@?$AAf?$AAa?$AAl?$AAs?$AAe?$AA?5?$AA?$CG?$AA?$CG?$AA?5?$AA?$CC?$AAB?$AAa?$AAd?$AA?5?$AAk?$AAd?$AAf?$AA?5?$AAe?$AAn?$AAu?$AAm?$AAe?$AAr?$AAa?$AAt?$AAi?$AAo?$AAn?$AA?5?$AAv?$AAa@ 0043eb30     import.obj
 0002:00000b80       ??_C@_0EC@EABPLBCK@private?5key?5container?5length?5is?5@ 0043eb80     import.obj
 0002:00000bc4       ??_C@_0BI@KMNGNFEH@decryption?5check?5failed?$AA@ 0043ebc4     import.obj
 0002:00000bdc       ??_C@_0CB@LMJIGIAC@private?5key?5type?5not?5recognised?6@ 0043ebdc     import.obj
 0002:00000c00       ??_C@_0CC@IBEJKPBB@unable?5to?5read?5entire?5private?5ke@ 0043ec00     import.obj
 0002:00000c24       ??_C@_0BL@GEBDNNNF@unable?5to?5read?5key?5comment?$AA@ 0043ec24     import.obj
 0002:00000c40       ??_C@_0BH@NDHMPEMK@key?5index?5out?5of?5range?$AA@ 0043ec40     import.obj
 0002:00000c58       ??_C@_0CP@MBEAJGAC@padding?5at?5end?5of?5private?5string@ 0043ec58     import.obj
 0002:00000c88       ??_C@_0CF@FGHBHOKI@?9?9?9?9?9BEGIN?5OPENSSH?5PRIVATE?5KEY?9?9@ 0043ec88     import.obj
 0002:00000cb0       ??_C@_0CD@KGMIADGJ@?9?9?9?9?9END?5OPENSSH?5PRIVATE?5KEY?9?9?9?9@ 0043ecb0     import.obj
 0002:00000cd4       ??_C@_0CL@NAONMFGD@?9?9?9?9?5BEGIN?5SSH2?5ENCRYPTED?5PRIVAT@ 0043ecd4     import.obj
 0002:00000d00       ??_C@_0CM@DPNEFDAN@file?5does?5not?5begin?5with?5ssh?4com@ 0043ed00     import.obj
 0002:00000d2c       ??_C@_0CJ@FKKHMGNF@?9?9?9?9?5END?5SSH2?5ENCRYPTED?5PRIVATE?5@ 0043ed2c     import.obj
 0002:00000d58       ??_C@_1BG@CPIGDCEJ@?$AA?$CB?$AAl?$AAi?$AAn?$AAe?$AA?$FL?$AAl?$AAe?$AAn?$AA?$FN?$AA?$AA@ 0043ed58     import.obj
 0002:00000d70       ??_C@_07JABLCLAF@Comment?$AA@ 0043ed70     import.obj
 0002:00000d78       ??_C@_0BB@BAKDHMLI@if?9modn?$HLsign?$HLrsa?$AA@ 0043ed78     import.obj
 0002:00000d8c       ??_C@_0BB@HPFMICAI@dl?9modp?$HLsign?$HLdsa?$AA@ 0043ed8c     import.obj
 0002:00000da0       ??_C@_0CF@FCECDMDC@key?5does?5not?5begin?5with?5magic?5nu@ 0043eda0     import.obj
 0002:00000dc8       ??_C@_0BH@KKPDMCEI@key?5is?5of?5unknown?5type?$AA@ 0043edc8     import.obj
 0002:00000de0       ??_C@_08BLJCDBFI@3des?9cbc?$AA@ 0043ede0     import.obj
 0002:00000dec       ??_C@_0CC@DMBMLLIA@key?5encryption?5is?5of?5unknown?5typ@ 0043edec     import.obj
 0002:00000e10       ??_C@_0BC@PNDMPGI@no?5key?5data?5found?$AA@ 0043ee10     import.obj
 0002:00000e24       ??_C@_0DN@BNMNCPAM@encrypted?5part?5of?5key?5is?5not?5a?5m@ 0043ee24     import.obj
 0002:00000e64       ??_C@_0CB@KFJCGCEG@containing?5string?5was?5ill?9formed@ 0043ee64     import.obj
 0002:00000e88       ??_C@_0CG@EPMPHHKB@key?5data?5did?5not?5contain?5six?5int@ 0043ee88     import.obj
 0002:00000eb0       ??_C@_1BI@NBEKGJMG@?$AAt?$AAy?$AAp?$AAe?$AA?5?$AA?$DN?$AA?$DN?$AA?5?$AAD?$AAS?$AAA?$AA?$AA@ 0043eeb0     import.obj
 0002:00000ec8       ??_C@_0CI@BGEDAODE@predefined?5DSA?5parameters?5not?5su@ 0043eec8     import.obj
 0002:00000ef0       ??_C@_0CH@NIKLEOMO@key?5data?5did?5not?5contain?5five?5in@ 0043eef0     import.obj
 0002:00000f18       ??_C@_0DI@MLAIEDL@if?9modn?$HLsign?$HLrsa?9pkcs1?9sha1?$HN?0enc@ 0043ef18     import.obj
 0002:00000f50       ??_C@_0CH@GOJJJFLG@dl?9modp?$HLsign?$HLdsa?9nist?9sha1?$HN?0dh?$HLp@ 0043ef50     import.obj
 0002:00000f78       ??_C@_1EE@OIMKJIHJ@?$AA?$CB?$AAp?$AAa?$AAs?$AAs?$AAp?$AAh?$AAr?$AAa?$AAs?$AAe?$AA?5?$AA?$HM?$AA?$HM?$AA?5?$AAc?$AAi?$AAp?$AAh?$AAe?$AAr?$AAl?$AAe?$AAn?$AA?5?$AA?$CF?$AA?5?$AA8?$AA?5?$AA?$DN?$AA?$DN?$AA?5@ 0043ef78     import.obj
 0002:00000fbc       ??_C@_0CM@COIEDFKN@?9?9?9?9?5BEGIN?5SSH2?5ENCRYPTED?5PRIVAT@ 0043efbc     import.obj
 0002:00000fe8       ??_C@_0L@PKLHOOPL@Comment?3?5?$CC?$AA@ 0043efe8     import.obj
 0002:00000ff4       ??_C@_06KPACFFHF@?$CF?4?$CKs?2?6?$AA@ 0043eff4     import.obj
 0002:00000ffc       ??_C@_04IIFANNOA@?$CFs?$CC?6?$AA@ 0043effc     import.obj
 0002:00001004       ??_C@_0CK@MAMGJBH@?9?9?9?9?5END?5SSH2?5ENCRYPTED?5PRIVATE?5@ 0043f004     import.obj
 0002:00001030       ??_C@_1BI@OGPCMFEE@?$AA?4?$AA?4?$AA?2?$AAm?$AAe?$AAm?$AAo?$AAr?$AAy?$AA?4?$AAc?$AA?$AA@ 0043f030     memory.obj
 0002:00001048       ??_C@_1BI@CNOLHJLA@?$AAe?$AAl?$AAt?$AAs?$AAi?$AAz?$AAe?$AA?5?$AA?$DO?$AA?5?$AA0?$AA?$AA@ 0043f048     memory.obj
 0002:00001060       ??_C@_1CG@BCBMGELK@?$AAo?$AAl?$AAd?$AAs?$AAi?$AAz?$AAe?$AA?5?$AA?$DM?$AA?$DN?$AA?5?$AAm?$AAa?$AAx?$AAs?$AAi?$AAz?$AAe?$AA?$AA@ 0043f060     memory.obj
 0002:00001088       ??_C@_1CE@MANIAPO@?$AAo?$AAl?$AAd?$AAl?$AAe?$AAn?$AA?5?$AA?$DM?$AA?$DN?$AA?5?$AAm?$AAa?$AAx?$AAs?$AAi?$AAz?$AAe?$AA?$AA@ 0043f088     memory.obj
 0002:000010ac       ??_C@_1DK@NCGJAGIA@?$AAe?$AAx?$AAt?$AAr?$AAa?$AAl?$AAe?$AAn?$AA?5?$AA?$DM?$AA?$DN?$AA?5?$AAm?$AAa?$AAx?$AAs?$AAi?$AAz?$AAe?$AA?5?$AA?9?$AA?5?$AAo?$AAl?$AAd?$AAl?$AAe?$AAn?$AA?$AA@ 0043f0ac     memory.obj
 0002:000010e8       ??_C@_0EC@FGCAEFNK@0123456789ABCDEFGHIJKLMNOPQRSTUV@ 0043f0e8     misc.obj
 0002:0000112c       ??_C@_0M@PKLBOLOE@x86?5Windows?$AA@ 0043f12c     misc.obj
 0002:00001138       ??_C@_0BK@PLMHHLEL@Build?5platform?3?5?$CFd?9bit?5?$CFs?$AA@ 0043f138     misc.obj
 0002:00001154       ??_C@_0N@COLANHDG@?$CFsCompiler?3?5?$AA@ 0043f154     misc.obj
 0002:00001164       ??_C@_0O@HLNFDAGJ@Visual?5Studio?$AA@ 0043f164     misc.obj
 0002:00001174       ??_C@_0N@MOHJAAAB@?52015?5?$CI14?40?$CJ?$AA@ 0043f174     misc.obj
 0002:00001184       ??_C@_0O@HALHIHGD@?0?5_MSC_VER?$DN?$CFd?$AA@ 0043f184     misc.obj
 0002:00001194       ??_C@_03ICICOMAL@yes?$AA@  0043f194     misc.obj
 0002:00001198       ??_C@_02KAJCLHKP@no?$AA@   0043f198     misc.obj
 0002:0000119c       ??_C@_0BO@NLKCLNAI@?$CFsEmbedded?5HTML?5Help?5file?3?5?$CFs?$AA@ 0043f19c     misc.obj
 0002:000011bc       ??_C@_0BE@NBANNANG@?$CFsSource?5commit?3?5?$CFs?$AA@ 0043f1bc     misc.obj
 0002:000011d0       ??_C@_0O@NALGGDJF@Out?5of?5memory?$AA@ 0043f1d0     misc.obj
 0002:000011e0       ??_C@_1BG@DLGFDEC@?$AA?4?$AA?4?$AA?2?$AAm?$AAp?$AAi?$AAn?$AAt?$AA?4?$AAc?$AA?$AA@ 0043f1e0     mpint.obj
 0002:000011f8       ??_C@_15IKCLKIFD@?$AAn?$AAw?$AA?$AA@ 0043f1f8     mpint.obj
 0002:00001200       ??_C@_1CC@PDPGMCFB@?$AAx?$AA0?$AA?9?$AA?$DO?$AAn?$AAw?$AA?5?$AA?$DN?$AA?$DN?$AA?5?$AAx?$AA1?$AA?9?$AA?$DO?$AAn?$AAw?$AA?$AA@ 0043f200     mpint.obj
 0002:00001228       ??_C@_1EC@JCINCOAC@?$AAd?$AAe?$AAc?$AAi?$AAm?$AAa?$AAl?$AA?4?$AAl?$AAe?$AAn?$AA?5?$AA?$DM?$AA?5?$AA?$CI?$AA?$HO?$AA?$CI?$AAs?$AAi?$AAz?$AAe?$AA_?$AAt?$AA?$CJ?$AA0?$AA?$CJ?$AA?5?$AA?1?$AA?5?$AA1?$AA9?$AA6@ 0043f228     mpint.obj
 0002:0000126c       ??_C@_1DI@NBGMJNJD@?$AAh?$AAe?$AAx?$AA?4?$AAl?$AAe?$AAn?$AA?5?$AA?$DM?$AA?$DN?$AA?5?$AA?$CI?$AA?$HO?$AA?$CI?$AAs?$AAi?$AAz?$AAe?$AA_?$AAt?$AA?$CJ?$AA0?$AA?$CJ?$AA?5?$AA?1?$AA?5?$AA4?$AA?$AA@ 0043f26c     mpint.obj
 0002:000012a4       ??_C@_1BK@PMKBAOGP@?$AAw?$AAo?$AAr?$AAd?$AA?5?$AA?$DM?$AA?5?$AAx?$AA?9?$AA?$DO?$AAn?$AAw?$AA?$AA@ 0043f2a4     mpint.obj
 0002:000012c0       ??_C@_1FO@FJFILELC@?$AAx?$AA?9?$AA?$DO?$AAn?$AAw?$AA?5?$AA?$DM?$AA?5?$AA?$CI?$AA?$HO?$AA?$CI?$AAs?$AAi?$AAz?$AAe?$AA_?$AAt?$AA?$CJ?$AA1?$AA?$CJ?$AA?5?$AA?1?$AA?5?$AA?$CI?$AA1?$AA4?$AA6?$AA?5?$AA?$CK?$AA?5?$AAB?$AAI@ 0043f2c0     mpint.obj
 0002:00001320       ??_C@_1BO@GKBMOOJP@?$AAl?$AAo?$AAw?$AA_?$AAd?$AAi?$AAg?$AAi?$AAt?$AA?5?$AA?$DM?$AA?5?$AA1?$AA0?$AA?$AA@ 0043f320     mpint.obj
 0002:00001340       ??_C@_1BO@FPFHOAGI@?$AAb?$AAi?$AAt?$AAs?$AA?5?$AA?$DM?$AA?5?$AA0?$AAx?$AA1?$AA0?$AA0?$AA0?$AA0?$AA?$AA@ 0043f340     mpint.obj
 0002:00001360       ??_C@_1CA@EHIIJAKE@?$AAl?$AAe?$AAn?$AA?5?$AA?$DM?$AA?$DN?$AA?5?$AAp?$AAo?$AAo?$AAl?$AA?9?$AA?$DO?$AAn?$AAw?$AA?$AA@ 0043f360     mpint.obj
 0002:00001380       ??_C@_1O@KBGOBLBB@?$AA?$CB?$AAc?$AAa?$AAr?$AAr?$AAy?$AA?$AA@ 0043f380     mpint.obj
 0002:00001390       ??_C@_1FO@LGKPJJAD@?$AAs?$AAc?$AAr?$AAa?$AAt?$AAc?$AAh?$AA?4?$AAn?$AAw?$AA?5?$AA?$DO?$AA?$DN?$AA?5?$AAm?$AAp?$AA_?$AAm?$AAu?$AAl?$AA_?$AAs?$AAc?$AAr?$AAa?$AAt?$AAc?$AAh?$AAs?$AAp?$AAa?$AAc@ 0043f390     mpint.obj
 0002:000013f0       ??_C@_1BE@OCENCALB@?$AAx?$AA?9?$AA?$DO?$AAn?$AAw?$AA?5?$AA?$DO?$AA?5?$AA0?$AA?$AA@ 0043f3f0     mpint.obj
 0002:00001404       ??_C@_1BI@DMHMBBIJ@?$AAx?$AA?9?$AA?$DO?$AAw?$AA?$FL?$AA0?$AA?$FN?$AA?5?$AA?$CG?$AA?5?$AA1?$AA?$AA@ 0043f404     mpint.obj
 0002:0000141c       ??_C@_1M@IIPNAHGM@?$AAp?$AA?5?$AA?$DO?$AA?5?$AA0?$AA?$AA@ 0043f41c     mpint.obj
 0002:00001428       ??_C@_1CA@BJLPNIIK@?$AAx?$AA?9?$AA?$DO?$AAn?$AAw?$AA?5?$AA?$DM?$AA?$DN?$AA?5?$AAm?$AAc?$AA?9?$AA?$DO?$AAr?$AAw?$AA?$AA@ 0043f428     mpint.obj
 0002:00001448       ??_C@_1CA@OIGFNNCA@?$AAy?$AA?9?$AA?$DO?$AAn?$AAw?$AA?5?$AA?$DM?$AA?$DN?$AA?5?$AAm?$AAc?$AA?9?$AA?$DO?$AAr?$AAw?$AA?$AA@ 0043f448     mpint.obj
 0002:00001468       ??_C@_1CE@LKLOMEKL@?$AAx?$AA?9?$AA?$DO?$AAn?$AAw?$AA?5?$AA?$DM?$AA?$DN?$AA?5?$AA2?$AA?$CK?$AAm?$AAc?$AA?9?$AA?$DO?$AAr?$AAw?$AA?$AA@ 0043f468     mpint.obj
 0002:0000148c       ??_C@_1CA@CMFDAHKD@?$AAm?$AAo?$AAd?$AAu?$AAl?$AAu?$AAs?$AA?9?$AA?$DO?$AAn?$AAw?$AA?5?$AA?$DO?$AA?5?$AA0?$AA?$AA@ 0043f48c     mpint.obj
 0002:000014ac       ??_C@_1CE@FDPDAOJA@?$AAm?$AAo?$AAd?$AAu?$AAl?$AAu?$AAs?$AA?9?$AA?$DO?$AAw?$AA?$FL?$AA0?$AA?$FN?$AA?5?$AA?$CG?$AA?5?$AA1?$AA?$AA@ 0043f4ac     mpint.obj
 0002:000014d0       ??_C@_1FA@LPLBDJBP@?$AAm?$AAp?$AA_?$AAc?$AAm?$AAp?$AA_?$AAe?$AAq?$AA?$CI?$AAa?$AA?0?$AA?5?$AAa?$AA_?$AAi?$AAn?$AA?$CJ?$AA?5?$AA?$CG?$AA?5?$AAm?$AAp?$AA_?$AAc?$AAm?$AAp?$AA_?$AAe?$AAq?$AA?$CI?$AAb@ 0043f4d0     mpint.obj
 0002:00001520       ??_C@_1CK@CHHMAJLF@?$AA?$CB?$AAm?$AAp?$AA_?$AAe?$AAq?$AA_?$AAi?$AAn?$AAt?$AAe?$AAg?$AAe?$AAr?$AA?$CI?$AAd?$AA?0?$AA?5?$AA0?$AA?$CJ?$AA?$AA@ 0043f520     mpint.obj
 0002:00001550       ??_C@_1FA@EMKFMKIH@?$AAo?$AAu?$AAt?$AAp?$AAu?$AAt?$AA_?$AAb?$AAi?$AAt?$AA_?$AAi?$AAn?$AAd?$AAe?$AAx?$AA?5?$AA?$CF?$AA?5?$AAB?$AAI?$AAG?$AAN?$AAU?$AAM?$AA_?$AAI?$AAN?$AAT?$AA_?$AAB?$AAI@ 0043f550     mpint.obj
 0002:000015a0       ??_C@_1DC@JPFGKKME@?$AA?$CB?$AAm?$AAp?$AA_?$AAc?$AAm?$AAp?$AA_?$AAh?$AAs?$AA?$CI?$AAr?$AAe?$AAm?$AAa?$AAi?$AAn?$AAd?$AAe?$AAr?$AA?0?$AA?5?$AAd?$AA?$CJ?$AA?$AA@ 0043f5a0     mpint.obj
 0002:000015d4       ??_C@_0CB@NJEJMLLL@AES?9256?5CBC?5?$CIAES?9NI?5accelerated?$CJ@ 0043f5d4     sshaes.obj
 0002:000015f8       _extra_aes256_cbc          0043f5f8     sshaes.obj
 0002:00001600       _extra_aes256_sdctr        0043f600     sshaes.obj
 0002:00001670       _extra_aes128_cbc          0043f670     sshaes.obj
 0002:00001678       _extra_aes128_sdctr        0043f678     sshaes.obj
 0002:00001680       _ssh_aes256_sdctr          0043f680     sshaes.obj
 0002:000016c0       _ssh_aes256_sdctr_hw       0043f6c0     sshaes.obj
 0002:00001700       _ssh_aes256_sdctr_sw       0043f700     sshaes.obj
 0002:00001740       _ssh_aes256_cbc            0043f740     sshaes.obj
 0002:00001780       _ssh_aes256_cbc_hw         0043f780     sshaes.obj
 0002:000017c0       _ssh_aes256_cbc_sw         0043f7c0     sshaes.obj
 0002:00001800       _ssh_aes192_sdctr          0043f800     sshaes.obj
 0002:00001840       _ssh_aes192_sdctr_hw       0043f840     sshaes.obj
 0002:00001880       _ssh_aes192_sdctr_sw       0043f880     sshaes.obj
 0002:000018c0       _ssh_aes192_cbc            0043f8c0     sshaes.obj
 0002:00001900       _ssh_aes192_cbc_hw         0043f900     sshaes.obj
 0002:00001940       _ssh_aes192_cbc_sw         0043f940     sshaes.obj
 0002:00001980       _ssh_aes128_sdctr          0043f980     sshaes.obj
 0002:000019c0       _ssh_aes128_sdctr_hw       0043f9c0     sshaes.obj
 0002:00001a00       _ssh_aes128_sdctr_sw       0043fa00     sshaes.obj
 0002:00001a40       _ssh_aes128_cbc            0043fa40     sshaes.obj
 0002:00001a80       _ssh_aes128_cbc_hw         0043fa80     sshaes.obj
 0002:00001ac0       _ssh_aes128_cbc_sw         0043fac0     sshaes.obj
 0002:00001b00       _ssh2_aes                  0043fb00     sshaes.obj
 0002:00001b08       _extra_aes192_cbc          0043fb08     sshaes.obj
 0002:00001b10       _extra_aes192_sdctr        0043fb10     sshaes.obj
 0002:00001b18       ??_C@_0CE@GLAFCKHH@AES?9256?5CBC?5?$CIdummy?5selector?5vtab@ 0043fb18     sshaes.obj
 0002:00001b3c       ??_C@_0BO@PCFPJHGM@AES?9256?5SDCTR?5?$CIunaccelerated?$CJ?$AA@ 0043fb3c     sshaes.obj
 0002:00001b5c       ??_C@_0CD@JJIEHMKL@AES?9256?5SDCTR?5?$CIAES?9NI?5accelerate@ 0043fb5c     sshaes.obj
 0002:00001b80       ??_C@_0CG@DJHCAPDF@AES?9256?5SDCTR?5?$CIdummy?5selector?5vt@ 0043fb80     sshaes.obj
 0002:00001ba8       ??_C@_0BM@MGEJEKIP@rijndael?9cbc?$EAlysator?4liu?4se?$AA@ 0043fba8     sshaes.obj
 0002:00001bc4       ??_C@_0L@HADBMBOF@aes128?9cbc?$AA@ 0043fbc4     sshaes.obj
 0002:00001bd0       ??_C@_0BM@CJAJGFLE@AES?9128?5CBC?5?$CIunaccelerated?$CJ?$AA@ 0043fbd0     sshaes.obj
 0002:00001bec       ??_C@_0CB@GJDNIMJ@AES?9128?5CBC?5?$CIAES?9NI?5accelerated?$CJ@ 0043fbec     sshaes.obj
 0002:00001c10       ??_C@_0CE@DLJJOMMO@AES?9128?5CBC?5?$CIdummy?5selector?5vtab@ 0043fc10     sshaes.obj
 0002:00001c34       ??_C@_0L@DLEDDNDH@aes128?9ctr?$AA@ 0043fc34     sshaes.obj
 0002:00001c40       ??_C@_0BO@KMGIOINC@AES?9128?5SDCTR?5?$CIunaccelerated?$CJ?$AA@ 0043fc40     sshaes.obj
 0002:00001c60       ??_C@_0CD@DDPJNL@AES?9128?5SDCTR?5?$CIAES?9NI?5accelerate@ 0043fc60     sshaes.obj
 0002:00001c84       ??_C@_0CG@HOHCCNNN@AES?9128?5SDCTR?5?$CIdummy?5selector?5vt@ 0043fc84     sshaes.obj
 0002:00001cac       ??_C@_0L@NDKNLGHJ@aes192?9cbc?$AA@ 0043fcac     sshaes.obj
 0002:00001cb8       ??_C@_0BM@MIEGPACP@AES?9192?5CBC?5?$CIunaccelerated?$CJ?$AA@ 0043fcb8     sshaes.obj
 0002:00001cd4       ??_C@_0CB@BGHINHAO@AES?9192?5CBC?5?$CIAES?9NI?5accelerated?$CJ@ 0043fcd4     sshaes.obj
 0002:00001cf8       ??_C@_0CE@BPDJELCE@AES?9192?5CBC?5?$CIdummy?5selector?5vtab@ 0043fcf8     sshaes.obj
 0002:00001d1c       ??_C@_0L@JINPEKKL@aes192?9ctr?$AA@ 0043fd1c     sshaes.obj
 0002:00001d28       ??_C@_0BO@LOLIDNIH@AES?9192?5SDCTR?5?$CIunaccelerated?$CJ?$AA@ 0043fd28     sshaes.obj
 0002:00001d48       ??_C@_0CD@BEDHLFCI@AES?9192?5SDCTR?5?$CIAES?9NI?5accelerate@ 0043fd48     sshaes.obj
 0002:00001d6c       ??_C@_0CG@JCFBCEFA@AES?9192?5SDCTR?5?$CIdummy?5selector?5vt@ 0043fd6c     sshaes.obj
 0002:00001d94       ??_C@_0BM@MMBMCILC@AES?9256?5CBC?5?$CIunaccelerated?$CJ?$AA@ 0043fd94     sshaes.obj
 0002:00001db0       ??_C@_1BI@FNOKOHIF@?$AA?4?$AA?4?$AA?2?$AAs?$AAs?$AAh?$AAa?$AAe?$AAs?$AA?4?$AAc?$AA?$AA@ 0043fdb0     sshaes.obj
 0002:00001dc8       ??_C@_1FG@IEDDKBB@?$AAr?$AAc?$AAo?$AAn?$AAp?$AAo?$AAs?$AA?5?$AA?$DM?$AA?5?$AAl?$AAe?$AAn?$AAo?$AAf?$AA?$CI?$AAk?$AAe?$AAy?$AA_?$AAs?$AAe?$AAt?$AAu?$AAp?$AA_?$AAr?$AAo?$AAu?$AAn?$AAd?$AA_@ 0043fdc8     sshaes.obj
 0002:00001e20       __xmm@00000000000000000000000000000001 0043fe20     sshaes.obj
 0002:00001e30       __xmm@000102030405060708090a0b0c0d0e0f 0043fe30     sshaes.obj
 0002:00001e40       __xmm@000f000f000f000f000f000f000f000f 0043fe40     sshaes.obj
 0002:00001e50       ??_C@_0CB@CGLEPIAH@cyxOmorhcitawolBhsiftawSanyDetim@ 0043fe50     sshbcrypt.obj
 0002:00001e74       ??_C@_0BB@HKAENLKH@Blowfish?9256?5CBC?$AA@ 0043fe74     sshblowf.obj
 0002:00001e88       ??_C@_0N@KIHOJLLD@blowfish?9cbc?$AA@ 0043fe88     sshblowf.obj
 0002:00001e98       ??_C@_0BB@LCGIDLK@Blowfish?9128?5CBC?$AA@ 0043fe98     sshblowf.obj
 0002:00001eac       ??_C@_0N@ODAMGHGB@blowfish?9ctr?$AA@ 0043feac     sshblowf.obj
 0002:00001ebc       ??_C@_0BD@JPOJBFPH@Blowfish?9256?5SDCTR?$AA@ 0043febc     sshblowf.obj
 0002:00002f20       _ssh_blowfish_ssh1         00440f20     sshblowf.obj
 0002:00002f60       _ssh_blowfish_ssh2_ctr     00440f60     sshblowf.obj
 0002:00002fa0       _ssh_blowfish_ssh2         00440fa0     sshblowf.obj
 0002:00002fe0       _ssh2_blowfish             00440fe0     sshblowf.obj
 0002:00002fe8       ??_C@_1BM@FADJMCIB@?$AA?4?$AA?4?$AA?2?$AAs?$AAs?$AAh?$AAb?$AAl?$AAo?$AAw?$AAf?$AA?4?$AAc?$AA?$AA@ 00440fe8     sshblowf.obj
 0002:00003004       ??_C@_1BO@CPHGGKB@?$AA?$CI?$AAl?$AAe?$AAn?$AA?5?$AA?$CG?$AA?5?$AA7?$AA?$CJ?$AA?5?$AA?$DN?$AA?$DN?$AA?5?$AA0?$AA?$AA@ 00441004     sshblowf.obj
 0002:00003024       ??_C@_07IPAFAGII@des?9cbc?$AA@ 00441024     sshdes.obj
 0002:0000302c       ??_C@_0P@HKDDLANN@single?9DES?5CBC?$AA@ 0044102c     sshdes.obj
 0002:0000303c       ??_C@_0BA@IBKFJPCP@des?9cbc?$EAssh?4com?$AA@ 0044103c     sshdes.obj
 0002:00003260       _ssh_3des_ssh1             00441260     sshdes.obj
 0002:000032a0       _ssh_3des_ssh2_ctr         004412a0     sshdes.obj
 0002:000032e0       _ssh_3des_ssh2             004412e0     sshdes.obj
 0002:00003320       _ssh_des                   00441320     sshdes.obj
 0002:00003360       _ssh_des_sshcom_ssh2       00441360     sshdes.obj
 0002:000033a0       _ssh2_3des                 004413a0     sshdes.obj
 0002:000033a8       _ssh2_des                  004413a8     sshdes.obj
 0002:00003470       ??_C@_0P@MNELLKGN@triple?9DES?5CBC?$AA@ 00441470     sshdes.obj
 0002:00003480       ??_C@_08FAOAMNIK@3des?9ctr?$AA@ 00441480     sshdes.obj
 0002:0000348c       ??_C@_0BB@JEEJMMLC@triple?9DES?5SDCTR?$AA@ 0044148c     sshdes.obj
 0002:000034a0       ??_C@_0BF@OCGINFLB@triple?9DES?5inner?9CBC?$AA@ 004414a0     sshdes.obj
 0002:000034b8       ??_C@_03DIFKLMIL@dss?$AA@  004414b8     sshdss.obj
 0002:000034c0       _ssh_dss                   004414c0     sshdss.obj
 0002:00003500       ??_C@_02MDDDDAID@0x?$AA@   00441500     sshdss.obj
 0002:00003504       ??_C@_0BO@DJMBCJHK@DSA?5deterministic?5k?5generator?$AA@ 00441504     sshdss.obj
 0002:00003528       _ec_nist_curve_lengths     00441528     sshecc.obj
 0002:00003534       _n_ec_nist_curve_lengths   00441534     sshecc.obj
 0002:00003538       _sign_extra_ed25519        00441538     sshecc.obj
 0002:00003550       _sign_extra_nistp256       00441550     sshecc.obj
 0002:00003568       _sign_extra_nistp384       00441568     sshecc.obj
 0002:00003580       _sign_extra_nistp521       00441580     sshecc.obj
 0002:000035a4       _kex_extra_nistp256        004415a4     sshecc.obj
 0002:000035b8       _kex_extra_nistp384        004415b8     sshecc.obj
 0002:000035cc       _kex_extra_nistp521        004415cc     sshecc.obj
 0002:000035f0       _ssh_ec_kex_curve25519     004415f0     sshecc.obj
 0002:00003604       _ssh_ec_kex_nistp256       00441604     sshecc.obj
 0002:00003618       _ssh_ec_kex_nistp384       00441618     sshecc.obj
 0002:0000362c       _ssh_ec_kex_nistp521       0044162c     sshecc.obj
 0002:00003640       _ssh_ecdh_kex              00441640     sshecc.obj
 0002:00003648       _ssh_ecdsa_ed25519         00441648     sshecc.obj
 0002:00003688       _ssh_ecdsa_nistp256        00441688     sshecc.obj
 0002:000036c8       _ssh_ecdsa_nistp384        004416c8     sshecc.obj
 0002:00003708       _ssh_ecdsa_nistp521        00441708     sshecc.obj
 0002:00003748       ??_C@_0M@CKOJCCOB@ssh?9ed25519?$AA@ 00441748     sshecc.obj
 0002:00003754       ??_C@_0BE@KBAHEFJL@ecdsa?9sha2?9nistp256?$AA@ 00441754     sshecc.obj
 0002:00003768       ??_C@_0BE@CDFFNDCP@ecdsa?9sha2?9nistp384?$AA@ 00441768     sshecc.obj
 0002:0000377c       ??_C@_0BE@HGNOPNGA@ecdsa?9sha2?9nistp521?$AA@ 0044177c     sshecc.obj
 0002:00003790       ??_C@_0BN@NJCKAAJN@curve25519?9sha256?$EAlibssh?4org?$AA@ 00441790     sshecc.obj
 0002:000037b0       ??_C@_0BD@OGBONNOE@ecdh?9sha2?9nistp256?$AA@ 004417b0     sshecc.obj
 0002:000037c4       ??_C@_0BD@GEEMELFA@ecdh?9sha2?9nistp384?$AA@ 004417c4     sshecc.obj
 0002:000037d8       ??_C@_0BD@DBMHGFBP@ecdh?9sha2?9nistp521?$AA@ 004417d8     sshecc.obj
 0002:000037f0       ??_C@_0ED@BLEJKNFH@0xffffffff0000000100000000000000@ 004417f0     sshecc.obj
 0002:00003838       ??_C@_0ED@GGDOFJBC@0xffffffff0000000100000000000000@ 00441838     sshecc.obj
 0002:00003880       ??_C@_0ED@ELEHELBK@0x5ac635d8aa3a93e7b3ebbd55769886@ 00441880     sshecc.obj
 0002:000038c8       ??_C@_0ED@JMNGKDIH@0x6b17d1f2e12c4247f8bce6e563a440@ 004418c8     sshecc.obj
 0002:00003910       ??_C@_0ED@FAPGEAEA@0x4fe342e2fe1a7f9b8ee7eb4a7c0f9e@ 00441910     sshecc.obj
 0002:00003958       ??_C@_0ED@MKOGGFDP@0xffffffff00000000ffffffffffffff@ 00441958     sshecc.obj
 0002:0000399c       ??_C@_08HIMOJHN@nistp256?$AA@ 0044199c     sshecc.obj
 0002:000039a8       ??_C@_0GD@DPOIOGLL@0xffffffffffffffffffffffffffffff@ 004419a8     sshecc.obj
 0002:00003a10       ??_C@_0GD@ECJPBCPO@0xffffffffffffffffffffffffffffff@ 00441a10     sshecc.obj
 0002:00003a78       ??_C@_0GD@LBIDCCF@0xb3312fa7e23ee7e4988e056be3f82d@ 00441a78     sshecc.obj
 0002:00003ae0       ??_C@_0GD@KIKBNJKE@0xaa87ca22be8b05378eb1c71ef320ad@ 00441ae0     sshecc.obj
 0002:00003b48       ??_C@_0GD@KMMGIBKM@0x3617de4a96262c6f5d9e98bf9292dc@ 00441b48     sshecc.obj
 0002:00003bb0       ??_C@_0GD@MBEDEGHC@0xffffffffffffffffffffffffffffff@ 00441bb0     sshecc.obj
 0002:00003c14       ??_C@_08IFNOHPMJ@nistp384?$AA@ 00441c14     sshecc.obj
 0002:00003c20       ??_C@_0IH@NCDENOOI@0x01ffffffffffffffffffffffffffff@ 00441c20     sshecc.obj
 0002:00003ca8       ??_C@_0IH@KPEDCKKN@0x01ffffffffffffffffffffffffffff@ 00441ca8     sshecc.obj
 0002:00003d30       ??_C@_0IH@IHMDBAAE@0x0051953eb9618e1c9a1f929a21a0b6@ 00441d30     sshecc.obj
 0002:00003db8       ??_C@_0IH@JHNALAOJ@0x00c6858e06b70404e9cd9e3ecb6623@ 00441db8     sshecc.obj
 0002:00003e40       ??_C@_0IH@DOBIDCAF@0x011839296a789a3bc0045c8a5fb42c@ 00441e40     sshecc.obj
 0002:00003ec8       ??_C@_0IH@LBEBMOHG@0x01ffffffffffffffffffffffffffff@ 00441ec8     sshecc.obj
 0002:00003f50       ??_C@_08NAFFFBIG@nistp521?$AA@ 00441f50     sshecc.obj
 0002:00003f60       ??_C@_0ED@JEPIGPHB@0x7fffffffffffffffffffffffffffff@ 00441f60     sshecc.obj
 0002:00003fa8       ??_C@_0ED@IPDBLGCA@0x000000000000000000000000000000@ 00441fa8     sshecc.obj
 0002:00003ff0       ??_C@_0ED@BGFKHNAK@0x000000000000000000000000000000@ 00441ff0     sshecc.obj
 0002:00004038       ??_C@_0ED@NOIDPHAC@0x000000000000000000000000000000@ 00442038     sshecc.obj
 0002:0000407c       ??_C@_0L@GKPNPEPJ@Curve25519?$AA@ 0044207c     sshecc.obj
 0002:00004088       ??_C@_0ED@OHFNPGAC@0x52036cee2b6ffe738cc740797779e8@ 00442088     sshecc.obj
 0002:000040d0       ??_C@_0ED@NLLJPJLG@0x7fffffffffffffffffffffffffffff@ 004420d0     sshecc.obj
 0002:00004118       ??_C@_0ED@ILOIKJEI@0x216936d3cd6e53fec0a4e231fdd6dc@ 00442118     sshecc.obj
 0002:00004160       ??_C@_0ED@BAIJKLGI@0x666666666666666666666666666666@ 00442160     sshecc.obj
 0002:000041a8       ??_C@_0ED@PLMKLCAL@0x100000000000000000000000000000@ 004421a8     sshecc.obj
 0002:000041ec       ??_C@_07EIPCBPDH@Ed25519?$AA@ 004421ec     sshecc.obj
 0002:000041f4       ??_C@_1BI@CPEJJNJG@?$AA?4?$AA?4?$AA?2?$AAs?$AAs?$AAh?$AAe?$AAc?$AAc?$AA?4?$AAc?$AA?$AA@ 004421f4     sshecc.obj
 0002:0000420c       ??_C@_1DM@NDELGDGI@?$AAc?$AAu?$AAr?$AAv?$AAe?$AA?9?$AA?$DO?$AAt?$AAy?$AAp?$AAe?$AA?5?$AA?$DN?$AA?$DN?$AA?5?$AAE?$AAC?$AA_?$AAW?$AAE?$AAI?$AAE?$AAR?$AAS?$AAT?$AAR?$AAA?$AAS?$AAS?$AA?$AA@ 0044220c     sshecc.obj
 0002:00004248       ??_C@_1DM@ENMBENHJ@?$AAh?$AAa?$AAs?$AAh?$AA?4?$AAl?$AAe?$AAn?$AA?5?$AA?$DO?$AA?$DN?$AA?5?$AAc?$AAu?$AAr?$AAv?$AAe?$AA?9?$AA?$DO?$AAf?$AAi?$AAe?$AAl?$AAd?$AAB?$AAy?$AAt?$AAe?$AAs?$AA?$AA@ 00442248     sshecc.obj
 0002:00004284       ??_C@_1DE@NBKLAKDH@?$AAc?$AAu?$AAr?$AAv?$AAe?$AA?9?$AA?$DO?$AAt?$AAy?$AAp?$AAe?$AA?5?$AA?$DN?$AA?$DN?$AA?5?$AAE?$AAC?$AA_?$AAE?$AAD?$AAW?$AAA?$AAR?$AAD?$AAS?$AA?$AA@ 00442284     sshecc.obj
 0002:000042b8       ??_C@_1DE@JALDAAJ@?$AAc?$AAu?$AAr?$AAv?$AAe?$AA?9?$AA?$DO?$AAf?$AAi?$AAe?$AAl?$AAd?$AAB?$AAi?$AAt?$AAs?$AA?5?$AA?$CF?$AA?5?$AA8?$AA?5?$AA?$DN?$AA?$DN?$AA?5?$AA7?$AA?$AA@ 004422b8     sshecc.obj
 0002:000042ec       ??_C@_1CO@KBIANCHI@?$AAc?$AAu?$AAr?$AAv?$AAe?$AA?9?$AA?$DO?$AAf?$AAi?$AAe?$AAl?$AAd?$AAB?$AAy?$AAt?$AAe?$AAs?$AA?5?$AA?$DO?$AA?$DN?$AA?5?$AA2?$AA?$AA@ 004422ec     sshecc.obj
 0002:0000431c       ??_C@_03CGNBMCEI@?$CFs?0?$AA@ 0044231c     sshecc.obj
 0002:00004320       ??_C@_09BGLLIJHO@0x?$CFs?00x?$CFs?$AA@ 00442320     sshecc.obj
 0002:0000432c       ??_C@_1BO@CNPEABPI@?$AAe?$AAk?$AA?9?$AA?$DO?$AAp?$AAr?$AAi?$AAv?$AAa?$AAt?$AAe?$AAK?$AAe?$AAy?$AA?$AA@ 0044232c     sshecc.obj
 0002:0000434c       ??_C@_1DM@LNHGHOMK@?$AAe?$AAk?$AA?9?$AA?$DO?$AAc?$AAu?$AAr?$AAv?$AAe?$AA?9?$AA?$DO?$AAt?$AAy?$AAp?$AAe?$AA?5?$AA?$DN?$AA?$DN?$AA?5?$AAE?$AAC?$AA_?$AAE?$AAD?$AAW?$AAA?$AAR?$AAD?$AAS?$AA?$AA@ 0044234c     sshecc.obj
 0002:00004388       ??_C@_0CA@MJMKOHPH@ECDSA?5deterministic?5k?5generator?$AA@ 00442388     sshecc.obj
 0002:000043a8       _ssh_hmac_sha256_extra     004423a8     sshhmac.obj
 0002:000043b4       _ssh_hmac_md5_extra        004423b4     sshhmac.obj
 0002:000043c0       _ssh_hmac_sha1_extra       004423c0     sshhmac.obj
 0002:000043cc       _ssh_hmac_sha1_96_extra    004423cc     sshhmac.obj
 0002:000043d8       _ssh_hmac_sha1_buggy_extra 004423d8     sshhmac.obj
 0002:000043e4       _ssh_hmac_sha1_96_buggy_extra 004423e4     sshhmac.obj
 0002:000043f0       _ssh_hmac_md5              004423f0     sshhmac.obj
 0002:0000441c       _ssh_hmac_sha1             0044241c     sshhmac.obj
 0002:00004448       _ssh_hmac_sha1_buggy       00442448     sshhmac.obj
 0002:00004474       _ssh_hmac_sha1_96          00442474     sshhmac.obj
 0002:000044a0       _ssh_hmac_sha1_96_buggy    004424a0     sshhmac.obj
 0002:000044cc       _ssh_hmac_sha256           004424cc     sshhmac.obj
 0002:000044f8       ??_C@_0O@HOOBDNEB@hmac?9sha2?9256?$AA@ 004424f8     sshhmac.obj
 0002:00004508       ??_C@_0BO@MPEKOAFF@hmac?9sha2?9256?9etm?$EAopenssh?4com?$AA@ 00442508     sshhmac.obj
 0002:00004528       ??_C@_08LPACCAD@hmac?9md5?$AA@ 00442528     sshhmac.obj
 0002:00004534       ??_C@_0BJ@CKBIHNJD@hmac?9md5?9etm?$EAopenssh?4com?$AA@ 00442534     sshhmac.obj
 0002:00004550       ??_C@_09KBOMLGBN@hmac?9sha1?$AA@ 00442550     sshhmac.obj
 0002:0000455c       ??_C@_0BK@JCIBKLE@hmac?9sha1?9etm?$EAopenssh?4com?$AA@ 0044255c     sshhmac.obj
 0002:00004578       ??_C@_03COEFBIGK@?996?$AA@ 00442578     sshhmac.obj
 0002:0000457c       ??_C@_0N@PPCDKPGG@hmac?9sha1?996?$AA@ 0044257c     sshhmac.obj
 0002:0000458c       ??_C@_0BN@NJLHJNBE@hmac?9sha1?996?9etm?$EAopenssh?4com?$AA@ 0044258c     sshhmac.obj
 0002:000045ac       ??_C@_0P@FANIAEGB@bug?9compatible?$AA@ 004425ac     sshhmac.obj
 0002:000045bc       ??_C@_1BK@NLFGAIDH@?$AA?4?$AA?4?$AA?2?$AAs?$AAs?$AAh?$AAh?$AAm?$AAa?$AAc?$AA?4?$AAc?$AA?$AA@ 004425bc     sshhmac.obj
 0002:000045d8       ??_C@_1CO@FIPHLDOL@?$AAc?$AAt?$AAx?$AA?9?$AA?$DO?$AAh?$AAa?$AAs?$AAh?$AAa?$AAl?$AAg?$AA?9?$AA?$DO?$AAb?$AAl?$AAo?$AAc?$AAk?$AAl?$AAe?$AAn?$AA?$AA@ 004425d8     sshhmac.obj
 0002:00004608       ??_C@_09NPBMIOMK@HMAC?9?$CFs?$CFs?$AA@ 00442608     sshhmac.obj
 0002:00004614       ??_C@_02GFKOMOKH@?5?$CI?$AA@ 00442614     sshhmac.obj
 0002:00004618       ??_C@_04HDOCAJNK@?$CFs?$CFs?$AA@ 00442618     sshhmac.obj
 0002:00004620       ??_C@_02KEGNLNML@?0?5?$AA@ 00442620     sshhmac.obj
 0002:00004624       ??_C@_01PKGAHCOL@?$CJ?$AA@ 00442624     sshhmac.obj
 0002:00004628       _ssh_md5                   00442628     sshmd5.obj
 0002:0000464c       ??_C@_03GCGHEHKJ@MD5?$AA@  0044264c     sshmd5.obj
 0002:00004650       ??_C@_1BM@MNKJADLC@?$AA?4?$AA?4?$AA?2?$AAs?$AAs?$AAh?$AAp?$AAr?$AAi?$AAm?$AAe?$AA?4?$AAc?$AA?$AA@ 00442650     sshprime.obj
 0002:0000466c       ??_C@_1BO@KEJGJAFN@?$AAp?$AAo?$AAs?$AA?5?$AA?$DN?$AA?$DN?$AA?5?$AAN?$AAP?$AAR?$AAI?$AAM?$AAE?$AAS?$AA?$AA@ 0044266c     sshprime.obj
 0002:0000468c       ??_C@_1CM@KALCMHBO@?$AAm?$AAp?$AA_?$AAg?$AAe?$AAt?$AA_?$AAb?$AAi?$AAt?$AA?$CI?$AAp?$AA?0?$AA?5?$AA0?$AA?$CJ?$AA?5?$AA?$DN?$AA?$DN?$AA?5?$AA0?$AA?$AA@ 0044268c     sshprime.obj
 0002:000046b8       ??_C@_1BA@KHGOLLII@?$AAl?$AAo?$AA?5?$AA?$DM?$AA?$DN?$AA?5?$AAa?$AA?$AA@ 004426b8     sshprime.obj
 0002:000046c8       ??_C@_1O@OJHAGMB@?$AAa?$AA?5?$AA?$DM?$AA?5?$AAh?$AAi?$AA?$AA@ 004426c8     sshprime.obj
 0002:000046d8       ??_C@_1BA@LFNLBEGG@?$AAl?$AAo?$AA?5?$AA?$DM?$AA?$DN?$AA?5?$AAb?$AA?$AA@ 004426d8     sshprime.obj
 0002:000046e8       ??_C@_1O@HCPGCDBK@?$AAb?$AA?5?$AA?$DM?$AA?5?$AAh?$AAi?$AA?$AA@ 004426e8     sshprime.obj
 0002:000046f8       ??_C@_1CI@DMIADDOF@?$AAa?$AA?5?$AA?$CK?$AA?5?$AAb?$AA?5?$AA?$DO?$AA?$DN?$AA?5?$AAm?$AAi?$AAn?$AAp?$AAr?$AAo?$AAd?$AAu?$AAc?$AAt?$AA?$AA@ 004426f8     sshprime.obj
 0002:00004720       ??_C@_1DA@BMCNKBBO@?$AAb?$AA?5?$AA?$DO?$AA?$DN?$AA?5?$AAa?$AA?5?$AA?$CL?$AA?5?$AAm?$AAi?$AAn?$AA_?$AAs?$AAe?$AAp?$AAa?$AAr?$AAa?$AAt?$AAi?$AAo?$AAn?$AA?$AA@ 00442720     sshprime.obj
 0002:00004750       ??_C@_1BK@IFHAANJH@?$AA?4?$AA?4?$AA?2?$AAs?$AAs?$AAh?$AAp?$AAr?$AAn?$AAg?$AA?4?$AAc?$AA?$AA@ 00442750     sshprng.obj
 0002:0000476c       ??_C@_1BM@DKAGBLEM@?$AA?$CB?$AAp?$AAi?$AA?9?$AA?$DO?$AAk?$AAe?$AAy?$AAm?$AAa?$AAk?$AAe?$AAr?$AA?$AA@ 0044276c     sshprng.obj
 0002:00004788       ??_C@_1BK@CCJAIMCK@?$AAp?$AAi?$AA?9?$AA?$DO?$AAk?$AAe?$AAy?$AAm?$AAa?$AAk?$AAe?$AAr?$AA?$AA@ 00442788     sshprng.obj
 0002:000047a4       ??_C@_1BO@IPNDPBPH@?$AA?$CB?$AAp?$AAi?$AA?9?$AA?$DO?$AAg?$AAe?$AAn?$AAe?$AAr?$AAa?$AAt?$AAo?$AAr?$AA?$AA@ 004427a4     sshprng.obj
 0002:000047c4       ??_C@_1DM@LOAMELAH@?$AAs?$AAo?$AAu?$AAr?$AAc?$AAe?$AA_?$AAi?$AAd?$AA?5?$AA?$DM?$AA?5?$AAN?$AAO?$AAI?$AAS?$AAE?$AA_?$AAM?$AAA?$AAX?$AA_?$AAS?$AAO?$AAU?$AAR?$AAC?$AAE?$AAS?$AA?$AA@ 004427c4     sshprng.obj
 0002:00004800       ??_C@_0BC@NPBJDJGK@file?5format?5error?$AA@ 00442800     sshpubk.obj
 0002:00004814       ??_C@_0BB@HNDNBCMJ@wrong?5passphrase?$AA@ 00442814     sshpubk.obj
 0002:00004828       ??_C@_0BC@DEMJHLHP@rsa_verify?5failed?$AA@ 00442828     sshpubk.obj
 0002:0000483c       ??_C@_02JDPG@rb?$AA@       0044283c     sshpubk.obj
 0002:00004840       ??_C@_0BA@ENOJCGDH@can?8t?5open?5file?$AA@ 00442840     sshpubk.obj
 0002:00004850       ??_C@_0CB@KLPNCBJK@SSH?5PRIVATE?5KEY?5FILE?5FORMAT?51?41?6@ 00442850     sshpubk.obj
 0002:00004874       ??_C@_0BG@BDKEBGIA@not?5an?5SSH?91?5RSA?5file?$AA@ 00442874     sshpubk.obj
 0002:0000488c       ??_C@_0L@FPFMPDDA@0123456789?$AA@ 0044288c     sshpubk.obj
 0002:00004898       ??_C@_1BK@LMHLBBNJ@?$AA?4?$AA?4?$AA?2?$AAs?$AAs?$AAh?$AAp?$AAu?$AAb?$AAk?$AA?4?$AAc?$AA?$AA@ 00442898     sshpubk.obj
 0002:000048b4       ??_C@_1DI@FMBAJDD@?$AAn?$AAl?$AAi?$AAn?$AAe?$AAs?$AA?5?$AA?$DM?$AA?5?$AAM?$AAA?$AAX?$AA_?$AAK?$AAE?$AAY?$AA_?$AAB?$AAL?$AAO?$AAB?$AA_?$AAL?$AAI?$AAN?$AAE?$AAS?$AA?$AA@ 004428b4     sshpubk.obj
 0002:000048ec       ??_C@_0CB@POPODCHG@no?5header?5line?5found?5in?5key?5file@ 004428ec     sshpubk.obj
 0002:00004910       ??_C@_0BG@GFACEDGM@PuTTY?9User?9Key?9File?92?$AA@ 00442910     sshpubk.obj
 0002:00004928       ??_C@_0BG@EOCPBAKP@PuTTY?9User?9Key?9File?91?$AA@ 00442928     sshpubk.obj
 0002:00004940       ??_C@_0BF@HKENPLNI@PuTTY?9User?9Key?9File?9?$AA@ 00442940     sshpubk.obj
 0002:00004958       ??_C@_0BJ@OMNPKCPH@PuTTY?5key?5format?5too?5new?$AA@ 00442958     sshpubk.obj
 0002:00004974       ??_C@_0BO@KKNFCICD@not?5a?5PuTTY?5SSH?92?5private?5key?$AA@ 00442974     sshpubk.obj
 0002:00004994       ??_C@_0L@PHIJEIHK@Encryption?$AA@ 00442994     sshpubk.obj
 0002:000049a0       ??_C@_0N@PLAKAHPB@Public?9Lines?$AA@ 004429a0     sshpubk.obj
 0002:000049b0       ??_C@_0O@KIMPDNLC@Private?9Lines?$AA@ 004429b0     sshpubk.obj
 0002:000049c0       ??_C@_0M@BGCIEHNL@Private?9MAC?$AA@ 004429c0     sshpubk.obj
 0002:000049cc       ??_C@_0N@PAIKAHGK@Private?9Hash?$AA@ 004429cc     sshpubk.obj
 0002:000049dc       ??_C@_0BP@FBPHIKLM@putty?9private?9key?9file?9mac?9key?$AA@ 004429dc     sshpubk.obj
 0002:000049fc       ??_C@_04NOJCDH@?$CF02x?$AA@ 004429fc     sshpubk.obj
 0002:00004a04       ??_C@_0L@GHCEHEDO@MAC?5failed?$AA@ 00442a04     sshpubk.obj
 0002:00004a10       ??_C@_0BB@IEKCJKNA@createkey?5failed?$AA@ 00442a10     sshpubk.obj
 0002:00004a28       ??_C@_1FC@FJGBPLIE@?$AAp?$AAr?$AAi?$AAv?$AA_?$AAe?$AAn?$AAc?$AAr?$AAy?$AAp?$AAt?$AAe?$AAd?$AA_?$AAl?$AAe?$AAn?$AA?5?$AA?9?$AA?5?$AAp?$AAr?$AAi?$AAv?$AA_?$AAb?$AAl?$AAo?$AAb?$AA?9?$AA?$DO@ 00442a28     sshpubk.obj
 0002:00004a7c       ??_C@_01NOFIACDB@w?$AA@    00442a7c     sshpubk.obj
 0002:00004a80       ??_C@_0BL@JBPJEMFD@PuTTY?9User?9Key?9File?92?3?5?$CFs?6?$AA@ 00442a80     sshpubk.obj
 0002:00004a9c       ??_C@_0BA@HEPLFIJ@Encryption?3?5?$CFs?6?$AA@ 00442a9c     sshpubk.obj
 0002:00004aac       ??_C@_0N@IBHFALIE@Comment?3?5?$CFs?6?$AA@ 00442aac     sshpubk.obj
 0002:00004abc       ??_C@_0BC@FEKBCDEB@Public?9Lines?3?5?$CFd?6?$AA@ 00442abc     sshpubk.obj
 0002:00004ad0       ??_C@_0BD@NCJGEDCB@Private?9Lines?3?5?$CFd?6?$AA@ 00442ad0     sshpubk.obj
 0002:00004ae4       ??_C@_0O@DGAMJKCL@Private?9MAC?3?5?$AA@ 00442ae4     sshpubk.obj
 0002:00004af4       ??_C@_01EEMJAFIK@?6?$AA@   00442af4     sshpubk.obj
 0002:00004af8       ??_C@_01CLKCMJKC@?5?$AA@   00442af8     sshpubk.obj
 0002:00004afc       ??_C@_0O@BOHNMOKC@?$CFzu?5?$CFs?5?$CFs?$CFs?$CFs?$AA@ 00442afc     sshpubk.obj
 0002:00004b0c       ??_C@_03OFAPEBGM@?$CFs?6?$AA@ 00442b0c     sshpubk.obj
 0002:00004b10       ??_C@_0BC@LCKIMDGA@INVALID?9ALGORITHM?$AA@ 00442b10     sshpubk.obj
 0002:00004b24       ??_C@_05GLBBOGEN@?$CF?4?$CKs?5?$AA@ 00442b24     sshpubk.obj
 0002:00004b2c       ??_C@_0CB@FELGGKLF@?9?9?9?9?5BEGIN?5SSH2?5PUBLIC?5KEY?5?9?9?9?9?6@ 00442b2c     sshpubk.obj
 0002:00004b50       ??_C@_02MBJIFMOJ@?$CC?6?$AA@ 00442b50     sshpubk.obj
 0002:00004b54       ??_C@_0BP@POHHBCIM@?9?9?9?9?5END?5SSH2?5PUBLIC?5KEY?5?9?9?9?9?6?$AA@ 00442b54     sshpubk.obj
 0002:00004b78       ??_C@_1FK@MJAIOFAL@?$AAf?$AAa?$AAl?$AAs?$AAe?$AA?5?$AA?$CG?$AA?$CG?$AA?5?$AA?$CC?$AAB?$AAa?$AAd?$AA?5?$AAk?$AAe?$AAy?$AA?5?$AAt?$AAy?$AAp?$AAe?$AA?5?$AAi?$AAn?$AA?5?$AAs?$AAs?$AAh?$AA2?$AA_?$AAw@ 00442b78     sshpubk.obj
 0002:00004bd4       ??_C@_01JLIPDDHJ@?3?$AA@   00442bd4     sshpubk.obj
 0002:00004bd8       ??_C@_06LEJCPMLM@?$CF02x?$CFs?$AA@ 00442bd8     sshpubk.obj
 0002:00004be0       ??_C@_0L@GJOPLNDP@?$CF?4?$CKs?5?$CFd?5?$CFs?$AA@ 00442be0     sshpubk.obj
 0002:00004bec       ??_C@_07DGCKLDCK@?$CF?4?$CKs?5?$CFs?$AA@ 00442bec     sshpubk.obj
 0002:00004bf4       ??_C@_0BL@MCIHCAIN@?9?9?9?9?5BEGIN?5SSH2?5PUBLIC?5KEY?$AA@ 00442bf4     sshpubk.obj
 0002:00004c10       ??_C@_0CB@IHNFHFDO@?9?9?9?9?5BEGIN?5SSH2?5ENCRYPTED?5PRIVAT@ 00442c10     sshpubk.obj
 0002:00004c34       ??_C@_0BP@IFNDMNLO@?9?9?9?9?9BEGIN?5OPENSSH?5PRIVATE?5KEY?$AA@ 00442c34     sshpubk.obj
 0002:00004c54       ??_C@_1DC@NKDFADPG@?$AAi?$AA?5?$AA?$DO?$AA?5?$AA0?$AA?5?$AA?$CG?$AA?$CG?$AA?5?$AAi?$AA?5?$AA?$DM?$AA?5?$AAs?$AAi?$AAz?$AAe?$AAo?$AAf?$AA?$CI?$AAb?$AAu?$AAf?$AA?$CJ?$AA?$AA@ 00442c54     sshpubk.obj
 0002:00004c88       ??_C@_0BE@FNAAPKHP@unable?5to?5open?5file?$AA@ 00442c88     sshpubk.obj
 0002:00004c9c       ??_C@_0CB@IHGNBGJK@not?5a?5recognised?5key?5file?5format@ 00442c9c     sshpubk.obj
 0002:00004cc0       ??_C@_0BB@GFOEGFLL@SSH?91?5public?5key?$AA@ 00442cc0     sshpubk.obj
 0002:00004cd4       ??_C@_0CD@JMCECHDL@SSH?92?5public?5key?5?$CIRFC?54716?5forma@ 00442cd4     sshpubk.obj
 0002:00004cf8       ??_C@_0CC@NJDDKDI@SSH?92?5public?5key?5?$CIOpenSSH?5format@ 00442cf8     sshpubk.obj
 0002:00004d1c       ??_C@_0BC@LONHAMBA@SSH?91?5private?5key?$AA@ 00442d1c     sshpubk.obj
 0002:00004d30       ??_C@_0BI@FLELEAHO@PuTTY?5SSH?92?5private?5key?$AA@ 00442d30     sshpubk.obj
 0002:00004d48       ??_C@_0CL@NMDCELHH@OpenSSH?5SSH?92?5private?5key?5?$CIold?5P@ 00442d48     sshpubk.obj
 0002:00004d74       ??_C@_0CH@BPGMNNCC@OpenSSH?5SSH?92?5private?5key?5?$CInew?5f@ 00442d74     sshpubk.obj
 0002:00004d9c       ??_C@_0BK@HBGHADOM@ssh?4com?5SSH?92?5private?5key?$AA@ 00442d9c     sshpubk.obj
 0002:00004db8       ??_C@_0BO@FPPBDIJB@INTERNAL?5ERROR?5?$CIOPENSSH_AUTO?$CJ?$AA@ 00442db8     sshpubk.obj
 0002:00004dd8       ??_C@_0P@CILKDAIG@INTERNAL?5ERROR?$AA@ 00442dd8     sshpubk.obj
 0002:00004de8       ??_C@_1BK@JBBHPBNF@?$AA?4?$AA?4?$AA?2?$AAs?$AAs?$AAh?$AAr?$AAa?$AAn?$AAd?$AA?4?$AAc?$AA?$AA@ 00442de8     sshrand.obj
 0002:00004e04       ??_C@_1BK@DEKDDGDC@?$AA?$CB?$AAg?$AAl?$AAo?$AAb?$AAa?$AAl?$AA_?$AAp?$AAr?$AAn?$AAg?$AA?$AA@ 00442e04     sshrand.obj
 0002:00004e20       ??_C@_1CE@PJKIMLAA@?$AAr?$AAa?$AAn?$AAd?$AAo?$AAm?$AA_?$AAa?$AAc?$AAt?$AAi?$AAv?$AAe?$AA?5?$AA?$DO?$AA?5?$AA0?$AA?$AA@ 00442e20     sshrand.obj
 0002:00004eb8       _ssh_rsa_kex               00442eb8     sshrsa.obj
 0002:00004ec0       _ssh_rsa                   00442ec0     sshrsa.obj
 0002:00004f00       ??_C@_04GHCAEBFJ@rsa2?$AA@ 00442f00     sshrsa.obj
 0002:00004f08       ??_C@_0N@KOPDGDGF@rsa1024?9sha1?$AA@ 00442f08     sshrsa.obj
 0002:00004f18       ??_C@_0P@OJIMEJLA@rsa2048?9sha256?$AA@ 00442f18     sshrsa.obj
 0002:00004f28       ??_C@_1BI@DCECBPHA@?$AA?4?$AA?4?$AA?2?$AAs?$AAs?$AAh?$AAr?$AAs?$AAa?$AA?4?$AAc?$AA?$AA@ 00442f28     sshrsa.obj
 0002:00004f40       ??_C@_04PDMAGGHH@?$CFzu?5?$AA@ 00442f40     sshrsa.obj
 0002:00004f48       ??_C@_06ELKDNDAA@?$CFs?$CF02x?$AA@ 00442f48     sshrsa.obj
 0002:00004f50       ??_C@_03EEBNCBOD@?5?$CFs?$AA@ 00442f50     sshrsa.obj
 0002:00004f54       ??_C@_0N@DEJCCKFG@rsa?9sha2?9256?$AA@ 00442f54     sshrsa.obj
 0002:00004f64       ??_C@_0N@MKCAHPDH@rsa?9sha2?9512?$AA@ 00442f64     sshrsa.obj
 0002:00004f78       ??_C@_1FK@HGBNENJN@?$AAf?$AAa?$AAl?$AAs?$AAe?$AA?5?$AA?$CG?$AA?$CG?$AA?5?$AA?$CC?$AAb?$AAa?$AAd?$AA?5?$AAh?$AAa?$AAs?$AAh?$AA?5?$AAa?$AAl?$AAg?$AAo?$AAr?$AAi?$AAt?$AAh?$AAm?$AA?5?$AAf?$AAo?$AAr@ 00442f78     sshrsa.obj
 0002:00004fd4       ??_C@_1CM@FBJADDKF@?$AAn?$AAb?$AAy?$AAt?$AAe?$AAs?$AA?5?$AA?$DO?$AA?$DN?$AA?5?$AAf?$AAi?$AAx?$AAe?$AAd?$AA_?$AAp?$AAa?$AAr?$AAt?$AAs?$AA?$AA@ 00442fd4     sshrsa.obj
 0002:00005000       ??_C@_0DH@JDBBJPFC@?$CFzu?9bit?5RSA?5key?5is?5too?5short?5to?5@ 00443000     sshrsa.obj
 0002:00005038       ??_C@_1BK@OLANONI@?$AA?4?$AA?4?$AA?2?$AAs?$AAs?$AAh?$AAr?$AAs?$AAa?$AAg?$AA?4?$AAc?$AA?$AA@ 00443038     sshrsag.obj
 0002:00005054       ??_C@_1BO@MCMFLJOF@?$AAp?$AAb?$AAi?$AAt?$AAs?$AA?5?$AA?$DO?$AA?$DN?$AA?5?$AAq?$AAb?$AAi?$AAt?$AAs?$AA?$AA@ 00443054     sshrsag.obj
 0002:00005074       ??_C@_1CA@EIPOJINF@?$AAm?$AAp?$AA_?$AAc?$AAm?$AAp?$AA_?$AAh?$AAs?$AA?$CI?$AAp?$AA?0?$AA?5?$AAq?$AA?$CJ?$AA?$AA@ 00443074     sshrsag.obj
 0002:00005094       ??_C@_0BD@ILPMBBEM@SHA?9NI?5accelerated?$AA@ 00443094     sshsh256.obj
 0002:000050a8       ??_C@_0BN@BEOECJPP@SHA?9256?5?$CISHA?9NI?5accelerated?$CJ?$AA@ 004430a8     sshsh256.obj
 0002:000050c8       ??_C@_07DKFLFLPF@SHA?9256?$AA@ 004430c8     sshsh256.obj
 0002:000050d0       ??_C@_0BG@GBFIHHLJ@dummy?5selector?5vtable?$AA@ 004430d0     sshsh256.obj
 0002:000050e8       ??_C@_0CA@GJLHNGGJ@SHA?9256?5?$CIdummy?5selector?5vtable?$CJ?$AA@ 004430e8     sshsh256.obj
 0002:00005228       _ssh_sha256                00443228     sshsh256.obj
 0002:0000524c       _ssh_sha256_hw             0044324c     sshsh256.obj
 0002:00005270       _ssh_sha256_sw             00443270     sshsh256.obj
 0002:00005294       ??_C@_0O@PFNKJCBK@unaccelerated?$AA@ 00443294     sshsh256.obj
 0002:000052a4       ??_C@_0BI@CHMICMJN@SHA?9256?5?$CIunaccelerated?$CJ?$AA@ 004432a4     sshsh256.obj
 0002:000052bc       ??_C@_1BM@GMGHJNCM@?$AA?4?$AA?4?$AA?2?$AAs?$AAs?$AAh?$AAs?$AAh?$AA2?$AA5?$AA6?$AA?4?$AAc?$AA?$AA@ 004432bc     sshsh256.obj
 0002:000052d8       ??_C@_1HK@HPJBMGCP@?$AAb?$AAl?$AAk?$AA?9?$AA?$DO?$AAu?$AAs?$AAe?$AAd?$AA?5?$AA?$DN?$AA?$DN?$AA?5?$AA0?$AA?5?$AA?$CG?$AA?$CG?$AA?5?$AA?$CC?$AAS?$AAh?$AAo?$AAu?$AAl?$AAd?$AA?5?$AAh?$AAa?$AAv?$AAe?$AA?5?$AAe@ 004432d8     sshsh256.obj
 0002:00005360       __xmm@0c0d0e0f08090a0b0405060700010203 00443360     sshsh256.obj
 0002:00005370       __xmm@106aa070f40e3585d6990624d192e819 00443370     sshsh256.obj
 0002:00005380       __xmm@1429296706ca6351d5a79147c6e00bf3 00443380     sshsh256.obj
 0002:00005390       __xmm@240ca1cc0fc19dc6efbe4786e49b69c1 00443390     sshsh256.obj
 0002:000053a0       __xmm@34b0bcb52748774c1e376c0819a4c116 004433a0     sshsh256.obj
 0002:000053b0       __xmm@3c6ef372a54ff53a1f83d9ab5be0cd19 004433b0     sshsh256.obj
 0002:000053c0       __xmm@53380d134d2c6dfc2e1b213827b70a85 004433c0     sshsh256.obj
 0002:000053d0       __xmm@550c7dc3243185be12835b01d807aa98 004433d0     sshsh256.obj
 0002:000053e0       __xmm@682e6ff35b9cca4f4ed8aa4a391c0cb3 004433e0     sshsh256.obj
 0002:000053f0       __xmm@6a09e667bb67ae85510e527f9b05688c 004433f0     sshsh256.obj
 0002:00005400       __xmm@76f988da5cb0a9dc4a7484aa2de92c6f 00443400     sshsh256.obj
 0002:00005410       __xmm@8cc7020884c8781478a5636f748f82ee 00443410     sshsh256.obj
 0002:00005420       __xmm@92722c8581c2c92e766a0abb650a7354 00443420     sshsh256.obj
 0002:00005430       __xmm@ab1c5ed5923f82a459f111f13956c25b 00443430     sshsh256.obj
 0002:00005440       __xmm@bf597fc7b00327c8a831c66d983e5152 00443440     sshsh256.obj
 0002:00005450       __xmm@c19bf1749bdc06a780deb1fe72be5d74 00443450     sshsh256.obj
 0002:00005460       __xmm@c67178f2bef9a3f7a4506ceb90befffa 00443460     sshsh256.obj
 0002:00005470       __xmm@c76c51a3c24b8b70a81a664ba2bfe8a1 00443470     sshsh256.obj
 0002:00005480       __xmm@e9b5dba5b5c0fbcf71374491428a2f98 00443480     sshsh256.obj
 0002:00005490       ??_C@_07MEOJAOJE@SHA?9512?$AA@ 00443490     sshsh512.obj
 0002:00005498       ??_C@_07LIAJMNEB@SHA?9384?$AA@ 00443498     sshsh512.obj
 0002:000057a0       _ssh_sha384                004437a0     sshsh512.obj
 0002:000057c4       _ssh_sha512                004437c4     sshsh512.obj
 0002:000057e8       ??_C@_0BL@IIKHCMEF@SHA?91?5?$CISHA?9NI?5accelerated?$CJ?$AA@ 004437e8     sshsha.obj
 0002:00005804       ??_C@_05HJMENKNE@SHA?91?$AA@ 00443804     sshsha.obj
 0002:0000580c       ??_C@_0BO@DDNMEJFM@SHA?91?5?$CIdummy?5selector?5vtable?$CJ?$AA@ 0044380c     sshsha.obj
 0002:00005840       _ssh_sha1                  00443840     sshsha.obj
 0002:00005864       _ssh_sha1_hw               00443864     sshsha.obj
 0002:00005888       _ssh_sha1_sw               00443888     sshsha.obj
 0002:000058ac       ??_C@_0BG@NKPBHHDP@SHA?91?5?$CIunaccelerated?$CJ?$AA@ 004438ac     sshsha.obj
 0002:000058c4       ??_C@_1BI@HGKJCJAA@?$AA?4?$AA?4?$AA?2?$AAs?$AAs?$AAh?$AAs?$AAh?$AAa?$AA?4?$AAc?$AA?$AA@ 004438c4     sshsha.obj
 0002:000058e0       __xmm@67452301efcdab8998badcfe10325476 004438e0     sshsha.obj
 0002:000058f0       __xmm@c3d2e1f0000000000000000000000000 004438f0     sshsha.obj
 0002:00005900       ??_C@_1BK@MHBNEDJA@?$AA?4?$AA?4?$AA?2?$AAt?$AAr?$AAe?$AAe?$AA2?$AA3?$AA4?$AA?4?$AAc?$AA?$AA@ 00443900     tree234.obj
 0002:0000591c       ??_C@_1DC@HAJCHCAO@?$AA?$CB?$AA?$CI?$AAe?$AAq?$AAu?$AAa?$AAl?$AA_?$AAp?$AAe?$AAr?$AAm?$AAi?$AAt?$AAt?$AAe?$AAd?$AA?5?$AA?$CG?$AA?$CG?$AA?5?$AA?$CB?$AAe?$AA?$CJ?$AA?$AA@ 0044391c     tree234.obj
 0002:00005950       ??_C@_1BE@JDCCMFIA@?$AAd?$AAi?$AAr?$AAe?$AAc?$AAt?$AAi?$AAo?$AAn?$AA?$AA@ 00443950     tree234.obj
 0002:000059ac       _ver                       004439ac     version.obj
 0002:000059bc       _sshver                    004439bc     version.obj
 0002:000059cc       _commitid                  004439cc     version.obj
 0002:00006764       ??_C@_0N@OGEBEC@comctl32?4dll?$AA@ 00444764     winctrls.obj
 0002:00006774       ??_C@_0BD@KDNHKDOA@InitCommonControls?$AA@ 00444774     winctrls.obj
 0002:00006788       ??_C@_0N@GOBEGNOI@MakeDragList?$AA@ 00444788     winctrls.obj
 0002:00006798       ??_C@_0N@JAKJHKMC@LBItemFromPt?$AA@ 00444798     winctrls.obj
 0002:000067a8       ??_C@_0L@KABJLPNH@DrawInsert?$AA@ 004447a8     winctrls.obj
 0002:000067b4       ??_C@_07EKEMFJNL@LISTBOX?$AA@ 004447b4     winctrls.obj
 0002:000067bc       ??_C@_06GCFCNKMP@STATIC?$AA@ 004447bc     winctrls.obj
 0002:000067c4       ??_C@_06HBIEIEBN@BUTTON?$AA@ 004447c4     winctrls.obj
 0002:000067cc       ??_C@_04BMCEDOKO@EDIT?$AA@ 004447cc     winctrls.obj
 0002:000067d4       ??_C@_08ILACPJID@COMBOBOX?$AA@ 004447d4     winctrls.obj
 0002:000067e0       ??_C@_0BC@LCPLMKMI@msctls_progress32?$AA@ 004447e0     winctrls.obj
 0002:000067f4       ??_C@_0BF@GGPCANBM@All?5Files?5?$CI?$CK?4?$CK?$CJ?$AA?$CK?$AA?$AA?$AA?$AA@ 004447f4     winctrls.obj
 0002:00006814       ??_C@_0CF@KDOBGPCF@Software?2SimonTatham?2PuTTY64?2CHM@ 00444814     winhelp.obj
 0002:0000683c       ??_C@_0CD@MCJDAGBJ@Software?2SimonTatham?2PuTTY?2CHMPa@ 0044483c     winhelp.obj
 0002:00006860       ??_C@_0BG@FEFAGBOL@?$CFs?2putty_?$CFlu_?$CFllu?4chm?$AA@ 00444860     winhelp.obj
 0002:00006878       ??_C@_0L@EFKJKBHF@hhctrl?4ocx?$AA@ 00444878     winhelp.obj
 0002:00006884       ??_C@_09EFBFPPGM@HtmlHelpA?$AA@ 00444884     winhelp.obj
 0002:00006890       ??_C@_0BC@CFNCKOA@?$CFs?3?3?1?$CFs?4html?$DOmain?$AA@ 00444890     winhelp.obj
 0002:000068b4       ??_C@_0N@MDJJJHMB@kernel32?4dll?$AA@ 004448b4     winmisc.obj
 0002:000068c4       ??_C@_0BJ@OHNKDLIJ@SetDefaultDllDirectories?$AA@ 004448c4     winmisc.obj
 0002:000068e0       ??_C@_01KICIPPFI@?2?$AA@   004448e0     winmisc.obj
 0002:000068e4       ??_C@_0CO@PFNCIHEG@?$CIunable?5to?5format?3?5FormatMessage@ 004448e4     winmisc.obj
 0002:00006914       ??_C@_0N@EGAOEDDE@Error?5?$CFd?3?5?$CFs?$AA@ 00444914     winmisc.obj
 0002:00006924       ??_C@_0N@INAGJMNN@advapi32?4dll?$AA@ 00444924     winnoise.obj
 0002:00006934       ??_C@_0BF@ILOJAFDL@CryptAcquireContextA?$AA@ 00444934     winnoise.obj
 0002:0000694c       ??_C@_0P@HGPEDCEI@CryptGenRandom?$AA@ 0044494c     winnoise.obj
 0002:0000695c       ??_C@_0BE@FBIJLPPP@CryptReleaseContext?$AA@ 0044495c     winnoise.obj
 0002:00006970       ??_C@_02KHDDNBB@?2?$CK?$AA@ 00444970     winnoise.obj
 0002:00006bd0       ??_C@_0BF@FGPOBIOJ@PuTTYgen?5Fatal?5Error?$AA@ 00444bd0     winpgen.obj
 0002:00006be8       ??_C@_0P@FBOEJNMO@PuTTYgen?5Error?$AA@ 00444be8     winpgen.obj
 0002:00006bf8       ??_C@_0DL@MJMBOCBO@PuTTY?5Private?5Key?5Files?5?$CI?$CK?4ppk?$CJ?$AA@ 00444bf8     winpgen.obj
 0002:00006c34       ??_C@_04POOLODCH@?4ppk?$AA@ 00444c34     winpgen.obj
 0002:00006c40       ??_C@_0FKM@BDOADMDH@PuTTY?5is?5copyright?51997?92020?5Sim@ 00444c40     winpgen.obj
 0002:000071ec       ??_C@_02PCIJFNDE@?$AN?6?$AA@ 004451ec     winpgen.obj
 0002:000071f0       ??_C@_0CP@BMOEMFNL@?$KJ?51997?92020?5Simon?5Tatham?4?5All?5ri@ 004451f0     winpgen.obj
 0002:00007220       ??_C@_0BL@GFDCIHKO@PuTTYgen?$AN?6?$AN?6?$CFs?$AN?6?$AN?6?$CFs?$AN?6?$AN?6?$CFs?$AA@ 00445220     winpgen.obj
 0002:0000723c       ??_C@_0DE@PMFNFMJK@https?3?1?1www?4chiark?4greenend?4org?4@ 0044523c     winpgen.obj
 0002:00007270       ??_C@_04PMOCAHAA@open?$AA@ 00445270     winpgen.obj
 0002:00007278       ??_C@_0DD@BNIEAAGE@?$CGPublic?5key?5for?5pasting?5into?5aut@ 00445278     winpgen.obj
 0002:000072ac       ??_C@_0DL@KOEMDPML@?$CGPublic?5key?5for?5pasting?5into?5Ope@ 004452ac     winpgen.obj
 0002:000072e8       ??_C@_0BP@IBKLELMH@Couldn?8t?5load?5private?5key?5?$CI?$CFs?$CJ?$AA@ 004452e8     winpgen.obj
 0002:00007308       ??_C@_1CK@KNFGBIHK@?$AA?4?$AA?4?$AA?2?$AAw?$AAi?$AAn?$AAd?$AAo?$AAw?$AAs?$AA?2?$AAw?$AAi?$AAn?$AAp?$AAg?$AAe?$AAn?$AA?4?$AAc?$AA?$AA@ 00445308     winpgen.obj
 0002:00007334       ??_C@_1CG@BIBKKIIF@?$AAp?$AAa?$AAs?$AAs?$AAp?$AAh?$AAr?$AAa?$AAs?$AAe?$AA?5?$AA?$CB?$AA?$DN?$AA?5?$AAN?$AAU?$AAL?$AAL?$AA?$AA@ 00445334     winpgen.obj
 0002:00007360       ??_C@_0JF@JMKLLBAD@Successfully?5imported?5foreign?5ke@ 00445360     winpgen.obj
 0002:000073f8       ??_C@_0BA@GOIHLCEM@PuTTYgen?5Notice?$AA@ 004453f8     winpgen.obj
 0002:00007408       ??_C@_0BF@JLCAGPPE@Key?5generation?5error?$AA@ 00445408     winpgen.obj
 0002:00007420       ??_C@_0BI@FJKJDNDH@Out?5of?5thread?5resources?$AA@ 00445420     winpgen.obj
 0002:00007438       ??_C@_0BC@IEPGKHHG@?$CGLoad?5private?5key?$AA@ 00445438     winpgen.obj
 0002:0000744c       ??_C@_0BB@IFIJGHGM@Save?5p?$CGublic?5key?$AA@ 0044544c     winpgen.obj
 0002:00007460       ??_C@_0BC@DHMLIKFG@?$CGSave?5private?5key?$AA@ 00445460     winpgen.obj
 0002:00007474       ??_C@_05PNPHNLAJ@E?$CGxit?$AA@ 00445474     winpgen.obj
 0002:0000747c       ??_C@_05FHBCAALB@?$CGFile?$AA@ 0044547c     winpgen.obj
 0002:00007484       ??_C@_0BD@KDONEHFN@?$CGGenerate?5key?5pair?$AA@ 00445484     winpgen.obj
 0002:00007498       ??_C@_0BB@KNLAEANP@SSH?9?$CG1?5key?5?$CIRSA?$CJ?$AA@ 00445498     winpgen.obj
 0002:000074ac       ??_C@_0P@BPDPEEML@SSH?92?5?$CGRSA?5key?$AA@ 004454ac     winpgen.obj
 0002:000074bc       ??_C@_0P@KFOLHMGH@SSH?92?5?$CGDSA?5key?$AA@ 004454bc     winpgen.obj
 0002:000074cc       ??_C@_0BB@NJLICNAI@SSH?92?5?$CGECDSA?5key?$AA@ 004454cc     winpgen.obj
 0002:000074e0       ??_C@_0BD@DKBBDLPM@SSH?92?5Ed?$CG25519?5key?$AA@ 004454e0     winpgen.obj
 0002:000074f4       ??_C@_04ILKIMGAO@?$CGKey?$AA@ 004454f4     winpgen.obj
 0002:000074fc       ??_C@_0M@HFBBIEEH@?$CGImport?5key?$AA@ 004454fc     winpgen.obj
 0002:00007508       ??_C@_0BE@EBADGJBC@Export?5?$CGOpenSSH?5key?$AA@ 00445508     winpgen.obj
 0002:0000751c       ??_C@_0CM@MJKDEKAC@Export?5?$CGOpenSSH?5key?5?$CIforce?5new?5f@ 0044551c     winpgen.obj
 0002:00007548       ??_C@_0BE@FPMBPEPP@Export?5?$CGssh?4com?5key?$AA@ 00445548     winpgen.obj
 0002:0000755c       ??_C@_0N@LGCEONFD@Con?$CGversions?$AA@ 0044555c     winpgen.obj
 0002:0000756c       ??_C@_06JDCECANP@?$CGAbout?$AA@ 0044556c     winpgen.obj
 0002:00007574       ??_C@_05JFEBOHHM@?$CGHelp?$AA@ 00445574     winpgen.obj
 0002:0000757c       ??_C@_03CCEPDEKL@Key?$AA@  0044557c     winpgen.obj
 0002:00007580       ??_C@_07GOKFNCON@No?5key?4?$AA@ 00445580     winpgen.obj
 0002:00007588       ??_C@_0BC@FKECAKGA@Key?5f?$CGingerprint?3?$AA@ 00445588     winpgen.obj
 0002:0000759c       ??_C@_0O@IAHBDMGD@Key?5?$CGcomment?3?$AA@ 0044559c     winpgen.obj
 0002:000075ac       ??_C@_0BB@MMPCKJCM@Key?5p?$CGassphrase?3?$AA@ 004455ac     winpgen.obj
 0002:000075c0       ??_C@_0BF@OKIIOCBE@C?$CGonfirm?5passphrase?3?$AA@ 004455c0     winpgen.obj
 0002:000075d8       ??_C@_07OEDLMFDM@Actions?$AA@ 004455d8     winpgen.obj
 0002:000075e0       ??_C@_09LEIEPBPJ@?$CGGenerate?$AA@ 004455e0     winpgen.obj
 0002:000075ec       ??_C@_0CD@ELPIDMDF@Generate?5a?5public?1private?5key?5pa@ 004455ec     winpgen.obj
 0002:00007610       ??_C@_05CJAKOFNO@?$CGLoad?$AA@ 00445610     winpgen.obj
 0002:00007618       ??_C@_0CC@MHAMFAED@Load?5an?5existing?5private?5key?5fil@ 00445618     winpgen.obj
 0002:0000763c       ??_C@_0BH@JGJHJIGG@Save?5the?5generated?5key?$AA@ 0044563c     winpgen.obj
 0002:00007654       ??_C@_0L@PBGCNDPG@Parameters?$AA@ 00445654     winpgen.obj
 0002:00007660       ??_C@_0N@OLLNEIAC@SSH?9?$CG1?5?$CIRSA?$CJ?$AA@ 00445660     winpgen.obj
 0002:00007670       ??_C@_08LJJEJECA@Ed?$CG25519?$AA@ 00445670     winpgen.obj
 0002:0000767c       ??_C@_06BNNGLEKG@?$CGECDSA?$AA@ 0044567c     winpgen.obj
 0002:00007684       ??_C@_04OELCPDIB@?$CGDSA?$AA@ 00445684     winpgen.obj
 0002:0000768c       ??_C@_04JBMAPLMC@?$CGRSA?$AA@ 0044568c     winpgen.obj
 0002:00007694       ??_C@_0BJ@FAOEKIOJ@Type?5of?5key?5to?5generate?3?$AA@ 00445694     winpgen.obj
 0002:000076b0       ??_C@_0CE@EOCMOEBF@Number?5of?5?$CGbits?5in?5a?5generated?5k@ 004456b0     winpgen.obj
 0002:000076d4       ??_C@_0CH@KJAOPKFI@Cur?$CGve?5to?5use?5for?5generating?5thi@ 004456d4     winpgen.obj
 0002:000076fc       ??_C@_0CJ@NNDHFNOM@?$CInothing?5to?5configure?5for?5this?5k@ 004456fc     winpgen.obj
 0002:00007728       ??_C@_0BA@IJJLFHML@pubkey?9puttygen?$AA@ 00445728     winpgen.obj
 0002:00007738       ??_C@_1CA@KCDKAAFI@?$AAc?$AAu?$AAr?$AAv?$AAe?$AAi?$AAn?$AAd?$AAe?$AAx?$AA?5?$AA?$DO?$AA?$DN?$AA?5?$AA0?$AA?$AA@ 00445738     winpgen.obj
 0002:00007758       ??_C@_1EK@FHDOOAEH@?$AAc?$AAu?$AAr?$AAv?$AAe?$AAi?$AAn?$AAd?$AAe?$AAx?$AA?5?$AA?$DM?$AA?5?$AAn?$AA_?$AAe?$AAc?$AA_?$AAn?$AAi?$AAs?$AAt?$AA_?$AAc?$AAu?$AAr?$AAv?$AAe?$AA_?$AAl?$AAe?$AAn@ 00445758     winpgen.obj
 0002:000077a8       ??_C@_0GC@MBFOIOIP@PuTTYgen?5will?5not?5generate?5a?5key@ 004457a8     winpgen.obj
 0002:0000780c       ??_C@_0BB@GBOCBGLM@PuTTYgen?5Warning?$AA@ 0044580c     winpgen.obj
 0002:00007820       ??_C@_0EJ@KDKPFMCM@Keys?5shorter?5than?5?$CFd?5bits?5are?5no@ 00445820     winpgen.obj
 0002:0000786c       ??_C@_0DA@JGGDIDCC@Cannot?5export?5an?5SSH?9?$CFd?5key?5in?5a@ 0044586c     winpgen.obj
 0002:0000789c       ??_C@_0CI@EMLOMEHN@The?5two?5passphrases?5given?5do?5not@ 0044589c     winpgen.obj
 0002:000078c8       ??_C@_0EL@DGFHFEPC@Are?5you?5sure?5you?5want?5to?5save?5th@ 004458c8     winpgen.obj
 0002:00007914       ??_C@_0BF@LAHBGOJI@Save?5private?5key?5as?3?$AA@ 00445914     winpgen.obj
 0002:0000792c       ??_C@_0BM@PDMOLDDE@Overwrite?5existing?5file?6?$CFs?$DP?$AA@ 0044592c     winpgen.obj
 0002:00007948       ??_C@_0BI@NIPKLCMF@Unable?5to?5save?5key?5file?$AA@ 00445948     winpgen.obj
 0002:00007960       ??_C@_0BE@JAALDIBM@Save?5public?5key?5as?3?$AA@ 00445960     winpgen.obj
 0002:00007974       ??_C@_0BI@KFILNIJD@Unable?5to?5open?5key?5file?$AA@ 00445974     winpgen.obj
 0002:0000798c       ??_C@_0BC@JKAAIHPC@Load?5private?5key?3?$AA@ 0044598c     winpgen.obj
 0002:000079a0       ??_C@_0P@BAKNKFIM@dsa?9key?9?$CFY?$CFm?$CFd?$AA@ 004459a0     winpgen.obj
 0002:000079b0       ??_C@_0BB@JJFDNFCB@ecdsa?9key?9?$CFY?$CFm?$CFd?$AA@ 004459b0     winpgen.obj
 0002:000079c4       ??_C@_0BD@GKACMPL@ed25519?9key?9?$CFY?$CFm?$CFd?$AA@ 004459c4     winpgen.obj
 0002:000079d8       ??_C@_0P@HGDFOODB@rsa?9key?9?$CFY?$CFm?$CFd?$AA@ 004459d8     winpgen.obj
 0002:000079e8       ??_C@_0BC@BBOLOPFF@puttygen?9generate?$AA@ 004459e8     winpgen.obj
 0002:000079fc       ??_C@_0BC@NFGNNNML@puttygen?9pastekey?$AA@ 004459fc     winpgen.obj
 0002:00007a10       ??_C@_0BF@BNCNJLAD@puttygen?9fingerprint?$AA@ 00445a10     winpgen.obj
 0002:00007a28       ??_C@_0BB@IHHANMMM@puttygen?9comment?$AA@ 00445a28     winpgen.obj
 0002:00007a3c       ??_C@_0BE@GAILMAFG@puttygen?9passphrase?$AA@ 00445a3c     winpgen.obj
 0002:00007a50       ??_C@_0O@LHKKNOAN@puttygen?9load?$AA@ 00445a50     winpgen.obj
 0002:00007a60       ??_C@_0BC@HNMBPKNL@puttygen?9savepriv?$AA@ 00445a60     winpgen.obj
 0002:00007a74       ??_C@_0BB@JJLJHBMI@puttygen?9savepub?$AA@ 00445a74     winpgen.obj
 0002:00007a88       ??_C@_0BB@FKPMGIAE@puttygen?9keytype?$AA@ 00445a88     winpgen.obj
 0002:00007a9c       ??_C@_0BC@MFHNGADF@puttygen?9strength?$AA@ 00445a9c     winpgen.obj
 0002:00007ab0       ??_C@_0BF@CNAOGNEE@puttygen?9conversions?$AA@ 00445ab0     winpgen.obj
 0002:00007ac8       ??_C@_06OEJDLALJ@?9pgpfp?$AA@ 00445ac8     winpgen.obj
 0002:00007ad0       ??_C@_0O@KEOPCOBB@?9restrict?9acl?$AA@ 00445ad0     winpgen.obj
 0002:00007ae0       ??_C@_0O@CHPNJNLO@?9restrict_acl?$AA@ 00445ae0     winpgen.obj
 0002:00007af0       ??_C@_0N@CPDAHODB@?9restrictacl?$AA@ 00445af0     winpgen.obj
 0002:00007b04       ??_C@_0BA@JKIAABFB@GetSecurityInfo?$AA@ 00445b04     winsecur.obj
 0002:00007b14       ??_C@_0BA@KIJGHDEI@SetSecurityInfo?$AA@ 00445b14     winsecur.obj
 0002:00007b24       ??_C@_0BB@EANJDCJP@OpenProcessToken?$AA@ 00445b24     winsecur.obj
 0002:00007b38       ??_C@_0BE@JIDLIKOL@GetTokenInformation?$AA@ 00445b38     winsecur.obj
 0002:00007b4c       ??_C@_0BN@FNLANPJJ@InitializeSecurityDescriptor?$AA@ 00445b4c     winsecur.obj
 0002:00007b6c       ??_C@_0BL@OJAFMLIK@SetSecurityDescriptorOwner?$AA@ 00445b6c     winsecur.obj
 0002:00007b88       ??_C@_0BB@EOLDBOGM@SetEntriesInAclA?$AA@ 00445b88     winsecur.obj
 0002:00007b9c       ??_C@_0CN@EBHMOPCB@unable?5to?5construct?5SID?5for?5curr@ 00445b9c     winsecur.obj
 0002:00007bcc       ??_C@_0CG@PPMBMHK@unable?5to?5construct?5SID?5for?5worl@ 00445bcc     winsecur.obj
 0002:00007bf4       ??_C@_0DM@MHEDGFFC@unable?5to?5construct?5SID?5for?5loca@ 00445bf4     winsecur.obj
 0002:00007c30       ??_C@_0BM@FJHHIKCO@unable?5to?5construct?5ACL?3?5?$CFs?$AA@ 00445c30     winsecur.obj
 0002:00007c4c       ??_C@_0BO@NMCINCCB@Unable?5to?5set?5process?5ACL?3?5?$CFs?$AA@ 00445c4c     winsecur.obj
 0002:00007c6c       ??_C@_0CD@GHBDCPLN@Could?5not?5restrict?5process?5ACL?3?5@ 00445c6c     winsecur.obj
 0002:00007c9c       ??_C@_0CE@BPBAEMAL@Software?2SimonTatham?2PuTTY?2Jumpl@ 00445c9c     winstore.obj
 0002:00007cc0       ??_C@_0BA@LOIOCGKN@Recent?5sessions?$AA@ 00445cc0     winstore.obj
 0002:00007cd0       ??_C@_0CE@GEIJGKHP@Software?2SimonTatham?2PuTTY?2Sessi@ 00445cd0     winstore.obj
 0002:00007cf4       ??_C@_01KMDKNFGN@?1?$AA@   00445cf4     winstore.obj
 0002:00007cf8       ??_C@_0BK@HAJEJKBA@Unable?5to?5delete?5?8?$CFs?8?3?5?$CFs?$AA@ 00445cf8     winstore.obj
 0002:00007d14       ??_C@_0BL@PHBGIKKP@Software?2SimonTatham?2PuTTY?$AA@ 00445d14     winstore.obj
 0002:00007d30       ??_C@_0N@KBOBEHLA@RandSeedFile?$AA@ 00445d30     winstore.obj
 0002:00007d40       ??_C@_0M@KFDNOLCO@shell32?4dll?$AA@ 00445d40     winstore.obj
 0002:00007d4c       ??_C@_0BB@IHMEONLD@SHGetFolderPathA?$AA@ 00445d4c     winstore.obj
 0002:00007d60       ??_C@_0L@LLJOJGKB@?2PUTTY?4RND?$AA@ 00445d60     winstore.obj
 0002:00007d6c       ??_C@_09OBKBLLMN@HOMEDRIVE?$AA@ 00445d6c     winstore.obj
 0002:00007d78       ??_C@_08LOOGKGJL@HOMEPATH?$AA@ 00445d78     winstore.obj
 0002:00007d84       ??_C@_0BG@IENGOLPA@errors?9hostkey?9absent?$AA@ 00445d84     winutils.obj
 0002:00007d9c       ??_C@_0BF@ENPFFBLN@errors?9hostkey?9wrong?$AA@ 00445d9c     winutils.obj
 0002:00007db4       ??_C@_0BF@EJDADKJ@errors?9cant?9load?9key?$AA@ 00445db4     winutils.obj
 0002:00007dcc       ??_C@_0O@PIIPMIKA@using?9cleanup?$AA@ 00445dcc     winutils.obj
 0002:00007ddc       ??_C@_07MOJGPGCL@pgpkeys?$AA@ 00445ddc     winutils.obj
 0002:00007de4       ??_C@_0BB@IMDLMANB@PGP?5fingerprints?$AA@ 00445de4     winutils.obj
 0002:00007df8       ??_C@_0BKK@OMOFJKKB@These?5are?5the?5fingerprints?5of?5th@ 00445df8     winutils.obj
 0002:00007fbc       ??_C@_1BC@DNHGCMLG@?$AAa?$AAd?$AAv?$AAa?$AAp?$AAi?$AA3?$AA2?$AA?$AA@ 00445fbc     libvcruntime:winapi_downlevel.obj
 0002:00007fd0       ??_C@_1DM@KHCHBNEB@?$AAa?$AAp?$AAi?$AA?9?$AAm?$AAs?$AA?9?$AAw?$AAi?$AAn?$AA?9?$AAc?$AAo?$AAr?$AAe?$AA?9?$AAf?$AAi?$AAb?$AAe?$AAr?$AAs?$AA?9?$AAl?$AA1?$AA?9?$AA1?$AA?9?$AA1?$AA?$AA@ 00445fd0     libvcruntime:winapi_downlevel.obj
 0002:0000800c       ??_C@_1DK@LPPGFMPP@?$AAa?$AAp?$AAi?$AA?9?$AAm?$AAs?$AA?9?$AAw?$AAi?$AAn?$AA?9?$AAc?$AAo?$AAr?$AAe?$AA?9?$AAs?$AAy?$AAn?$AAc?$AAh?$AA?9?$AAl?$AA1?$AA?9?$AA2?$AA?9?$AA0?$AA?$AA@ 0044600c     libvcruntime:winapi_downlevel.obj
 0002:00008048       ??_C@_1BC@GDMECMAK@?$AAk?$AAe?$AAr?$AAn?$AAe?$AAl?$AA3?$AA2?$AA?$AA@ 00446048     libvcruntime:winapi_downlevel.obj
 0002:00008064       ??_C@_08KNHFBNJ@FlsAlloc?$AA@ 00446064     libvcruntime:winapi_downlevel.obj
 0002:00008078       ??_C@_07PEJMOBNF@FlsFree?$AA@ 00446078     libvcruntime:winapi_downlevel.obj
 0002:00008080       ??_C@_0M@GDNOONDI@FlsGetValue?$AA@ 00446080     libvcruntime:winapi_downlevel.obj
 0002:00008094       ??_C@_0M@JCPCPOEF@FlsSetValue?$AA@ 00446094     libvcruntime:winapi_downlevel.obj
 0002:000080a8       ??_C@_0BM@HCFOFFN@InitializeCriticalSectionEx?$AA@ 004460a8     libvcruntime:winapi_downlevel.obj
 0002:00008258       ??_C@_08EHJDFFNH@__based?$CI?$AA@ 00446258     libvcruntime:undname.obj
 0002:00008264       ??_C@_07KOLFKCDI@__cdecl?$AA@ 00446264     libvcruntime:undname.obj
 0002:0000826c       ??_C@_08GHMPAG@__pascal?$AA@ 0044626c     libvcruntime:undname.obj
 0002:00008278       ??_C@_09IFJBGAPI@__stdcall?$AA@ 00446278     libvcruntime:undname.obj
 0002:00008284       ??_C@_0L@NPHFGOKO@__thiscall?$AA@ 00446284     libvcruntime:undname.obj
 0002:00008290       ??_C@_0L@JMKHOMEK@__fastcall?$AA@ 00446290     libvcruntime:undname.obj
 0002:0000829c       ??_C@_0N@BCKKPABJ@__vectorcall?$AA@ 0044629c     libvcruntime:undname.obj
 0002:000082ac       ??_C@_09HIJEGCPM@__clrcall?$AA@ 004462ac     libvcruntime:undname.obj
 0002:000082b8       ??_C@_06GHPCKEAG@__eabi?$AA@ 004462b8     libvcruntime:undname.obj
 0002:000082c0       ??_C@_07JOMMBBKO@__ptr64?$AA@ 004462c0     libvcruntime:undname.obj
 0002:000082c8       ??_C@_0L@PILCLIHE@__restrict?$AA@ 004462c8     libvcruntime:undname.obj
 0002:000082d4       ??_C@_0M@GFIIJFMG@__unaligned?$AA@ 004462d4     libvcruntime:undname.obj
 0002:000082e0       ??_C@_09DHDLOLLB@restrict?$CI?$AA@ 004462e0     libvcruntime:undname.obj
 0002:000082ec       ??_C@_04NIHEBCM@?5new?$AA@ 004462ec     libvcruntime:undname.obj
 0002:000082f4       ??_C@_07FPCDHGMM@?5delete?$AA@ 004462f4     libvcruntime:undname.obj
 0002:000082fc       ??_C@_01NEMOKFLO@?$DN?$AA@ 004462fc     libvcruntime:undname.obj
 0002:00008300       ??_C@_02GPIOPFAK@?$DO?$DO?$AA@ 00446300     libvcruntime:undname.obj
 0002:00008304       ??_C@_02FODMEDOG@?$DM?$DM?$AA@ 00446304     libvcruntime:undname.obj
 0002:00008308       ??_C@_01DCLJPIOD@?$CB?$AA@ 00446308     libvcruntime:undname.obj
 0002:0000830c       ??_C@_02EGOFBIJA@?$DN?$DN?$AA@ 0044630c     libvcruntime:undname.obj
 0002:00008310       ??_C@_02FDNJECIE@?$CB?$DN?$AA@ 00446310     libvcruntime:undname.obj
 0002:00008314       ??_C@_02GPECMEKF@?$FL?$FN?$AA@ 00446314     libvcruntime:undname.obj
 0002:00008318       ??_C@_08LHJFAFGD@operator?$AA@ 00446318     libvcruntime:undname.obj
 0002:00008324       ??_C@_02HBOOOICD@?9?$DO?$AA@ 00446324     libvcruntime:undname.obj
 0002:00008328       ??_C@_01NBENCBCI@?$CK?$AA@ 00446328     libvcruntime:undname.obj
 0002:0000832c       ??_C@_02ECNGHCIF@?$CL?$CL?$AA@ 0044632c     libvcruntime:undname.obj
 0002:00008330       ??_C@_02BAABKJLB@?9?9?$AA@ 00446330     libvcruntime:undname.obj
 0002:00008334       ??_C@_01JOAMLHOP@?9?$AA@   00446334     libvcruntime:undname.obj
 0002:00008338       ??_C@_01MIFGBAGJ@?$CL?$AA@ 00446338     libvcruntime:undname.obj
 0002:0000833c       ??_C@_01HNPIGOCE@?$CG?$AA@ 0044633c     libvcruntime:undname.obj
 0002:00008340       ??_C@_03MNHNFDLC@?9?$DO?$CK?$AA@ 00446340     libvcruntime:undname.obj
 0002:00008344       ??_C@_01FGNFDNOH@?$CF?$AA@ 00446344     libvcruntime:undname.obj
 0002:00008348       ??_C@_01MNNFJEPP@?$DM?$AA@ 00446348     libvcruntime:undname.obj
 0002:0000834c       ??_C@_02EHCHHCKH@?$DM?$DN?$AA@ 0044634c     libvcruntime:undname.obj
 0002:00008350       ??_C@_01PPODPGHN@?$DO?$AA@ 00446350     libvcruntime:undname.obj
 0002:00008354       ??_C@_02EEKDKGMJ@?$DO?$DN?$AA@ 00446354     libvcruntime:undname.obj
 0002:00008358       ??_C@_01IHBHIGKO@?0?$AA@   00446358     libvcruntime:undname.obj
 0002:0000835c       ??_C@_02HCKGKOFO@?$CI?$CJ?$AA@ 0044635c     libvcruntime:undname.obj
 0002:00008360       ??_C@_01PJKLJHI@?$HO?$AA@  00446360     libvcruntime:undname.obj
 0002:00008364       ??_C@_01JKBOJNNK@?$FO?$AA@ 00446364     libvcruntime:undname.obj
 0002:00008368       ??_C@_01DNKMNLPK@?$HM?$AA@ 00446368     libvcruntime:undname.obj
 0002:0000836c       ??_C@_02PPKAJPJL@?$CG?$CG?$AA@ 0044636c     libvcruntime:undname.obj
 0002:00008370       ??_C@_02NONPIBCD@?$HM?$HM?$AA@ 00446370     libvcruntime:undname.obj
 0002:00008374       ??_C@_02FPIMKNGF@?$CK?$DN?$AA@ 00446374     libvcruntime:undname.obj
 0002:00008378       ??_C@_02FOEOMHFC@?$CL?$DN?$AA@ 00446378     libvcruntime:undname.obj
 0002:0000837c       ??_C@_02FKMDLLOA@?9?$DN?$AA@ 0044637c     libvcruntime:undname.obj
 0002:00008380       ??_C@_02FJEHGPIO@?1?$DN?$AA@ 00446380     libvcruntime:undname.obj
 0002:00008384       ??_C@_02FENAOKFI@?$CF?$DN?$AA@ 00446384     libvcruntime:undname.obj
 0002:00008388       ??_C@_03IKFCCPFF@?$DO?$DO?$DN?$AA@ 00446388     libvcruntime:undname.obj
 0002:0000838c       ??_C@_03CDNPDDLA@?$DM?$DM?$DN?$AA@ 0044638c     libvcruntime:undname.obj
 0002:00008390       ??_C@_02FGJGFEAB@?$CG?$DN?$AA@ 00446390     libvcruntime:undname.obj
 0002:00008394       ??_C@_02DHLNPPGH@?$HM?$DN?$AA@ 00446394     libvcruntime:undname.obj
 0002:00008398       ??_C@_02MHEGNOJ@?$FO?$DN?$AA@ 00446398     libvcruntime:undname.obj
 0002:0000839c       ??_C@_09IFPLHPGF@?$GAvftable?8?$AA@ 0044639c     libvcruntime:undname.obj
 0002:000083a8       ??_C@_09BLBHBJP@?$GAvbtable?8?$AA@ 004463a8     libvcruntime:undname.obj
 0002:000083b4       ??_C@_07FEEIOKP@?$GAvcall?8?$AA@ 004463b4     libvcruntime:undname.obj
 0002:000083bc       ??_C@_08LLFFHHDJ@?$GAtypeof?8?$AA@ 004463bc     libvcruntime:undname.obj
 0002:000083c8       ??_C@_0BF@KDPPACIK@?$GAlocal?5static?5guard?8?$AA@ 004463c8     libvcruntime:undname.obj
 0002:000083e0       ??_C@_08OBABFOLI@?$GAstring?8?$AA@ 004463e0     libvcruntime:undname.obj
 0002:000083ec       ??_C@_0BD@JDLKDPAB@?$GAvbase?5destructor?8?$AA@ 004463ec     libvcruntime:undname.obj
 0002:00008400       ??_C@_0BN@DEGPLNFK@?$GAvector?5deleting?5destructor?8?$AA@ 00446400     libvcruntime:undname.obj
 0002:00008420       ??_C@_0BO@OBMKPJIG@?$GAdefault?5constructor?5closure?8?$AA@ 00446420     libvcruntime:undname.obj
 0002:00008440       ??_C@_0BN@IMDCHIKM@?$GAscalar?5deleting?5destructor?8?$AA@ 00446440     libvcruntime:undname.obj
 0002:00008460       ??_C@_0BO@PFGOCPJJ@?$GAvector?5constructor?5iterator?8?$AA@ 00446460     libvcruntime:undname.obj
 0002:00008480       ??_C@_0BN@LFPFMEDL@?$GAvector?5destructor?5iterator?8?$AA@ 00446480     libvcruntime:undname.obj
 0002:000084a0       ??_C@_0CE@IKBNEHA@?$GAvector?5vbase?5constructor?5iterat@ 004464a0     libvcruntime:undname.obj
 0002:000084c4       ??_C@_0BL@NILFHHPC@?$GAvirtual?5displacement?5map?8?$AA@ 004464c4     libvcruntime:undname.obj
 0002:000084e0       ??_C@_0CB@JONCMFFK@?$GAeh?5vector?5constructor?5iterator?8@ 004464e0     libvcruntime:undname.obj
 0002:00008504       ??_C@_0CA@GCEOPDGL@?$GAeh?5vector?5destructor?5iterator?8?$AA@ 00446504     libvcruntime:undname.obj
 0002:00008524       ??_C@_0CH@OOJPLCPH@?$GAeh?5vector?5vbase?5constructor?5ite@ 00446524     libvcruntime:undname.obj
 0002:0000854c       ??_C@_0BL@LLKPOHJI@?$GAcopy?5constructor?5closure?8?$AA@ 0044654c     libvcruntime:undname.obj
 0002:00008568       ??_C@_0BA@KBCDOMBN@?$GAudt?5returning?8?$AA@ 00446568     libvcruntime:undname.obj
 0002:00008578       ??_C@_03KLGMFNMG@?$GAEH?$AA@ 00446578     libvcruntime:undname.obj
 0002:0000857c       ??_C@_05KHLCHHI@?$GARTTI?$AA@ 0044657c     libvcruntime:undname.obj
 0002:00008584       ??_C@_0BA@KKLDJDLB@?$GAlocal?5vftable?8?$AA@ 00446584     libvcruntime:undname.obj
 0002:00008594       ??_C@_0CE@IIHCMGGL@?$GAlocal?5vftable?5constructor?5closu@ 00446594     libvcruntime:undname.obj
 0002:000085b8       ??_C@_06FHBGPFGH@?5new?$FL?$FN?$AA@ 004465b8     libvcruntime:undname.obj
 0002:000085c0       ??_C@_09LBNFPBCA@?5delete?$FL?$FN?$AA@ 004465c0     libvcruntime:undname.obj
 0002:000085cc       ??_C@_0P@HJKNJFNN@?$GAomni?5callsig?8?$AA@ 004465cc     libvcruntime:undname.obj
 0002:000085dc       ??_C@_0BL@CNOONJFP@?$GAplacement?5delete?5closure?8?$AA@ 004465dc     libvcruntime:undname.obj
 0002:000085f8       ??_C@_0BN@CKNJLHMB@?$GAplacement?5delete?$FL?$FN?5closure?8?$AA@ 004465f8     libvcruntime:undname.obj
 0002:00008618       ??_C@_0CG@CFDHKGGD@?$GAmanaged?5vector?5constructor?5iter@ 00446618     libvcruntime:undname.obj
 0002:00008640       ??_C@_0CF@IMGKMJNO@?$GAmanaged?5vector?5destructor?5itera@ 00446640     libvcruntime:undname.obj
 0002:00008668       ??_C@_0CG@HLDDJMAG@?$GAeh?5vector?5copy?5constructor?5iter@ 00446668     libvcruntime:undname.obj
 0002:00008690       ??_C@_0CM@FCBBDIGB@?$GAeh?5vector?5vbase?5copy?5constructo@ 00446690     libvcruntime:undname.obj
 0002:000086bc       ??_C@_0BL@CLIPGLGB@?$GAdynamic?5initializer?5for?5?8?$AA@ 004466bc     libvcruntime:undname.obj
 0002:000086d8       ??_C@_0CB@PDBIFEP@?$GAdynamic?5atexit?5destructor?5for?5?8@ 004466d8     libvcruntime:undname.obj
 0002:000086fc       ??_C@_0CD@CGAJBKEJ@?$GAvector?5copy?5constructor?5iterato@ 004466fc     libvcruntime:undname.obj
 0002:00008720       ??_C@_0CJ@GJELGAMM@?$GAvector?5vbase?5copy?5constructor?5i@ 00446720     libvcruntime:undname.obj
 0002:0000874c       ??_C@_0CL@FGIJHLCE@?$GAmanaged?5vector?5copy?5constructor@ 0044674c     libvcruntime:undname.obj
 0002:00008778       ??_C@_0BM@PMGGMLDN@?$GAlocal?5static?5thread?5guard?8?$AA@ 00446778     libvcruntime:undname.obj
 0002:00008794       ??_C@_0N@BDNMDMOL@operator?5?$CC?$CC?5?$AA@ 00446794     libvcruntime:undname.obj
 0002:000087a4       ??_C@_0BC@DAFEJGAK@?5Type?5Descriptor?8?$AA@ 004467a4     libvcruntime:undname.obj
 0002:000087b8       ??_C@_0BM@LDKODKLH@?5Base?5Class?5Descriptor?5at?5?$CI?$AA@ 004467b8     libvcruntime:undname.obj
 0002:000087d4       ??_C@_0BD@LGICGFMM@?5Base?5Class?5Array?8?$AA@ 004467d4     libvcruntime:undname.obj
 0002:000087e8       ??_C@_0BN@MECKDCOJ@?5Class?5Hierarchy?5Descriptor?8?$AA@ 004467e8     libvcruntime:undname.obj
 0002:00008808       ??_C@_0BK@CFCOFLF@?5Complete?5Object?5Locator?8?$AA@ 00446808     libvcruntime:undname.obj
 0002:00008828       ??_C@_1EK@MBDPDCGA@?$AAM?$AAi?$AAc?$AAr?$AAo?$AAs?$AAo?$AAf?$AAt?$AA?5?$AAV?$AAi?$AAs?$AAu?$AAa?$AAl?$AA?5?$AAC?$AA?$CL?$AA?$CL?$AA?5?$AAR?$AAu?$AAn?$AAt?$AAi?$AAm?$AAe?$AA?5?$AAL?$AAi?$AAb@ 00446828     libucrt:assert.obj
 0002:00008878       ??_C@_1FE@LHBLIKM@?$AAA?$AAs?$AAs?$AAe?$AAr?$AAt?$AAi?$AAo?$AAn?$AA?5?$AAf?$AAa?$AAi?$AAl?$AAe?$AAd?$AA?3?$AA?5?$AA?$CF?$AAT?$AAs?$AA?0?$AA?5?$AAf?$AAi?$AAl?$AAe?$AA?5?$AA?$CF?$AAT?$AAs?$AA?0@ 00446878     libucrt:assert.obj
 0002:000088cc       ??_C@_1CE@OJBNHDMO@?$AAA?$AAs?$AAs?$AAe?$AAr?$AAt?$AAi?$AAo?$AAn?$AA?5?$AAf?$AAa?$AAi?$AAl?$AAe?$AAd?$AA?$CB?$AA?$AA@ 004468cc     libucrt:assert.obj
 0002:000088f0       ??_C@_1BE@PHKBBGE@?$AAP?$AAr?$AAo?$AAg?$AAr?$AAa?$AAm?$AA?3?$AA?5?$AA?$AA@ 004468f0     libucrt:assert.obj
 0002:00008904       ??_C@_1O@HEMHKNDC@?$AAF?$AAi?$AAl?$AAe?$AA?3?$AA?5?$AA?$AA@ 00446904     libucrt:assert.obj
 0002:00008914       ??_C@_1O@KCAFKHJE@?$AAL?$AAi?$AAn?$AAe?$AA?3?$AA?5?$AA?$AA@ 00446914     libucrt:assert.obj
 0002:00008924       ??_C@_1BK@PEDCIPMA@?$AAE?$AAx?$AAp?$AAr?$AAe?$AAs?$AAs?$AAi?$AAo?$AAn?$AA?3?$AA?5?$AA?$AA@ 00446924     libucrt:assert.obj
 0002:00008940       ??_C@_1OA@EGMLFBHJ@?$AAF?$AAo?$AAr?$AA?5?$AAi?$AAn?$AAf?$AAo?$AAr?$AAm?$AAa?$AAt?$AAi?$AAo?$AAn?$AA?5?$AAo?$AAn?$AA?5?$AAh?$AAo?$AAw?$AA?5?$AAy?$AAo?$AAu?$AAr?$AA?5?$AAp?$AAr?$AAo?$AAg@ 00446940     libucrt:assert.obj
 0002:00008a20       ??_C@_1HK@POCJMFGK@?$AA?$CI?$AAP?$AAr?$AAe?$AAs?$AAs?$AA?5?$AAR?$AAe?$AAt?$AAr?$AAy?$AA?5?$AAt?$AAo?$AA?5?$AAd?$AAe?$AAb?$AAu?$AAg?$AA?5?$AAt?$AAh?$AAe?$AA?5?$AAa?$AAp?$AAp?$AAl?$AAi?$AAc@ 00446a20     libucrt:assert.obj
 0002:00008a9c       ??_C@_17LGKOMLJ@?$AA?4?$AA?4?$AA?4?$AA?$AA@ 00446a9c     libucrt:assert.obj
 0002:00008aa4       ??_C@_13LBAGMAIH@?$AA?6?$AA?$AA@ 00446aa4     libucrt:assert.obj
 0002:00008aa8       ??_C@_15IABLJNFO@?$AA?6?$AA?6?$AA?$AA@ 00446aa8     libucrt:assert.obj
 0002:00008ab0       ??_C@_1CO@EAEJAADC@?$AA?$DM?$AAp?$AAr?$AAo?$AAg?$AAr?$AAa?$AAm?$AA?5?$AAn?$AAa?$AAm?$AAe?$AA?5?$AAu?$AAn?$AAk?$AAn?$AAo?$AAw?$AAn?$AA?$DO?$AA?$AA@ 00446ab0     libucrt:assert.obj
 0002:00008ae0       _standard_lookup_table     00446ae0     libucrt:output.obj
 0002:00008b3c       ??_C@_06OJHGLDPL@?$CInull?$CJ?$AA@ 00446b3c     libucrt:output.obj
 0002:00008b44       ??_C@_1O@CEDCILHN@?$AA?$CI?$AAn?$AAu?$AAl?$AAl?$AA?$CJ?$AA?$AA@ 00446b44     libucrt:output.obj
 0002:00008b58       ?large_power_data@?1??multiply_by_power_of_ten@__crt_strtox@@YA_NAAUbig_integer@2@I@Z@4QBIB 00446b58     libucrt:input.obj
 0002:00009460       ?large_power_indices@?1??multiply_by_power_of_ten@__crt_strtox@@YA_NAAUbig_integer@2@I@Z@4QBUunpack_index@?1??12@YA_N0I@Z@B 00447460     libucrt:input.obj
 0002:000094f8       ?small_powers_of_ten@?6??multiply_by_power_of_ten@__crt_strtox@@YA_NAAUbig_integer@2@I@Z@4QBIB 004474f8     libucrt:input.obj
 0002:00009520       ??_C@_1GE@DPGDJKLM@?$AAm?$AAi?$AAn?$AAk?$AAe?$AAr?$AAn?$AAe?$AAl?$AA?2?$AAc?$AAr?$AAt?$AAs?$AA?2?$AAu?$AAc?$AAr?$AAt?$AA?2?$AAi?$AAn?$AAc?$AA?2?$AAc?$AAo?$AAr?$AAe?$AAc?$AAr?$AAt?$AA_@ 00447520     libucrt:input.obj
 0002:00009588       ??_C@_1FM@FELNCOBF@?$AA_?$AA_?$AAc?$AAr?$AAt?$AA_?$AAs?$AAt?$AAr?$AAt?$AAo?$AAx?$AA?3?$AA?3?$AAf?$AAl?$AAo?$AAa?$AAt?$AAi?$AAn?$AAg?$AA_?$AAp?$AAo?$AAi?$AAn?$AAt?$AA_?$AAv?$AAa?$AAl@ 00447588     libucrt:input.obj
 0002:000095e4       ??_C@_1BG@GEMHBGAF@?$AA_?$AAi?$AAs?$AA_?$AAd?$AAo?$AAu?$AAb?$AAl?$AAe?$AA?$AA@ 004475e4     libucrt:input.obj
 0002:00009600       ??_C@_1FK@JOJELFFO@?$AA_?$AA_?$AAc?$AAr?$AAt?$AA_?$AAs?$AAt?$AAr?$AAt?$AAo?$AAx?$AA?3?$AA?3?$AAf?$AAl?$AAo?$AAa?$AAt?$AAi?$AAn?$AAg?$AA_?$AAp?$AAo?$AAi?$AAn?$AAt?$AA_?$AAv?$AAa?$AAl@ 00447600     libucrt:input.obj
 0002:0000965c       ??_C@_1BI@BANMPGJI@?$AA?$CB?$AA_?$AAi?$AAs?$AA_?$AAd?$AAo?$AAu?$AAb?$AAl?$AAe?$AA?$AA@ 0044765c     libucrt:input.obj
 0002:00009678       ?constraints@?1??is_length_valid@__crt_stdio_input@@YA_NW4conversion_mode@2@W4length_modifier@2@@Z@4QAY0M@$$CBEA 00447678     libucrt:input.obj
 0002:000096f0       ?inf_uppercase@?2???$parse_floating_point_possible_infinity@DV?$input_adapter_character_source@V?$string_input_adapter@D@__crt_stdio_input@@@__crt_strtox@@_K@__crt_strtox@@YA?AW4floating_point_parse_result@1@AADAAV?$input_adapter_character_source@V?$string_input_adapter@D@__crt_stdio_input@@@1@_K@Z@4QBDB 004476f0     libucrt:input.obj
 0002:000096f4       ?inf_lowercase@?2???$parse_floating_point_possible_infinity@DV?$input_adapter_character_source@V?$string_input_adapter@D@__crt_stdio_input@@@__crt_strtox@@_K@__crt_strtox@@YA?AW4floating_point_parse_result@1@AADAAV?$input_adapter_character_source@V?$string_input_adapter@D@__crt_stdio_input@@@1@_K@Z@4QBDB 004476f4     libucrt:input.obj
 0002:000096f8       ?inity_uppercase@?5???$parse_floating_point_possible_infinity@DV?$input_adapter_character_source@V?$string_input_adapter@D@__crt_stdio_input@@@__crt_strtox@@_K@__crt_strtox@@YA?AW4floating_point_parse_result@1@AADAAV?$input_adapter_character_source@V?$string_input_adapter@D@__crt_stdio_input@@@1@_K@Z@4QBDB 004476f8     libucrt:input.obj
 0002:00009700       ?inity_lowercase@?5???$parse_floating_point_possible_infinity@DV?$input_adapter_character_source@V?$string_input_adapter@D@__crt_stdio_input@@@__crt_strtox@@_K@__crt_strtox@@YA?AW4floating_point_parse_result@1@AADAAV?$input_adapter_character_source@V?$string_input_adapter@D@__crt_stdio_input@@@1@_K@Z@4QBDB 00447700     libucrt:input.obj
 0002:00009708       ?uppercase@?2???$parse_floating_point_possible_nan@DV?$input_adapter_character_source@V?$string_input_adapter@D@__crt_stdio_input@@@__crt_strtox@@_K@__crt_strtox@@YA?AW4floating_point_parse_result@1@AADAAV?$input_adapter_character_source@V?$string_input_adapter@D@__crt_stdio_input@@@1@_K@Z@4QBDB 00447708     libucrt:input.obj
 0002:0000970c       ?lowercase@?2???$parse_floating_point_possible_nan@DV?$input_adapter_character_source@V?$string_input_adapter@D@__crt_stdio_input@@@__crt_strtox@@_K@__crt_strtox@@YA?AW4floating_point_parse_result@1@AADAAV?$input_adapter_character_source@V?$string_input_adapter@D@__crt_stdio_input@@@1@_K@Z@4QBDB 0044770c     libucrt:input.obj
 0002:00009710       ?uppercase@?1???$parse_floating_point_possible_nan_is_snan@DV?$input_adapter_character_source@V?$string_input_adapter@D@__crt_stdio_input@@@__crt_strtox@@@__crt_strtox@@YA_NAADAAV?$input_adapter_character_source@V?$string_input_adapter@D@__crt_stdio_input@@@1@@Z@4QBDB 00447710     libucrt:input.obj
 0002:00009718       ?lowercase@?1???$parse_floating_point_possible_nan_is_snan@DV?$input_adapter_character_source@V?$string_input_adapter@D@__crt_stdio_input@@@__crt_strtox@@@__crt_strtox@@YA_NAADAAV?$input_adapter_character_source@V?$string_input_adapter@D@__crt_stdio_input@@@1@@Z@4QBDB 00447718     libucrt:input.obj
 0002:00009720       ?uppercase@?1???$parse_floating_point_possible_nan_is_ind@DV?$input_adapter_character_source@V?$string_input_adapter@D@__crt_stdio_input@@@__crt_strtox@@@__crt_strtox@@YA_NAADAAV?$input_adapter_character_source@V?$string_input_adapter@D@__crt_stdio_input@@@1@@Z@4QBDB 00447720     libucrt:input.obj
 0002:00009724       ?lowercase@?1???$parse_floating_point_possible_nan_is_ind@DV?$input_adapter_character_source@V?$string_input_adapter@D@__crt_stdio_input@@@__crt_strtox@@@__crt_strtox@@YA_NAADAAV?$input_adapter_character_source@V?$string_input_adapter@D@__crt_stdio_input@@@1@@Z@4QBDB 00447724     libucrt:input.obj
 0002:00009728       ??_C@_13CGOKJPIL@?$AA?1?$AA?$AA@ 00447728     libucrt:exit.obj
 0002:0000972c       ??_C@_1BI@BGOHAHKC@?$AAm?$AAs?$AAc?$AAo?$AAr?$AAe?$AAe?$AA?4?$AAd?$AAl?$AAl?$AA?$AA@ 0044772c     libucrt:exit.obj
 0002:00009744       ??_C@_0P@MIGLKIOC@CorExitProcess?$AA@ 00447744     libucrt:exit.obj
 0002:00009758       ___acrt_exception_action_table 00447758     libucrt:exception_filter.obj
 0002:000097e8       ___acrt_signal_action_table_count 004477e8     libucrt:exception_filter.obj
 0002:000097ec       ___acrt_signal_action_first_fpe_index 004477ec     libucrt:exception_filter.obj
 0002:000097f0       ___acrt_signal_action_fpe_count 004477f0     libucrt:exception_filter.obj
 0002:000099d8       ?ccs@?BL@???$__acrt_stdio_parse_mode@D@@YA?AU__acrt_stdio_stream_mode@@QBD@Z@4QBDB 004479d8     libucrt:openfile.obj
 0002:000099dc       ?utf8_encoding@?BL@???$__acrt_stdio_parse_mode@D@@YA?AU__acrt_stdio_stream_mode@@QBD@Z@4QBDB 004479dc     libucrt:openfile.obj
 0002:000099e4       ?utf16_encoding@?BL@???$__acrt_stdio_parse_mode@D@@YA?AU__acrt_stdio_stream_mode@@QBD@Z@4QBDB 004479e4     libucrt:openfile.obj
 0002:000099ec       ?unicode_encoding@?BL@???$__acrt_stdio_parse_mode@D@@YA?AU__acrt_stdio_stream_mode@@QBD@Z@4QBDB 004479ec     libucrt:openfile.obj
 0002:000099f4       ??_C@_03OEIAHPBN@INF?$AA@  004479f4     libucrt:cvt.obj
 0002:000099f8       ??_C@_03OJHLLCGB@inf?$AA@  004479f8     libucrt:cvt.obj
 0002:000099fc       ??_C@_03LKNCIKJB@NAN?$AA@  004479fc     libucrt:cvt.obj
 0002:00009a00       ??_C@_03LHCJEHON@nan?$AA@  00447a00     libucrt:cvt.obj
 0002:00009a04       ??_C@_09OFJJIMPC@NAN?$CISNAN?$CJ?$AA@ 00447a04     libucrt:cvt.obj
 0002:00009a10       ??_C@_09IPFBKMDL@nan?$CIsnan?$CJ?$AA@ 00447a10     libucrt:cvt.obj
 0002:00009a1c       ??_C@_08IKHNHAJ@NAN?$CIIND?$CJ?$AA@ 00447a1c     libucrt:cvt.obj
 0002:00009a28       ??_C@_08OFCDMILK@nan?$CIind?$CJ?$AA@ 00447a28     libucrt:cvt.obj
 0002:00009a34       ??_C@_05KLBDPFGC@e?$CL000?$AA@ 00447a34     libucrt:cvt.obj
 0002:00009a3c       ??_C@_03KOEHGMDN@Sun?$AA@  00447a3c     libucrt:nlsdata.obj
 0002:00009a40       ??_C@_03PDAGKDH@Mon?$AA@   00447a40     libucrt:nlsdata.obj
 0002:00009a44       ??_C@_03NAGEINEP@Tue?$AA@  00447a44     libucrt:nlsdata.obj
 0002:00009a48       ??_C@_03MHOMLAJA@Wed?$AA@  00447a48     libucrt:nlsdata.obj
 0002:00009a4c       ??_C@_03IOFIKPDN@Thu?$AA@  00447a4c     libucrt:nlsdata.obj
 0002:00009a50       ??_C@_03IDIOELNC@Fri?$AA@  00447a50     libucrt:nlsdata.obj
 0002:00009a54       ??_C@_03FEFJNEK@Sat?$AA@   00447a54     libucrt:nlsdata.obj
 0002:00009a58       ??_C@_06OOPIFAJ@Sunday?$AA@ 00447a58     libucrt:nlsdata.obj
 0002:00009a60       ??_C@_06JLEDEDGH@Monday?$AA@ 00447a60     libucrt:nlsdata.obj
 0002:00009a68       ??_C@_07BAAGCFCM@Tuesday?$AA@ 00447a68     libucrt:nlsdata.obj
 0002:00009a70       ??_C@_09DLIGFAKA@Wednesday?$AA@ 00447a70     libucrt:nlsdata.obj
 0002:00009a7c       ??_C@_08HACCIKIA@Thursday?$AA@ 00447a7c     libucrt:nlsdata.obj
 0002:00009a88       ??_C@_06JECMNKMI@Friday?$AA@ 00447a88     libucrt:nlsdata.obj
 0002:00009a90       ??_C@_08INBOOONO@Saturday?$AA@ 00447a90     libucrt:nlsdata.obj
 0002:00009a9c       ??_C@_03JIHJHPIE@Jan?$AA@  00447a9c     libucrt:nlsdata.obj
 0002:00009aa0       ??_C@_03HJBDCHOM@Feb?$AA@  00447aa0     libucrt:nlsdata.obj
 0002:00009aa4       ??_C@_03ODNJBKGA@Mar?$AA@  00447aa4     libucrt:nlsdata.obj
 0002:00009aa8       ??_C@_03LEOLGMJP@Apr?$AA@  00447aa8     libucrt:nlsdata.obj
 0002:00009aac       ??_C@_03CNMDKL@May?$AA@    00447aac     libucrt:nlsdata.obj
 0002:00009ab0       ??_C@_03IDFGHECI@Jun?$AA@  00447ab0     libucrt:nlsdata.obj
 0002:00009ab4       ??_C@_03LBGABGKK@Jul?$AA@  00447ab4     libucrt:nlsdata.obj
 0002:00009ab8       ??_C@_03IFJFEIGA@Aug?$AA@  00447ab8     libucrt:nlsdata.obj
 0002:00009abc       ??_C@_03GGCAPAJC@Sep?$AA@  00447abc     libucrt:nlsdata.obj
 0002:00009ac0       ??_C@_03BMAOKBAD@Oct?$AA@  00447ac0     libucrt:nlsdata.obj
 0002:00009ac4       ??_C@_03JPJOFNIA@Nov?$AA@  00447ac4     libucrt:nlsdata.obj
 0002:00009ac8       ??_C@_03MKABNOCG@Dec?$AA@  00447ac8     libucrt:nlsdata.obj
 0002:00009acc       ??_C@_07CGJPFGJA@January?$AA@ 00447acc     libucrt:nlsdata.obj
 0002:00009ad4       ??_C@_08GNJGEPFN@February?$AA@ 00447ad4     libucrt:nlsdata.obj
 0002:00009ae0       ??_C@_05HPCKOFNC@March?$AA@ 00447ae0     libucrt:nlsdata.obj
 0002:00009ae8       ??_C@_05DMJDNLEJ@April?$AA@ 00447ae8     libucrt:nlsdata.obj
 0002:00009af0       ??_C@_04CNLMGBGM@June?$AA@ 00447af0     libucrt:nlsdata.obj
 0002:00009af8       ??_C@_04MIEPOIFP@July?$AA@ 00447af8     libucrt:nlsdata.obj
 0002:00009b00       ??_C@_06LBBHFDDG@August?$AA@ 00447b00     libucrt:nlsdata.obj
 0002:00009b08       ??_C@_09BHHEALKD@September?$AA@ 00447b08     libucrt:nlsdata.obj
 0002:00009b14       ??_C@_07JJNFCEND@October?$AA@ 00447b14     libucrt:nlsdata.obj
 0002:00009b1c       ??_C@_08HCHEGEOA@November?$AA@ 00447b1c     libucrt:nlsdata.obj
 0002:00009b28       ??_C@_08EDHMEBNP@December?$AA@ 00447b28     libucrt:nlsdata.obj
 0002:00009b34       ??_C@_02DEDBPAFC@AM?$AA@   00447b34     libucrt:nlsdata.obj
 0002:00009b38       ??_C@_02CJNFDJBF@PM?$AA@   00447b38     libucrt:nlsdata.obj
 0002:00009b3c       ??_C@_08BPBNCDIB@MM?1dd?1yy?$AA@ 00447b3c     libucrt:nlsdata.obj
 0002:00009b48       ??_C@_0BE@CKGJFCPC@dddd?0?5MMMM?5dd?0?5yyyy?$AA@ 00447b48     libucrt:nlsdata.obj
 0002:00009b5c       ??_C@_08JCCMCCIL@HH?3mm?3ss?$AA@ 00447b5c     libucrt:nlsdata.obj
 0002:00009b68       ??_C@_17MBGCMIPB@?$AAS?$AAu?$AAn?$AA?$AA@ 00447b68     libucrt:nlsdata.obj
 0002:00009b70       ??_C@_17KBOMKBF@?$AAM?$AAo?$AAn?$AA?$AA@ 00447b70     libucrt:nlsdata.obj
 0002:00009b78       ??_C@_17BMKGEGOJ@?$AAT?$AAu?$AAe?$AA?$AA@ 00447b78     libucrt:nlsdata.obj
 0002:00009b80       ??_C@_17CJEDCEPE@?$AAW?$AAe?$AAd?$AA?$AA@ 00447b80     libucrt:nlsdata.obj
 0002:00009b88       ??_C@_17PDPHAADD@?$AAT?$AAh?$AAu?$AA?$AA@ 00447b88     libucrt:nlsdata.obj
 0002:00009b90       ??_C@_17HFOLPPLP@?$AAF?$AAr?$AAi?$AA?$AA@ 00447b90     libucrt:nlsdata.obj
 0002:00009b98       ??_C@_17GGIBDPIH@?$AAS?$AAa?$AAt?$AA?$AA@ 00447b98     libucrt:nlsdata.obj
 0002:00009ba0       ??_C@_1O@IHNHDHPB@?$AAS?$AAu?$AAn?$AAd?$AAa?$AAy?$AA?$AA@ 00447ba0     libucrt:nlsdata.obj
 0002:00009bb0       ??_C@_1O@MMNBFLIA@?$AAM?$AAo?$AAn?$AAd?$AAa?$AAy?$AA?$AA@ 00447bb0     libucrt:nlsdata.obj
 0002:00009bc0       ??_C@_1BA@ENFBFFEK@?$AAT?$AAu?$AAe?$AAs?$AAd?$AAa?$AAy?$AA?$AA@ 00447bc0     libucrt:nlsdata.obj
 0002:00009bd0       ??_C@_1BE@EBOGMDOH@?$AAW?$AAe?$AAd?$AAn?$AAe?$AAs?$AAd?$AAa?$AAy?$AA?$AA@ 00447bd0     libucrt:nlsdata.obj
 0002:00009be4       ??_C@_1BC@HHMNLIHE@?$AAT?$AAh?$AAu?$AAr?$AAs?$AAd?$AAa?$AAy?$AA?$AA@ 00447be4     libucrt:nlsdata.obj
 0002:00009bf8       ??_C@_1O@PDICJHAG@?$AAF?$AAr?$AAi?$AAd?$AAa?$AAy?$AA?$AA@ 00447bf8     libucrt:nlsdata.obj
 0002:00009c08       ??_C@_1BC@ENMNNPAJ@?$AAS?$AAa?$AAt?$AAu?$AAr?$AAd?$AAa?$AAy?$AA?$AA@ 00447c08     libucrt:nlsdata.obj
 0002:00009c1c       ??_C@_17DKNBKCHM@?$AAJ?$AAa?$AAn?$AA?$AA@ 00447c1c     libucrt:nlsdata.obj
 0002:00009c24       ??_C@_17LMDJEKJN@?$AAF?$AAe?$AAb?$AA?$AA@ 00447c24     libucrt:nlsdata.obj
 0002:00009c2c       ??_C@_17CKNLEDEC@?$AAM?$AAa?$AAr?$AA?$AA@ 00447c2c     libucrt:nlsdata.obj
 0002:00009c34       ??_C@_17LFPOIHDD@?$AAA?$AAp?$AAr?$AA?$AA@ 00447c34     libucrt:nlsdata.obj
 0002:00009c3c       ??_C@_17PNNKMEED@?$AAM?$AAa?$AAy?$AA?$AA@ 00447c3c     libucrt:nlsdata.obj
 0002:00009c44       ??_C@_17KCJGOCPB@?$AAJ?$AAu?$AAn?$AA?$AA@ 00447c44     libucrt:nlsdata.obj
 0002:00009c4c       ??_C@_17IJPCKHK@?$AAJ?$AAu?$AAl?$AA?$AA@ 00447c4c     libucrt:nlsdata.obj
 0002:00009c54       ??_C@_17ICPELBCN@?$AAA?$AAu?$AAg?$AA?$AA@ 00447c54     libucrt:nlsdata.obj
 0002:00009c5c       ??_C@_17HCHCOKMG@?$AAS?$AAe?$AAp?$AA?$AA@ 00447c5c     libucrt:nlsdata.obj
 0002:00009c64       ??_C@_17FNLKOI@?$AAO?$AAc?$AAt?$AA?$AA@ 00447c64     libucrt:nlsdata.obj
 0002:00009c6c       ??_C@_17BBDMLCIG@?$AAN?$AAo?$AAv?$AA?$AA@ 00447c6c     libucrt:nlsdata.obj
 0002:00009c74       ??_C@_17EGKACKIF@?$AAD?$AAe?$AAc?$AA?$AA@ 00447c74     libucrt:nlsdata.obj
 0002:00009c7c       ??_C@_1BA@EFMEIEBA@?$AAJ?$AAa?$AAn?$AAu?$AAa?$AAr?$AAy?$AA?$AA@ 00447c7c     libucrt:nlsdata.obj
 0002:00009c8c       ??_C@_1BC@JGDDFFAM@?$AAF?$AAe?$AAb?$AAr?$AAu?$AAa?$AAr?$AAy?$AA?$AA@ 00447c8c     libucrt:nlsdata.obj
 0002:00009ca0       ??_C@_1M@IKEENEDF@?$AAM?$AAa?$AAr?$AAc?$AAh?$AA?$AA@ 00447ca0     libucrt:nlsdata.obj
 0002:00009cac       ??_C@_1M@GJNLMHFD@?$AAA?$AAp?$AAr?$AAi?$AAl?$AA?$AA@ 00447cac     libucrt:nlsdata.obj
 0002:00009cb8       ??_C@_19EPFLPGAP@?$AAJ?$AAu?$AAn?$AAe?$AA?$AA@ 00447cb8     libucrt:nlsdata.obj
 0002:00009cc4       ??_C@_19BIFMLPCD@?$AAJ?$AAu?$AAl?$AAy?$AA?$AA@ 00447cc4     libucrt:nlsdata.obj
 0002:00009cd0       ??_C@_1O@PAHLKOAC@?$AAA?$AAu?$AAg?$AAu?$AAs?$AAt?$AA?$AA@ 00447cd0     libucrt:nlsdata.obj
 0002:00009ce0       ??_C@_1BE@DKAAMBJL@?$AAS?$AAe?$AAp?$AAt?$AAe?$AAm?$AAb?$AAe?$AAr?$AA?$AA@ 00447ce0     libucrt:nlsdata.obj
 0002:00009cf4       ??_C@_1BA@EPANDLNG@?$AAO?$AAc?$AAt?$AAo?$AAb?$AAe?$AAr?$AA?$AA@ 00447cf4     libucrt:nlsdata.obj
 0002:00009d04       ??_C@_1BC@BGLIFPF@?$AAN?$AAo?$AAv?$AAe?$AAm?$AAb?$AAe?$AAr?$AA?$AA@ 00447d04     libucrt:nlsdata.obj
 0002:00009d18       ??_C@_1BC@FEMKIFH@?$AAD?$AAe?$AAc?$AAe?$AAm?$AAb?$AAe?$AAr?$AA?$AA@ 00447d18     libucrt:nlsdata.obj
 0002:00009d2c       ??_C@_15ODEHAHHF@?$AAA?$AAM?$AA?$AA@ 00447d2c     libucrt:nlsdata.obj
 0002:00009d34       ??_C@_15CLMNNGEL@?$AAP?$AAM?$AA?$AA@ 00447d34     libucrt:nlsdata.obj
 0002:00009d3c       ??_C@_1BC@IEBCMHCM@?$AAM?$AAM?$AA?1?$AAd?$AAd?$AA?1?$AAy?$AAy?$AA?$AA@ 00447d3c     libucrt:nlsdata.obj
 0002:00009d50       ??_C@_1CI@KNAKOEBC@?$AAd?$AAd?$AAd?$AAd?$AA?0?$AA?5?$AAM?$AAM?$AAM?$AAM?$AA?5?$AAd?$AAd?$AA?0?$AA?5?$AAy?$AAy?$AAy?$AAy?$AA?$AA@ 00447d50     libucrt:nlsdata.obj
 0002:00009d78       ??_C@_1BC@GDGBMEMK@?$AAH?$AAH?$AA?3?$AAm?$AAm?$AA?3?$AAs?$AAs?$AA?$AA@ 00447d78     libucrt:nlsdata.obj
 0002:00009d8c       ??_C@_1M@BMHNFIME@?$AAe?$AAn?$AA?9?$AAU?$AAS?$AA?$AA@ 00447d8c     libucrt:nlsdata.obj
 0002:00009d98       ___lc_time_c               00447d98     libucrt:nlsdata.obj
 0002:00009f00       __wctype                   00447f00     libucrt:ctype.obj
 0002:0000a108       ___newctype                00448108     libucrt:ctype.obj
 0002:0000a408       ___newclmap                00448408     libucrt:ctype.obj
 0002:0000a588       ___newcumap                00448588     libucrt:ctype.obj
 0002:0000a708       ??_C@_1M@PBPMMENC@?$AAa?$AAm?$AA?1?$AAp?$AAm?$AA?$AA@ 00448708     libucrt:wcsftime.obj
 0002:0000a714       ??_C@_17BLFJJHMM@?$AAa?$AA?1?$AAp?$AA?$AA@ 00448714     libucrt:wcsftime.obj
 0002:0000a71c       ??_C@_13HOIJIPNN@?$AA?5?$AA?$AA@ 0044871c     libucrt:wcsftime.obj
 0002:0000a720       ??_C@_13IMODFHAA@?$AA?9?$AA?$AA@ 00448720     libucrt:wcsftime.obj
 0002:0000a724       ??_C@_13EBCNDICG@?$AA?3?$AA?$AA@ 00448724     libucrt:wcsftime.obj
 0002:0000a728       ??_C@_13KDLDGPGJ@?$AA?7?$AA?$AA@ 00448728     libucrt:wcsftime.obj
 0002:0000a72c       ??_C@_13KJIIAINM@?$AA?$CL?$AA?$AA@ 0044872c     libucrt:wcsftime.obj
 0002:0000a730       ??_C@_13EJFHHPOP@?$AA?$CF?$AA?$AA@ 00448730     libucrt:wcsftime.obj
 0002:0000a788       ??_C@_1EG@CNNIPFIM@?$AAa?$AAp?$AAi?$AA?9?$AAm?$AAs?$AA?9?$AAw?$AAi?$AAn?$AA?9?$AAa?$AAp?$AAp?$AAm?$AAo?$AAd?$AAe?$AAl?$AA?9?$AAr?$AAu?$AAn?$AAt?$AAi?$AAm?$AAe?$AA?9?$AAl?$AA1?$AA?9?$AA1@ 00448788     libucrt:winapi_thunks.obj
 0002:0000a7d0       ??_C@_1EA@JGEFHKEI@?$AAa?$AAp?$AAi?$AA?9?$AAm?$AAs?$AA?9?$AAw?$AAi?$AAn?$AA?9?$AAc?$AAo?$AAr?$AAe?$AA?9?$AAd?$AAa?$AAt?$AAe?$AAt?$AAi?$AAm?$AAe?$AA?9?$AAl?$AA1?$AA?9?$AA1?$AA?9?$AA1?$AA?$AA@ 004487d0     libucrt:winapi_thunks.obj
 0002:0000a810       ??_C@_1DI@GCIAAENM@?$AAa?$AAp?$AAi?$AA?9?$AAm?$AAs?$AA?9?$AAw?$AAi?$AAn?$AA?9?$AAc?$AAo?$AAr?$AAe?$AA?9?$AAf?$AAi?$AAl?$AAe?$AA?9?$AAl?$AA2?$AA?9?$AA1?$AA?9?$AA1?$AA?$AA@ 00448810     libucrt:winapi_thunks.obj
 0002:0000a848       ??_C@_1EI@MPIAOHOC@?$AAa?$AAp?$AAi?$AA?9?$AAm?$AAs?$AA?9?$AAw?$AAi?$AAn?$AA?9?$AAc?$AAo?$AAr?$AAe?$AA?9?$AAl?$AAo?$AAc?$AAa?$AAl?$AAi?$AAz?$AAa?$AAt?$AAi?$AAo?$AAn?$AA?9?$AAl?$AA1?$AA?9@ 00448848     libucrt:winapi_thunks.obj
 0002:0000a890       ??_C@_1FK@FPHCKFIE@?$AAa?$AAp?$AAi?$AA?9?$AAm?$AAs?$AA?9?$AAw?$AAi?$AAn?$AA?9?$AAc?$AAo?$AAr?$AAe?$AA?9?$AAl?$AAo?$AAc?$AAa?$AAl?$AAi?$AAz?$AAa?$AAt?$AAi?$AAo?$AAn?$AA?9?$AAo?$AAb?$AAs@ 00448890     libucrt:winapi_thunks.obj
 0002:0000a8f0       ??_C@_1EM@DILCGIIO@?$AAa?$AAp?$AAi?$AA?9?$AAm?$AAs?$AA?9?$AAw?$AAi?$AAn?$AA?9?$AAc?$AAo?$AAr?$AAe?$AA?9?$AAp?$AAr?$AAo?$AAc?$AAe?$AAs?$AAs?$AAt?$AAh?$AAr?$AAe?$AAa?$AAd?$AAs?$AA?9?$AAl@ 004488f0     libucrt:winapi_thunks.obj
 0002:0000a93c       ??_C@_1DM@LNCGDDPN@?$AAa?$AAp?$AAi?$AA?9?$AAm?$AAs?$AA?9?$AAw?$AAi?$AAn?$AA?9?$AAc?$AAo?$AAr?$AAe?$AA?9?$AAs?$AAt?$AAr?$AAi?$AAn?$AAg?$AA?9?$AAl?$AA1?$AA?9?$AA1?$AA?9?$AA0?$AA?$AA@ 0044893c     libucrt:winapi_thunks.obj
 0002:0000a978       ??_C@_1DO@FPAPJEMD@?$AAa?$AAp?$AAi?$AA?9?$AAm?$AAs?$AA?9?$AAw?$AAi?$AAn?$AA?9?$AAc?$AAo?$AAr?$AAe?$AA?9?$AAs?$AAy?$AAs?$AAi?$AAn?$AAf?$AAo?$AA?9?$AAl?$AA1?$AA?9?$AA2?$AA?9?$AA1?$AA?$AA@ 00448978     libucrt:winapi_thunks.obj
 0002:0000a9b8       ??_C@_1DK@NDHNAHIO@?$AAa?$AAp?$AAi?$AA?9?$AAm?$AAs?$AA?9?$AAw?$AAi?$AAn?$AA?9?$AAc?$AAo?$AAr?$AAe?$AA?9?$AAw?$AAi?$AAn?$AAr?$AAt?$AA?9?$AAl?$AA1?$AA?9?$AA1?$AA?9?$AA0?$AA?$AA@ 004489b8     libucrt:winapi_thunks.obj
 0002:0000a9f4       ??_C@_1DM@KGHDGBCM@?$AAa?$AAp?$AAi?$AA?9?$AAm?$AAs?$AA?9?$AAw?$AAi?$AAn?$AA?9?$AAc?$AAo?$AAr?$AAe?$AA?9?$AAx?$AAs?$AAt?$AAa?$AAt?$AAe?$AA?9?$AAl?$AA2?$AA?9?$AA1?$AA?9?$AA0?$AA?$AA@ 004489f4     libucrt:winapi_thunks.obj
 0002:0000aa30       ??_C@_1EO@IJIOEFOH@?$AAa?$AAp?$AAi?$AA?9?$AAm?$AAs?$AA?9?$AAw?$AAi?$AAn?$AA?9?$AAr?$AAt?$AAc?$AAo?$AAr?$AAe?$AA?9?$AAn?$AAt?$AAu?$AAs?$AAe?$AAr?$AA?9?$AAw?$AAi?$AAn?$AAd?$AAo?$AAw?$AA?9@ 00448a30     libucrt:winapi_thunks.obj
 0002:0000aa80       ??_C@_1FG@HHGEKANL@?$AAa?$AAp?$AAi?$AA?9?$AAm?$AAs?$AA?9?$AAw?$AAi?$AAn?$AA?9?$AAs?$AAe?$AAc?$AAu?$AAr?$AAi?$AAt?$AAy?$AA?9?$AAs?$AAy?$AAs?$AAt?$AAe?$AAm?$AAf?$AAu?$AAn?$AAc?$AAt?$AAi@ 00448a80     libucrt:winapi_thunks.obj
 0002:0000aad8       ??_C@_1FG@NCKKOLKO@?$AAe?$AAx?$AAt?$AA?9?$AAm?$AAs?$AA?9?$AAw?$AAi?$AAn?$AA?9?$AAk?$AAe?$AAr?$AAn?$AAe?$AAl?$AA3?$AA2?$AA?9?$AAp?$AAa?$AAc?$AAk?$AAa?$AAg?$AAe?$AA?9?$AAc?$AAu?$AAr?$AAr@ 00448ad8     libucrt:winapi_thunks.obj
 0002:0000ab30       ??_C@_1EG@DBIOJECG@?$AAe?$AAx?$AAt?$AA?9?$AAm?$AAs?$AA?9?$AAw?$AAi?$AAn?$AA?9?$AAn?$AAt?$AAu?$AAs?$AAe?$AAr?$AA?9?$AAd?$AAi?$AAa?$AAl?$AAo?$AAg?$AAb?$AAo?$AAx?$AA?9?$AAl?$AA1?$AA?9?$AA1@ 00448b30     libucrt:winapi_thunks.obj
 0002:0000ab78       ??_C@_1EO@FIHMJCLF@?$AAe?$AAx?$AAt?$AA?9?$AAm?$AAs?$AA?9?$AAw?$AAi?$AAn?$AA?9?$AAn?$AAt?$AAu?$AAs?$AAe?$AAr?$AA?9?$AAw?$AAi?$AAn?$AAd?$AAo?$AAw?$AAs?$AAt?$AAa?$AAt?$AAi?$AAo?$AAn?$AA?9@ 00448b78     libucrt:winapi_thunks.obj
 0002:0000abc8       ??_C@_1O@BCCLBEOE@?$AAu?$AAs?$AAe?$AAr?$AA3?$AA2?$AA?$AA@ 00448bc8     libucrt:winapi_thunks.obj
 0002:0000abdc       ??_C@_0BA@FHFNEAED@AreFileApisANSI?$AA@ 00448bdc     libucrt:winapi_thunks.obj
 0002:0000abf4       ??_C@_0BA@IHGNDAEB@CompareStringEx?$AA@ 00448bf4     libucrt:winapi_thunks.obj
 0002:0000ac2c       ??_C@_0BA@HNOPNCHB@GetActiveWindow?$AA@ 00448c2c     libucrt:winapi_thunks.obj
 0002:0000ac44       ??_C@_0BE@JOGNEJCI@GetCurrentPackageId?$AA@ 00448c44     libucrt:winapi_thunks.obj
 0002:0000ac60       ??_C@_0BA@EPCJIIPD@GetDateFormatEx?$AA@ 00448c60     libucrt:winapi_thunks.obj
 0002:0000ac78       ??_C@_0BD@HHGDFDBJ@GetLastActivePopup?$AA@ 00448c78     libucrt:winapi_thunks.obj
 0002:0000ac94       ??_C@_0BI@DFKBFLJE@GetProcessWindowStation?$AA@ 00448c94     libucrt:winapi_thunks.obj
 0002:0000acb4       ??_C@_0BA@CIJJKCJJ@GetTimeFormatEx?$AA@ 00448cb4     libucrt:winapi_thunks.obj
 0002:0000accc       ??_C@_0BK@DEKFELLI@GetUserObjectInformationW?$AA@ 00448ccc     libucrt:winapi_thunks.obj
 0002:0000acf8       ??_C@_0O@KKBNKAPF@LCMapStringEx?$AA@ 00448cf8     libucrt:winapi_thunks.obj
 0002:0000ad10       ??_C@_0BB@HBDEELFH@LocaleNameToLCID?$AA@ 00448d10     libucrt:winapi_thunks.obj
 0002:0000ad2c       ??_C@_0M@CHKKJDAI@MessageBoxA?$AA@ 00448d2c     libucrt:winapi_thunks.obj
 0002:0000ad40       ??_C@_0M@DLDCCGNP@MessageBoxW?$AA@ 00448d40     libucrt:winapi_thunks.obj
 0002:0000ad5c       ??_C@_1M@HPNHIDJI@?$AAj?$AAa?$AA?9?$AAJ?$AAP?$AA?$AA@ 00448d5c     libucrt:mbctype.obj
 0002:0000ad68       ??_C@_1M@BIBDDEMK@?$AAz?$AAh?$AA?9?$AAC?$AAN?$AA?$AA@ 00448d68     libucrt:mbctype.obj
 0002:0000ad74       ??_C@_1M@JLOOOEGK@?$AAk?$AAo?$AA?9?$AAK?$AAR?$AA?$AA@ 00448d74     libucrt:mbctype.obj
 0002:0000ad80       ??_C@_1M@CLNBBOPM@?$AAz?$AAh?$AA?9?$AAT?$AAW?$AA?$AA@ 00448d80     libucrt:mbctype.obj
 0002:0000ad8c       ??_C@_15PJPFLCCM@?$AAu?$AAk?$AA?$AA@ 00448d8c     libucrt:get_qualified_locale.obj
 0002:0000ad94       ??_C@_01GBGANLPD@0?$AA@    00448d94     libucrt:cfout.obj
 0002:0000ad98       ??_C@_05DNEBIAHO@1?$CDINF?$AA@ 00448d98     libucrt:cfout.obj
 0002:0000ada0       ??_C@_06IMKFLFPG@1?$CDQNAN?$AA@ 00448da0     libucrt:cfout.obj
 0002:0000ada8       ??_C@_06PGGFOGJG@1?$CDSNAN?$AA@ 00448da8     libucrt:cfout.obj
 0002:0000adb0       ??_C@_05PHHOCPM@1?$CDIND?$AA@ 00448db0     libucrt:cfout.obj
 0002:0000adb8       ??_C@_02CLFPBFFP@TZ?$AA@   00448db8     libucrt:tzset.obj
 0002:0000b4e0       ??_C@_15EMKDOKLE@?$AAa?$AAr?$AA?$AA@ 004494e0     libucrt:lcidtoname_downlevel.obj
 0002:0000b4e8       ??_C@_15KNPADPLH@?$AAb?$AAg?$AA?$AA@ 004494e8     libucrt:lcidtoname_downlevel.obj
 0002:0000b4f0       ??_C@_15EDMHLDMO@?$AAc?$AAa?$AA?$AA@ 004494f0     libucrt:lcidtoname_downlevel.obj
 0002:0000b4f8       ??_C@_1O@BPEAJADD@?$AAz?$AAh?$AA?9?$AAC?$AAH?$AAS?$AA?$AA@ 004494f8     libucrt:lcidtoname_downlevel.obj
 0002:0000b508       ??_C@_15LJNHCMNK@?$AAc?$AAs?$AA?$AA@ 00449508     libucrt:lcidtoname_downlevel.obj
 0002:0000b510       ??_C@_15FOMCIDHG@?$AAd?$AAa?$AA?$AA@ 00449510     libucrt:lcidtoname_downlevel.obj
 0002:0000b518       ??_C@_15NBKABECB@?$AAd?$AAe?$AA?$AA@ 00449518     libucrt:lcidtoname_downlevel.obj
 0002:0000b520       ??_C@_15GHPEIIAO@?$AAe?$AAl?$AA?$AA@ 00449520     libucrt:lcidtoname_downlevel.obj
 0002:0000b528       ??_C@_15MNPNEAIF@?$AAe?$AAn?$AA?$AA@ 00449528     libucrt:lcidtoname_downlevel.obj
 0002:0000b530       ??_C@_15GPIOMPMH@?$AAe?$AAs?$AA?$AA@ 00449530     libucrt:lcidtoname_downlevel.obj
 0002:0000b538       ??_C@_15NGLOAKJC@?$AAf?$AAi?$AA?$AA@ 00449538     libucrt:lcidtoname_downlevel.obj
 0002:0000b540       ??_C@_15FBKGNKAM@?$AAf?$AAr?$AA?$AA@ 00449540     libucrt:lcidtoname_downlevel.obj
 0002:0000b548       ??_C@_15KGGCNEFK@?$AAh?$AAe?$AA?$AA@ 00449548     libucrt:lcidtoname_downlevel.obj
 0002:0000b550       ??_C@_15PGHLIDMF@?$AAh?$AAu?$AA?$AA@ 00449550     libucrt:lcidtoname_downlevel.obj
 0002:0000b558       ??_C@_15BIEMAPLM@?$AAi?$AAs?$AA?$AA@ 00449558     libucrt:lcidtoname_downlevel.obj
 0002:0000b560       ??_C@_15IFJLDHAF@?$AAi?$AAt?$AA?$AA@ 00449560     libucrt:lcidtoname_downlevel.obj
 0002:0000b568       ??_C@_15GEMIOCAG@?$AAj?$AAa?$AA?$AA@ 00449568     libucrt:lcidtoname_downlevel.obj
 0002:0000b570       ??_C@_15EPELEGJA@?$AAk?$AAo?$AA?$AA@ 00449570     libucrt:lcidtoname_downlevel.obj
 0002:0000b578       ??_C@_15NDDHIMN@?$AAn?$AAl?$AA?$AA@ 00449578     libucrt:lcidtoname_downlevel.obj
 0002:0000b580       ??_C@_15BPIGNHCD@?$AAn?$AAo?$AA?$AA@ 00449580     libucrt:lcidtoname_downlevel.obj
 0002:0000b588       ??_C@_15DEOPBLCG@?$AAp?$AAl?$AA?$AA@ 00449588     libucrt:lcidtoname_downlevel.obj
 0002:0000b590       ??_C@_15KBECGEFG@?$AAp?$AAt?$AA?$AA@ 00449590     libucrt:lcidtoname_downlevel.obj
 0002:0000b598       ??_C@_15GLJCBFMD@?$AAr?$AAo?$AA?$AA@ 00449598     libucrt:lcidtoname_downlevel.obj
 0002:0000b5a0       ??_C@_15FEDGKCDI@?$AAr?$AAu?$AA?$AA@ 004495a0     libucrt:lcidtoname_downlevel.obj
 0002:0000b5a8       ??_C@_15GLKMLLHM@?$AAh?$AAr?$AA?$AA@ 004495a8     libucrt:lcidtoname_downlevel.obj
 0002:0000b5b0       ??_C@_15CPKMFBDB@?$AAs?$AAk?$AA?$AA@ 004495b0     libucrt:lcidtoname_downlevel.obj
 0002:0000b5b8       ??_C@_15BAAIOGMK@?$AAs?$AAq?$AA?$AA@ 004495b8     libucrt:lcidtoname_downlevel.obj
 0002:0000b5c0       ??_C@_15INNPNOHD@?$AAs?$AAv?$AA?$AA@ 004495c0     libucrt:lcidtoname_downlevel.obj
 0002:0000b5c8       ??_C@_15CABMMOGH@?$AAt?$AAh?$AA?$AA@ 004495c8     libucrt:lcidtoname_downlevel.obj
 0002:0000b5d0       ??_C@_15BPLIHJJM@?$AAt?$AAr?$AA?$AA@ 004495d0     libucrt:lcidtoname_downlevel.obj
 0002:0000b5d8       ??_C@_15NEOEKKDJ@?$AAu?$AAr?$AA?$AA@ 004495d8     libucrt:lcidtoname_downlevel.obj
 0002:0000b5e0       ??_C@_15NFICGAJK@?$AAi?$AAd?$AA?$AA@ 004495e0     libucrt:lcidtoname_downlevel.obj
 0002:0000b5e8       ??_C@_15HPJPHDM@?$AAb?$AAe?$AA?$AA@ 004495e8     libucrt:lcidtoname_downlevel.obj
 0002:0000b5f0       ??_C@_15LCHLGJII@?$AAs?$AAl?$AA?$AA@ 004495f0     libucrt:lcidtoname_downlevel.obj
 0002:0000b5f8       ??_C@_15PCFJPHHO@?$AAe?$AAt?$AA?$AA@ 004495f8     libucrt:lcidtoname_downlevel.obj
 0002:0000b600       ??_C@_15HPFPGODN@?$AAl?$AAv?$AA?$AA@ 00449600     libucrt:lcidtoname_downlevel.obj
 0002:0000b608       ??_C@_15NFFGKGLG@?$AAl?$AAt?$AA?$AA@ 00449608     libucrt:lcidtoname_downlevel.obj
 0002:0000b610       ??_C@_15BDAKCCHN@?$AAf?$AAa?$AA?$AA@ 00449610     libucrt:lcidtoname_downlevel.obj
 0002:0000b618       ??_C@_15NFGIAIAJ@?$AAv?$AAi?$AA?$AA@ 00449618     libucrt:lcidtoname_downlevel.obj
 0002:0000b620       ??_C@_15LMKNDMHN@?$AAh?$AAy?$AA?$AA@ 00449620     libucrt:lcidtoname_downlevel.obj
 0002:0000b628       ??_C@_15IJBHMCFL@?$AAa?$AAz?$AA?$AA@ 00449628     libucrt:lcidtoname_downlevel.obj
 0002:0000b630       ??_C@_15EKOFJABL@?$AAe?$AAu?$AA?$AA@ 00449630     libucrt:lcidtoname_downlevel.obj
 0002:0000b638       ??_C@_15BGHADCNK@?$AAm?$AAk?$AA?$AA@ 00449638     libucrt:lcidtoname_downlevel.obj
 0002:0000b640       ??_C@_15JDNICKHM@?$AAa?$AAf?$AA?$AA@ 00449640     libucrt:lcidtoname_downlevel.obj
 0002:0000b648       ??_C@_15KPJEDBKD@?$AAk?$AAa?$AA?$AA@ 00449648     libucrt:lcidtoname_downlevel.obj
 0002:0000b650       ??_C@_15PDNFFFEO@?$AAf?$AAo?$AA?$AA@ 00449650     libucrt:lcidtoname_downlevel.obj
 0002:0000b658       ??_C@_15OMLEGLOC@?$AAh?$AAi?$AA?$AA@ 00449658     libucrt:lcidtoname_downlevel.obj
 0002:0000b660       ??_C@_15IDNNENKK@?$AAm?$AAs?$AA?$AA@ 00449660     libucrt:lcidtoname_downlevel.obj
 0002:0000b668       ??_C@_15MACJNBMH@?$AAk?$AAk?$AA?$AA@ 00449668     libucrt:lcidtoname_downlevel.obj
 0002:0000b670       ??_C@_15DKDJEOND@?$AAk?$AAy?$AA?$AA@ 00449670     libucrt:lcidtoname_downlevel.obj
 0002:0000b678       ??_C@_15DFGDLJBG@?$AAs?$AAw?$AA?$AA@ 00449678     libucrt:lcidtoname_downlevel.obj
 0002:0000b680       ??_C@_15BBFAICNG@?$AAu?$AAz?$AA?$AA@ 00449680     libucrt:lcidtoname_downlevel.obj
 0002:0000b688       ??_C@_15DKNDCGEA@?$AAt?$AAt?$AA?$AA@ 00449688     libucrt:lcidtoname_downlevel.obj
 0002:0000b690       ??_C@_15MGIFMDPL@?$AAp?$AAa?$AA?$AA@ 00449690     libucrt:lcidtoname_downlevel.obj
 0002:0000b698       ??_C@_15HCNDBBA@?$AAg?$AAu?$AA?$AA@ 00449698     libucrt:lcidtoname_downlevel.obj
 0002:0000b6a0       ??_C@_15FNBEIBON@?$AAt?$AAa?$AA?$AA@ 004496a0     libucrt:lcidtoname_downlevel.obj
 0002:0000b6a8       ??_C@_15NCHGBGLK@?$AAt?$AAe?$AA?$AA@ 004496a8     libucrt:lcidtoname_downlevel.obj
 0002:0000b6b0       ??_C@_15PHPHCBPF@?$AAk?$AAn?$AA?$AA@ 004496b0     libucrt:lcidtoname_downlevel.obj
 0002:0000b6b8       ??_C@_15DLGBCKMP@?$AAm?$AAr?$AA?$AA@ 004496b8     libucrt:lcidtoname_downlevel.obj
 0002:0000b6c0       ??_C@_15EABBLBFF@?$AAs?$AAa?$AA?$AA@ 004496c0     libucrt:lcidtoname_downlevel.obj
 0002:0000b6c8       ??_C@_15CBKOMCOI@?$AAm?$AAn?$AA?$AA@ 004496c8     libucrt:lcidtoname_downlevel.obj
 0002:0000b6d0       ??_C@_15CKDMCJAF@?$AAg?$AAl?$AA?$AA@ 004496d0     libucrt:lcidtoname_downlevel.obj
 0002:0000b6d8       ??_C@_17CNJFBPG@?$AAk?$AAo?$AAk?$AA?$AA@ 004496d8     libucrt:lcidtoname_downlevel.obj
 0002:0000b6e0       ??_C@_17FFBJICPL@?$AAs?$AAy?$AAr?$AA?$AA@ 004496e0     libucrt:lcidtoname_downlevel.obj
 0002:0000b6e8       ??_C@_17KPNDCPAF@?$AAd?$AAi?$AAv?$AA?$AA@ 004496e8     libucrt:lcidtoname_downlevel.obj
 0002:0000b6f0       ??_C@_11LOCGONAA@?$AA?$AA@ 004496f0     libucrt:lcidtoname_downlevel.obj
 0002:0000b6f4       ??_C@_1M@OKAHONE@?$AAa?$AAr?$AA?9?$AAS?$AAA?$AA?$AA@ 004496f4     libucrt:lcidtoname_downlevel.obj
 0002:0000b700       ??_C@_1M@FFFIGIGK@?$AAb?$AAg?$AA?9?$AAB?$AAG?$AA?$AA@ 00449700     libucrt:lcidtoname_downlevel.obj
 0002:0000b70c       ??_C@_1M@BJNKEDC@?$AAc?$AAa?$AA?9?$AAE?$AAS?$AA?$AA@ 0044970c     libucrt:lcidtoname_downlevel.obj
 0002:0000b718       ??_C@_1M@IJJHFJHA@?$AAc?$AAs?$AA?9?$AAC?$AAZ?$AA?$AA@ 00449718     libucrt:lcidtoname_downlevel.obj
 0002:0000b724       ??_C@_1M@CLPEOBGI@?$AAd?$AAa?$AA?9?$AAD?$AAK?$AA?$AA@ 00449724     libucrt:lcidtoname_downlevel.obj
 0002:0000b730       ??_C@_1M@MCMADGCB@?$AAd?$AAe?$AA?9?$AAD?$AAE?$AA?$AA@ 00449730     libucrt:lcidtoname_downlevel.obj
 0002:0000b73c       ??_C@_1M@OOCKEMAM@?$AAe?$AAl?$AA?9?$AAG?$AAR?$AA?$AA@ 0044973c     libucrt:lcidtoname_downlevel.obj
 0002:0000b748       ??_C@_1M@DDNJFGID@?$AAf?$AAi?$AA?9?$AAF?$AAI?$AA?$AA@ 00449748     libucrt:lcidtoname_downlevel.obj
 0002:0000b754       ??_C@_1M@GLIPPMAC@?$AAf?$AAr?$AA?9?$AAF?$AAR?$AA?$AA@ 00449754     libucrt:lcidtoname_downlevel.obj
 0002:0000b760       ??_C@_1M@GFMCHPE@?$AAh?$AAe?$AA?9?$AAI?$AAL?$AA?$AA@ 00449760     libucrt:lcidtoname_downlevel.obj
 0002:0000b76c       ??_C@_1M@MHLPGNKM@?$AAh?$AAu?$AA?9?$AAH?$AAU?$AA?$AA@ 0044976c     libucrt:lcidtoname_downlevel.obj
 0002:0000b778       ??_C@_1M@LPDDNNPN@?$AAi?$AAs?$AA?9?$AAI?$AAS?$AA?$AA@ 00449778     libucrt:lcidtoname_downlevel.obj
 0002:0000b784       ??_C@_1M@MADIPODN@?$AAi?$AAt?$AA?9?$AAI?$AAT?$AA?$AA@ 00449784     libucrt:lcidtoname_downlevel.obj
 0002:0000b790       ??_C@_1M@IHBJJGG@?$AAn?$AAl?$AA?9?$AAN?$AAL?$AA?$AA@ 00449790     libucrt:lcidtoname_downlevel.obj
 0002:0000b79c       ??_C@_1M@EANAGDL@?$AAn?$AAb?$AA?9?$AAN?$AAO?$AA?$AA@ 0044979c     libucrt:lcidtoname_downlevel.obj
 0002:0000b7a8       ??_C@_1M@NEIEMEGP@?$AAp?$AAl?$AA?9?$AAP?$AAL?$AA?$AA@ 004497a8     libucrt:lcidtoname_downlevel.obj
 0002:0000b7b4       ??_C@_1M@BOCFIGEP@?$AAp?$AAt?$AA?9?$AAB?$AAR?$AA?$AA@ 004497b4     libucrt:lcidtoname_downlevel.obj
 0002:0000b7c0       ??_C@_1M@IMPFOPBG@?$AAr?$AAo?$AA?9?$AAR?$AAO?$AA?$AA@ 004497c0     libucrt:lcidtoname_downlevel.obj
 0002:0000b7cc       ??_C@_1M@IDNNEJMM@?$AAr?$AAu?$AA?9?$AAR?$AAU?$AA?$AA@ 004497cc     libucrt:lcidtoname_downlevel.obj
 0002:0000b7d8       ??_C@_1M@LILEEOGM@?$AAh?$AAr?$AA?9?$AAH?$AAR?$AA?$AA@ 004497d8     libucrt:lcidtoname_downlevel.obj
 0002:0000b7e4       ??_C@_1M@FKIFEHPB@?$AAs?$AAk?$AA?9?$AAS?$AAK?$AA?$AA@ 004497e4     libucrt:lcidtoname_downlevel.obj
 0002:0000b7f0       ??_C@_1M@LJMAMNPJ@?$AAs?$AAq?$AA?9?$AAA?$AAL?$AA?$AA@ 004497f0     libucrt:lcidtoname_downlevel.obj
 0002:0000b7fc       ??_C@_1M@GIAKDKJK@?$AAs?$AAv?$AA?9?$AAS?$AAE?$AA?$AA@ 004497fc     libucrt:lcidtoname_downlevel.obj
 0002:0000b808       ??_C@_1M@MKJKIKCL@?$AAt?$AAh?$AA?9?$AAT?$AAH?$AA?$AA@ 00449808     libucrt:lcidtoname_downlevel.obj
 0002:0000b814       ??_C@_1M@MFLCCMPB@?$AAt?$AAr?$AA?9?$AAT?$AAR?$AA?$AA@ 00449814     libucrt:lcidtoname_downlevel.obj
 0002:0000b820       ??_C@_1M@OIJHDKJN@?$AAu?$AAr?$AA?9?$AAP?$AAK?$AA?$AA@ 00449820     libucrt:lcidtoname_downlevel.obj
 0002:0000b82c       ??_C@_1M@LHIPCIEK@?$AAi?$AAd?$AA?9?$AAI?$AAD?$AA?$AA@ 0044982c     libucrt:lcidtoname_downlevel.obj
 0002:0000b838       ??_C@_1M@MFMOBGI@?$AAu?$AAk?$AA?9?$AAU?$AAA?$AA?$AA@ 00449838     libucrt:lcidtoname_downlevel.obj
 0002:0000b844       ??_C@_1M@OBGLJIPL@?$AAb?$AAe?$AA?9?$AAB?$AAY?$AA?$AA@ 00449844     libucrt:lcidtoname_downlevel.obj
 0002:0000b850       ??_C@_1M@BCFAJEAD@?$AAs?$AAl?$AA?9?$AAS?$AAI?$AA?$AA@ 00449850     libucrt:lcidtoname_downlevel.obj
 0002:0000b85c       ??_C@_1M@FKFFEDDN@?$AAe?$AAt?$AA?9?$AAE?$AAE?$AA?$AA@ 0044985c     libucrt:lcidtoname_downlevel.obj
 0002:0000b868       ??_C@_1M@KGKKAACI@?$AAl?$AAv?$AA?9?$AAL?$AAV?$AA?$AA@ 00449868     libucrt:lcidtoname_downlevel.obj
 0002:0000b874       ??_C@_1M@IFGBIJO@?$AAl?$AAt?$AA?9?$AAL?$AAT?$AA?$AA@ 00449874     libucrt:lcidtoname_downlevel.obj
 0002:0000b880       ??_C@_1M@FGEAHEDM@?$AAf?$AAa?$AA?9?$AAI?$AAR?$AA?$AA@ 00449880     libucrt:lcidtoname_downlevel.obj
 0002:0000b88c       ??_C@_1M@KBMAIBFN@?$AAv?$AAi?$AA?9?$AAV?$AAN?$AA?$AA@ 0044988c     libucrt:lcidtoname_downlevel.obj
 0002:0000b898       ??_C@_1M@GPCBKDJK@?$AAh?$AAy?$AA?9?$AAA?$AAM?$AA?$AA@ 00449898     libucrt:lcidtoname_downlevel.obj
 0002:0000b8a4       ??_C@_1BG@BECMDDJB@?$AAa?$AAz?$AA?9?$AAA?$AAZ?$AA?9?$AAL?$AAa?$AAt?$AAn?$AA?$AA@ 004498a4     libucrt:lcidtoname_downlevel.obj
 0002:0000b8bc       ??_C@_1M@MAOFCAEA@?$AAe?$AAu?$AA?9?$AAE?$AAS?$AA?$AA@ 004498bc     libucrt:lcidtoname_downlevel.obj
 0002:0000b8c8       ??_C@_1M@IGHABKPI@?$AAm?$AAk?$AA?9?$AAM?$AAK?$AA?$AA@ 004498c8     libucrt:lcidtoname_downlevel.obj
 0002:0000b8d4       ??_C@_1M@IAIGNEJG@?$AAt?$AAn?$AA?9?$AAZ?$AAA?$AA?$AA@ 004498d4     libucrt:lcidtoname_downlevel.obj
 0002:0000b8e0       ??_C@_1M@IIJCOJFA@?$AAx?$AAh?$AA?9?$AAZ?$AAA?$AA?$AA@ 004498e0     libucrt:lcidtoname_downlevel.obj
 0002:0000b8ec       ??_C@_1M@LGPJHNJH@?$AAz?$AAu?$AA?9?$AAZ?$AAA?$AA?$AA@ 004498ec     libucrt:lcidtoname_downlevel.obj
 0002:0000b8f8       ??_C@_1M@HOKAOIO@?$AAa?$AAf?$AA?9?$AAZ?$AAA?$AA?$AA@ 004498f8     libucrt:lcidtoname_downlevel.obj
 0002:0000b904       ??_C@_1M@DPCLHLIE@?$AAk?$AAa?$AA?9?$AAG?$AAE?$AA?$AA@ 00449904     libucrt:lcidtoname_downlevel.obj
 0002:0000b910       ??_C@_1M@BLKMHJBI@?$AAf?$AAo?$AA?9?$AAF?$AAO?$AA?$AA@ 00449910     libucrt:lcidtoname_downlevel.obj
 0002:0000b91c       ??_C@_1M@LGGJAPPB@?$AAh?$AAi?$AA?9?$AAI?$AAN?$AA?$AA@ 0044991c     libucrt:lcidtoname_downlevel.obj
 0002:0000b928       ??_C@_1M@FIKPIHFE@?$AAm?$AAt?$AA?9?$AAM?$AAT?$AA?$AA@ 00449928     libucrt:lcidtoname_downlevel.obj
 0002:0000b934       ??_C@_1M@HEGGPBFA@?$AAs?$AAe?$AA?9?$AAN?$AAO?$AA?$AA@ 00449934     libucrt:lcidtoname_downlevel.obj
 0002:0000b940       ??_C@_1M@EIBJEEPA@?$AAm?$AAs?$AA?9?$AAM?$AAY?$AA?$AA@ 00449940     libucrt:lcidtoname_downlevel.obj
 0002:0000b94c       ??_C@_1M@FHLBGMPP@?$AAk?$AAk?$AA?9?$AAK?$AAZ?$AA?$AA@ 0044994c     libucrt:lcidtoname_downlevel.obj
 0002:0000b958       ??_C@_1M@NGJJLCGI@?$AAk?$AAy?$AA?9?$AAK?$AAG?$AA?$AA@ 00449958     libucrt:lcidtoname_downlevel.obj
 0002:0000b964       ??_C@_1M@GIENNBFC@?$AAs?$AAw?$AA?9?$AAK?$AAE?$AA?$AA@ 00449964     libucrt:lcidtoname_downlevel.obj
 0002:0000b970       ??_C@_1BG@NDGMJIMJ@?$AAu?$AAz?$AA?9?$AAU?$AAZ?$AA?9?$AAL?$AAa?$AAt?$AAn?$AA?$AA@ 00449970     libucrt:lcidtoname_downlevel.obj
 0002:0000b988       ??_C@_1M@IDCCIHBC@?$AAt?$AAt?$AA?9?$AAR?$AAU?$AA?$AA@ 00449988     libucrt:lcidtoname_downlevel.obj
 0002:0000b994       ??_C@_1M@LOICPMOJ@?$AAb?$AAn?$AA?9?$AAI?$AAN?$AA?$AA@ 00449994     libucrt:lcidtoname_downlevel.obj
 0002:0000b9a0       ??_C@_1M@KPKKNEAH@?$AAp?$AAa?$AA?9?$AAI?$AAN?$AA?$AA@ 004499a0     libucrt:lcidtoname_downlevel.obj
 0002:0000b9ac       ??_C@_1M@PJGPPBOG@?$AAg?$AAu?$AA?9?$AAI?$AAN?$AA?$AA@ 004499ac     libucrt:lcidtoname_downlevel.obj
 0002:0000b9b8       ??_C@_1M@KMKMOPHI@?$AAt?$AAa?$AA?9?$AAI?$AAN?$AA?$AA@ 004499b8     libucrt:lcidtoname_downlevel.obj
 0002:0000b9c4       ??_C@_1M@KFEHEPAC@?$AAt?$AAe?$AA?9?$AAI?$AAN?$AA?$AA@ 004499c4     libucrt:lcidtoname_downlevel.obj
 0002:0000b9d0       ??_C@_1M@CDCLMGHI@?$AAk?$AAn?$AA?9?$AAI?$AAN?$AA?$AA@ 004499d0     libucrt:lcidtoname_downlevel.obj
 0002:0000b9dc       ??_C@_1M@MIODLDKF@?$AAm?$AAl?$AA?9?$AAI?$AAN?$AA?$AA@ 004499dc     libucrt:lcidtoname_downlevel.obj
 0002:0000b9e8       ??_C@_1M@PBIEACPO@?$AAm?$AAr?$AA?9?$AAI?$AAN?$AA?$AA@ 004499e8     libucrt:lcidtoname_downlevel.obj
 0002:0000b9f4       ??_C@_1M@NIDEAGPH@?$AAs?$AAa?$AA?9?$AAI?$AAN?$AA?$AA@ 004499f4     libucrt:lcidtoname_downlevel.obj
 0002:0000ba00       ??_C@_1M@FHIHCBIO@?$AAm?$AAn?$AA?9?$AAM?$AAN?$AA?$AA@ 00449a00     libucrt:lcidtoname_downlevel.obj
 0002:0000ba0c       ??_C@_1M@JAIJPENP@?$AAc?$AAy?$AA?9?$AAG?$AAB?$AA?$AA@ 00449a0c     libucrt:lcidtoname_downlevel.obj
 0002:0000ba18       ??_C@_1M@PHGFBEPN@?$AAg?$AAl?$AA?9?$AAE?$AAS?$AA?$AA@ 00449a18     libucrt:lcidtoname_downlevel.obj
 0002:0000ba24       ??_C@_1O@KPIPDNCP@?$AAk?$AAo?$AAk?$AA?9?$AAI?$AAN?$AA?$AA@ 00449a24     libucrt:lcidtoname_downlevel.obj
 0002:0000ba34       ??_C@_1O@KNHJLDJA@?$AAs?$AAy?$AAr?$AA?9?$AAS?$AAY?$AA?$AA@ 00449a34     libucrt:lcidtoname_downlevel.obj
 0002:0000ba44       ??_C@_1O@MKEKBLAH@?$AAd?$AAi?$AAv?$AA?9?$AAM?$AAV?$AA?$AA@ 00449a44     libucrt:lcidtoname_downlevel.obj
 0002:0000ba54       ??_C@_1O@OHDCKDDF@?$AAq?$AAu?$AAz?$AA?9?$AAB?$AAO?$AA?$AA@ 00449a54     libucrt:lcidtoname_downlevel.obj
 0002:0000ba64       ??_C@_1M@LEPJNLFD@?$AAn?$AAs?$AA?9?$AAZ?$AAA?$AA?$AA@ 00449a64     libucrt:lcidtoname_downlevel.obj
 0002:0000ba70       ??_C@_1M@OMLEIIJB@?$AAm?$AAi?$AA?9?$AAN?$AAZ?$AA?$AA@ 00449a70     libucrt:lcidtoname_downlevel.obj
 0002:0000ba7c       ??_C@_1M@PMPEAILG@?$AAa?$AAr?$AA?9?$AAI?$AAQ?$AA?$AA@ 00449a7c     libucrt:lcidtoname_downlevel.obj
 0002:0000ba88       ??_C@_1M@CNKPNOEE@?$AAd?$AAe?$AA?9?$AAC?$AAH?$AA?$AA@ 00449a88     libucrt:lcidtoname_downlevel.obj
 0002:0000ba94       ??_C@_1M@LKMGMLKO@?$AAe?$AAn?$AA?9?$AAG?$AAB?$AA?$AA@ 00449a94     libucrt:lcidtoname_downlevel.obj
 0002:0000baa0       ??_C@_1M@PGKJFFGL@?$AAe?$AAs?$AA?9?$AAM?$AAX?$AA?$AA@ 00449aa0     libucrt:lcidtoname_downlevel.obj
 0002:0000baac       ??_C@_1M@DNNANBDC@?$AAf?$AAr?$AA?9?$AAB?$AAE?$AA?$AA@ 00449aac     libucrt:lcidtoname_downlevel.obj
 0002:0000bab8       ??_C@_1M@HLGMDFHM@?$AAi?$AAt?$AA?9?$AAC?$AAH?$AA?$AA@ 00449ab8     libucrt:lcidtoname_downlevel.obj
 0002:0000bac4       ??_C@_1M@CLLBGJH@?$AAn?$AAl?$AA?9?$AAB?$AAE?$AA?$AA@ 00449ac4     libucrt:lcidtoname_downlevel.obj
 0002:0000bad0       ??_C@_1M@BODBOGLF@?$AAn?$AAn?$AA?9?$AAN?$AAO?$AA?$AA@ 00449ad0     libucrt:lcidtoname_downlevel.obj
 0002:0000badc       ??_C@_1M@HFFAHKAD@?$AAp?$AAt?$AA?9?$AAP?$AAT?$AA?$AA@ 00449adc     libucrt:lcidtoname_downlevel.obj
 0002:0000bae8       ??_C@_1BG@LNOAKHIE@?$AAs?$AAr?$AA?9?$AAS?$AAP?$AA?9?$AAL?$AAa?$AAt?$AAn?$AA?$AA@ 00449ae8     libucrt:lcidtoname_downlevel.obj
 0002:0000bb00       ??_C@_1M@HBMHBGAK@?$AAs?$AAv?$AA?9?$AAF?$AAI?$AA?$AA@ 00449b00     libucrt:lcidtoname_downlevel.obj
 0002:0000bb0c       ??_C@_1BG@DGCJGJBE@?$AAa?$AAz?$AA?9?$AAA?$AAZ?$AA?9?$AAC?$AAy?$AAr?$AAl?$AA?$AA@ 00449b0c     libucrt:lcidtoname_downlevel.obj
 0002:0000bb24       ??_C@_1M@KEJDAAHB@?$AAs?$AAe?$AA?9?$AAS?$AAE?$AA?$AA@ 00449b24     libucrt:lcidtoname_downlevel.obj
 0002:0000bb30       ??_C@_1M@HEIBJJAD@?$AAm?$AAs?$AA?9?$AAB?$AAN?$AA?$AA@ 00449b30     libucrt:lcidtoname_downlevel.obj
 0002:0000bb3c       ??_C@_1BG@PBGJMCEM@?$AAu?$AAz?$AA?9?$AAU?$AAZ?$AA?9?$AAC?$AAy?$AAr?$AAl?$AA?$AA@ 00449b3c     libucrt:lcidtoname_downlevel.obj
 0002:0000bb54       ??_C@_1O@LAOBCMDF@?$AAq?$AAu?$AAz?$AA?9?$AAE?$AAC?$AA?$AA@ 00449b54     libucrt:lcidtoname_downlevel.obj
 0002:0000bb64       ??_C@_1M@POEEMAIO@?$AAa?$AAr?$AA?9?$AAE?$AAG?$AA?$AA@ 00449b64     libucrt:lcidtoname_downlevel.obj
 0002:0000bb70       ??_C@_1M@EFAKDEDL@?$AAz?$AAh?$AA?9?$AAH?$AAK?$AA?$AA@ 00449b70     libucrt:lcidtoname_downlevel.obj
 0002:0000bb7c       ??_C@_1M@HKKIJHGI@?$AAd?$AAe?$AA?9?$AAA?$AAT?$AA?$AA@ 00449b7c     libucrt:lcidtoname_downlevel.obj
 0002:0000bb88       ??_C@_1M@KBFBEHJF@?$AAe?$AAn?$AA?9?$AAA?$AAU?$AA?$AA@ 00449b88     libucrt:lcidtoname_downlevel.obj
 0002:0000bb94       ??_C@_1M@MNPLFAAH@?$AAe?$AAs?$AA?9?$AAE?$AAS?$AA?$AA@ 00449b94     libucrt:lcidtoname_downlevel.obj
 0002:0000bba0       ??_C@_1M@HJOOJFMA@?$AAf?$AAr?$AA?9?$AAC?$AAA?$AA?$AA@ 00449ba0     libucrt:lcidtoname_downlevel.obj
 0002:0000bbac       ??_C@_1BG@JPOFPNAB@?$AAs?$AAr?$AA?9?$AAS?$AAP?$AA?9?$AAC?$AAy?$AAr?$AAl?$AA?$AA@ 00449bac     libucrt:lcidtoname_downlevel.obj
 0002:0000bbc4       ??_C@_1M@LNFOCMOB@?$AAs?$AAe?$AA?9?$AAF?$AAI?$AA?$AA@ 00449bc4     libucrt:lcidtoname_downlevel.obj
 0002:0000bbd0       ??_C@_1O@MGJBOAMB@?$AAq?$AAu?$AAz?$AA?9?$AAP?$AAE?$AA?$AA@ 00449bd0     libucrt:lcidtoname_downlevel.obj
 0002:0000bbe0       ??_C@_1M@GJINLBOK@?$AAa?$AAr?$AA?9?$AAL?$AAY?$AA?$AA@ 00449be0     libucrt:lcidtoname_downlevel.obj
 0002:0000bbec       ??_C@_1M@GGMNHJNL@?$AAz?$AAh?$AA?9?$AAS?$AAG?$AA?$AA@ 00449bec     libucrt:lcidtoname_downlevel.obj
 0002:0000bbf8       ??_C@_1M@HOIKODND@?$AAd?$AAe?$AA?9?$AAL?$AAU?$AA?$AA@ 00449bf8     libucrt:lcidtoname_downlevel.obj
 0002:0000bc04       ??_C@_1M@DDOCCGFG@?$AAe?$AAn?$AA?9?$AAC?$AAA?$AA?$AA@ 00449c04     libucrt:lcidtoname_downlevel.obj
 0002:0000bc10       ??_C@_1M@BNOEMJLF@?$AAe?$AAs?$AA?9?$AAG?$AAT?$AA?$AA@ 00449c10     libucrt:lcidtoname_downlevel.obj
 0002:0000bc1c       ??_C@_1M@EOGNKEK@?$AAf?$AAr?$AA?9?$AAC?$AAH?$AA?$AA@ 00449c1c     libucrt:lcidtoname_downlevel.obj
 0002:0000bc28       ??_C@_1M@FLIDJFHL@?$AAh?$AAr?$AA?9?$AAB?$AAA?$AA?$AA@ 00449c28     libucrt:lcidtoname_downlevel.obj
 0002:0000bc34       ??_C@_1O@FMCELNAJ@?$AAs?$AAm?$AAj?$AA?9?$AAN?$AAO?$AA?$AA@ 00449c34     libucrt:lcidtoname_downlevel.obj
 0002:0000bc44       ??_C@_1M@JHGLJMGJ@?$AAa?$AAr?$AA?9?$AAD?$AAZ?$AA?$AA@ 00449c44     libucrt:lcidtoname_downlevel.obj
 0002:0000bc50       ??_C@_1M@JKKFDCNP@?$AAz?$AAh?$AA?9?$AAM?$AAO?$AA?$AA@ 00449c50     libucrt:lcidtoname_downlevel.obj
 0002:0000bc5c       ??_C@_1M@GEEFALPE@?$AAd?$AAe?$AA?9?$AAL?$AAI?$AA?$AA@ 00449c5c     libucrt:lcidtoname_downlevel.obj
 0002:0000bc68       ??_C@_1M@IGEOFBG@?$AAe?$AAn?$AA?9?$AAN?$AAZ?$AA?$AA@ 00449c68     libucrt:lcidtoname_downlevel.obj
 0002:0000bc74       ??_C@_1M@KDBONEHP@?$AAe?$AAs?$AA?9?$AAC?$AAR?$AA?$AA@ 00449c74     libucrt:lcidtoname_downlevel.obj
 0002:0000bc80       ??_C@_1M@FHMDOHNN@?$AAf?$AAr?$AA?9?$AAL?$AAU?$AA?$AA@ 00449c80     libucrt:lcidtoname_downlevel.obj
 0002:0000bc8c       ??_C@_1BG@NFKKMAFG@?$AAb?$AAs?$AA?9?$AAB?$AAA?$AA?9?$AAL?$AAa?$AAt?$AAn?$AA?$AA@ 00449c8c     libucrt:lcidtoname_downlevel.obj
 0002:0000bca4       ??_C@_1O@IMNBEMCI@?$AAs?$AAm?$AAj?$AA?9?$AAS?$AAE?$AA?$AA@ 00449ca4     libucrt:lcidtoname_downlevel.obj
 0002:0000bcb4       ??_C@_1M@DHHMBNDP@?$AAa?$AAr?$AA?9?$AAM?$AAA?$AA?$AA@ 00449cb4     libucrt:lcidtoname_downlevel.obj
 0002:0000bcc0       ??_C@_1M@BNBLJCGH@?$AAe?$AAn?$AA?9?$AAI?$AAE?$AA?$AA@ 00449cc0     libucrt:lcidtoname_downlevel.obj
 0002:0000bccc       ??_C@_1M@GEPAFMDL@?$AAe?$AAs?$AA?9?$AAP?$AAA?$AA?$AA@ 00449ccc     libucrt:lcidtoname_downlevel.obj
 0002:0000bcd8       ??_C@_1M@OJONDMDL@?$AAf?$AAr?$AA?9?$AAM?$AAC?$AA?$AA@ 00449cd8     libucrt:lcidtoname_downlevel.obj
 0002:0000bce4       ??_C@_1BG@OBCNFJB@?$AAs?$AAr?$AA?9?$AAB?$AAA?$AA?9?$AAL?$AAa?$AAt?$AAn?$AA?$AA@ 00449ce4     libucrt:lcidtoname_downlevel.obj
 0002:0000bcfc       ??_C@_1O@KEMEEGPO@?$AAs?$AAm?$AAa?$AA?9?$AAN?$AAO?$AA?$AA@ 00449cfc     libucrt:lcidtoname_downlevel.obj
 0002:0000bd0c       ??_C@_1M@ELMGFODK@?$AAa?$AAr?$AA?9?$AAT?$AAN?$AA?$AA@ 00449d0c     libucrt:lcidtoname_downlevel.obj
 0002:0000bd18       ??_C@_1M@BHDLHFAF@?$AAe?$AAn?$AA?9?$AAZ?$AAA?$AA?$AA@ 00449d18     libucrt:lcidtoname_downlevel.obj
 0002:0000bd24       ??_C@_1M@BMGIGLIF@?$AAe?$AAs?$AA?9?$AAD?$AAO?$AA?$AA@ 00449d24     libucrt:lcidtoname_downlevel.obj
 0002:0000bd30       ??_C@_1BG@CMBHIPBE@?$AAs?$AAr?$AA?9?$AAB?$AAA?$AA?9?$AAC?$AAy?$AAr?$AAl?$AA?$AA@ 00449d30     libucrt:lcidtoname_downlevel.obj
 0002:0000bd48       ??_C@_1O@HEDBLHNP@?$AAs?$AAm?$AAa?$AA?9?$AAS?$AAE?$AA?$AA@ 00449d48     libucrt:lcidtoname_downlevel.obj
 0002:0000bd58       ??_C@_1M@DAGCADIM@?$AAa?$AAr?$AA?9?$AAO?$AAM?$AA?$AA@ 00449d58     libucrt:lcidtoname_downlevel.obj
 0002:0000bd64       ??_C@_1M@FODLMICG@?$AAe?$AAn?$AA?9?$AAJ?$AAM?$AA?$AA@ 00449d64     libucrt:lcidtoname_downlevel.obj
 0002:0000bd70       ??_C@_1M@DNMLCIHB@?$AAe?$AAs?$AA?9?$AAV?$AAE?$AA?$AA@ 00449d70     libucrt:lcidtoname_downlevel.obj
 0002:0000bd7c       ??_C@_1O@EOKHMKJK@?$AAs?$AAm?$AAs?$AA?9?$AAF?$AAI?$AA?$AA@ 00449d7c     libucrt:lcidtoname_downlevel.obj
 0002:0000bd8c       ??_C@_1M@CAFJMKOF@?$AAa?$AAr?$AA?9?$AAY?$AAE?$AA?$AA@ 00449d8c     libucrt:lcidtoname_downlevel.obj
 0002:0000bd98       ??_C@_1M@CBFHIJLI@?$AAe?$AAn?$AA?9?$AAC?$AAB?$AA?$AA@ 00449d98     libucrt:lcidtoname_downlevel.obj
 0002:0000bda4       ??_C@_1M@BGNFLDN@?$AAe?$AAs?$AA?9?$AAC?$AAO?$AA?$AA@ 00449da4     libucrt:lcidtoname_downlevel.obj
 0002:0000bdb0       ??_C@_1O@JMPHMAMC@?$AAs?$AAm?$AAn?$AA?9?$AAF?$AAI?$AA?$AA@ 00449db0     libucrt:lcidtoname_downlevel.obj
 0002:0000bdc0       ??_C@_1M@JLANABKE@?$AAa?$AAr?$AA?9?$AAS?$AAY?$AA?$AA@ 00449dc0     libucrt:lcidtoname_downlevel.obj
 0002:0000bdcc       ??_C@_1M@HPKGCFGN@?$AAe?$AAn?$AA?9?$AAB?$AAZ?$AA?$AA@ 00449dcc     libucrt:lcidtoname_downlevel.obj
 0002:0000bdd8       ??_C@_1M@OLJCMLGM@?$AAe?$AAs?$AA?9?$AAP?$AAE?$AA?$AA@ 00449dd8     libucrt:lcidtoname_downlevel.obj
 0002:0000bde4       ??_C@_1M@MKKGFKLE@?$AAa?$AAr?$AA?9?$AAJ?$AAO?$AA?$AA@ 00449de4     libucrt:lcidtoname_downlevel.obj
 0002:0000bdf0       ??_C@_1M@EKPGLDNI@?$AAe?$AAn?$AA?9?$AAT?$AAT?$AA?$AA@ 00449df0     libucrt:lcidtoname_downlevel.obj
 0002:0000bdfc       ??_C@_1M@OONGHFHE@?$AAe?$AAs?$AA?9?$AAA?$AAR?$AA?$AA@ 00449dfc     libucrt:lcidtoname_downlevel.obj
 0002:0000be08       ??_C@_1M@OOJFGBHE@?$AAa?$AAr?$AA?9?$AAL?$AAB?$AA?$AA@ 00449e08     libucrt:lcidtoname_downlevel.obj
 0002:0000be14       ??_C@_1M@GCEJHNEG@?$AAe?$AAn?$AA?9?$AAZ?$AAW?$AA?$AA@ 00449e14     libucrt:lcidtoname_downlevel.obj
 0002:0000be20       ??_C@_1M@JNOCAHJI@?$AAe?$AAs?$AA?9?$AAE?$AAC?$AA?$AA@ 00449e20     libucrt:lcidtoname_downlevel.obj
 0002:0000be2c       ??_C@_1M@JEFHPGGB@?$AAa?$AAr?$AA?9?$AAK?$AAW?$AA?$AA@ 00449e2c     libucrt:lcidtoname_downlevel.obj
 0002:0000be38       ??_C@_1M@MLKIBJOJ@?$AAe?$AAn?$AA?9?$AAP?$AAH?$AA?$AA@ 00449e38     libucrt:lcidtoname_downlevel.obj
 0002:0000be44       ??_C@_1M@BDNIPEND@?$AAe?$AAs?$AA?9?$AAC?$AAL?$AA?$AA@ 00449e44     libucrt:lcidtoname_downlevel.obj
 0002:0000be50       ??_C@_1M@MPNMEKBD@?$AAa?$AAr?$AA?9?$AAA?$AAE?$AA?$AA@ 00449e50     libucrt:lcidtoname_downlevel.obj
 0002:0000be5c       ??_C@_1M@KBJALCPI@?$AAe?$AAs?$AA?9?$AAU?$AAY?$AA?$AA@ 00449e5c     libucrt:lcidtoname_downlevel.obj
 0002:0000be68       ??_C@_1M@LLCCOAGA@?$AAa?$AAr?$AA?9?$AAB?$AAH?$AA?$AA@ 00449e68     libucrt:lcidtoname_downlevel.obj
 0002:0000be74       ??_C@_1M@PBFNCDEL@?$AAe?$AAs?$AA?9?$AAP?$AAY?$AA?$AA@ 00449e74     libucrt:lcidtoname_downlevel.obj
 0002:0000be80       ??_C@_1M@EDGINPNP@?$AAa?$AAr?$AA?9?$AAQ?$AAA?$AA?$AA@ 00449e80     libucrt:lcidtoname_downlevel.obj
 0002:0000be8c       ??_C@_1M@MKDBIIJI@?$AAe?$AAs?$AA?9?$AAB?$AAO?$AA?$AA@ 00449e8c     libucrt:lcidtoname_downlevel.obj
 0002:0000be98       ??_C@_1M@CPKKEBLD@?$AAe?$AAs?$AA?9?$AAS?$AAV?$AA?$AA@ 00449e98     libucrt:lcidtoname_downlevel.obj
 0002:0000bea4       ??_C@_1M@NDBGMMJL@?$AAe?$AAs?$AA?9?$AAH?$AAN?$AA?$AA@ 00449ea4     libucrt:lcidtoname_downlevel.obj
 0002:0000beb0       ??_C@_1M@JIJIBHDP@?$AAe?$AAs?$AA?9?$AAN?$AAI?$AA?$AA@ 00449eb0     libucrt:lcidtoname_downlevel.obj
 0002:0000bebc       ??_C@_1M@CGFMKEEK@?$AAe?$AAs?$AA?9?$AAP?$AAR?$AA?$AA@ 00449ebc     libucrt:lcidtoname_downlevel.obj
 0002:0000bec8       ??_C@_1O@ICJHKIIK@?$AAz?$AAh?$AA?9?$AAC?$AAH?$AAT?$AA?$AA@ 00449ec8     libucrt:lcidtoname_downlevel.obj
 0002:0000bed8       ??_C@_15CLNEJCE@?$AAs?$AAr?$AA?$AA@ 00449ed8     libucrt:lcidtoname_downlevel.obj
 0002:0000c600       ??_C@_1M@KAHEKEIG@?$AAa?$AAf?$AA?9?$AAz?$AAa?$AA?$AA@ 0044a600     libucrt:lcidtoname_downlevel.obj
 0002:0000c60c       ??_C@_1M@GIECOABL@?$AAa?$AAr?$AA?9?$AAa?$AAe?$AA?$AA@ 0044a60c     libucrt:lcidtoname_downlevel.obj
 0002:0000c618       ??_C@_1M@BMLMEKGI@?$AAa?$AAr?$AA?9?$AAb?$AAh?$AA?$AA@ 0044a618     libucrt:lcidtoname_downlevel.obj
 0002:0000c624       ??_C@_1M@DAPFDGGB@?$AAa?$AAr?$AA?9?$AAd?$AAz?$AA?$AA@ 0044a624     libucrt:lcidtoname_downlevel.obj
 0002:0000c630       ??_C@_1M@FJNKGKIG@?$AAa?$AAr?$AA?9?$AAe?$AAg?$AA?$AA@ 0044a630     libucrt:lcidtoname_downlevel.obj
 0002:0000c63c       ??_C@_1M@FLGKKCLO@?$AAa?$AAr?$AA?9?$AAi?$AAq?$AA?$AA@ 0044a63c     libucrt:lcidtoname_downlevel.obj
 0002:0000c648       ??_C@_1M@GNDIPALM@?$AAa?$AAr?$AA?9?$AAj?$AAo?$AA?$AA@ 0044a648     libucrt:lcidtoname_downlevel.obj
 0002:0000c654       ??_C@_1M@DDMJFMGJ@?$AAa?$AAr?$AA?9?$AAk?$AAw?$AA?$AA@ 0044a654     libucrt:lcidtoname_downlevel.obj
 0002:0000c660       ??_C@_1M@EJALMLHM@?$AAa?$AAr?$AA?9?$AAl?$AAb?$AA?$AA@ 0044a660     libucrt:lcidtoname_downlevel.obj
 0002:0000c66c       ??_C@_1M@MOBDBLOC@?$AAa?$AAr?$AA?9?$AAl?$AAy?$AA?$AA@ 0044a66c     libucrt:lcidtoname_downlevel.obj
 0002:0000c678       ??_C@_1M@JAOCLHDH@?$AAa?$AAr?$AA?9?$AAm?$AAa?$AA?$AA@ 0044a678     libucrt:lcidtoname_downlevel.obj
 0002:0000c684       ??_C@_1M@JHPMKJIE@?$AAa?$AAr?$AA?9?$AAo?$AAm?$AA?$AA@ 0044a684     libucrt:lcidtoname_downlevel.obj
 0002:0000c690       ??_C@_1M@OEPGHFNH@?$AAa?$AAr?$AA?9?$AAq?$AAa?$AA?$AA@ 0044a690     libucrt:lcidtoname_downlevel.obj
 0002:0000c69c       ??_C@_1M@KJDONENM@?$AAa?$AAr?$AA?9?$AAs?$AAa?$AA?$AA@ 0044a69c     libucrt:lcidtoname_downlevel.obj
 0002:0000c6a8       ??_C@_1M@DMJDKLKM@?$AAa?$AAr?$AA?9?$AAs?$AAy?$AA?$AA@ 0044a6a8     libucrt:lcidtoname_downlevel.obj
 0002:0000c6b4       ??_C@_1M@OMFIPEDC@?$AAa?$AAr?$AA?9?$AAt?$AAn?$AA?$AA@ 0044a6b4     libucrt:lcidtoname_downlevel.obj
 0002:0000c6c0       ??_C@_1M@IHMHGAON@?$AAa?$AAr?$AA?9?$AAy?$AAe?$AA?$AA@ 0044a6c0     libucrt:lcidtoname_downlevel.obj
 0002:0000c6cc       ??_C@_1BG@KDCPGJGB@?$AAa?$AAz?$AA?9?$AAa?$AAz?$AA?9?$AAc?$AAy?$AAr?$AAl?$AA?$AA@ 0044a6cc     libucrt:lcidtoname_downlevel.obj
 0002:0000c6e4       ??_C@_1BG@IBCKDDOE@?$AAa?$AAz?$AA?9?$AAa?$AAz?$AA?9?$AAl?$AAa?$AAt?$AAn?$AA?$AA@ 0044a6e4     libucrt:lcidtoname_downlevel.obj
 0002:0000c6fc       ??_C@_1M@EGPFDCPD@?$AAb?$AAe?$AA?9?$AAb?$AAy?$AA?$AA@ 0044a6fc     libucrt:lcidtoname_downlevel.obj
 0002:0000c708       ??_C@_1M@PCMGMCGC@?$AAb?$AAg?$AA?9?$AAb?$AAg?$AA?$AA@ 0044a708     libucrt:lcidtoname_downlevel.obj
 0002:0000c714       ??_C@_1M@BJBMFGOB@?$AAb?$AAn?$AA?9?$AAi?$AAn?$AA?$AA@ 0044a714     libucrt:lcidtoname_downlevel.obj
 0002:0000c720       ??_C@_1BG@EAKMMACD@?$AAb?$AAs?$AA?9?$AAb?$AAa?$AA?9?$AAl?$AAa?$AAt?$AAn?$AA?$AA@ 0044a720     libucrt:lcidtoname_downlevel.obj
 0002:0000c738       ??_C@_1M@KGADAODK@?$AAc?$AAa?$AA?9?$AAe?$AAs?$AA?$AA@ 0044a738     libucrt:lcidtoname_downlevel.obj
 0002:0000c744       ??_C@_1M@COAJPDHI@?$AAc?$AAs?$AA?9?$AAc?$AAz?$AA?$AA@ 0044a744     libucrt:lcidtoname_downlevel.obj
 0002:0000c750       ??_C@_1M@DHBHFONH@?$AAc?$AAy?$AA?9?$AAg?$AAb?$AA?$AA@ 0044a750     libucrt:lcidtoname_downlevel.obj
 0002:0000c75c       ??_C@_1M@IMGKELGA@?$AAd?$AAa?$AA?9?$AAd?$AAk?$AA?$AA@ 0044a75c     libucrt:lcidtoname_downlevel.obj
 0002:0000c768       ??_C@_1M@NNDGDNGA@?$AAd?$AAe?$AA?9?$AAa?$AAt?$AA?$AA@ 0044a768     libucrt:lcidtoname_downlevel.obj
 0002:0000c774       ??_C@_1M@IKDBHEEM@?$AAd?$AAe?$AA?9?$AAc?$AAh?$AA?$AA@ 0044a774     libucrt:lcidtoname_downlevel.obj
 0002:0000c780       ??_C@_1M@GFFOJMCJ@?$AAd?$AAe?$AA?9?$AAd?$AAe?$AA?$AA@ 0044a780     libucrt:lcidtoname_downlevel.obj
 0002:0000c78c       ??_C@_1M@MDNLKBPM@?$AAd?$AAe?$AA?9?$AAl?$AAi?$AA?$AA@ 0044a78c     libucrt:lcidtoname_downlevel.obj
 0002:0000c798       ??_C@_1M@NJBEEJNL@?$AAd?$AAe?$AA?9?$AAl?$AAu?$AA?$AA@ 0044a798     libucrt:lcidtoname_downlevel.obj
 0002:0000c7a4       ??_C@_1O@GNNELBAP@?$AAd?$AAi?$AAv?$AA?9?$AAm?$AAv?$AA?$AA@ 0044a7a4     libucrt:lcidtoname_downlevel.obj
 0002:0000c7b4       ??_C@_1M@EJLEOGAE@?$AAe?$AAl?$AA?9?$AAg?$AAr?$AA?$AA@ 0044a7b4     libucrt:lcidtoname_downlevel.obj
 0002:0000c7c0       ??_C@_1M@GMPONJN@?$AAe?$AAn?$AA?9?$AAa?$AAu?$AA?$AA@ 0044a7c0     libucrt:lcidtoname_downlevel.obj
 0002:0000c7cc       ??_C@_1M@NIDIIPGF@?$AAe?$AAn?$AA?9?$AAb?$AAz?$AA?$AA@ 0044a7cc     libucrt:lcidtoname_downlevel.obj
 0002:0000c7d8       ??_C@_1M@JEHMIMFO@?$AAe?$AAn?$AA?9?$AAc?$AAa?$AA?$AA@ 0044a7d8     libucrt:lcidtoname_downlevel.obj
 0002:0000c7e4       ??_C@_1M@IGMJCDLA@?$AAe?$AAn?$AA?9?$AAc?$AAb?$AA?$AA@ 0044a7e4     libucrt:lcidtoname_downlevel.obj
 0002:0000c7f0       ??_C@_1M@BNFIGBKG@?$AAe?$AAn?$AA?9?$AAg?$AAb?$AA?$AA@ 0044a7f0     libucrt:lcidtoname_downlevel.obj
 0002:0000c7fc       ??_C@_1M@LKIFDIGP@?$AAe?$AAn?$AA?9?$AAi?$AAe?$AA?$AA@ 0044a7fc     libucrt:lcidtoname_downlevel.obj
 0002:0000c808       ??_C@_1M@PJKFGCCO@?$AAe?$AAn?$AA?9?$AAj?$AAm?$AA?$AA@ 0044a808     libucrt:lcidtoname_downlevel.obj
 0002:0000c814       ??_C@_1M@KPPKEPBO@?$AAe?$AAn?$AA?9?$AAn?$AAz?$AA?$AA@ 0044a814     libucrt:lcidtoname_downlevel.obj
 0002:0000c820       ??_C@_1M@GMDGLDOB@?$AAe?$AAn?$AA?9?$AAp?$AAh?$AA?$AA@ 0044a820     libucrt:lcidtoname_downlevel.obj
 0002:0000c82c       ??_C@_1M@ONGIBJNA@?$AAe?$AAn?$AA?9?$AAt?$AAt?$AA?$AA@ 0044a82c     libucrt:lcidtoname_downlevel.obj
 0002:0000c838       ??_C@_1M@LLODPCMM@?$AAe?$AAn?$AA?9?$AAu?$AAs?$AA?$AA@ 0044a838     libucrt:lcidtoname_downlevel.obj
 0002:0000c844       ??_C@_1M@LAKFNPAN@?$AAe?$AAn?$AA?9?$AAz?$AAa?$AA?$AA@ 0044a844     libucrt:lcidtoname_downlevel.obj
 0002:0000c850       ??_C@_1M@MFNHNHEO@?$AAe?$AAn?$AA?9?$AAz?$AAw?$AA?$AA@ 0044a850     libucrt:lcidtoname_downlevel.obj
 0002:0000c85c       ??_C@_1M@EJEINPHM@?$AAe?$AAs?$AA?9?$AAa?$AAr?$AA?$AA@ 0044a85c     libucrt:lcidtoname_downlevel.obj
 0002:0000c868       ??_C@_1M@GNKPCCJA@?$AAe?$AAs?$AA?9?$AAb?$AAo?$AA?$AA@ 0044a868     libucrt:lcidtoname_downlevel.obj
 0002:0000c874       ??_C@_1M@LEEGFONL@?$AAe?$AAs?$AA?9?$AAc?$AAl?$AA?$AA@ 0044a874     libucrt:lcidtoname_downlevel.obj
 0002:0000c880       ??_C@_1M@KGPDPBDF@?$AAe?$AAs?$AA?9?$AAc?$AAo?$AA?$AA@ 0044a880     libucrt:lcidtoname_downlevel.obj
 0002:0000c88c       ??_C@_1M@EIAHOHH@?$AAe?$AAs?$AA?9?$AAc?$AAr?$AA?$AA@ 0044a88c     libucrt:lcidtoname_downlevel.obj
 0002:0000c898       ??_C@_1M@LLPGMBIN@?$AAe?$AAs?$AA?9?$AAd?$AAo?$AA?$AA@ 0044a898     libucrt:lcidtoname_downlevel.obj
 0002:0000c8a4       ??_C@_1M@DKHMKNJA@?$AAe?$AAs?$AA?9?$AAe?$AAc?$AA?$AA@ 0044a8a4     libucrt:lcidtoname_downlevel.obj
 0002:0000c8b0       ??_C@_1M@GKGFPKAP@?$AAe?$AAs?$AA?9?$AAe?$AAs?$AA?$AA@ 0044a8b0     libucrt:lcidtoname_downlevel.obj
 0002:0000c8bc       ??_C@_1M@LKHKGDLN@?$AAe?$AAs?$AA?9?$AAg?$AAt?$AA?$AA@ 0044a8bc     libucrt:lcidtoname_downlevel.obj
 0002:0000c8c8       ??_C@_1M@HEIIGGJD@?$AAe?$AAs?$AA?9?$AAh?$AAn?$AA?$AA@ 0044a8c8     libucrt:lcidtoname_downlevel.obj
 0002:0000c8d4       ??_C@_1M@FBDHPPGD@?$AAe?$AAs?$AA?9?$AAm?$AAx?$AA?$AA@ 0044a8d4     libucrt:lcidtoname_downlevel.obj
 0002:0000c8e0       ??_C@_1M@DPAGLNDH@?$AAe?$AAs?$AA?9?$AAn?$AAi?$AA?$AA@ 0044a8e0     libucrt:lcidtoname_downlevel.obj
 0002:0000c8ec       ??_C@_1M@MDGOPGDD@?$AAe?$AAs?$AA?9?$AAp?$AAa?$AA?$AA@ 0044a8ec     libucrt:lcidtoname_downlevel.obj
 0002:0000c8f8       ??_C@_1M@EMAMGBGE@?$AAe?$AAs?$AA?9?$AAp?$AAe?$AA?$AA@ 0044a8f8     libucrt:lcidtoname_downlevel.obj
 0002:0000c904       ??_C@_1M@IBMCAOEC@?$AAe?$AAs?$AA?9?$AAp?$AAr?$AA?$AA@ 0044a904     libucrt:lcidtoname_downlevel.obj
 0002:0000c910       ??_C@_1M@FGMDIJED@?$AAe?$AAs?$AA?9?$AAp?$AAy?$AA?$AA@ 0044a910     libucrt:lcidtoname_downlevel.obj
 0002:0000c91c       ??_C@_1M@IIDEOLLL@?$AAe?$AAs?$AA?9?$AAs?$AAv?$AA?$AA@ 0044a91c     libucrt:lcidtoname_downlevel.obj
 0002:0000c928       ??_C@_1M@GAOBIPA@?$AAe?$AAs?$AA?9?$AAu?$AAy?$AA?$AA@ 0044a928     libucrt:lcidtoname_downlevel.obj
 0002:0000c934       ??_C@_1M@JKFFICHJ@?$AAe?$AAs?$AA?9?$AAv?$AAe?$AA?$AA@ 0044a934     libucrt:lcidtoname_downlevel.obj
 0002:0000c940       ??_C@_1M@PNMLOJDF@?$AAe?$AAt?$AA?9?$AAe?$AAe?$AA?$AA@ 0044a940     libucrt:lcidtoname_downlevel.obj
 0002:0000c94c       ??_C@_1M@GHHLIKEI@?$AAe?$AAu?$AA?9?$AAe?$AAs?$AA?$AA@ 0044a94c     libucrt:lcidtoname_downlevel.obj
 0002:0000c958       ??_C@_1M@PBNONODE@?$AAf?$AAa?$AA?9?$AAi?$AAr?$AA?$AA@ 0044a958     libucrt:lcidtoname_downlevel.obj
 0002:0000c964       ??_C@_1M@JEEHPMIL@?$AAf?$AAi?$AA?9?$AAf?$AAi?$AA?$AA@ 0044a964     libucrt:lcidtoname_downlevel.obj
 0002:0000c970       ??_C@_1M@LMDCNDBA@?$AAf?$AAo?$AA?9?$AAf?$AAo?$AA?$AA@ 0044a970     libucrt:lcidtoname_downlevel.obj
 0002:0000c97c       ??_C@_1M@JKEOHLDK@?$AAf?$AAr?$AA?9?$AAb?$AAe?$AA?$AA@ 0044a97c     libucrt:lcidtoname_downlevel.obj
 0002:0000c988       ??_C@_1M@NOHADPMI@?$AAf?$AAr?$AA?9?$AAc?$AAa?$AA?$AA@ 0044a988     libucrt:lcidtoname_downlevel.obj
 0002:0000c994       ??_C@_1M@KDHIHAEC@?$AAf?$AAr?$AA?9?$AAc?$AAh?$AA?$AA@ 0044a994     libucrt:lcidtoname_downlevel.obj
 0002:0000c9a0       ??_C@_1M@MMBBFGAK@?$AAf?$AAr?$AA?9?$AAf?$AAr?$AA?$AA@ 0044a9a0     libucrt:lcidtoname_downlevel.obj
 0002:0000c9ac       ??_C@_1M@PAFNENNF@?$AAf?$AAr?$AA?9?$AAl?$AAu?$AA?$AA@ 0044a9ac     libucrt:lcidtoname_downlevel.obj
 0002:0000c9b8       ??_C@_1M@EOHDJGDD@?$AAf?$AAr?$AA?9?$AAm?$AAc?$AA?$AA@ 0044a9b8     libucrt:lcidtoname_downlevel.obj
 0002:0000c9c4       ??_C@_1M@FAPLLOPF@?$AAg?$AAl?$AA?9?$AAe?$AAs?$AA?$AA@ 0044a9c4     libucrt:lcidtoname_downlevel.obj
 0002:0000c9d0       ??_C@_1M@FOPBFLOO@?$AAg?$AAu?$AA?9?$AAi?$AAn?$AA?$AA@ 0044a9d0     libucrt:lcidtoname_downlevel.obj
 0002:0000c9dc       ??_C@_1M@KBMCINPM@?$AAh?$AAe?$AA?9?$AAi?$AAl?$AA?$AA@ 0044a9dc     libucrt:lcidtoname_downlevel.obj
 0002:0000c9e8       ??_C@_1M@BBPHKFPJ@?$AAh?$AAi?$AA?9?$AAi?$AAn?$AA?$AA@ 0044a9e8     libucrt:lcidtoname_downlevel.obj
 0002:0000c9f4       ??_C@_1M@PMBNDPHD@?$AAh?$AAr?$AA?9?$AAb?$AAa?$AA?$AA@ 0044a9f4     libucrt:lcidtoname_downlevel.obj
 0002:0000ca00       ??_C@_1M@BPCKOEGE@?$AAh?$AAr?$AA?9?$AAh?$AAr?$AA?$AA@ 0044aa00     libucrt:lcidtoname_downlevel.obj
 0002:0000ca0c       ??_C@_1M@GACBMHKE@?$AAh?$AAu?$AA?9?$AAh?$AAu?$AA?$AA@ 0044aa0c     libucrt:lcidtoname_downlevel.obj
 0002:0000ca18       ??_C@_1M@MILPAJJC@?$AAh?$AAy?$AA?9?$AAa?$AAm?$AA?$AA@ 0044aa18     libucrt:lcidtoname_downlevel.obj
 0002:0000ca24       ??_C@_1M@BABBICEC@?$AAi?$AAd?$AA?9?$AAi?$AAd?$AA?$AA@ 0044aa24     libucrt:lcidtoname_downlevel.obj
 0002:0000ca30       ??_C@_1M@BIKNHHPF@?$AAi?$AAs?$AA?9?$AAi?$AAs?$AA?$AA@ 0044aa30     libucrt:lcidtoname_downlevel.obj
 0002:0000ca3c       ??_C@_1M@NMPCJPHE@?$AAi?$AAt?$AA?9?$AAc?$AAh?$AA?$AA@ 0044aa3c     libucrt:lcidtoname_downlevel.obj
 0002:0000ca48       ??_C@_1M@GHKGFEDF@?$AAi?$AAt?$AA?9?$AAi?$AAt?$AA?$AA@ 0044aa48     libucrt:lcidtoname_downlevel.obj
 0002:0000ca54       ??_C@_1M@NIEJCJJA@?$AAj?$AAa?$AA?9?$AAj?$AAp?$AA?$AA@ 0044aa54     libucrt:lcidtoname_downlevel.obj
 0002:0000ca60       ??_C@_1M@JILFNBIM@?$AAk?$AAa?$AA?9?$AAg?$AAe?$AA?$AA@ 0044aa60     libucrt:lcidtoname_downlevel.obj
 0002:0000ca6c       ??_C@_1M@PACPMGPH@?$AAk?$AAk?$AA?9?$AAk?$AAz?$AA?$AA@ 0044aa6c     libucrt:lcidtoname_downlevel.obj
 0002:0000ca78       ??_C@_1M@IELFGMHA@?$AAk?$AAn?$AA?9?$AAi?$AAn?$AA?$AA@ 0044aa78     libucrt:lcidtoname_downlevel.obj
 0002:0000ca84       ??_C@_1O@IBBJHCH@?$AAk?$AAo?$AAk?$AA?9?$AAi?$AAn?$AA?$AA@ 0044aa84     libucrt:lcidtoname_downlevel.obj
 0002:0000ca94       ??_C@_1M@DMHAEOGC@?$AAk?$AAo?$AA?9?$AAk?$AAr?$AA?$AA@ 0044aa94     libucrt:lcidtoname_downlevel.obj
 0002:0000caa0       ??_C@_1M@HBAHBIGA@?$AAk?$AAy?$AA?9?$AAk?$AAg?$AA?$AA@ 0044aaa0     libucrt:lcidtoname_downlevel.obj
 0002:0000caac       ??_C@_1M@KPMILCJG@?$AAl?$AAt?$AA?9?$AAl?$AAt?$AA?$AA@ 0044aaac     libucrt:lcidtoname_downlevel.obj
 0002:0000cab8       ??_C@_1M@BDEKKCA@?$AAl?$AAv?$AA?9?$AAl?$AAv?$AA?$AA@ 0044aab8     libucrt:lcidtoname_downlevel.obj
 0002:0000cac4       ??_C@_1M@ELCKCCJJ@?$AAm?$AAi?$AA?9?$AAn?$AAz?$AA?$AA@ 0044aac4     libucrt:lcidtoname_downlevel.obj
 0002:0000cad0       ??_C@_1M@CBOOLAPA@?$AAm?$AAk?$AA?9?$AAm?$AAk?$AA?$AA@ 0044aad0     libucrt:lcidtoname_downlevel.obj
 0002:0000cadc       ??_C@_1M@GPHNBJKN@?$AAm?$AAl?$AA?9?$AAi?$AAn?$AA?$AA@ 0044aadc     libucrt:lcidtoname_downlevel.obj
 0002:0000cae8       ??_C@_1M@PABJILIG@?$AAm?$AAn?$AA?9?$AAm?$AAn?$AA?$AA@ 0044aae8     libucrt:lcidtoname_downlevel.obj
 0002:0000caf4       ??_C@_1M@FGBKKIPG@?$AAm?$AAr?$AA?9?$AAi?$AAn?$AA?$AA@ 0044aaf4     libucrt:lcidtoname_downlevel.obj
 0002:0000cb00       ??_C@_1M@NDBPDDAL@?$AAm?$AAs?$AA?9?$AAb?$AAn?$AA?$AA@ 0044ab00     libucrt:lcidtoname_downlevel.obj
 0002:0000cb0c       ??_C@_1M@OPIHOOPI@?$AAm?$AAs?$AA?9?$AAm?$AAy?$AA?$AA@ 0044ab0c     libucrt:lcidtoname_downlevel.obj
 0002:0000cb18       ??_C@_1M@PPDBCNFM@?$AAm?$AAt?$AA?9?$AAm?$AAt?$AA?$AA@ 0044ab18     libucrt:lcidtoname_downlevel.obj
 0002:0000cb24       ??_C@_1M@KDJDKMDD@?$AAn?$AAb?$AA?9?$AAn?$AAo?$AA?$AA@ 0044ab24     libucrt:lcidtoname_downlevel.obj
 0002:0000cb30       ??_C@_1M@KFCFLMJP@?$AAn?$AAl?$AA?9?$AAb?$AAe?$AA?$AA@ 0044ab30     libucrt:lcidtoname_downlevel.obj
 0002:0000cb3c       ??_C@_1M@KPOPDDGO@?$AAn?$AAl?$AA?9?$AAn?$AAl?$AA?$AA@ 0044ab3c     libucrt:lcidtoname_downlevel.obj
 0002:0000cb48       ??_C@_1M@LJKPEMLN@?$AAn?$AAn?$AA?9?$AAn?$AAo?$AA?$AA@ 0044ab48     libucrt:lcidtoname_downlevel.obj
 0002:0000cb54       ??_C@_1M@BDGHHBFL@?$AAn?$AAs?$AA?9?$AAz?$AAa?$AA?$AA@ 0044ab54     libucrt:lcidtoname_downlevel.obj
 0002:0000cb60       ??_C@_1M@IDEHOAP@?$AAp?$AAa?$AA?9?$AAi?$AAn?$AA?$AA@ 0044ab60     libucrt:lcidtoname_downlevel.obj
 0002:0000cb6c       ??_C@_1M@HDBKGOGH@?$AAp?$AAl?$AA?9?$AAp?$AAl?$AA?$AA@ 0044ab6c     libucrt:lcidtoname_downlevel.obj
 0002:0000cb78       ??_C@_1M@LJLLCMEH@?$AAp?$AAt?$AA?9?$AAb?$AAr?$AA?$AA@ 0044ab78     libucrt:lcidtoname_downlevel.obj
 0002:0000cb84       ??_C@_1M@NCMONAAL@?$AAp?$AAt?$AA?9?$AAp?$AAt?$AA?$AA@ 0044ab84     libucrt:lcidtoname_downlevel.obj
 0002:0000cb90       ??_C@_1O@EAKMAJDN@?$AAq?$AAu?$AAz?$AA?9?$AAb?$AAo?$AA?$AA@ 0044ab90     libucrt:lcidtoname_downlevel.obj
 0002:0000cba0       ??_C@_1O@BHHPIGDN@?$AAq?$AAu?$AAz?$AA?9?$AAe?$AAc?$AA?$AA@ 0044aba0     libucrt:lcidtoname_downlevel.obj
 0002:0000cbb0       ??_C@_1O@GBAPEKMJ@?$AAq?$AAu?$AAz?$AA?9?$AAp?$AAe?$AA?$AA@ 0044abb0     libucrt:lcidtoname_downlevel.obj
 0002:0000cbc0       ??_C@_1M@CLGLEFBO@?$AAr?$AAo?$AA?9?$AAr?$AAo?$AA?$AA@ 0044abc0     libucrt:lcidtoname_downlevel.obj
 0002:0000cbcc       ??_C@_1M@CEEDODME@?$AAr?$AAu?$AA?9?$AAr?$AAu?$AA?$AA@ 0044abcc     libucrt:lcidtoname_downlevel.obj
 0002:0000cbd8       ??_C@_1M@HPKKKMPP@?$AAs?$AAa?$AA?9?$AAi?$AAn?$AA?$AA@ 0044abd8     libucrt:lcidtoname_downlevel.obj
 0002:0000cbe4       ??_C@_1M@BKMAIGOJ@?$AAs?$AAe?$AA?9?$AAf?$AAi?$AA?$AA@ 0044abe4     libucrt:lcidtoname_downlevel.obj
 0002:0000cbf0       ??_C@_1M@NDPIFLFI@?$AAs?$AAe?$AA?9?$AAn?$AAo?$AA?$AA@ 0044abf0     libucrt:lcidtoname_downlevel.obj
 0002:0000cbfc       ??_C@_1M@DANKKHJ@?$AAs?$AAe?$AA?9?$AAs?$AAe?$AA?$AA@ 0044abfc     libucrt:lcidtoname_downlevel.obj
 0002:0000cc08       ??_C@_1M@PNBLONPJ@?$AAs?$AAk?$AA?9?$AAs?$AAk?$AA?$AA@ 0044ac08     libucrt:lcidtoname_downlevel.obj
 0002:0000cc14       ??_C@_1M@LFMODOAL@?$AAs?$AAl?$AA?9?$AAs?$AAi?$AA?$AA@ 0044ac14     libucrt:lcidtoname_downlevel.obj
 0002:0000cc20       ??_C@_1O@DFKOMPG@?$AAs?$AAm?$AAa?$AA?9?$AAn?$AAo?$AA?$AA@ 0044ac20     libucrt:lcidtoname_downlevel.obj
 0002:0000cc30       ??_C@_1O@NDKPBNNH@?$AAs?$AAm?$AAa?$AA?9?$AAs?$AAe?$AA?$AA@ 0044ac30     libucrt:lcidtoname_downlevel.obj
 0002:0000cc40       ??_C@_1O@PLLKBHAB@?$AAs?$AAm?$AAj?$AA?9?$AAn?$AAo?$AA?$AA@ 0044ac40     libucrt:lcidtoname_downlevel.obj
 0002:0000cc50       ??_C@_1O@CLEPOGCA@?$AAs?$AAm?$AAj?$AA?9?$AAs?$AAe?$AA?$AA@ 0044ac50     libucrt:lcidtoname_downlevel.obj
 0002:0000cc60       ??_C@_1O@DLGJGKMK@?$AAs?$AAm?$AAn?$AA?9?$AAf?$AAi?$AA?$AA@ 0044ac60     libucrt:lcidtoname_downlevel.obj
 0002:0000cc70       ??_C@_1O@OJDJGAJC@?$AAs?$AAm?$AAs?$AA?9?$AAf?$AAi?$AA?$AA@ 0044ac70     libucrt:lcidtoname_downlevel.obj
 0002:0000cc80       ??_C@_1M@BOFOGHPB@?$AAs?$AAq?$AA?9?$AAa?$AAl?$AA?$AA@ 0044ac80     libucrt:lcidtoname_downlevel.obj
 0002:0000cc8c       ??_C@_1BG@LJBBIPGB@?$AAs?$AAr?$AA?9?$AAb?$AAa?$AA?9?$AAc?$AAy?$AAr?$AAl?$AA?$AA@ 0044ac8c     libucrt:lcidtoname_downlevel.obj
 0002:0000cca4       ??_C@_1BG@JLBENFOE@?$AAs?$AAr?$AA?9?$AAb?$AAa?$AA?9?$AAl?$AAa?$AAt?$AAn?$AA?$AA@ 0044aca4     libucrt:lcidtoname_downlevel.obj
 0002:0000ccbc       ??_C@_1BG@KODPNHE@?$AAs?$AAr?$AA?9?$AAs?$AAp?$AA?9?$AAc?$AAy?$AAr?$AAl?$AA?$AA@ 0044acbc     libucrt:lcidtoname_downlevel.obj
 0002:0000ccd4       ??_C@_1BG@CIOGKHPB@?$AAs?$AAr?$AA?9?$AAs?$AAp?$AA?9?$AAl?$AAa?$AAt?$AAn?$AA?$AA@ 0044acd4     libucrt:lcidtoname_downlevel.obj
 0002:0000ccec       ??_C@_1M@NGFJLMAC@?$AAs?$AAv?$AA?9?$AAf?$AAi?$AA?$AA@ 0044acec     libucrt:lcidtoname_downlevel.obj
 0002:0000ccf8       ??_C@_1M@MPJEJAJC@?$AAs?$AAv?$AA?9?$AAs?$AAe?$AA?$AA@ 0044acf8     libucrt:lcidtoname_downlevel.obj
 0002:0000cd04       ??_C@_1M@MPNDHLFK@?$AAs?$AAw?$AA?9?$AAk?$AAe?$AA?$AA@ 0044ad04     libucrt:lcidtoname_downlevel.obj
 0002:0000cd10       ??_C@_1O@KOHBJJI@?$AAs?$AAy?$AAr?$AA?9?$AAs?$AAy?$AA?$AA@ 0044ad10     libucrt:lcidtoname_downlevel.obj
 0002:0000cd20       ??_C@_1M@LDCEFHA@?$AAt?$AAa?$AA?9?$AAi?$AAn?$AA?$AA@ 0044ad20     libucrt:lcidtoname_downlevel.obj
 0002:0000cd2c       ??_C@_1M@CNJOFAK@?$AAt?$AAe?$AA?9?$AAi?$AAn?$AA?$AA@ 0044ad2c     libucrt:lcidtoname_downlevel.obj
 0002:0000cd38       ??_C@_1M@GNAECACD@?$AAt?$AAh?$AA?9?$AAt?$AAh?$AA?$AA@ 0044ad38     libucrt:lcidtoname_downlevel.obj
 0002:0000cd44       ??_C@_1M@CHBIHOJO@?$AAt?$AAn?$AA?9?$AAz?$AAa?$AA?$AA@ 0044ad44     libucrt:lcidtoname_downlevel.obj
 0002:0000cd50       ??_C@_1M@GCCMIGPJ@?$AAt?$AAr?$AA?9?$AAt?$AAr?$AA?$AA@ 0044ad50     libucrt:lcidtoname_downlevel.obj
 0002:0000cd5c       ??_C@_1M@CELMCNBK@?$AAt?$AAt?$AA?9?$AAr?$AAu?$AA?$AA@ 0044ad5c     libucrt:lcidtoname_downlevel.obj
 0002:0000cd68       ??_C@_1M@KLMCELGA@?$AAu?$AAk?$AA?9?$AAu?$AAa?$AA?$AA@ 0044ad68     libucrt:lcidtoname_downlevel.obj
 0002:0000cd74       ??_C@_1M@EPAJJAJF@?$AAu?$AAr?$AA?9?$AAp?$AAk?$AA?$AA@ 0044ad74     libucrt:lcidtoname_downlevel.obj
 0002:0000cd80       ??_C@_1BG@GEGPMCDJ@?$AAu?$AAz?$AA?9?$AAu?$AAz?$AA?9?$AAc?$AAy?$AAr?$AAl?$AA?$AA@ 0044ad80     libucrt:lcidtoname_downlevel.obj
 0002:0000cd98       ??_C@_1BG@EGGKJILM@?$AAu?$AAz?$AA?9?$AAu?$AAz?$AA?9?$AAl?$AAa?$AAt?$AAn?$AA?$AA@ 0044ad98     libucrt:lcidtoname_downlevel.obj
 0002:0000cdb0       ??_C@_1M@GFOCLFF@?$AAv?$AAi?$AA?9?$AAv?$AAn?$AA?$AA@ 0044adb0     libucrt:lcidtoname_downlevel.obj
 0002:0000cdbc       ??_C@_1M@CPAMEDFI@?$AAx?$AAh?$AA?9?$AAz?$AAa?$AA?$AA@ 0044adbc     libucrt:lcidtoname_downlevel.obj
 0002:0000cdc8       ??_C@_1O@EBKIFIGN@?$AAz?$AAh?$AA?9?$AAc?$AAh?$AAs?$AA?$AA@ 0044adc8     libucrt:lcidtoname_downlevel.obj
 0002:0000cdd8       ??_C@_1O@NMHPGANE@?$AAz?$AAh?$AA?9?$AAc?$AAh?$AAt?$AA?$AA@ 0044add8     libucrt:lcidtoname_downlevel.obj
 0002:0000cde8       ??_C@_1M@LPINJOMC@?$AAz?$AAh?$AA?9?$AAc?$AAn?$AA?$AA@ 0044ade8     libucrt:lcidtoname_downlevel.obj
 0002:0000cdf4       ??_C@_1M@OCJEJODD@?$AAz?$AAh?$AA?9?$AAh?$AAk?$AA?$AA@ 0044adf4     libucrt:lcidtoname_downlevel.obj
 0002:0000ce00       ??_C@_1M@DNDLJINH@?$AAz?$AAh?$AA?9?$AAm?$AAo?$AA?$AA@ 0044ae00     libucrt:lcidtoname_downlevel.obj
 0002:0000ce0c       ??_C@_1M@MBFDNDND@?$AAz?$AAh?$AA?9?$AAs?$AAg?$AA?$AA@ 0044ae0c     libucrt:lcidtoname_downlevel.obj
 0002:0000ce18       ??_C@_1M@IMEPLEPE@?$AAz?$AAh?$AA?9?$AAt?$AAw?$AA?$AA@ 0044ae18     libucrt:lcidtoname_downlevel.obj
 0002:0000ce24       ??_C@_1M@BBGHNHJP@?$AAz?$AAu?$AA?9?$AAz?$AAa?$AA?$AA@ 0044ae24     libucrt:lcidtoname_downlevel.obj
 0002:0000cea8       ??_C@_1BA@BALFACEM@?$AAC?$AAO?$AAN?$AAO?$AAU?$AAT?$AA$?$AA?$AA@ 0044aea8     libucrt:initcon.obj
 0002:0000cfc0       __infinity                 0044afc0     libucrt:87tran.obj
 0002:0000cfca       __minfinity                0044afca     libucrt:87tran.obj
 0002:0000cfd4       __logemax                  0044afd4     libucrt:87tran.obj
 0002:0000cffa       __OP_EXPjmptab             0044affa     libucrt:87tran.obj
 0002:0000d020       __indefinite               0044b020     libucrt:87disp.obj
 0002:0000d02a       __piby2                    0044b02a     libucrt:87disp.obj
 0002:0000d034       __piby4                    0044b034     libucrt:87disp.obj
 0002:0000d068       __DEFAULT_CW_in_mem        0044b068     libucrt:common.obj
 0002:0000d06a       __pi_by_2_to_61            0044b06a     libucrt:common.obj
 0002:0000d0a4       ??_C@_03MGHMBJCF@log?$AA@  0044b0a4     libucrt:libm_error.obj
 0002:0000d0a8       ??_C@_05HGHHAHAP@log10?$AA@ 0044b0a8     libucrt:libm_error.obj
 0002:0000d0b0       ??_C@_03KHJOGHMM@exp?$AA@  0044b0b0     libucrt:libm_error.obj
 0002:0000d0b4       ??_C@_03JGHBODFD@pow?$AA@  0044b0b4     libucrt:libm_error.obj
 0002:0000d0b8       ??_C@_04FIHNOPOL@asin?$AA@ 0044b0b8     libucrt:libm_error.obj
 0002:0000d0c0       ??_C@_04PDIFKINK@acos?$AA@ 0044b0c0     libucrt:libm_error.obj
 0002:0000d0c8       ??_C@_04EIAKFFMI@sqrt?$AA@ 0044b0c8     libucrt:libm_error.obj
 0002:0000d0d0       __real@3ff0000000000000    0044b0d0     libucrt:libm_error.obj
 0002:0000d0e0       ___acrt_log10_table_t      0044b0e0     libucrt:log10_tables.obj
 0002:0000d4f0       ___acrt_log10_table_cb     0044b4f0     libucrt:log10_tables.obj
 0002:0000d900       __real@3fe0000000000000    0044b900     libucrt:powhlp.obj
 0002:0000d908       ??_C@_04FJHINJAO@tanh?$AA@ 0044b908     libucrt:fpexcept.obj
 0002:0000d910       ??_C@_04MLLJIGOK@atan?$AA@ 0044b910     libucrt:fpexcept.obj
 0002:0000d918       ??_C@_05KNGEOGJB@atan2?$AA@ 0044b918     libucrt:fpexcept.obj
 0002:0000d920       ??_C@_03BLEJJJBH@sin?$AA@  0044b920     libucrt:fpexcept.obj
 0002:0000d924       ??_C@_03LALBNOCG@cos?$AA@  0044b924     libucrt:fpexcept.obj
 0002:0000d928       ??_C@_03IIINPABG@tan?$AA@  0044b928     libucrt:fpexcept.obj
 0002:0000d92c       ??_C@_04GFPJNGEK@ceil?$AA@ 0044b92c     libucrt:fpexcept.obj
 0002:0000d934       ??_C@_05PBJFFIGL@floor?$AA@ 0044b934     libucrt:fpexcept.obj
 0002:0000d93c       ??_C@_04ODHECPBC@fabs?$AA@ 0044b93c     libucrt:fpexcept.obj
 0002:0000d944       ??_C@_04EHEDPDJG@modf?$AA@ 0044b944     libucrt:fpexcept.obj
 0002:0000d94c       ??_C@_05CEJMAHNP@ldexp?$AA@ 0044b94c     libucrt:fpexcept.obj
 0002:0000d954       ??_C@_05KBKMEMPO@_cabs?$AA@ 0044b954     libucrt:fpexcept.obj
 0002:0000d95c       ??_C@_06MEIMCGCF@_hypot?$AA@ 0044b95c     libucrt:fpexcept.obj
 0002:0000d964       ??_C@_04KEPJIHGP@fmod?$AA@ 0044b964     libucrt:fpexcept.obj
 0002:0000d96c       ??_C@_05GKKHEGJL@frexp?$AA@ 0044b96c     libucrt:fpexcept.obj
 0002:0000d974       ??_C@_03MJLDFKDL@_y0?$AA@  0044b974     libucrt:fpexcept.obj
 0002:0000d978       ??_C@_03NAKIGLHK@_y1?$AA@  0044b978     libucrt:fpexcept.obj
 0002:0000d97c       ??_C@_03ONILCKOB@_yn?$AA@  0044b97c     libucrt:fpexcept.obj
 0002:0000d980       ??_C@_05JGDBENOH@_logb?$AA@ 0044b980     libucrt:fpexcept.obj
 0002:0000d988       ??_C@_0L@KDOEJCKC@_nextafter?$AA@ 0044b988     libucrt:fpexcept.obj
 0002:0000da80       ??_C@_04COOMCNPB@sinh?$AA@ 0044ba80     libucrt:fpexcept.obj
 0002:0000da88       ??_C@_04HPJJNFIM@cosh?$AA@ 0044ba88     libucrt:fpexcept.obj
 0002:0000da90       __d_inf                    0044ba90     libucrt:util.obj
 0002:0000da98       __d_max                    0044ba98     libucrt:util.obj
 0002:0000daa0       __d_mzero                  0044baa0     libucrt:util.obj
 0002:0000dad0       __load_config_used         0044bad0     LIBCMT:loadcfg.obj
 0002:0000db30       ___safe_se_handler_table   0044bb30     <linker-defined>
 0002:0000ddf4       ___rtc_iaa                 0044bdf4     LIBCMT:_initsect_.obj
 0002:0000ddf8       ___rtc_izz                 0044bdf8     LIBCMT:_initsect_.obj
 0002:0000ddfc       ___rtc_taa                 0044bdfc     LIBCMT:_initsect_.obj
 0002:0000de00       ___rtc_tzz                 0044be00     LIBCMT:_initsect_.obj
 0002:0000e414       __IMPORT_DESCRIPTOR_ADVAPI32 0044c414     advapi32:ADVAPI32.dll
 0002:0000e428       __IMPORT_DESCRIPTOR_COMDLG32 0044c428     comdlg32:COMDLG32.dll
 0002:0000e43c       __IMPORT_DESCRIPTOR_SHELL32 0044c43c     shell32:SHELL32.dll
 0002:0000e450       __IMPORT_DESCRIPTOR_USER32 0044c450     user32:USER32.dll
 0002:0000e464       __IMPORT_DESCRIPTOR_KERNEL32 0044c464     kernel32:KERNEL32.dll
 0002:0000e478       __NULL_IMPORT_DESCRIPTOR   0044c478     advapi32:ADVAPI32.dll
 0003:0000063c       ___security_cookie_complement 0044e63c     LIBCMT:gs_cookie.obj
 0003:00000640       ___security_cookie         0044e640     LIBCMT:gs_cookie.obj
 0003:00000650       ___scrt_native_dllmain_reason 0044e650     LIBCMT:utility.obj
 0003:00000654       ___scrt_default_matherr    0044e654     LIBCMT:matherr.obj
 0003:00000660       ___isa_enabled             0044e660     LIBCMT:_cpu_disp_.obj
 0003:00000680       __NLG_Destination          0044e680     libvcruntime:_exsup_.obj
 0003:00000690       ___abort_behavior          0044e690     libucrt:abort.obj
 0003:000006a8       __iob                      0044e6a8     libucrt:_file.obj
 0003:00000750       ___badioinfo               0044e750     libucrt:ioinit.obj
 0003:00000788       ___acrt_initial_locale_data 0044e788     libucrt:nlsdata.obj
 0003:00000840       ___acrt_initial_locale_pointers 0044e840     libucrt:nlsdata.obj
 0003:00000848       ___acrt_wide_c_locale_string 0044e848     libucrt:nlsdata.obj
 0003:0000084c       __pwctype                  0044e84c     libucrt:ctype.obj
 0003:00000850       __lookuptrailbytes         0044e850     libucrt:read.obj
 0003:00000950       ___globallocalestatus      0044e950     libucrt:glstatus.obj
 0003:00000a48       __mbctype                  0044ea48     libucrt:mbctype.obj
 0003:00000b50       __mbcasemap                0044eb50     libucrt:mbctype.obj
 0003:00000c50       ___acrt_initial_multibyte_data 0044ec50     libucrt:mbctype.obj
 0003:00000e70       ___acrt_current_multibyte_data 0044ee70     libucrt:mbctype.obj
 0003:00000e74       ___acrt_lconv_static_decimal 0044ee74     libucrt:localeconv.obj
 0003:00000e78       ___acrt_lconv_static_W_decimal 0044ee78     libucrt:localeconv.obj
 0003:00000e80       ___acrt_lconv_c            0044ee80     libucrt:localeconv.obj
 0003:00000f80       ___dcrt_lowio_console_output_handle 0044ef80     libucrt:initcon.obj
 0003:00000f90       __fltused                  0044ef90     LIBCMT:fltused.obj
 0003:0000437c       _ssh2_wrong_passphrase     0045237c     sshpubk.obj
 0003:00004384       _random_active             00452384     sshrand.obj
 0003:000047ac       ___scrt_current_native_startup_state 004527ac     LIBCMT:utility.obj
 0003:000047b0       ___scrt_native_startup_lock 004527b0     LIBCMT:utility.obj
 0003:000047d0       ?__type_info_root_node@@3U__type_info_node@@A 004527d0     LIBCMT:tncleanup.obj
 0003:000047d8       ___scrt_debugger_hook_flag 004527d8     LIBCMT:utility_desktop.obj
 0003:000047dc       ___isa_available           004527dc     LIBCMT:_cpu_disp_.obj
 0003:000047e0       ___favor                   004527e0     LIBCMT:_cpu_disp_.obj
 0003:0000485c       ___pPurecall               0045285c     libvcruntime:purevirt_data.obj
 0003:00004860       ?pArgList@UnDecorator@@0PAVReplicator@@A 00452860     libvcruntime:undname.obj
 0003:00004864       ?pZNameList@UnDecorator@@0PAVReplicator@@A 00452864     libvcruntime:undname.obj
 0003:00004868       ?pTemplateArgList@UnDecorator@@0PAVReplicator@@A 00452868     libvcruntime:undname.obj
 0003:0000486c       ?gName@UnDecorator@@0PBDB  0045286c     libvcruntime:undname.obj
 0003:00004870       ?name@UnDecorator@@0PBDB   00452870     libvcruntime:undname.obj
 0003:00004874       ?outputString@UnDecorator@@0PADA 00452874     libvcruntime:undname.obj
 0003:00004878       ?maxStringLength@UnDecorator@@0HA 00452878     libvcruntime:undname.obj
 0003:0000487c       ?disableFlags@UnDecorator@@0KA 0045287c     libvcruntime:undname.obj
 0003:00004880       ?fExplicitTemplateParams@UnDecorator@@0_NA 00452880     libvcruntime:undname.obj
 0003:00004881       ?fGetTemplateArgumentList@UnDecorator@@0_NA 00452881     libvcruntime:undname.obj
 0003:00004884       ?m_pGetParameter@UnDecorator@@0P6APADJ@ZA 00452884     libvcruntime:undname.obj
 0003:000049b8       __environ_table            004529b8     libucrt:environment_initialization.obj
 0003:000049bc       __wenviron_table           004529bc     libucrt:environment_initialization.obj
 0003:000049c0       ___dcrt_initial_wide_environment 004529c0     libucrt:environment_initialization.obj
 0003:000049c4       ___dcrt_initial_narrow_environment 004529c4     libucrt:environment_initialization.obj
 0003:000049cc       ___acrt_locale_changed_data 004529cc     libucrt:wsetlocale.obj
 0003:000049d4       __commode                  004529d4     libucrt:ncommode.obj
 0003:000049d8       ___acrt_atexit_table       004529d8     libucrt:onexit.obj
 0003:000049e4       ___acrt_at_quick_exit_table 004529e4     libucrt:onexit.obj
 0003:000049f8       __nstream                  004529f8     libucrt:_file.obj
 0003:000049fc       ___piob                    004529fc     libucrt:_file.obj
 0003:00004a00       __cflush                   00452a00     libucrt:_file.obj
 0003:00004a14       ___acrt_stdout_buffer      00452a14     libucrt:_sftbuf.obj
 0003:00004a18       ___acrt_stderr_buffer      00452a18     libucrt:_sftbuf.obj
 0003:00004a20       ___pioinfo                 00452a20     libucrt:ioinit.obj
 0003:00004c20       __nhandle                  00452c20     libucrt:ioinit.obj
 0003:00004c28       ___acrt_current_locale_data 00452c28     libucrt:nlsdata.obj
 0003:00004e44       ___mblocalename            00452e44     libucrt:mbctype.obj
 0003:00004e48       ___mbcodepage              00452e48     libucrt:mbctype.obj
 0003:00004e4c       ___ismbcodepage            00452e4c     libucrt:mbctype.obj
 0003:00004e50       ___mbulinfo                00452e50     libucrt:mbctype.obj
 0003:00004e64       ___argc                    00452e64     libucrt:argv_data.obj
 0003:00004e68       ___argv                    00452e68     libucrt:argv_data.obj
 0003:00004e6c       ___wargv                   00452e6c     libucrt:argv_data.obj
 0003:00004e70       __acmdln                   00452e70     libucrt:argv_data.obj
 0003:00004e74       __wcmdln                   00452e74     libucrt:argv_data.obj
 0003:00004e78       __pgmptr                   00452e78     libucrt:argv_data.obj
 0003:00004e7c       __fmode                    00452e7c     libucrt:txtmode.obj
 0003:00004e80       ___acrt_lconv_static_null  00452e80     libucrt:localeconv.obj
 0003:00004e84       ___acrt_lconv_static_W_null 00452e84     libucrt:localeconv.obj
 0003:00004e88       ___acrt_heap               00452e88     libucrt:heap_handle.obj
 0003:00004e90       ?_timezone@@3V?$dual_state_global@J@__crt_state_management@@A 00452e90     libucrt:timeset.obj
 0003:00004e94       ?_daylight@@3V?$dual_state_global@H@__crt_state_management@@A 00452e94     libucrt:timeset.obj
 0003:00004e98       ?_dstbias@@3V?$dual_state_global@J@__crt_state_management@@A 00452e98     libucrt:timeset.obj
 0003:00004f60       __umaskval                 00452f60     libucrt:umask.obj
 0003:00004f64       ___fastflag                00452f64     libucrt:fp_flags.obj
 0003:00004f6c       _p_SetEntriesInAclA        00452f6c     <common>
 0003:00004f70       _p_SetSecurityInfo         00452f70     <common>
 0003:00004f74       _p_GetSecurityInfo         00452f74     <common>
 0003:00004f78       _p_SetSecurityDescriptorOwner 00452f78     <common>
 0003:00004f7c       _p_InitializeSecurityDescriptor 00452f7c     <common>
 0003:00004f80       _p_GetTokenInformation     00452f80     <common>
 0003:00004f84       _p_OpenProcessToken        00452f84     <common>
 0003:00004f88       _hinst                     00452f88     <common>
 0003:00004f8c       _hwnd                      00452f8c     <common>
 0003:00004f90       ?_OptionsStorage@?1??__local_stdio_scanf_options@@9@9 00452f90     <common>
 0003:00004f98       ?_OptionsStorage@?1??__local_stdio_printf_options@@9@9 00452f98     <common>
 0003:00004fa0       ___scrt_ucrt_dll_is_in_use 00452fa0     <common>
 0003:00004fa4       ___dyn_tls_dtor_callback   00452fa4     <common>
 0003:00004fa8       ___dyn_tls_init_callback   00452fa8     <common>
 0003:00004fac       __pDestructExceptionObject 00452fac     <common>
 0003:00004fb0       __pmatherr                 00452fb0     <common>
 0003:00004fb4       ___use_sse2_mathfcns       00452fb4     <common>

 entry point at        0001:0001e04e

 Static symbols

 0002:fffc2000       .idata$6                   00400000     gdi32:GDI32.dll
 0001:00000226       _ecc_edwards_cond_overwrite 00401226 f   ecc.obj
 0001:00000279       _ecc_edwards_cond_swap     00401279 f   ecc.obj
 0001:0000059e       _ecc_edwards_point_new_empty 0040159e f   ecc.obj
 0001:0000070a       _ecc_edwards_point_new_imported 0040170a f   ecc.obj
 0001:0000074b       _ecc_montgomery_cond_overwrite 0040174b f   ecc.obj
 0001:0000077c       _ecc_montgomery_cond_swap  0040177c f   ecc.obj
 0001:00000cec       _ecc_montgomery_point_new_empty 00401cec f   ecc.obj
 0001:00000f5a       _ecc_weierstrass_add_prologue 00401f5a f   ecc.obj
 0001:00001093       _ecc_weierstrass_cond_overwrite 00402093 f   ecc.obj
 0001:000010d5       _ecc_weierstrass_cond_swap 004020d5 f   ecc.obj
 0001:00001161       _ecc_weierstrass_epilogue  00402161 f   ecc.obj
 0001:000013e9       _ecc_weierstrass_normalise 004023e9 f   ecc.obj
 0001:00001503       _ecc_weierstrass_point_new_empty 00402503 f   ecc.obj
 0001:0000166a       _ecc_weierstrass_point_new_imported 0040266a f   ecc.obj
 0001:000017e1       _ecc_weierstrass_select_into 004027e1 f   ecc.obj
 0001:00001828       _ecc_weierstrass_tangent_slope 00402828 f   ecc.obj
 0001:000018fc       _projective_eq             004028fc f   ecc.obj
 0001:00001941       _BinarySink_put_ber_id_len 00402941 f   import.obj
 0001:00001ae3       _BinarySource_get_ber      00402ae3 f   import.obj
 0001:00001b7b       _BinarySource_get_mp_sshcom_as_string 00402b7b f   import.obj
 0001:00001d54       _load_openssh_new_key      00402d54 f   import.obj
 0001:0000210e       _load_openssh_pem_key      0040310e f   import.obj
 0001:0000252e       _load_sshcom_key           0040352e f   import.obj
 0001:00002889       _openssh_auto_write        00403889 f   import.obj
 0001:000028d8       _openssh_new_encrypted     004038d8 f   import.obj
 0001:00002914       _openssh_new_read          00403914 f   import.obj
 0001:00002bd7       _openssh_new_write         00403bd7 f   import.obj
 0001:00002e52       _openssh_pem_derivekey     00403e52 f   import.obj
 0001:00002ecf       _openssh_pem_read          00403ecf f   import.obj
 0001:000034ec       _openssh_pem_write         004044ec f   import.obj
 0001:00003d28       _sshcom_derivekey          00404d28 f   import.obj
 0001:00003d73       _sshcom_encrypted          00404d73 f   import.obj
 0001:00003e40       _sshcom_read               00404e40 f   import.obj
 0001:0000431e       _sshcom_write              0040531e f   import.obj
 0001:00004aac       _BinarySource_data_avail   00405aac f   marshal.obj
 0001:00005645       _monty_reduce              00406645 f   mpint.obj
 0001:00005681       _monty_reduce_internal     00406681 f   mpint.obj
 0001:000057ec       _mp_add_integer_into_shifted_by_words 004067ec f   mpint.obj
 0001:000058cf       _mp_add_masked_integer_into 004068cf f   mpint.obj
 0001:0000592c       _mp_add_masked_into        0040692c f   mpint.obj
 0001:00005984       _mp_alloc_from_scratch     00406984 f   mpint.obj
 0001:000059ce       _mp_bezout_into            004069ce f   mpint.obj
 0001:0000640b       _mp_find_highest_nonzero_word_pair 0040740b f   mpint.obj
 0001:00006533       _mp_from_bytes_int         00407533 f   mpint.obj
 0001:00006979       _mp_get_hex_internal       00407979 f   mpint.obj
 0001:00006e85       _mp_make_sized             00407e85 f   mpint.obj
 0001:000070a1       _mp_mul_add_simple         004080a1 f   mpint.obj
 0001:000071ea       _mp_mul_internal           004081ea f   mpint.obj
 0001:00007941       _mp_word                   00408941 f   mpint.obj
 0001:00007957       _recip_approx_32           00408957 f   mpint.obj
 0001:00007a24       _trim_leading_zeroes       00408a24 f   mpint.obj
 0001:00007ab5       _ec_signkey_invalid        00408ab5 f   sshecc.obj
 0001:00007ab5       _dss_invalid               00408ab5 f   sshdss.obj
 0001:00007ab8       _aes256_cbc_hw_encrypt     00408ab8 f   sshaes.obj
 0001:00007ad2       _aes256_cbc_hw_decrypt     00408ad2 f   sshaes.obj
 0001:00007aec       _aes256_sdctr_hw           00408aec f   sshaes.obj
 0001:00007b06       _aes_select                00408b06 f   sshaes.obj
 0001:00007b22       _aes_sw_new                00408b22 f   sshaes.obj
 0001:00007b3f       _aes_sw_free               00408b3f f   sshaes.obj
 0001:00007b60       _aes_sw_setiv_cbc          00408b60 f   sshaes.obj
 0001:00007b77       _aes_sw_setiv_sdctr        00408b77 f   sshaes.obj
 0001:00007bc6       _aes_sw_setkey             00408bc6 f   sshaes.obj
 0001:00007be7       _aes_hw_new                00408be7 f   sshaes.obj
 0001:00007c21       _aes_hw_free               00408c21 f   sshaes.obj
 0001:00007c47       _aes_hw_setiv_cbc          00408c47 f   sshaes.obj
 0001:00007c57       _aes_hw_setiv_sdctr        00408c57 f   sshaes.obj
 0001:00007c70       _aes_hw_setkey             00408c70 f   sshaes.obj
 0001:00007ca2       _aes128_cbc_hw_encrypt     00408ca2 f   sshaes.obj
 0001:00007cbc       _aes128_cbc_hw_decrypt     00408cbc f   sshaes.obj
 0001:00007cd6       _aes128_sdctr_hw           00408cd6 f   sshaes.obj
 0001:00007cf0       _aes192_cbc_sw_encrypt     00408cf0 f   sshaes.obj
 0001:00007cf0       _aes256_cbc_sw_encrypt     00408cf0 f   sshaes.obj
 0001:00007cf0       _aes128_cbc_sw_encrypt     00408cf0 f   sshaes.obj
 0001:00007cf5       _aes128_cbc_sw_decrypt     00408cf5 f   sshaes.obj
 0001:00007cf5       _aes256_cbc_sw_decrypt     00408cf5 f   sshaes.obj
 0001:00007cf5       _aes192_cbc_sw_decrypt     00408cf5 f   sshaes.obj
 0001:00007cfa       _aes192_cbc_hw_encrypt     00408cfa f   sshaes.obj
 0001:00007d14       _aes192_cbc_hw_decrypt     00408d14 f   sshaes.obj
 0001:00007d2e       _aes128_sdctr_sw           00408d2e f   sshaes.obj
 0001:00007d2e       _aes192_sdctr_sw           00408d2e f   sshaes.obj
 0001:00007d2e       _aes256_sdctr_sw           00408d2e f   sshaes.obj
 0001:00007d33       _aes192_sdctr_hw           00408d33 f   sshaes.obj
 0001:00007d4d       _GET_64BIT_LSB_FIRST       00408d4d f   sshaes.obj
 0001:00007dce       _PUT_64BIT_LSB_FIRST       00408dce f   sshaes.obj
 0001:00007e22       _aes_cbc_ni_decrypt        00408e22 f   sshaes.obj
 0001:00007e7c       _aes_cbc_ni_encrypt        00408e7c f   sshaes.obj
 0001:00007ec1       _aes_cbc_sw_decrypt        00408ec1 f   sshaes.obj
 0001:00007fcf       _aes_cbc_sw_encrypt        00408fcf f   sshaes.obj
 0001:00008019       _aes_hw_available_cached   00409019 f   sshaes.obj
 0001:00008070       _aes_ni_128_d              00409070 f   sshaes.obj
 0001:00008102       _aes_ni_128_e              00409102 f   sshaes.obj
 0001:00008194       _aes_ni_192_d              00409194 f   sshaes.obj
 0001:00008248       _aes_ni_192_e              00409248 f   sshaes.obj
 0001:000082fc       _aes_ni_256_d              004092fc f   sshaes.obj
 0001:000083d2       _aes_ni_256_e              004093d2 f   sshaes.obj
 0001:000084a8       _aes_ni_key_expand         004094a8 f   sshaes.obj
 0001:000086b9       _aes_sdctr_ni              004096b9 f   sshaes.obj
 0001:0000872f       _aes_sdctr_sw              0040972f f   sshaes.obj
 0001:00008841       _aes_sliced_d_parallel     00409841 f   sshaes.obj
 0001:00008e7c       _aes_sliced_e_parallel     00409e7c f   sshaes.obj
 0001:0000947e       _aes_sliced_e_serial       0040a47e f   sshaes.obj
 0001:0000988f       _aes_sliced_key_setup      0040a88f f   sshaes.obj
 0001:0000a1a1       _aes_sliced_round_d_parallel 0040b1a1 f   sshaes.obj
 0001:0000ae63       _aes_sliced_round_d_parallel_first 0040be63 f   sshaes.obj
 0001:0000b363       _aes_sliced_round_e_parallel 0040c363 f   sshaes.obj
 0001:0000bb35       _aes_sliced_round_e_parallel_last 0040cb35 f   sshaes.obj
 0001:0000c050       _aes_sliced_round_e_serial 0040d050 f   sshaes.obj
 0001:0000ca61       _aes_sliced_round_e_serial_last 0040da61 f   sshaes.obj
 0001:0000d06b       _memxor16                  0040e06b f   sshaes.obj
 0001:0000d111       _aes256_pubkey_cipher      0040e111 f   sshauxcrypt.obj
 0001:0000d202       _des3_pubkey_cipher        0040e202 f   sshauxcrypt.obj
 0001:0000d27d       _des3_pubkey_ossh_cipher   0040e27d f   sshauxcrypt.obj
 0001:0000d576       _blowfish_new              0040e576 f   sshblowf.obj
 0001:0000d593       _blowfish_free             0040e593 f   sshblowf.obj
 0001:0000d5b4       _blowfish_ssh_setkey       0040e5b4 f   sshblowf.obj
 0001:0000d5e5       _blowfish_ssh1_setiv       0040e5e5 f   sshblowf.obj
 0001:0000d609       _blowfish_ssh2_setiv       0040e609 f   sshblowf.obj
 0001:0000d62d       _blowfish_ssh1_encrypt_blk 0040e62d f   sshblowf.obj
 0001:0000d648       _blowfish_ssh1_decrypt_blk 0040e648 f   sshblowf.obj
 0001:0000d663       _blowfish_ssh2_encrypt_blk 0040e663 f   sshblowf.obj
 0001:0000d67e       _blowfish_ssh2_decrypt_blk 0040e67e f   sshblowf.obj
 0001:0000d699       _blowfish_ssh2_sdctr       0040e699 f   sshblowf.obj
 0001:0000d6b4       _GET_32BIT_LSB_FIRST       0040e6b4 f   sshblowf.obj
 0001:0000d6d7       _GET_32BIT_MSB_FIRST       0040e6d7 f   sshblowf.obj
 0001:0000d6fa       _blowfish_decrypt          0040e6fa f   sshblowf.obj
 0001:0000db20       _blowfish_encrypt          0040eb20 f   sshblowf.obj
 0001:0000e328       _blowfish_lsb_decrypt_cbc  0040f328 f   sshblowf.obj
 0001:0000e429       _blowfish_lsb_encrypt_cbc  0040f429 f   sshblowf.obj
 0001:0000e5d5       _blowfish_msb_decrypt_cbc  0040f5d5 f   sshblowf.obj
 0001:0000e6e2       _blowfish_msb_encrypt_cbc  0040f6e2 f   sshblowf.obj
 0001:0000e7e6       _blowfish_msb_sdctr        0040f7e6 f   sshblowf.obj
 0001:0000e8d1       _des_cbc_new               0040f8d1 f   sshdes.obj
 0001:0000e8ee       _des_cbc_free              0040f8ee f   sshdes.obj
 0001:0000e90f       _des_cbc_setkey            0040f90f f   sshdes.obj
 0001:0000e92e       _des_cbc_encrypt           0040f92e f   sshdes.obj
 0001:0000e9b0       _des_cbc_decrypt           0040f9b0 f   sshdes.obj
 0001:0000ea32       _des3_cbc1_free            0040fa32 f   sshdes.obj
 0001:0000ea32       _des3_sdctr_free           0040fa32 f   sshdes.obj
 0001:0000ea53       _des3_cbc1_setiv           0040fa53 f   sshdes.obj
 0001:0000ea53       _des_cbc_setiv             0040fa53 f   sshdes.obj
 0001:0000ea68       _des3_cbc1_cbc_encrypt     0040fa68 f   sshdes.obj
 0001:0000eb25       _des3_cbc1_cbc_decrypt     0040fb25 f   sshdes.obj
 0001:0000ebd6       _des3_cbc1_new             0040fbd6 f   sshdes.obj
 0001:0000ebd6       _des3_sdctr_new            0040fbd6 f   sshdes.obj
 0001:0000ebf3       _des3_sdctr_setkey         0040fbf3 f   sshdes.obj
 0001:0000ebf3       _des3_cbc1_setkey          0040fbf3 f   sshdes.obj
 0001:0000ec28       _des3_sdctr_setiv          0040fc28 f   sshdes.obj
 0001:0000ec69       _des3_sdctr_encrypt_decrypt 0040fc69 f   sshdes.obj
 0001:0000eda2       _des3_cbc3_new             0040fda2 f   sshdes.obj
 0001:0000edbf       _des3_cbc3_free            0040fdbf f   sshdes.obj
 0001:0000ede0       _des3_cbc3_setkey          0040fde0 f   sshdes.obj
 0001:0000ee15       _des3_cbc3_setiv           0040fe15 f   sshdes.obj
 0001:0000ee41       _des3_cbc3_cbc_encrypt     0040fe41 f   sshdes.obj
 0001:0000ef23       _des3_cbc3_cbc_decrypt     0040ff23 f   sshdes.obj
 0001:0000f009       _bitsel                    00410009 f   sshdes.obj
 0001:0000f061       _des_FP                    00410061 f   sshdes.obj
 0001:0000f0da       _des_IP                    004100da f   sshdes.obj
 0001:0000f153       _des_S                     00410153 f   sshdes.obj
 0001:0000f267       _des_f                     00410267 f   sshdes.obj
 0001:0000f2f1       _des_inner_cipher          004102f1 f   sshdes.obj
 0001:0000f5da       _des_load_lr               004105da f   sshdes.obj
 0001:0000f620       _des_store_lr              00410620 f   sshdes.obj
 0001:0000f65e       _dss_freekey               0041065e f   sshdss.obj
 0001:0000f6b8       _dss_new_pub               004106b8 f   sshdss.obj
 0001:0000f77f       _dss_cache_str             0041077f f   sshdss.obj
 0001:0000f7cd       _dss_verify                004107cd f   sshdss.obj
 0001:0000fa07       _dss_public_blob           00410a07 f   sshdss.obj
 0001:0000fa50       _dss_private_blob          00410a50 f   sshdss.obj
 0001:0000fa66       _dss_new_priv              00410a66 f   sshdss.obj
 0001:0000fb7c       _dss_new_priv_openssh      00410b7c f   sshdss.obj
 0001:0000fc0f       _dss_openssh_blob          00410c0f f   sshdss.obj
 0001:0000fc56       _dss_pubkey_bits           00410c56 f   sshdss.obj
 0001:0000fc8e       _dss_sign                  00410c8e f   sshdss.obj
 0001:0000fdfa       _append_hex_to_strbuf      00410dfa f   sshdss.obj
 0001:0000fdfa       _append_hex_to_strbuf      00410dfa f   sshrsa.obj
 0001:00010109       _ecdsa_new_priv_openssh    00411109 f   sshecc.obj
 0001:0001018c       _ecdsa_openssh_blob        0041118c f   sshecc.obj
 0001:000101c5       _ec_shared_pubkey_bits     004111c5 f   sshecc.obj
 0001:000101d2       _ecdsa_verify              004111d2 f   sshecc.obj
 0001:000103c9       _eddsa_verify              004113c9 f   sshecc.obj
 0001:00010546       _ecdsa_sign                00411546 f   sshecc.obj
 0001:000106cd       _eddsa_sign                004116cd f   sshecc.obj
 0001:000108fe       _ssh_ecdhkex_w_setup       004118fe f   sshecc.obj
 0001:00010940       _ssh_ecdhkex_m_setup       00411940 f   sshecc.obj
 0001:000109d3       _ssh_ecdhkex_w_getpublic   004119d3 f   sshecc.obj
 0001:000109ef       _ssh_ecdhkex_m_getpublic   004119ef f   sshecc.obj
 0001:00010a45       _ssh_ecdhkex_w_getkey      00411a45 f   sshecc.obj
 0001:00010aa9       _ssh_ecdhkex_m_getkey      00411aa9 f   sshecc.obj
 0001:00010b82       _ssh_ecdhkex_w_cleanup     00411b82 f   sshecc.obj
 0001:00010b90       _ec_p256                   00411b90 f   sshecc.obj
 0001:00010c7e       _ssh_ecdhkex_m_cleanup     00411c7e f   sshecc.obj
 0001:00010c8c       _ec_p384                   00411c8c f   sshecc.obj
 0001:00010d7a       _ec_p521                   00411d7a f   sshecc.obj
 0001:00010e68       _ec_curve25519             00411e68 f   sshecc.obj
 0001:00010f1c       _ec_ed25519                00411f1c f   sshecc.obj
 0001:00011030       _ecdsa_freekey             00412030 f   sshecc.obj
 0001:0001105f       _eddsa_freekey             0041205f f   sshecc.obj
 0001:0001108e       _ecdsa_new_pub             0041208e f   sshecc.obj
 0001:00011143       _eddsa_new_pub             00412143 f   sshecc.obj
 0001:000111f6       _ecdsa_cache_str           004121f6 f   sshecc.obj
 0001:0001123b       _eddsa_cache_str           0041223b f   sshecc.obj
 0001:00011280       _ecdsa_public_blob         00412280 f   sshecc.obj
 0001:000112bb       _eddsa_public_blob         004122bb f   sshecc.obj
 0001:000112e8       _ecdsa_private_blob        004122e8 f   sshecc.obj
 0001:0001131d       _eddsa_private_blob        0041231d f   sshecc.obj
 0001:00011352       _ecdsa_new_priv            00412352 f   sshecc.obj
 0001:0001139b       _eddsa_new_priv            0041239b f   sshecc.obj
 0001:000113ed       _eddsa_new_priv_openssh    004123ed f   sshecc.obj
 0001:0001150f       _eddsa_openssh_blob        0041250f f   sshecc.obj
 0001:000115d7       _BinarySink_put_epoint     004125d7 f   sshecc.obj
 0001:0001169a       _BinarySink_put_mp_le_unsigned 0041269a f   sshecc.obj
 0001:000116e4       _BinarySink_put_wpoint     004126e4 f   sshecc.obj
 0001:000117c3       _BinarySource_get_wpoint   004127c3 f   sshecc.obj
 0001:000118c5       _ecc_cache_str_shared      004128c5 f   sshecc.obj
 0001:00011924       _ecdsa_decode              00412924 f   sshecc.obj
 0001:00011a94       _ecdsa_signing_exponent_from_data 00412a94 f   sshecc.obj
 0001:00011b1d       _eddsa_decode              00412b1d f   sshecc.obj
 0001:00011bb4       _eddsa_exponent_from_hash  00412bb4 f   sshecc.obj
 0001:00011cda       _eddsa_signing_exponent_from_data 00412cda f   sshecc.obj
 0001:00011d66       _initialise_common         00412d66 f   sshecc.obj
 0001:00011d96       _initialise_wcurve         00412d96 f   sshecc.obj
 0001:00011ddc       _mp__from_string_literal   00412ddc f   sshecc.obj
 0001:00011ea4       _hmac_new                  00412ea4 f   sshhmac.obj
 0001:00011fa4       _hmac_free                 00412fa4 f   sshhmac.obj
 0001:00011ff7       _hmac_key                  00412ff7 f   sshhmac.obj
 0001:00012160       _hmac_start                00413160 f   sshhmac.obj
 0001:00012184       _hmac_genresult            00413184 f   sshhmac.obj
 0001:000121e6       _hmac_text_name            004131e6 f   sshhmac.obj
 0001:000121f0       _md5_new                   004131f0 f   sshmd5.obj
 0001:00012218       _md5_copy                  00413218 f   sshmd5.obj
 0001:0001223a       _md5_free                  0041323a f   sshmd5.obj
 0001:00012255       _md5_final                 00413255 f   sshmd5.obj
 0001:000123b2       _MD5_BinarySink_write      004133b2 f   sshmd5.obj
 0001:00012489       _MD5_Block                 00413489 f   sshmd5.obj
 0001:00012f35       _init_primes_array         00413f35 f   sshprime.obj
 0001:00013216       _mp_mod_short              00414216 f   sshprime.obj
 0001:00013956       _prng_seed_BinarySink_write 00414956 f   sshprng.obj
 0001:00013c29       _key_type_fp               00414c29 f   sshpubk.obj
 0001:00013eca       $LN18                      00414eca     sshpubk.obj
 0001:00013ef6       _read_blob                 00414ef6 f   sshpubk.obj
 0001:00014003       _read_body                 00415003 f   sshpubk.obj
 0001:0001406a       _read_header               0041506a f   sshpubk.obj
 0001:0001414a       _rsa_ssh1_load_main        0041514a f   sshpubk.obj
 0001:00014e30       _ssh2_ppk_derivekey        00415e30 f   sshpubk.obj
 0001:00014ed1       _ssh2_pubkey_openssh_str_internal 00415ed1 f   sshpubk.obj
 0001:000155b3       _userkey_parse_line_counter 004165b3 f   sshpubk.obj
 0001:0001560a       _random_create             0041660a f   sshrand.obj
 0001:00015774       _random_seed_callback      00416774 f   sshrand.obj
 0001:000157a0       _random_timer              004167a0 f   sshrand.obj
 0001:000157d7       _rsa2_freekey              004167d7 f   sshrsa.obj
 0001:000157ef       _rsa2_new_pub              004167ef f   sshrsa.obj
 0001:00015889       _rsa2_cache_str            00416889 f   sshrsa.obj
 0001:00015898       _rsa2_public_blob          00416898 f   sshrsa.obj
 0001:000158cb       _rsa2_private_blob         004168cb f   sshrsa.obj
 0001:00015907       _rsa2_new_priv             00416907 f   sshrsa.obj
 0001:00015997       _rsa2_new_priv_openssh     00416997 f   sshrsa.obj
 0001:00015a22       _rsa2_openssh_blob         00416a22 f   sshrsa.obj
 0001:00015a74       _rsa2_pubkey_bits          00416a74 f   sshrsa.obj
 0001:00015aac       _rsa2_verify               00416aac f   sshrsa.obj
 0001:00015be8       _rsa2_sign                 00416be8 f   sshrsa.obj
 0001:00015f5c       _rsa2_hash_alg_for_flags   00416f5c f   sshrsa.obj
 0001:00015f97       _rsa_pkcs1_prefix_for_hash 00416f97 f   sshrsa.obj
 0001:00015fea       _rsa_pkcs1_signature_string 00416fea f   sshrsa.obj
 0001:00016094       _rsa_privkey_op            00417094 f   sshrsa.obj
 0001:0001655f       _sha256_select             0041755f f   sshsh256.obj
 0001:00016578       _sha256_sw_new             00417578 f   sshsh256.obj
 0001:000165bf       _sha256_sw_copy            004175bf f   sshsh256.obj
 0001:000165f3       _sha256_ni_new             004175f3 f   sshsh256.obj
 0001:00016642       _sha1_ni_copy              00417642 f   sshsha.obj
 0001:00016642       _sha256_ni_copy            00417642 f   sshsh256.obj
 0001:00016673       _sha256_sw_free            00417673 f   sshsh256.obj
 0001:00016691       _sha256_ni_free            00417691 f   sshsh256.obj
 0001:00016691       _sha1_ni_free              00417691 f   sshsha.obj
 0001:000166b2       _sha256_sw_final           004176b2 f   sshsh256.obj
 0001:000166ff       _sha256_ni_final           004176ff f   sshsh256.obj
 0001:00016754       _sha256_block_pad          00417754 f   sshsh256.obj
 0001:000167d3       _sha256_block_write        004177d3 f   sshsh256.obj
 0001:000167d3       _sha1_block_write          004177d3 f   sshsha.obj
 0001:00016829       _sha1_hw_available         00417829 f   sshsha.obj
 0001:00016829       _sha256_hw_available       00417829 f   sshsh256.obj
 0001:00016872       _sha256_hw_available_cached 00417872 f   sshsh256.obj
 0001:00016893       _sha256_ni_block           00417893 f   sshsh256.obj
 0001:00016b89       _sha256_ni_write           00417b89 f   sshsh256.obj
 0001:00016bc5       _sha256_sw_block           00417bc5 f   sshsh256.obj
 0001:00016ec3       _sha256_sw_round           00417ec3 f   sshsh256.obj
 0001:00016f4b       _sha256_sw_write           00417f4b f   sshsh256.obj
 0001:00016f87       _sha512_new                00417f87 f   sshsh512.obj
 0001:00016fbb       _sha512_copy               00417fbb f   sshsh512.obj
 0001:00016fe3       _sha512_free               00417fe3 f   sshsh512.obj
 0001:00017004       _sha512_final              00418004 f   sshsh512.obj
 0001:00017024       _sha384_new                00418024 f   sshsh512.obj
 0001:00017058       _sha384_final              00418058 f   sshsh512.obj
 0001:00017078       _GET_64BIT_MSB_FIRST       00418078 f   sshdes.obj
 0001:00017078       _GET_64BIT_MSB_FIRST       00418078 f   sshsh512.obj
 0001:0001717f       _SHA512_BinarySink_write   0041817f f   sshsh512.obj
 0001:000172ce       _SHA512_Block              004182ce f   sshsh512.obj
 0001:000181a8       _sha1_select               004191a8 f   sshsha.obj
 0001:000181c1       _sha1_sw_new               004191c1 f   sshsha.obj
 0001:00018205       _sha1_sw_copy              00419205 f   sshsha.obj
 0001:00018234       _sha1_ni_new               00419234 f   sshsha.obj
 0001:00018283       _sha1_sw_free              00419283 f   sshsha.obj
 0001:0001829e       _sha1_sw_final             0041929e f   sshsha.obj
 0001:000182eb       _sha1_ni_final             004192eb f   sshsha.obj
 0001:00018341       _sha1_block_pad            00419341 f   sshsha.obj
 0001:000183c0       _sha1_hw_available_cached  004193c0 f   sshsha.obj
 0001:000183e1       _sha256_ni_alloc           004193e1 f   sshsh256.obj
 0001:000183e1       _sha1_ni_alloc             004193e1 f   sshsha.obj
 0001:000183fe       _sha1_ni_block             004193fe f   sshsha.obj
 0001:00018640       _sha1_ni_write             00419640 f   sshsha.obj
 0001:0001867c       _sha1_sw_block             0041967c f   sshsha.obj
 0001:00018a9a       _sha1_sw_write             00419a9a f   sshsha.obj
 0001:00018af3       _add234_internal           00419af3 f   tree234.obj
 0001:00018ffc       _countnode234              00419ffc f   tree234.obj
 0001:00019555       _dupvprintf_inner          0041a555 f   utils.obj
 0001:0001970d       _strbuf_BinarySink_write   0041a70d f   utils.obj
 0001:000197f2       _strbuf_new_general        0041a7f2 f   utils.obj
 0001:00019cf9       _radioline_common          0041acf9 f   winctrls.obj
 0001:0001a125       _staticedit_internal       0041b125 f   winctrls.obj
 0001:0001a26f       _find_chm_resource         0041b26f f   winhelp.obj
 0001:0001a40b       _load_chm_resource         0041b40b f   winhelp.obj
 0001:0001a64a       _errstring_compare         0041b64a f   winmisc.obj
 0001:0001a64f       _errstring_find            0041b64f f   winmisc.obj
 0001:0001abfa       _AboutProc@16              0041bbfa f   winpgen.obj
 0001:0001ad62       _LicenceProc@16            0041bd62 f   winpgen.obj
 0001:0001ae28       _MainDlgProc@16            0041be28 f   winpgen.obj
 0001:0001bf90       $LN166                     0041cf90     winpgen.obj
 0001:0001bfc0       $LN145                     0041cfc0     winpgen.obj
 0001:0001bfe6       _PassphraseProc@16         0041cfe6 f   winpgen.obj
 0001:0001c26e       _generate_key_thread@4     0041d26e f   winpgen.obj
 0001:0001c30f       _hidemany                  0041d30f f   winpgen.obj
 0001:0001c71c       _progress_update           0041d71c f   winpgen.obj
 0001:0001c86e       _prompt_keyfile            0041d86e f   winpgen.obj
 0001:0001c8e3       _setupbigedit1             0041d8e3 f   winpgen.obj
 0001:0001c91a       _setupbigedit2             0041d91a f   winpgen.obj
 0001:0001c951       _start_generating_key      0041d951 f   winpgen.obj
 0001:0001d1b5       _really_restrict_process_acl 0041e1b5 f   winsecur.obj
 0001:0001d2c1       _access_random_seed        0041e2c1 f   winstore.obj
 0001:0001d561       _try_random_seed           0041e561 f   winstore.obj
 0001:0001d5fb       _try_random_seed_and_free  0041e5fb f   winstore.obj
 0001:0001d78d       _message_box_help_callback@4 0041e78d f   winutils.obj
 0001:0001db10       $$000000                   0041eb10     LIBCMT:llmul.obj
 0001:0001db50       $$000000                   0041eb50     LIBCMT:llshl.obj
 0001:0001db70       $$000000                   0041eb70     LIBCMT:ullshr.obj
 0001:0001dd90       $$000000                   0041ed90     LIBCMT:chkstk.obj
 0001:0001ddc0       $$000000                   0041edc0     LIBCMT:ulldiv.obj
 0001:0001de28       ?pre_c_initialization@@YAHXZ 0041ee28 f   LIBCMT:exe_winmain.obj
 0001:0001decc       ?post_pgo_initialization@@YAHXZ 0041eecc f   LIBCMT:exe_winmain.obj
 0001:0001ded4       ?pre_cpp_initialization@@YAXXZ 0041eed4 f   LIBCMT:exe_winmain.obj
 0001:0001dee6       ?__scrt_common_main_seh@@YAHXZ 0041eee6 f   LIBCMT:exe_winmain.obj
 0001:0001e075       ?find_pe_section@@YAPAU_IMAGE_SECTION_HEADER@@QAEI@Z 0041f075 f   LIBCMT:utility.obj
 0001:0001e5f0       $$000000                   0041f5f0     LIBCMT:_sehprolg4_.obj
 0001:0001fef8       $LN1281                    00420ef8     libvcruntime:_memcmp_.obj
 0001:0001ff80       $$000000                   00420f80     libvcruntime:memset.obj
 0001:000200e0       $$000000                   004210e0     libvcruntime:strchr.obj
 0001:00020210       $$000000                   00421210     libvcruntime:memchr.obj
 0001:000202c0       $$000000                   004212c0     libvcruntime:memcpy.obj
 0001:00020524       TrailingUpVec              00421524     libvcruntime:memcpy.obj
 0001:000205d0       TrailingDownVec            004215d0     libvcruntime:memcpy.obj
 0001:00020840       $$000000                   00421840     libvcruntime:memmove.obj
 0001:00020aa4       TrailingUpVec              00421aa4     libvcruntime:memmove.obj
 0001:00020b50       TrailingDownVec            00421b50     libvcruntime:memmove.obj
 0001:00020dc0       $$000000                   00421dc0     libvcruntime:strstr.obj
 0001:00021030       _ValidateLocalCookies      00422030 f   libvcruntime:_chandler4_.obj
 0001:00021220       $$000000                   00422220     libvcruntime:_exsup4_.obj
 0001:000212b0       __unwind_handler4          004222b0 f   libvcruntime:_exsup4_.obj
 0001:00021453       ?try_get_function@@YAPAXW4function_id@?A0x89697e75@@QBDQBW4module_id@2@2@Z 00422453 f   libvcruntime:winapi_downlevel.obj
 0001:000214f3       ?try_get_module@@YAPAUHINSTANCE__@@W4module_id@?A0x89697e75@@@Z 004224f3 f   libvcruntime:winapi_downlevel.obj
 0001:00021700       $$000000                   00422700     libvcruntime:_exsup_.obj
 0001:00021720       __unwind_handler           00422720 f   libvcruntime:_exsup_.obj
 0001:00021837       ??$common_assert_to_message_box@_W@@YAXQB_W0IQAX@Z 00422837 f   libucrt:assert.obj
 0001:000218d3       ??$common_assert_to_message_box_build_string@_W@@YAXQA_WIQB_W1IQAX@Z 004228d3 f   libucrt:assert.obj
 0001:00021e18       ??$common_assert_to_stderr@_W@@YAXQB_W0I@Z 00422e18 f   libucrt:assert.obj
 0001:00021ec3       ?common_assert_to_stderr_direct@@YAXQB_W0I@Z 00422ec3 f   libucrt:assert.obj
 0001:00021f74       ?get_assert_format@@YAPB_W_W@Z 00422f74 f   libucrt:assert.obj
 0001:00022050       $$000000                   00423050     libucrt:strcmp.obj
 0001:000221d2       ??$common_fsopen@D@@YAPAU_iobuf@@QBD0H@Z 004231d2 f   libucrt:fopen.obj
 0001:00022323       ??R<lambda_9a20e10065b92b5193c3597a66cba9d4>@@QBEHXZ 00423323 f   libucrt:fputs.obj
 0001:0002253e       ??$common_vsprintf@Vstandard_base@__crt_stdio_output@@D@@YAH_KQADIQBDQAU__crt_locale_pointers@@1@Z 0042353e f   libucrt:output.obj
 0001:000226ba       ??$common_vsprintf@Vstandard_base@__crt_stdio_output@@_W@@YAH_KQA_WIQB_WQAU__crt_locale_pointers@@QAD@Z 004236ba f   libucrt:output.obj
 0001:00022d77       ??R<lambda_481dd5778c961fbcd3b60b650e9b9dc4>@@QBEHXZ 00423d77 f   libucrt:output.obj
 0001:00022e34       ??R<lambda_4f2c1eaeead2a5fc776db5b62ea0fb9b>@@QBEHXZ 00423e34 f   libucrt:output.obj
 0001:000231c0       $LN54                      004241c0     libucrt:output.obj
 0001:000232dc       $LN54                      004242dc     libucrt:output.obj
 0001:000233fc       $LN54                      004243fc     libucrt:output.obj
 0001:0002351c       $LN54                      0042451c     libucrt:output.obj
 0001:00024734       $LN19                      00425734     libucrt:output.obj
 0001:00025899       ??$common_vsscanf@D@@YAH_KQBDI1QAU__crt_locale_pointers@@QAD@Z 00426899 f   libucrt:input.obj
 0001:000262d1       $LN38                      004272d1     libucrt:input.obj
 0001:000263d5       $LN21                      004273d5     libucrt:input.obj
 0001:00026bb2       ??R<lambda_4794eb6df3f6f7d20e048423b4e04b2b>@@QBE_NXZ 00427bb2 f   libucrt:input.obj
 0001:00026bb2       ??R<lambda_79c077965043167fb4fbb9f601780f11>@@QBE_NXZ 00427bb2 f   libucrt:input.obj
 0001:00026bb2       ??R<lambda_24bca0711811e6233a81aece93ea4a83>@@QBE_NXZ 00427bb2 f   libucrt:input.obj
 0001:000297c5       $LN22                      0042a7c5     libucrt:input.obj
 0001:00029f3e       $LN18                      0042af3e     libucrt:input.obj
 0001:0002a2a0       $$000000                   0042b2a0     libucrt:strcat.obj
 0001:0002a3a0       $$000000                   0042b3a0     libucrt:strlen.obj
 0001:0002a430       $$000000                   0042b430     libucrt:strncmp.obj
 0001:0002a4b0       $$000000                   0042b4b0     libucrt:strncpy.obj
 0001:0002a64d       ??R<lambda_b51c0495177f500e782686251704ae76>@@QBEIXZ 0042b64d f   libucrt:fwrite.obj
 0001:0002a87f       ??$common_tox_l@$1?internal_isupper_l@@YA_NHQAU__crt_locale_pointers@@@Z$1?internal_map_lower@@YAHH0@Z@@YAHHKQAU__crt_locale_pointers@@@Z 0042b87f f   libucrt:tolower_toupper.obj
 0001:0002a9c9       ?internal_isupper_l@@YA_NHQAU__crt_locale_pointers@@@Z 0042b9c9 f   libucrt:tolower_toupper.obj
 0001:0002aa30       $$000000                   0042ba30     libucrt:strcspn.obj
 0001:0002aa80       $$000000                   0042ba80     libucrt:strspn.obj
 0001:0002ac0f       ??$common_fgets@D@@YAPADQADHV__crt_stdio_stream@@@Z 0042bc0f f   libucrt:fgets.obj
 0001:0002c043       ??$common_getenv_nolock@D@@YAPADQBD@Z 0042d043 f   libucrt:getenv.obj
 0001:0002c0b3       ??$common_getenv_s@D@@YAHQAIQADIQBD@Z 0042d0b3 f   libucrt:getenv.obj
 0001:0002c108       ??$common_getenv_s_nolock@D@@YAHQAIQADIQBD@Z 0042d108 f   libucrt:getenv.obj
 0001:0002c309       ?atexit_exception_filter@@YAHK@Z 0042d309 f   libucrt:exit.obj
 0001:0002c31c       ?common_exit@@YAXHW4_crt_exit_cleanup_mode@@W4_crt_exit_return_mode@@@Z 0042d31c f   libucrt:exit.obj
 0001:0002c435       ?exit_or_terminate_process@@YAXI@Z 0042d435 f   libucrt:exit.obj
 0001:0002c476       ?is_managed_app@@YA_NXZ    0042d476 f   libucrt:exit.obj
 0001:0002c4ba       ?try_cor_exit_process@@YAXI@Z 0042d4ba f   libucrt:exit.obj
 0001:0002c7e7       ??$common_configure_argv@D@@YAHW4_crt_argv_mode@@@Z 0042d7e7 f   libucrt:argv_parsing.obj
 0001:0002c90b       ??$parse_command_line@D@@YAXPADPAPAD0PAI2@Z 0042d90b f   libucrt:argv_parsing.obj
 0001:0002cae0       ??$common_get_or_create_environment_nolock@D@@YAPAPADXZ 0042dae0 f   libucrt:environment_initialization.obj
 0001:0002cb0f       ??$common_initialize_environment_nolock@D@@YAHXZ 0042db0f f   libucrt:environment_initialization.obj
 0001:0002cb68       ??$create_environment@D@@YAQAPADQAD@Z 0042db68 f   libucrt:environment_initialization.obj
 0001:0002cc39       ??$free_environment@_W@@YAXQAPA_W@Z 0042dc39 f   libucrt:environment_initialization.obj
 0001:0002cc39       ??$free_environment@D@@YAXQAPAD@Z 0042dc39 f   libucrt:environment_initialization.obj
 0001:0002cc68       ??$initialize_environment_by_cloning_nolock@D@@YAHXZ 0042dc68 f   libucrt:environment_initialization.obj
 0001:0002cd27       ??$uninitialize_environment_internal@D@@YAXAAPAPAD@Z 0042dd27 f   libucrt:environment_initialization.obj
 0001:0002cd42       ??$uninitialize_environment_internal@_W@@YAXAAPAPA_W@Z 0042dd42 f   libucrt:environment_initialization.obj
 0001:0002d1e9       ??R<lambda_275893d493268fdec8709772e3fcec0e>@@QBEHXZ 0042e1e9 f   libucrt:onexit.obj
 0001:0002d309       ??R<lambda_4e60a939b0d047cfe11ddc22648dfba9>@@QBEHXZ 0042e309 f   libucrt:onexit.obj
 0001:0002d4de       _initialize_global_variables 0042e4de f   libucrt:initialization.obj
 0001:0002d4f0       _initialize_c              0042e4f0 f   libucrt:initialization.obj
 0001:0002d50a       _uninitialize_environment  0042e50a f   libucrt:initialization.obj
 0001:0002d512       _initialize_global_state_isolation 0042e512 f   libucrt:initialization.obj
 0001:0002d512       _report_memory_leaks       0042e512 f   libucrt:initialization.obj
 0001:0002d512       _uninitialize_c            0042e512 f   libucrt:initialization.obj
 0001:0002d512       _uninitialize_global_state_isolation 0042e512 f   libucrt:initialization.obj
 0001:0002d512       _initialize_environment    0042e512 f   libucrt:initialization.obj
 0001:0002d515       _initialize_pointers       0042e515 f   libucrt:initialization.obj
 0001:0002d552       _uninitialize_vcruntime    0042e552 f   libucrt:initialization.obj
 0001:0002d55b       _uninitialize_allocated_memory 0042e55b f   libucrt:initialization.obj
 0001:0002da69       ??$common_xtox@K_W@@YAHKQA_WII_N@Z 0042ea69 f   libucrt:xtoa.obj
 0001:0002daf7       ??$common_xtox_s@K_W@@YAHKQA_WII_N@Z 0042eaf7 f   libucrt:xtoa.obj
 0001:0002dca3       ??$common_tcsncat_s@_W@@YAHQA_WIQB_WI@Z 0042eca3 f   libucrt:wcsncat_s.obj
 0001:0002dd97       ??$common_show_message_box@_W@@YAHQB_W0I@Z 0042ed97 f   libucrt:crtmbox.obj
 0001:0002de70       ??$message_box_wait_thread@_W@@YGKQAX@Z 0042ee70 f   libucrt:crtmbox.obj
 0001:0002e09f       _common_flush_all          0042f09f f   libucrt:fflush.obj
 0001:0002e249       ??R<lambda_b721fa326cdb32351d23dfa67958c160>@@QBEHXZ 0042f249 f   libucrt:setvbuf.obj
 0001:0002e2e3       ?set_buffer@@YAHV__crt_stdio_stream@@QADIH@Z 0042f2e3 f   libucrt:setvbuf.obj
 0001:0002e40e       ?get_global_action_nolock@@YAPAP6AXH@ZH@Z 0042f40e f   libucrt:signal.obj
 0001:0002e450       ?siglookup@@YAPAU__crt_signal_action_t@@HQAU1@@Z 0042f450 f   libucrt:signal.obj
 0001:0002e960       ?find_or_allocate_unused_stream_nolock@@YA?AV__crt_stdio_stream@@XZ 0042f960 f   libucrt:stream.obj
 0001:0002ec93       ??$common_openfile@D@@YAPAU_iobuf@@QBD0HV__crt_stdio_stream@@@Z 0042fc93 f   libucrt:openfile.obj
 0001:0002ef04       ?initialize_inherited_file_handles_nolock@@YAXXZ 0042ff04 f   libucrt:ioinit.obj
 0001:0002efba       ?initialize_stdio_handles_nolock@@YAXXZ 0042ffba f   libucrt:ioinit.obj
 0001:0002f806       ?construct_ptd@@YAXQAU__acrt_ptd@@QAPAU__crt_locale_data@@@Z 00430806 f   libucrt:per_thread_data.obj
 0001:0002f87f       ?destroy_fls@@YGXPAX@Z     0043087f f   libucrt:per_thread_data.obj
 0001:0002f8a0       ?destroy_ptd@@YAXQAU__acrt_ptd@@@Z 004308a0 f   libucrt:per_thread_data.obj
 0001:0002f949       ?replace_current_thread_locale_nolock@@YAXQAU__acrt_ptd@@QAU__crt_locale_data@@@Z 00430949 f   libucrt:per_thread_data.obj
 0001:0002fbc7       ?fp_format_a@@YAHQBNPADIQADIH_NIQAU__crt_locale_pointers@@@Z 00430bc7 f   libucrt:cvt.obj
 0001:0002feca       ?fp_format_e@@YAHQBNQADI1IH_NIQAU__crt_locale_pointers@@@Z 00430eca f   libucrt:cvt.obj
 0001:0002ff65       ?fp_format_e_internal@@YAHQADIH_NIQAU_strflt@@1QAU__crt_locale_pointers@@@Z 00430f65 f   libucrt:cvt.obj
 0001:000300b0       ?fp_format_f@@YAHQBNQADI1IHQAU__crt_locale_pointers@@@Z 004310b0 f   libucrt:cvt.obj
 0001:0003013d       ?fp_format_f_internal@@YAHQADIHQAU_strflt@@_NQAU__crt_locale_pointers@@@Z 0043113d f   libucrt:cvt.obj
 0001:00030214       ?fp_format_g@@YAHQBNQADI1IH_NIQAU__crt_locale_pointers@@@Z 00431214 f   libucrt:cvt.obj
 0001:000302dc       ?fp_format_nan_or_infinity@@YAHW4__acrt_fp_class@@_NPADI1@Z 004312dc f   libucrt:cvt.obj
 0001:000303d4       ?shift_bytes@@YAXQADI0H@Z  004313d4 f   libucrt:cvt.obj
 0001:00030552       ?fputwc_binary_nolock@@YAG_WV__crt_stdio_stream@@@Z 00431552 f   libucrt:fputwc.obj
 0001:000307c2       ?write_double_translated_ansi_nolock@@YA?AUwrite_result@?A0x47fa6670@@HQBDI@Z 004317c2 f   libucrt:write.obj
 0001:00030975       ?write_double_translated_unicode_nolock@@YA?AUwrite_result@?A0x47fa6670@@QBDI@Z 00431975 f   libucrt:write.obj
 0001:000309e2       ?write_requires_double_translation_nolock@@YA_NH@Z 004319e2 f   libucrt:write.obj
 0001:00030a58       ?write_text_ansi_nolock@@YA?AUwrite_result@?A0x47fa6670@@HQBDI@Z 00431a58 f   libucrt:write.obj
 0001:00030b37       ?write_text_utf16le_nolock@@YA?AUwrite_result@?A0x47fa6670@@HQBDI@Z 00431b37 f   libucrt:write.obj
 0001:00030c25       ?write_text_utf8_nolock@@YA?AUwrite_result@?A0x47fa6670@@HQBDI@Z 00431c25 f   libucrt:write.obj
 0001:00031049       ??$common_flush_and_write_nolock@D@@YAHHV__crt_stdio_stream@@@Z 00432049 f   libucrt:_flsbuf.obj
 0001:0003115a       ??$common_flush_and_write_nolock@_W@@YAHHV__crt_stdio_stream@@@Z 0043215a f   libucrt:_flsbuf.obj
 0001:0003126f       ??$write_buffer_nolock@D@@YA_NDV__crt_stdio_stream@@@Z 0043226f f   libucrt:_flsbuf.obj
 0001:0003133b       ??$write_buffer_nolock@_W@@YA_N_WV__crt_stdio_stream@@@Z 0043233b f   libucrt:_flsbuf.obj
 0001:000314c7       ?__acrt_LCMapStringA_stat@@YAHPAU__crt_locale_pointers@@PB_WKPBDHPADHHH@Z 004324c7 f   libucrt:lcmapstringa.obj
 0001:0003174f       ??$common_refill_and_read_nolock@D@@YAHV__crt_stdio_stream@@@Z 0043274f f   libucrt:_filbuf.obj
 0001:000318db       ??$translate_text_mode_nolock@D@@YAHHQADI@Z 004328db f   libucrt:read.obj
 0001:00031a32       ??$translate_text_mode_nolock@_W@@YAHHQA_WI@Z 00432a32 f   libucrt:read.obj
 0001:00031bf2       ?translate_ansi_or_utf8_nolock@@YAHHQADIQA_WI@Z 00432bf2 f   libucrt:read.obj
 0001:00031d42       ?translate_utf16_from_console_nolock@@YAHHQA_WI@Z 00432d42 f   libucrt:read.obj
 0001:0003228b       ??$common_lseek@J@@YAJHJH@Z 0043328b f   libucrt:lseek.obj
 0001:00032376       ??$common_lseek@_J@@YA_JH_JH@Z 00433376 f   libucrt:lseek.obj
 0001:0003247b       ??$common_lseek_nolock@J@@YAJHJH@Z 0043347b f   libucrt:lseek.obj
 0001:000324d2       ??$common_lseek_nolock@_J@@YA_JH_JH@Z 004334d2 f   libucrt:lseek.obj
 0001:00032550       ?common_lseek_do_seek_nolock@@YAJQAXJH@Z 00433550 f   libucrt:lseek.obj
 0001:00032672       ?_mbstowcs_l_helper@@YAIPA_WPBDIPAU__crt_locale_pointers@@@Z 00433672 f   libucrt:mbstowcs.obj
 0001:00032aa2       ?compute_iso_week@@YAHHHH@Z 00433aa2 f   libucrt:wcsftime.obj
 0001:00032af0       ?compute_iso_week_internal@@YAHHHH@Z 00433af0 f   libucrt:wcsftime.obj
 0001:00032b85       ?compute_iso_year@@YAHHHH@Z 00433b85 f   libucrt:wcsftime.obj
 0001:00032bb0       ?expand_time@@YA_NPAU__crt_locale_pointers@@_WPBUtm@@PAPA_WPAIPBU__crt_lc_time_data@@_N@Z 00433bb0 f   libucrt:wcsftime.obj
 0001:0003368c       $LN193                     0043468c     libucrt:wcsftime.obj
 0001:000336ac       ?store_number@@YAXHHQAPA_WQAI_W@Z 004346ac f   libucrt:wcsftime.obj
 0001:0003374e       ?store_number_without_lead_zeroes@@YAXHQAPA_WQAI@Z 0043474e f   libucrt:wcsftime.obj
 0001:000337b5       ?store_string@@YAXPB_WQAPA_WQAI@Z 004347b5 f   libucrt:wcsftime.obj
 0001:000337e6       ?store_winword@@YA_NQAU__crt_locale_pointers@@HQBUtm@@QAPA_WQAIQBU__crt_lc_time_data@@@Z 004347e6 f   libucrt:wcsftime.obj
 0001:00033dd6       ?try_get_CompareStringEx@@YAP6GHPB_WK0H0HPAU_nlsversioninfo@@PAXJ@ZXZ 00434dd6 f   libucrt:winapi_thunks.obj
 0001:00033df0       ?try_get_MessageBoxA@@YAP6GHPAUHWND__@@PBD1I@ZXZ 00434df0 f   libucrt:winapi_thunks.obj
 0001:00033e0a       ?try_get_MessageBoxW@@YAP6GHPAUHWND__@@PB_W1I@ZXZ 00434e0a f   libucrt:winapi_thunks.obj
 0001:00033e24       ?try_get_function@@YAPAXW4function_id@?A0x352e5c4b@@QBDQBW4module_id@2@2@Z 00434e24 f   libucrt:winapi_thunks.obj
 0001:00033ec0       ?try_get_module@@YAPAUHINSTANCE__@@W4module_id@?A0x352e5c4b@@@Z 00434ec0 f   libucrt:winapi_thunks.obj
 0001:000345fa       ?<helper_func_cdecl>@<lambda_62bb7ecb46d0a77b591a051c43eb5ad1>@@CAHPBX0@Z 004355fa f   libucrt:argv_wildcards.obj
 0001:00034612       ??$common_expand_argv_wildcards@D@@YAHQAPADQAPAPAD@Z 00435612 f   libucrt:argv_wildcards.obj
 0001:000347a2       ??$copy_and_add_argument_to_buffer@D@@YAHQBD0IAAV?$argument_list@D@?A0xb0e4b824@@@Z 004357a2 f   libucrt:argv_wildcards.obj
 0001:00034838       ??$expand_argument_wildcards@D@@YAHQAD0AAV?$argument_list@D@?A0xb0e4b824@@@Z 00435838 f   libucrt:argv_wildcards.obj
 0001:00034b13       ??R<lambda_ad1ced32f4ac17aa236e5ef05d6b3b7c>@@QBEXXZ 00435b13 f   libucrt:mbctype.obj
 0001:00034bd7       ?CPtoLocaleName@@YAPB_WH@Z 00435bd7 f   libucrt:mbctype.obj
 0001:00034c15       ?getSystemCP@@YAHH@Z       00435c15 f   libucrt:mbctype.obj
 0001:00034c88       ?setSBCS@@YAXPAU__crt_multibyte_data@@@Z 00435c88 f   libucrt:mbctype.obj
 0001:00034ced       ?setSBUpLow@@YAXPAU__crt_multibyte_data@@@Z 00435ced f   libucrt:mbctype.obj
 0001:00034e81       ?setmbcp_internal@@YAHH_N@Z 00435e81 f   libucrt:mbctype.obj
 0001:00035234       ?x_ismbbtype_l@@YAHPAU__crt_locale_pointers@@IHH@Z 00436234 f   libucrt:ismbbyte.obj
 0001:000352be       ?find_end_of_double_null_terminated_sequence@@YAPB_WQB_W@Z 004362be f   libucrt:get_environment_from_os.obj
 0001:00035378       ??$common_set_variable_in_environment_nolock@D@@YAHQADH@Z 00436378 f   libucrt:setenv.obj
 0001:000355b3       ??$copy_environment@D@@YAPAPADQAPAD@Z 004365b3 f   libucrt:setenv.obj
 0001:00035664       ??$find_in_environment_nolock@D@@YAHQBDI@Z 00436664 f   libucrt:setenv.obj
 0001:00035c7f       ?free_crt_array_internal@@YAXQAPBXI@Z 00436c7f f   libucrt:inittime.obj
 0001:0003645a       ___hw_cw_sse2              0043745a f   libucrt:ieee87.obj
 0001:000368e5       __hw_cw                    004378e5 f   libucrt:ieee87.obj
 0001:00036c70       ??$common_sopen_dispatch@D@@YAHQBDHHHQAHH@Z 00437c70 f   libucrt:open.obj
 0001:00036d3c       ?configure_text_mode@@YAHHUfile_options@?A0x704126de@@HAAW4__crt_lowio_text_mode@@@Z 00437d3c f   libucrt:open.obj
 0001:00036f89       ?create_file@@YAPAXQB_WQAU_SECURITY_ATTRIBUTES@@Ufile_options@?A0x704126de@@@Z 00437f89 f   libucrt:open.obj
 0001:00036fae       ?decode_open_create_flags@@YAKH@Z 00437fae f   libucrt:open.obj
 0001:0003701e       ?decode_options@@YA?AUfile_options@?A0x704126de@@HHH@Z 0043801e f   libucrt:open.obj
 0001:0003719a       ?truncate_ctrl_z_if_present@@YAHH@Z 0043819a f   libucrt:open.obj
 0001:00038abc       _memcpy_s                  00439abc f   libucrt:mbctype.obj
 0001:00038abc       _memcpy_s                  00439abc f   libucrt:input.obj
 0001:00038abc       _memcpy_s                  00439abc f   libucrt:fread.obj
 0001:00038abc       _memcpy_s                  00439abc f   libucrt:cfout.obj
 0001:00038abc       _memcpy_s                  00439abc f   libucrt:assert.obj
 0001:00038b3d       ___get_abstract_control_sse2 00439b3d f   libucrt:_fenvutils.obj
 0001:00038bba       ___get_abstract_control_x87 00439bba f   libucrt:_fenvutils.obj
 0001:00038c2d       ___get_machine_control     00439c2d f   libucrt:_fenvutils.obj
 0001:00038c9e       ___get_machine_control_sse2 00439c9e f   libucrt:_fenvutils.obj
 0001:00038d1e       ___get_machine_status_sse2 00439d1e f   libucrt:_fenvutils.obj
 0001:00038d7f       ___get_machine_status_x87  00439d7f f   libucrt:_fenvutils.obj
 0001:0003902c       ?InternalCompareStringA@@YAHPAU__crt_locale_pointers@@PB_WKPBDH2HH@Z 0043a02c f   libucrt:comparestringa.obj
 0001:00039564       ?tzset_from_environment_nolock@@YAXPAD@Z 0043a564 f   libucrt:tzset.obj
 0001:00039739       ?tzset_from_system_nolock@@YAXXZ 0043a739 f   libucrt:tzset.obj
 0001:00039894       ?tzset_nolock@@YAXXZ       0043a894 f   libucrt:tzset.obj
 0001:000399c5       ?GetTableIndexFromLocaleName@@YAHPB_W@Z 0043a9c5 f   libucrt:lcidtoname_downlevel.obj
 0001:00039ab0       ?shortsort@@YAXPAD0IP6AHPBX1@Z@Z 0043aab0 f   libucrt:qsort.obj
 0001:00039b50       ?swap@@YAXPAD0I@Z          0043ab50 f   libucrt:qsort.obj
 0001:00039f2a       ??$common_tcsncpy_s@D@@YAHQADIQBDI@Z 0043af2a f   libucrt:strncpy_s.obj
 0001:00039ff0       $$000000                   0043aff0     libucrt:strpbrk.obj
 0001:0003a0d4       ?initialize_multibyte@@YAHXZ 0043b0d4 f   libucrt:multibyte_initializer.obj
 0001:0003a310       $$000000                   0043b310     libucrt:_strnicm.obj
 0001:0003a680       $$000000                   0043b680     libucrt:log10.obj
 0001:0003a7d0       $$000000                   0043b7d0     libucrt:ceil_pentium4.obj
 0001:0003a970       $$000000                   0043b970     libucrt:log10_pentium4.obj
 0001:0003ac00       $$000000                   0043bc00     libucrt:87tran.obj
 0001:0003ae00       $$000000                   0043be00     libucrt:87disp.obj
 0001:0003b000       $$000000                   0043c000     libucrt:common.obj
 0001:0003b190       $$000000                   0043c190     libucrt:genexcep.obj
 0001:0003c190       $$000000                   0043d190     LIBCMT:ulldvrm.obj
 0001:0003c230       $$000000                   0043d230     LIBCMT:_sehprolg4gs_.obj
 0001:0003c290       $$000000                   0043d290     LIBCMT:lldvrm.obj
 0001:0003c370       $$000000                   0043d370     LIBCMT:alloca16.obj
 0001:0003c3a0       $$000000                   0043d3a0     LIBCMT:_ftol2_.obj
 0001:0003c460       $$000000                   0043d460     libvcruntime:strrchr.obj
 0002:00000274       ?pre_cpp_initializer@@3P6AXXZA 0043e274     LIBCMT:exe_winmain.obj
 0002:00000280       ?pre_c_initializer@@3P6AHXZA 0043e280     LIBCMT:exe_winmain.obj
 0002:00000284       ?post_pgo_initializer@@3P6AHXZA 0043e284     LIBCMT:exe_winmain.obj
 0002:00001608       _ssh_rijndael_lysator      0043f608     sshaes.obj
 0002:00001648       _aes_list                  0043f648     sshaes.obj
 0002:00001664       _key_setup_round_constants 0043f664     sshaes.obj
 0002:00001ed0       _blowfish_list             0043fed0     sshblowf.obj
 0002:00001ed8       _parray                    0043fed8     sshblowf.obj
 0002:00001f20       _sbox0                     0043ff20     sshblowf.obj
 0002:00002320       _sbox1                     00440320     sshblowf.obj
 0002:00002720       _sbox2                     00440720     sshblowf.obj
 0002:00002b20       _sbox3                     00440b20     sshblowf.obj
 0002:00003050       _des_list                  00441050     sshdes.obj
 0002:00003058       _des3_list                 00441058     sshdes.obj
 0002:00003060       ?tbl@?1??des_S@@9@9        00441060     sshdes.obj
 0002:000033b0       ?PC1@?1??des_key_setup@@9@9 004413b0     sshdes.obj
 0002:000033ec       ?PC2_7531@?1??des_key_setup@@9@9 004413ec     sshdes.obj
 0002:0000340c       ?PC2_6420@?1??des_key_setup@@9@9 0044140c     sshdes.obj
 0002:00003430       ?leftshifts@?1??des_key_setup@@9@9 00441430     sshdes.obj
 0002:00003548       _nistp256_oid              00441548     sshecc.obj
 0002:00003560       _nistp384_oid              00441560     sshecc.obj
 0002:00003578       _nistp521_oid              00441578     sshecc.obj
 0002:00003590       _kex_extra_curve25519      00441590     sshecc.obj
 0002:000035e0       _ec_kex_list               004415e0     sshecc.obj
 0002:00004e48       ?sha1_asn1_prefix@?2??rsa_pkcs1_prefix_for_hash@@9@9 00442e48     sshrsa.obj
 0002:00004e58       ?sha256_asn1_prefix@?3??rsa_pkcs1_prefix_for_hash@@9@9 00442e58     sshrsa.obj
 0002:00004e6c       ?sha512_asn1_prefix@?4??rsa_pkcs1_prefix_for_hash@@9@9 00442e6c     sshrsa.obj
 0002:00004e80       _ssh_rsa_kex_extra_sha1    00442e80     sshrsa.obj
 0002:00004e84       _ssh_rsa_kex_extra_sha256  00442e84     sshrsa.obj
 0002:00004e88       _ssh_rsa_kex_sha1          00442e88     sshrsa.obj
 0002:00004e9c       _ssh_rsa_kex_sha256        00442e9c     sshrsa.obj
 0002:00004eb0       _rsa_kex_list              00442eb0     sshrsa.obj
 0002:00005108       _sha256_initial_state      00443108     sshsh256.obj
 0002:00005128       _sha256_round_constants    00443128     sshsh256.obj
 0002:000054a0       ?iv@?1??SHA512_Core_Init@@9@9 004434a0     sshsh512.obj
 0002:000054e0       ?iv@?1??SHA384_Core_Init@@9@9 004434e0     sshsh512.obj
 0002:00005520       ?k@?1??SHA512_Block@@9@9   00443520     sshsh512.obj
 0002:0000582c       _sha1_initial_state        0044382c     sshsha.obj
 0002:00005968       ?base64_chars@?1??base64_encode_atom@@9@9 00443968     utils.obj
 0002:000059f8       ?combining@?1??mk_wcwidth@@9@9 004439f8     wcwidth.obj
 0002:00005e68       ?wide@?1??mk_wcwidth@@9@9  00443e68     wcwidth.obj
 0002:000061b8       ?ambiguous@?1??mk_wcwidth_cjk@@9@9 004441b8     wcwidth.obj
 0002:00006750       ?BIGGAP@?1??ersatztab@@9@9 00444750     winctrls.obj
 0002:00006754       ?MEDGAP@?1??ersatztab@@9@9 00444754     winctrls.obj
 0002:00006758       ?percents@?1??prefslist@@9@9 00444758     winctrls.obj
 0002:0000680c       ?reg_paths@?1??find_chm_from_installation@@9@9 0044480c     winhelp.obj
 0002:000068a4       ?hex@?1??escape_registry_key@@9@9 004448a4     winmisc.obj
 0002:00006978       ?generating_msg@?1??start_generating_key@@9@9 00444978     winpgen.obj
 0002:000069a0       ?entropy_msg@?1??MainDlgProc@@9@9 004449a0     winpgen.obj
 0002:000069ec       ?mbtitle@?1??old_keyfile_warning@@9@9 004449ec     winpgen.obj
 0002:00006a08       ?message@?1??old_keyfile_warning@@9@9 00444a08     winpgen.obj
 0002:00006b70       _nokey_ids                 00444b70     winpgen.obj
 0002:00006b78       _generating_ids            00444b78     winpgen.obj
 0002:00006b84       _gotkey_ids                00444b84     winpgen.obj
 0002:00006bb0       ?bits_ids@?1??ui_update_key_type_ctrls@@9@9 00444bb0     winpgen.obj
 0002:00006bbc       ?curve_ids@?1??ui_update_key_type_ctrls@@9@9 00444bbc     winpgen.obj
 0002:00006bc8       ?nothing_ids@?1??ui_update_key_type_ctrls@@9@9 00444bc8     winpgen.obj
 0002:00007b00       ?nastyace@?1??really_restrict_process_acl@@9@9 00445b00     winsecur.obj
 0002:00007c90       _reg_jumplist_key          00445c90     winstore.obj
 0002:00007c94       _reg_jumplist_value        00445c94     winstore.obj
 0002:00007c98       _puttystr                  00445c98     winstore.obj
 0002:00007fa4       _GS_ExceptionPointers      00445fa4     LIBCMT:gs_report.obj
 0002:00007fac       ?module_names@?A0x89697e75@@3QBQB_WB 00445fac     libvcruntime:winapi_downlevel.obj
 0002:0000805c       ?candidate_modules@?1??try_get_FlsAlloc@@YAP6GKP6GXPAX@Z@ZXZ@4QBW4module_id@?A0x89697e75@@B 0044605c     libvcruntime:winapi_downlevel.obj
 0002:00008070       ?candidate_modules@?1??try_get_FlsFree@@YAP6GHK@ZXZ@4QBW4module_id@?A0x89697e75@@B 00446070     libvcruntime:winapi_downlevel.obj
 0002:0000808c       ?candidate_modules@?1??try_get_FlsSetValue@@YAP6GHKPAX@ZXZ@4QBW4module_id@?A0x89697e75@@B 0044608c     libvcruntime:winapi_downlevel.obj
 0002:000080a0       ?candidate_modules@?1??try_get_InitializeCriticalSectionEx@@YAP6GHPAU_RTL_CRITICAL_SECTION@@KK@ZXZ@4QBW4module_id@?A0x89697e75@@B 004460a0     libvcruntime:winapi_downlevel.obj
 0002:000080c8       ?tokenTable@@3QBQBDB       004460c8     libvcruntime:undname.obj
 0002:00008100       ?nameTable@@3QBQBDB        00446100     libvcruntime:undname.obj
 0002:00008244       ?rttiTable@@3QBQBDB        00446244     libvcruntime:undname.obj
 0002:000097f8       ___acrt_initializers       004477f8     libucrt:initialization.obj
 0002:00009870       _errtable                  00447870     libucrt:errno.obj
 0002:0000a738       _module_names              00448738     libucrt:winapi_thunks.obj
 0002:0000abd8       ?candidate_modules@?1??try_get_AreFileApisANSI@@YAP6GHXZXZ@4QBW4module_id@?A0x352e5c4b@@B 00448bd8     libucrt:winapi_thunks.obj
 0002:0000abec       ?candidate_modules@?1??try_get_CompareStringEx@@YAP6GHPB_WK0H0HPAU_nlsversioninfo@@PAXJ@ZXZ@4QBW4module_id@?A0x352e5c4b@@B 00448bec     libucrt:winapi_thunks.obj
 0002:0000ac04       ?candidate_modules@?1??try_get_FlsAlloc@@YAP6GKP6GXPAX@Z@ZXZ@4QBW4module_id@?A0x352e5c4b@@B 00448c04     libucrt:winapi_thunks.obj
 0002:0000ac0c       ?candidate_modules@?1??try_get_FlsFree@@YAP6GHK@ZXZ@4QBW4module_id@?A0x352e5c4b@@B 00448c0c     libucrt:winapi_thunks.obj
 0002:0000ac14       ?candidate_modules@?1??try_get_FlsGetValue@@YAP6GPAXK@ZXZ@4QBW4module_id@?A0x352e5c4b@@B 00448c14     libucrt:winapi_thunks.obj
 0002:0000ac1c       ?candidate_modules@?1??try_get_FlsSetValue@@YAP6GHKPAX@ZXZ@4QBW4module_id@?A0x352e5c4b@@B 00448c1c     libucrt:winapi_thunks.obj
 0002:0000ac24       ?candidate_modules@?1??try_get_GetActiveWindow@@YAP6GPAUHWND__@@XZXZ@4QBW4module_id@?A0x352e5c4b@@B 00448c24     libucrt:winapi_thunks.obj
 0002:0000ac3c       ?candidate_modules@?1??try_get_GetCurrentPackageId@@YAP6GJPAIPAE@ZXZ@4QBW4module_id@?A0x352e5c4b@@B 00448c3c     libucrt:winapi_thunks.obj
 0002:0000ac58       ?candidate_modules@?1??try_get_GetDateFormatEx@@YAP6GHPB_WKPBU_SYSTEMTIME@@0PA_WH0@ZXZ@4QBW4module_id@?A0x352e5c4b@@B 00448c58     libucrt:winapi_thunks.obj
 0002:0000ac70       ?candidate_modules@?1??try_get_GetLastActivePopup@@YAP6GPAUHWND__@@PAU2@@ZXZ@4QBW4module_id@?A0x352e5c4b@@B 00448c70     libucrt:winapi_thunks.obj
 0002:0000ac8c       ?candidate_modules@?1??try_get_GetProcessWindowStation@@YAP6GPAUHWINSTA__@@XZXZ@4QBW4module_id@?A0x352e5c4b@@B 00448c8c     libucrt:winapi_thunks.obj
 0002:0000acac       ?candidate_modules@?1??try_get_GetTimeFormatEx@@YAP6GHPB_WKPBU_SYSTEMTIME@@0PA_WH@ZXZ@4QBW4module_id@?A0x352e5c4b@@B 00448cac     libucrt:winapi_thunks.obj
 0002:0000acc4       ?candidate_modules@?1??try_get_GetUserObjectInformationW@@YAP6GHPAXH0KPAK@ZXZ@4QBW4module_id@?A0x352e5c4b@@B 00448cc4     libucrt:winapi_thunks.obj
 0002:0000ace8       ?candidate_modules@?1??try_get_InitializeCriticalSectionEx@@YAP6GHPAU_RTL_CRITICAL_SECTION@@KK@ZXZ@4QBW4module_id@?A0x352e5c4b@@B 00448ce8     libucrt:winapi_thunks.obj
 0002:0000acf0       ?candidate_modules@?1??try_get_LCMapStringEx@@YAP6GHPB_WK0HPA_WHPAU_nlsversioninfo@@PAXJ@ZXZ@4QBW4module_id@?A0x352e5c4b@@B 00448cf0     libucrt:winapi_thunks.obj
 0002:0000ad08       ?candidate_modules@?1??try_get_LocaleNameToLCID@@YAP6GKPB_WK@ZXZ@4QBW4module_id@?A0x352e5c4b@@B 00448d08     libucrt:winapi_thunks.obj
 0002:0000ad24       ?candidate_modules@?1??try_get_MessageBoxA@@YAP6GHPAUHWND__@@PBD1I@ZXZ@4QBW4module_id@?A0x352e5c4b@@B 00448d24     libucrt:winapi_thunks.obj
 0002:0000ad38       ?candidate_modules@?1??try_get_MessageBoxW@@YAP6GHPAUHWND__@@PB_W1I@ZXZ@4QBW4module_id@?A0x352e5c4b@@B 00448d38     libucrt:winapi_thunks.obj
 0002:0000ad4c       __mb_locale_names          00448d4c     libucrt:mbctype.obj
 0002:0000adc0       _LcidToLocaleNameTable     00448dc0     libucrt:lcidtoname_downlevel.obj
 0002:0000bee0       _LocaleNameToIndexTable    00449ee0     libucrt:lcidtoname_downlevel.obj
 0002:0000ce30       _over                      0044ae30     libucrt:fpctrl.obj
 0002:0000ce3c       _under                     0044ae3c     libucrt:fpctrl.obj
 0002:0000ce50       LOG_name                   0044ae50     libucrt:log10.obj
 0002:0000ce60       _One                       0044ae60     libucrt:ceil_pentium4.obj
 0002:0000ce70       _Bns                       0044ae70     libucrt:ceil_pentium4.obj
 0002:0000ce80       _Zero                      0044ae80     libucrt:ceil_pentium4.obj
 0002:0000ce90       _S                         0044ae90     libucrt:ceil_pentium4.obj
 0002:0000cea0       _NegZero                   0044aea0     libucrt:ceil_pentium4.obj
 0002:0000cec0       emask                      0044aec0     libucrt:log10_pentium4.obj
 0002:0000ced0       CC                         0044aed0     libucrt:log10_pentium4.obj
 0002:0000cee0       Magic                      0044aee0     libucrt:log10_pentium4.obj
 0002:0000cef0       hi_mask                    0044aef0     libucrt:log10_pentium4.obj
 0002:0000cf00       LOG10_2                    0044af00     libucrt:log10_pentium4.obj
 0002:0000cf10       place_L                    0044af10     libucrt:log10_pentium4.obj
 0002:0000cf30       One                        0044af30     libucrt:log10_pentium4.obj
 0002:0000cf40       Zero                       0044af40     libucrt:log10_pentium4.obj
 0002:0000cf50       Two52                      0044af50     libucrt:log10_pentium4.obj
 0002:0000cf60       Infs                       0044af60     libucrt:log10_pentium4.obj
 0002:0000cf70       NaN                        0044af70     libucrt:log10_pentium4.obj
 0002:0000cf80       coeff                      0044af80     libucrt:log10_pentium4.obj
 0002:0000cfde       _log2max                   0044afde     libucrt:87tran.obj
 0002:0000cfe8       _smallarg                  0044afe8     libucrt:87tran.obj
 0002:0000cff2       _half                      0044aff2     libucrt:87tran.obj
 0002:0000d03e       One                        0044b03e     libucrt:87disp.obj
 0002:0000d046       Three                      0044b046     libucrt:87disp.obj
 0002:0000d04e       XAMtoTagTab                0044b04e     libucrt:87disp.obj
 0002:0000d060       One                        0044b060     libucrt:common.obj
 0002:0000d074       DblMax                     0044b074     libucrt:common.obj
 0002:0000d07c       DblMin                     0044b07c     libucrt:common.obj
 0002:0000d084       IeeeAdjO                   0044b084     libucrt:common.obj
 0002:0000d08c       IeeeAdjU                   0044b08c     libucrt:common.obj
 0002:0000d094       _infinity                  0044b094     libucrt:common.obj
 0002:0000d09c       _zero                      0044b09c     libucrt:common.obj
 0002:0000d998       ?_names@?1??_get_fname@@9@9 0044b998     libucrt:fpexcept.obj
 0002:0000de08       __sehtable$?__scrt_common_main_seh@@YAHXZ 0044be08     LIBCMT:exe_winmain.obj
 0002:0000de28       __sehtable$___scrt_is_nonwritable_in_current_image 0044be28     LIBCMT:utility.obj
 0002:0000de48       __sehtable$_fclose         0044be48     libucrt:fclose.obj
 0002:0000de68       __sehtable$??$common_fsopen@D@@YAPAU_iobuf@@QBD0H@Z 0044be68     libucrt:fopen.obj
 0002:0000de88       __sehtable$??$?RV<lambda_b0cac3301889906f8da68b04e3d9a7f4>@@AAV<lambda_9a20e10065b92b5193c3597a66cba9d4>@@V<lambda_24b35df97fd4c1fecac72a72d95cc146>@@@?$__crt_seh_guarded_call@H@@QAEH$$QAV<lambda_b0cac3301889906f8da68b04e3d9a7f4>@@AAV<lambda_9a20e10065b92b5193c3597a66cba9d4>@@$$QAV<lambda_24b35df97fd4c1fecac72a72d95cc146>@@@Z 0044be88     libucrt:fputs.obj
 0002:0000dea8       __sehtable$??$?RV<lambda_db08b09ef7aa9d4f8620ce68402612bc>@@AAV<lambda_4f2c1eaeead2a5fc776db5b62ea0fb9b>@@V<lambda_3ae262bc35d4ba6a3825c4f6bcaaf95c>@@@?$__crt_seh_guarded_call@H@@QAEH$$QAV<lambda_db08b09ef7aa9d4f8620ce68402612bc>@@AAV<lambda_4f2c1eaeead2a5fc776db5b62ea0fb9b>@@$$QAV<lambda_3ae262bc35d4ba6a3825c4f6bcaaf95c>@@@Z 0044bea8     libucrt:output.obj
 0002:0000dec8       __sehtable$??$?RV<lambda_ab9923ffb5d694ec0d78876dd103e44f>@@AAV<lambda_481dd5778c961fbcd3b60b650e9b9dc4>@@V<lambda_7923d86c9e3f319b415918ec4b39749c>@@@?$__crt_seh_guarded_call@H@@QAEH$$QAV<lambda_ab9923ffb5d694ec0d78876dd103e44f>@@AAV<lambda_481dd5778c961fbcd3b60b650e9b9dc4>@@$$QAV<lambda_7923d86c9e3f319b415918ec4b39749c>@@@Z 0044bec8     libucrt:output.obj
 0002:0000dee8       __sehtable$??$?RV<lambda_11b4f7b0d3157825a5656a18eba1ae27>@@AAV<lambda_b51c0495177f500e782686251704ae76>@@V<lambda_cf89b47920b5017557bfe891e78aca36>@@@?$__crt_seh_guarded_call@I@@QAEI$$QAV<lambda_11b4f7b0d3157825a5656a18eba1ae27>@@AAV<lambda_b51c0495177f500e782686251704ae76>@@$$QAV<lambda_cf89b47920b5017557bfe891e78aca36>@@@Z 0044bee8     libucrt:fwrite.obj
 0002:0000df08       __sehtable$_fgetc          0044bf08     libucrt:fgetc.obj
 0002:0000df28       __sehtable$??$common_fgets@D@@YAPADQADHV__crt_stdio_stream@@@Z 0044bf28     libucrt:fgets.obj
 0002:0000df48       __sehtable$_fputc          0044bf48     libucrt:fputc.obj
 0002:0000df68       __sehtable$_fread_s        0044bf68     libucrt:fread.obj
 0002:0000df88       __sehtable$_rewind         0044bf88     libucrt:rewind.obj
 0002:0000dfa8       __sehtable$_ungetc         0044bfa8     libucrt:ungetc.obj
 0002:0000dfc8       __sehtable$??$common_getenv_s@D@@YAHQAIQADIQBD@Z 0044bfc8     libucrt:getenv.obj
 0002:0000dfe8       __sehtable$?common_exit@@YAXHW4_crt_exit_cleanup_mode@@W4_crt_exit_return_mode@@@Z 0044bfe8     libucrt:exit.obj
 0002:0000e010       __sehtable$___acrt_uninitialize_locale 0044c010     libucrt:wsetlocale.obj
 0002:0000e030       __sehtable$??$?RV<lambda_800076c951b434888f4765a74a194fcc>@@AAV<lambda_4e60a939b0d047cfe11ddc22648dfba9>@@V<lambda_6dbb1268764f43b569ce7b67e331d33a>@@@?$__crt_seh_guarded_call@H@@QAEH$$QAV<lambda_800076c951b434888f4765a74a194fcc>@@AAV<lambda_4e60a939b0d047cfe11ddc22648dfba9>@@$$QAV<lambda_6dbb1268764f43b569ce7b67e331d33a>@@@Z 0044c030     libucrt:onexit.obj
 0002:0000e050       __sehtable$??$?RV<lambda_995298e7d72eb4c2aab26c0585b3abe5>@@AAV<lambda_275893d493268fdec8709772e3fcec0e>@@V<lambda_293819299cbf9a7022e18b56a874bb5c>@@@?$__crt_seh_guarded_call@H@@QAEH$$QAV<lambda_995298e7d72eb4c2aab26c0585b3abe5>@@AAV<lambda_275893d493268fdec8709772e3fcec0e>@@$$QAV<lambda_293819299cbf9a7022e18b56a874bb5c>@@@Z 0044c050     libucrt:onexit.obj
 0002:0000e070       __sehtable$_terminate      0044c070     libucrt:terminate.obj
 0002:0000e090       __sehtable$_fflush         0044c090     libucrt:fflush.obj
 0002:0000e0b0       __sehtable$_common_flush_all 0044c0b0     libucrt:fflush.obj
 0002:0000e0d8       __sehtable$??$?RV<lambda_d92cfe8357b99225085016881b624cb0>@@AAV<lambda_b721fa326cdb32351d23dfa67958c160>@@V<lambda_42d75b0848218ec137fa420c8ba9fdf9>@@@?$__crt_seh_guarded_call@H@@QAEH$$QAV<lambda_d92cfe8357b99225085016881b624cb0>@@AAV<lambda_b721fa326cdb32351d23dfa67958c160>@@$$QAV<lambda_42d75b0848218ec137fa420c8ba9fdf9>@@@Z 0044c0d8     libucrt:setvbuf.obj
 0002:0000e0f8       __sehtable$_raise          0044c0f8     libucrt:signal.obj
 0002:0000e118       __sehtable$??$?RV<lambda_a048d3beccc847880fc8490e18b82769>@@AAV<lambda_ec61778202f4f5fc7e7711acc23c3bca>@@V<lambda_f7496a158712204296dd6628a163878e>@@@?$__crt_seh_guarded_call@P6AXH@Z@@QAEP6AXH@Z$$QAV<lambda_a048d3beccc847880fc8490e18b82769>@@AAV<lambda_ec61778202f4f5fc7e7711acc23c3bca>@@$$QAV<lambda_f7496a158712204296dd6628a163878e>@@@Z 0044c118     libucrt:signal.obj
 0002:0000e138       __sehtable$??$?RV<lambda_123407a5e2ac06da108355a851863b7a>@@AAV<lambda_2fe9b910cf3cbf4a0ab98a02ba45b3ec>@@V<lambda_ae55bdf541ad94d75914d381c370e64d>@@@?$__crt_seh_guarded_call@H@@QAEH$$QAV<lambda_123407a5e2ac06da108355a851863b7a>@@AAV<lambda_2fe9b910cf3cbf4a0ab98a02ba45b3ec>@@$$QAV<lambda_ae55bdf541ad94d75914d381c370e64d>@@@Z 0044c138     libucrt:close.obj
 0002:0000e158       __sehtable$?__acrt_stdio_allocate_stream@@YA?AV__crt_stdio_stream@@XZ 0044c158     libucrt:stream.obj
 0002:0000e178       __sehtable$___acrt_initialize_lowio 0044c178     libucrt:ioinit.obj
 0002:0000e198       __sehtable$??$?RV<lambda_9df27f884b057bc3edfc946cb5b7cf47>@@AAV<lambda_e69574bed617af4e071282c136b37893>@@V<lambda_cc0d902bcbbeb830f749456577db4721>@@@?$__crt_seh_guarded_call@X@@QAEX$$QAV<lambda_9df27f884b057bc3edfc946cb5b7cf47>@@AAV<lambda_e69574bed617af4e071282c136b37893>@@$$QAV<lambda_cc0d902bcbbeb830f749456577db4721>@@@Z 0044c198     libucrt:per_thread_data.obj
 0002:0000e1b8       __sehtable$??$?RV<lambda_3518db117f0e7cdb002338c5d3c47b6c>@@AAV<lambda_b2ea41f6bbb362cd97d94c6828d90b61>@@V<lambda_abdedf541bb04549bc734292b4a045d4>@@@?$__crt_seh_guarded_call@X@@QAEX$$QAV<lambda_3518db117f0e7cdb002338c5d3c47b6c>@@AAV<lambda_b2ea41f6bbb362cd97d94c6828d90b61>@@$$QAV<lambda_abdedf541bb04549bc734292b4a045d4>@@@Z 0044c1b8     libucrt:per_thread_data.obj
 0002:0000e1d8       __sehtable$??$?RV<lambda_51b6e8b1eb166f2a3faf91f424b38130>@@AAV<lambda_6250bd4b2a391816dd638c3bf72b0bcb>@@V<lambda_0b5a4a3e68152e1d9b943535f5f47bed>@@@?$__crt_seh_guarded_call@X@@QAEX$$QAV<lambda_51b6e8b1eb166f2a3faf91f424b38130>@@AAV<lambda_6250bd4b2a391816dd638c3bf72b0bcb>@@$$QAV<lambda_0b5a4a3e68152e1d9b943535f5f47bed>@@@Z 0044c1d8     libucrt:per_thread_data.obj
 0002:0000e1f8       __sehtable$??$?RV<lambda_5b71d36f03204c0beab531769a5b5694>@@AAV<lambda_be2b3da3f62db62e9dad5dc70221a656>@@V<lambda_8f9ce462984622f9bf76b59e2aaaf805>@@@?$__crt_seh_guarded_call@X@@QAEX$$QAV<lambda_5b71d36f03204c0beab531769a5b5694>@@AAV<lambda_be2b3da3f62db62e9dad5dc70221a656>@@$$QAV<lambda_8f9ce462984622f9bf76b59e2aaaf805>@@@Z 0044c1f8     libucrt:per_thread_data.obj
 0002:0000e218       __sehtable$__write         0044c218     libucrt:write.obj
 0002:0000e238       __sehtable$__read          0044c238     libucrt:read.obj
 0002:0000e258       __sehtable$??$common_lseek@J@@YAJHJH@Z 0044c258     libucrt:lseek.obj
 0002:0000e278       __sehtable$??$common_lseek@_J@@YA_JH_JH@Z 0044c278     libucrt:lseek.obj
 0002:0000e298       __sehtable$___acrt_update_thread_multibyte_data 0044c298     libucrt:mbctype.obj
 0002:0000e2b8       __sehtable$??$?RV<lambda_978dc153c237d78434369da87b74ff60>@@AAV<lambda_ad1ced32f4ac17aa236e5ef05d6b3b7c>@@V<lambda_4a8533e2866a575feecb8298ce776b0d>@@@?$__crt_seh_guarded_call@X@@QAEX$$QAV<lambda_978dc153c237d78434369da87b74ff60>@@AAV<lambda_ad1ced32f4ac17aa236e5ef05d6b3b7c>@@$$QAV<lambda_4a8533e2866a575feecb8298ce776b0d>@@@Z 0044c2b8     libucrt:mbctype.obj
 0002:0000e2d8       __sehtable$__alloc_osfhnd  0044c2d8     libucrt:osfinfo.obj
 0002:0000e2f8       __sehtable$___acrt_lowio_ensure_fh_exists 0044c2f8     libucrt:osfinfo.obj
 0002:0000e318       __sehtable$___acrt_update_thread_locale_data 0044c318     libucrt:locale_refcounting.obj
 0002:0000e338       __sehtable$__query_new_handler 0044c338     libucrt:new_handler.obj
 0002:0000e358       __sehtable$__fcloseall     0044c358     libucrt:closeall.obj
 0002:0000e378       __sehtable$??$?RV<lambda_61cee617f5178ae960314fd4d05640a0>@@AAV<lambda_6978c1fb23f02e42e1d9e99668cc68aa>@@V<lambda_9cd88cf8ad10232537feb2133f08c833>@@@?$__crt_seh_guarded_call@H@@QAEH$$QAV<lambda_61cee617f5178ae960314fd4d05640a0>@@AAV<lambda_6978c1fb23f02e42e1d9e99668cc68aa>@@$$QAV<lambda_9cd88cf8ad10232537feb2133f08c833>@@@Z 0044c378     libucrt:commit.obj
 0002:0000e398       __sehtable$??$common_sopen_dispatch@D@@YAHQBDHHHQAHH@Z 0044c398     libucrt:open.obj
 0002:0000e3b8       __sehtable$___tzset        0044c3b8     libucrt:tzset.obj
 0002:0000e3d8       __sehtable$___set_fpsr_sse2 0044c3d8     libucrt:fpctrl.obj
 0002:0000e3f8       __sehtable$__IsNonwritableInCurrentImage 0044c3f8     LIBCMT:pesect.obj
 0002:0000e76e       .idata$6                   0044c76e     advapi32:ADVAPI32.dll
 0002:0000e7a4       .idata$6                   0044c7a4     comdlg32:COMDLG32.dll
 0002:0000e7c2       .idata$6                   0044c7c2     shell32:SHELL32.dll
 0002:0000ea9e       .idata$6                   0044ca9e     user32:USER32.dll
 0002:0000ee0c       .idata$6                   0044ce0c     kernel32:KERNEL32.dll
 0003:00000000       _subkeytypes               0044e000     conf.obj
 0003:00000318       _valuetypes                0044e318     conf.obj
 0003:00000630       ?algs_with_oid@?1??ec_alg_by_oid@@9@9 0044e630     sshecc.obj
 0003:00000670       ?__vcrt_flsindex@@3KA      0044e670     libvcruntime:per_thread_data.obj
 0003:000006a0       _errno_no_memory           0044e6a0     libucrt:errno.obj
 0003:000006a4       _doserrno_no_memory        0044e6a4     libucrt:errno.obj
 0003:00000780       ___acrt_flsindex           0044e780     libucrt:per_thread_data.obj
 0003:00000954       ___rgctypeflag             0044e954     libucrt:mbctype.obj
 0003:00000958       ___rgcode_page_info        0044e958     libucrt:mbctype.obj
 0003:00000ed0       _tzstd_program             0044eed0     libucrt:timeset.obj
 0003:00000f10       _tzdst_program             0044ef10     libucrt:timeset.obj
 0003:00000f50       _tzname_states             0044ef50     libucrt:timeset.obj
 0003:00000f58       _dststart                  0044ef58     libucrt:tzset.obj
 0003:00000f64       _dstend                    0044ef64     libucrt:tzset.obj
 0003:00000f70       ?__DAZ_ENABLED@?1??__set_fpsr_sse2@@9@9 0044ef70     libucrt:fpctrl.obj
 0003:00000fa0       ?initialised@?1??aes_hw_available_cached@@9@9 0044efa0     sshaes.obj
 0003:00000fa1       ?hw_available@?1??aes_hw_available_cached@@9@9 0044efa1     sshaes.obj
 0003:00000fa4       ?curve@?1??ec_p256@@9@9    0044efa4     sshecc.obj
 0003:00000fc8       ?initialised@?1??ec_p256@@9@9 0044efc8     sshecc.obj
 0003:00000fc9       ?initialised@?1??ec_p384@@9@9 0044efc9     sshecc.obj
 0003:00000fca       ?initialised@?1??ec_p521@@9@9 0044efca     sshecc.obj
 0003:00000fcb       ?initialised@?1??ec_curve25519@@9@9 0044efcb     sshecc.obj
 0003:00000fcc       ?curve@?1??ec_p384@@9@9    0044efcc     sshecc.obj
 0003:00000ff0       ?curve@?1??ec_p521@@9@9    0044eff0     sshecc.obj
 0003:00001014       ?curve@?1??ec_curve25519@@9@9 0044f014     sshecc.obj
 0003:00001038       ?curve@?1??ec_ed25519@@9@9 0044f038     sshecc.obj
 0003:0000105c       ?initialised@?1??ec_ed25519@@9@9 0044f05c     sshecc.obj
 0003:00001060       _primes                    0044f060     sshprime.obj
 0003:00004388       _random_timer_ctx          00452388     sshrand.obj
 0003:0000438c       _global_prng               0045238c     sshrand.obj
 0003:00004390       _next_noise_collection     00452390     sshrand.obj
 0003:00004394       ?initialised@?1??sha256_hw_available_cached@@9@9 00452394     sshsh256.obj
 0003:00004395       ?hw_available@?1??sha256_hw_available_cached@@9@9 00452395     sshsh256.obj
 0003:00004396       ?initialised@?1??sha1_hw_available_cached@@9@9 00452396     sshsha.obj
 0003:00004397       ?hw_available@?1??sha1_hw_available_cached@@9@9 00452397     sshsha.obj
 0003:00004398       ?draglistmsg@?1??winctrl_handle_command@@9@9 00452398     winctrls.obj
 0003:000043a0       ?custom@?BG@??winctrl_handle_command@@9@9 004523a0     winctrls.obj
 0003:000043e0       _p_InitCommonControls      004523e0     winctrls.obj
 0003:000043e4       _p_MakeDragList            004523e4     winctrls.obj
 0003:000043e8       _p_LBItemFromPt            004523e8     winctrls.obj
 0003:000043ec       _p_DrawInsert              004523ec     winctrls.obj
 0003:000043f0       ?cc@?BG@??winctrl_handle_command@@9@9 004523f0     winctrls.obj
 0003:00004414       _chm_path                  00452414     winhelp.obj
 0003:00004418       _chm_created_by_us         00452418     winhelp.obj
 0003:00004419       ?checked@?1??has_embedded_chm@@9@9 00452419     winhelp.obj
 0003:0000441a       ?checked@?1??find_chm_resource@@9@9 0045241a     winhelp.obj
 0003:0000441b       ?tried_to_load@?1??load_chm_resource@@9@9 0045241b     winhelp.obj
 0003:0000441c       _chm_resource_size         0045241c     winhelp.obj
 0003:00004420       _chm_resource              00452420     winhelp.obj
 0003:00004424       ?already_called@?1??init_help@@9@9 00452424     winhelp.obj
 0003:00004425       _requested_help            00452425     winhelp.obj
 0003:00004428       _p_HtmlHelpA               00452428     winhelp.obj
 0003:0000442c       _chm_hrsrc                 0045242c     winhelp.obj
 0003:00004430       ?tried_usernameex@?2??get_username@@9@9 00452430     winmisc.obj
 0003:00004434       ?sysdir@?1??load_system32_dll@@9@9 00452434     winmisc.obj
 0003:00004438       ?sysdirsize@?1??load_system32_dll@@9@9 00452438     winmisc.obj
 0003:0000443c       _errstrings                0045243c     winmisc.obj
 0003:00004440       ?p_GetUserNameExA@?1??get_username@@9@9 00452440     winmisc.obj
 0003:00004444       ?kernel32_module@?1??dll_hijacking_protection@@9@9 00452444     winmisc.obj
 0003:00004448       ?p_SetDefaultDllDirectories@?1??dll_hijacking_protection@@9@9 00452448     winmisc.obj
 0003:0000444c       ?kernel32_module@?1??init_winver@@9@9 0045244c     winmisc.obj
 0003:00004450       ?p_GetVersionExA@?1??init_winver@@9@9 00452450     winmisc.obj
 0003:00004454       _wincrypt_module           00452454     winnoise.obj
 0003:00004458       _p_CryptAcquireContextA    00452458     winnoise.obj
 0003:0000445c       _p_CryptGenRandom          0045245c     winnoise.obj
 0003:00004460       _p_CryptReleaseContext     00452460     winnoise.obj
 0003:00004464       _cmdline_keyfile           00452464     winpgen.obj
 0003:00004468       ?passphrase@?1??PassphraseProc@@9@9 00452468     winpgen.obj
 0003:0000446c       ?attempted@?1??got_advapi@@9@9 0045246c     winsecur.obj
 0003:0000446d       ?successful@?1??got_advapi@@9@9 0045246d     winsecur.obj
 0003:00004470       _worldsid                  00452470     winsecur.obj
 0003:00004474       _networksid                00452474     winsecur.obj
 0003:00004478       _usersid                   00452478     winsecur.obj
 0003:0000447c       ?advapi@?1??got_advapi@@9@9 0045247c     winsecur.obj
 0003:00004480       _tried_shgetfolderpath     00452480     winstore.obj
 0003:00004484       _shell32_module            00452484     winstore.obj
 0003:00004488       _p_SHGetFolderPathA        00452488     winstore.obj
 0003:00004490       _GS_ExceptionRecord        00452490     LIBCMT:gs_report.obj
 0003:000044e0       _GS_ContextRecord          004524e0     LIBCMT:gs_report.obj
 0003:000047b4       ?module_local_atexit_table@@3U_onexit_table_t@@A 004527b4     LIBCMT:utility.obj
 0003:000047c0       ?module_local_at_quick_exit_table@@3U_onexit_table_t@@A 004527c0     LIBCMT:utility.obj
 0003:000047cc       ?is_initialized_as_dll@@3_NA 004527cc     LIBCMT:utility.obj
 0003:000047e4       ?__vcrt_startup_thread_ptd@@3U__vcrt_ptd@@A 004527e4     libvcruntime:per_thread_data.obj
 0003:0000480c       ___vcrt_lock_table         0045280c     libvcruntime:locks.obj
 0003:00004824       ___vcrt_locks_initialized  00452824     libvcruntime:locks.obj
 0003:00004828       ?module_handles@@3PAPAUHINSTANCE__@@A 00452828     libvcruntime:winapi_downlevel.obj
 0003:00004838       ?encoded_function_pointers@@3PAPAXA 00452838     libvcruntime:winapi_downlevel.obj
 0003:00004888       ?heap@@3V_HeapManager@@A   00452888     libvcruntime:undname.obj
 0003:0000489c       _c_termination_complete    0045289c     libucrt:exit.obj
 0003:000048a0       _thread_local_exit_callback_func 004528a0     libucrt:exit.obj
 0003:000048a4       ?c_exit_complete@?5??common_exit@@YAXHW4_crt_exit_cleanup_mode@@W4_crt_exit_return_mode@@@Z@4_NA 004528a4     libucrt:exit.obj
 0003:000048a8       ___acrt_app_type           004528a8     libucrt:report_runtime_error.obj
 0003:000048ac       _user_matherr              004528ac     libucrt:matherr.obj
 0003:000048b0       ?program_name@?5???$common_configure_argv@D@@YAHW4_crt_argv_mode@@@Z@4PADA 004528b0     libucrt:argv_parsing.obj
 0003:000049c8       ?empty_string@?1???$common_wincmdln@D@@YAPADXZ@4PADA 004529c8     libucrt:argv_winmain.obj
 0003:000049d0       ___acrt_global_new_mode    004529d0     libucrt:new_mode.obj
 0003:000049f0       ___acrt_invalid_parameter_handler 004529f0     libucrt:invalid_parameter.obj
 0003:000049f4       ___acrt_error_mode         004529f4     libucrt:set_error_mode.obj
 0003:00004a04       _ctrlc_action              00452a04     libucrt:signal.obj
 0003:00004a08       _ctrlbreak_action          00452a08     libucrt:signal.obj
 0003:00004a0c       _abort_action              00452a0c     libucrt:signal.obj
 0003:00004a10       _term_action               00452a10     libucrt:signal.obj
 0003:00004c24       _enable_percent_n          00452c24     libucrt:printf_count_output.obj
 0003:00004c30       ___acrt_lock_table         00452c30     libucrt:locks.obj
 0003:00004d68       ___acrt_locks_initialized  00452d68     libucrt:locks.obj
 0003:00004d70       _module_handles            00452d70     libucrt:winapi_thunks.obj
 0003:00004dc0       _encoded_function_pointers 00452dc0     libucrt:winapi_thunks.obj
 0003:00004e40       ?state_cache@?1??__acrt_is_packaged_app@@9@4JA 00452e40     libucrt:winapi_thunks.obj
 0003:00004e5c       _fSystemSet                00452e5c     libucrt:mbctype.obj
 0003:00004e60       ?initialized@?1??__acrt_initialize_multibyte@@9@4_NA 00452e60     libucrt:mbctype.obj
 0003:00004e8c       ___acrt_new_handler        00452e8c     libucrt:new_handler.obj
 0003:00004e9c       __tzname                   00452e9c     libucrt:timeset.obj
 0003:00004ea0       _last_tz                   00452ea0     libucrt:tzset.obj
 0003:00004ea8       _tz_api_used               00452ea8     libucrt:tzset.obj
 0003:00004eb0       _tz_info                   00452eb0     libucrt:tzset.obj
 0003:00004f5c       ?first_time@?1??__tzset@@9@4JA 00452f5c     libucrt:tzset.obj
 0003:00004f68       __pmatherr_set             00452f68     libucrt:libm_error.obj
 0004:00000000       __guard_fids____dcrt_uninitialize_environments_nolock 00453000     libucrt:environment_initialization.obj
 0004:00000008       __guard_fids__             00453008     libucrt:initialization.obj
 0004:00000068       __guard_fids_??$common_show_message_box@_W@@YAHQB_W0I@Z 00453068     libucrt:crtmbox.obj
 0004:0000006c       __guard_fids____acrt_initialize_ptd 0045306c     libucrt:per_thread_data.obj
 0004:00000070       __guard_fids_??$expand_argument_wildcards@D@@YAHQAD0AAV?$argument_list@D@?A0xb0e4b824@@@Z 00453070     libucrt:argv_wildcards.obj
 0004:00000074       __guard_fids__             00453074     libucrt:locale_initializer.obj
 0004:00000078       __guard_fids__             00453078     libucrt:stdio_initializer.obj
 0004:0000007c       __guard_fids__             0045307c     libucrt:stdio_initializer.obj
 0004:00000080       __guard_fids__             00453080     libucrt:multibyte_initializer.obj
 0004:00000084       __guard_fids__             00453084     libucrt:timeset_initializer.obj
 0004:00000088       __guard_fids____libm_error_support 00453088     libucrt:libm_error.obj
 0004:0000008c       __guard_fids__             0045308c     libucrt:console_output_initializer.obj
 0004:00000090       __guard_fids__             00453090     libucrt:sse2_initializer.obj
 0004:00000094       __guard_fids__             00453094     LIBCMT:exe_winmain.obj
 0004:00000098       __guard_fids__             00453098     LIBCMT:exe_winmain.obj
 0004:0000009c       __guard_fids__             0045309c     LIBCMT:exe_winmain.obj
 0004:000000a0       __guard_fids_?pre_c_initialization@@YAHXZ 004530a0     LIBCMT:exe_winmain.obj
 0004:000000a8       __guard_fids____scrt_set_unhandled_exception_filter 004530a8     LIBCMT:utility_desktop.obj
 0004:000000ac       __guard_fids__             004530ac     LIBCMT:guard_support.obj
 0004:000000b0       __guard_fids____vcrt_initialize_ptd 004530b0     libvcruntime:per_thread_data.obj
 0005:00000300       $R000000                   00454300     puttygen.res
 0005:00000428       $R000128                   00454428     puttygen.res
 0005:00000710       $R000410                   00454710     puttygen.res
 0005:00000d78       $R000A78                   00454d78     puttygen.res
 0005:00000e28       $R000B28                   00454e28     puttygen.res
 0005:00000f58       $R000C58                   00454f58     puttygen.res
 0005:00001288       $R000F88                   00455288     puttygen.res
 0005:000012e8       $R000FE8                   004552e8     puttygen.res
 0005:00001348       $R001048                   00455348     puttygen.res
 0005:00001480       $R001180                   00455480     puttygen.res
 0005:00001580       $R001280                   00455580     puttygen.res
 0005:00001610       $R001310                   00455610     puttygen.res
 0005:00001958       $R001658                   00455958     puttygen.res
