 testcrypt

 Timestamp is 5fe829fe (Sun Dec 27 13:30:22 2020)

 Preferred load address is 00400000

 Start         Length     Name                   Class
 0001:00000000 000319f7H .text$mn                CODE
 0002:00000000 00000124H .idata$5                DATA
 0002:00000124 00000004H .00cfg                  DATA
 0002:00000128 00000004H .CRT$XCA                DATA
 0002:0000012c 00000004H .CRT$XCAA               DATA
 0002:00000130 00000004H .CRT$XCZ                DATA
 0002:00000134 00000004H .CRT$XIA                DATA
 0002:00000138 00000004H .CRT$XIAA               DATA
 0002:0000013c 00000004H .CRT$XIAC               DATA
 0002:00000140 0000000cH .CRT$XIC                DATA
 0002:0000014c 00000004H .CRT$XIZ                DATA
 0002:00000150 00000004H .CRT$XPA                DATA
 0002:00000154 00000008H .CRT$XPX                DATA
 0002:0000015c 00000004H .CRT$XPXA               DATA
 0002:00000160 00000004H .CRT$XPZ                DATA
 0002:00000164 00000004H .CRT$XTA                DATA
 0002:00000168 00000008H .CRT$XTZ                DATA
 0002:00000170 0000c360H .rdata                  DATA
 0002:0000c4cc 00000000H .rdata$r                DATA
 0002:0000c4d0 0000000cH .rdata$sxdata           DATA
 0002:0000c4dc 00000290H .rdata$zzzdbg           DATA
 0002:0000c76c 00000004H .rtc$IAA                DATA
 0002:0000c770 00000004H .rtc$IZZ                DATA
 0002:0000c774 00000004H .rtc$TAA                DATA
 0002:0000c778 00000008H .rtc$TZZ                DATA
 0002:0000c780 000004ecH .xdata$x                DATA
 0002:0000cc6c 00000000H .edata                  DATA
 0002:0000cc6c 00000014H .idata$2                DATA
 0002:0000cc80 00000014H .idata$3                DATA
 0002:0000cc94 00000124H .idata$4                DATA
 0002:0000cdb8 00000542H .idata$6                DATA
 0003:00000000 000008d0H .data                   DATA
 0003:000008d0 00000000H .data$r                 DATA
 0003:000008d0 00003e58H .bss                    DATA
 0004:00000000 00000090H .gfids$x                DATA
 0004:00000090 00000020H .gfids$y                DATA

  Address         Publics by Value              Rva+Base       Lib:Object

 0000:00000000       ___guard_longjmp_count     00000000     <absolute>
 0000:00000000       ___guard_fids_count        00000000     <absolute>
 0000:00000000       __except_list              00000000     <absolute>
 0000:00000000       ___guard_longjmp_table     00000000     <absolute>
 0000:00000000       ___guard_iat_table         00000000     <absolute>
 0000:00000000       ___guard_iat_count         00000000     <absolute>
 0000:00000000       ___dynamic_value_reloc_table 00000000     <absolute>
 0000:00000000       ___guard_fids_table        00000000     <absolute>
 0000:00000003       ___safe_se_handler_count   00000003     <absolute>
 0000:00000100       ___guard_flags             00000100     <absolute>
 0000:00000000       ___ImageBase               00400000     <linker-defined>
 0001:00000000       _ecc_edwards_add           00401000 f   ecc.obj
 0001:000002c1       _ecc_edwards_curve         004012c1 f   ecc.obj
 0001:000002c1       _ecc_weierstrass_curve     004012c1 f   ecc.obj
 0001:00000325       _ecc_weierstrass_curve_free 00401325 f   ecc.obj
 0001:00000325       _ecc_edwards_curve_free    00401325 f   ecc.obj
 0001:00000364       _ecc_edwards_eq            00401364 f   ecc.obj
 0001:000003c1       _ecc_edwards_get_affine    004013c1 f   ecc.obj
 0001:0000044f       _ecc_edwards_multiply      0040144f f   ecc.obj
 0001:00000536       _ecc_edwards_point_copy    00401536 f   ecc.obj
 0001:00000578       _ecc_edwards_point_free    00401578 f   ecc.obj
 0001:000005af       _ecc_edwards_point_new     004015af f   ecc.obj
 0001:00000601       _ecc_edwards_point_new_from_y 00401601 f   ecc.obj
 0001:000007e7       _ecc_montgomery_curve      004017e7 f   ecc.obj
 0001:000008a2       _ecc_montgomery_curve_free 004018a2 f   ecc.obj
 0001:000008d9       _ecc_montgomery_diff_add   004018d9 f   ecc.obj
 0001:00000a6f       _ecc_montgomery_double     00401a6f f   ecc.obj
 0001:00000b98       _ecc_montgomery_get_affine 00401b98 f   ecc.obj
 0001:00000bf0       _ecc_montgomery_multiply   00401bf0 f   ecc.obj
 0001:00000cda       _ecc_montgomery_point_copy 00401cda f   ecc.obj
 0001:00000d06       _ecc_montgomery_point_free 00401d06 f   ecc.obj
 0001:00000d2d       _ecc_montgomery_point_new  00401d2d f   ecc.obj
 0001:00000d7f       _ecc_weierstrass_add       00401d7f f   ecc.obj
 0001:00000e63       _ecc_weierstrass_add_general 00401e63 f   ecc.obj
 0001:00001185       _ecc_weierstrass_double    00402185 f   ecc.obj
 0001:00001327       _ecc_weierstrass_get_affine 00402327 f   ecc.obj
 0001:00001369       _ecc_weierstrass_is_identity 00402369 f   ecc.obj
 0001:0000137d       _ecc_weierstrass_multiply  0040237d f   ecc.obj
 0001:000014e5       _ecc_weierstrass_point_copy 004024e5 f   ecc.obj
 0001:0000151c       _ecc_weierstrass_point_free 0040251c f   ecc.obj
 0001:0000154b       _ecc_weierstrass_point_new 0040254b f   ecc.obj
 0001:0000159a       _ecc_weierstrass_point_new_from_x 0040259a f   ecc.obj
 0001:000016a7       _ecc_weierstrass_point_new_identity 004026a7 f   ecc.obj
 0001:00001714       _ecc_weierstrass_point_valid 00402714 f   ecc.obj
 0001:000019b7       _BinarySink_put_asciz      004029b7 f   marshal.obj
 0001:000019d1       _BinarySink_put_byte       004029d1 f   marshal.obj
 0001:000019e3       _BinarySink_put_data       004029e3 f   marshal.obj
 0001:000019f6       _BinarySink_put_datapl     004029f6 f   marshal.obj
 0001:00001a0b       _BinarySink_put_string     00402a0b f   marshal.obj
 0001:00001a2a       _BinarySink_put_stringpl   00402a2a f   marshal.obj
 0001:00001a3f       _BinarySink_put_stringsb   00402a3f f   marshal.obj
 0001:00001a5d       _BinarySink_put_stringz    00402a5d f   marshal.obj
 0001:00001a78       _BinarySink_put_uint16     00402a78 f   marshal.obj
 0001:00001a9c       _BinarySink_put_uint32     00402a9c f   marshal.obj
 0001:00001ad0       _BinarySink_put_uint64     00402ad0 f   marshal.obj
 0001:00001b70       _BinarySource_get_byte     00402b70 f   marshal.obj
 0001:00001b90       _BinarySource_get_data     00402b90 f   marshal.obj
 0001:00001bbd       _BinarySource_get_string   00402bbd f   marshal.obj
 0001:00001c2b       _BinarySource_get_uint16   00402c2b f   marshal.obj
 0001:00001c5c       _BinarySource_get_uint32   00402c5c f   marshal.obj
 0001:00001ca0       _safefree                  00402ca0 f   memory.obj
 0001:00001cac       _safegrowarray             00402cac f   memory.obj
 0001:00001dc1       _safemalloc                00402dc1 f   memory.obj
 0001:00001dff       _saferealloc               00402dff f   memory.obj
 0001:00001e44       _BinarySink_put_mp_ssh1    00402e44 f   mpint.obj
 0001:00001eab       _BinarySink_put_mp_ssh2    00402eab f   mpint.obj
 0001:00001eef       _BinarySource_get_mp_ssh1  00402eef f   mpint.obj
 0001:00001f5e       _BinarySource_get_mp_ssh2  00402f5e f   mpint.obj
 0001:00001fac       ___local_stdio_printf_options 00402fac f i mpint.obj
 0001:00001fb2       __vfprintf_l               00402fb2 f i mpint.obj
 0001:00001fd5       _fprintf                   00402fd5 f i mpint.obj
 0001:00001fed       _modsqrt_free              00402fed f   mpint.obj
 0001:00002034       _modsqrt_new               00403034 f   mpint.obj
 0001:000020c1       _monty_add                 004030c1 f   mpint.obj
 0001:00002108       _monty_export              00403108 f   mpint.obj
 0001:0000212b       _monty_export_into         0040312b f   mpint.obj
 0001:0000218a       _monty_free                0040318a f   mpint.obj
 0001:000021d4       _monty_identity            004031d4 f   mpint.obj
 0001:000021dc       _monty_import              004031dc f   mpint.obj
 0001:000021f2       _monty_import_into         004031f2 f   mpint.obj
 0001:00002217       _monty_invert              00403217 f   mpint.obj
 0001:00002244       _monty_modsqrt             00403244 f   mpint.obj
 0001:0000240c       _monty_modulus             0040340c f   mpint.obj
 0001:00002413       _monty_mul                 00403413 f   mpint.obj
 0001:0000243a       _monty_mul_into            0040343a f   mpint.obj
 0001:000024f6       _monty_new                 004034f6 f   mpint.obj
 0001:000025b2       _monty_pow                 004035b2 f   mpint.obj
 0001:000027a0       _monty_sub                 004037a0 f   mpint.obj
 0001:000027df       _mp_add                    004037df f   mpint.obj
 0001:0000280b       _mp_add_integer_into       0040380b f   mpint.obj
 0001:000028f2       _mp_add_into               004038f2 f   mpint.obj
 0001:00002a11       _mp_and_into               00403a11 f   mpint.obj
 0001:00002cfc       _mp_bic_into               00403cfc f   mpint.obj
 0001:00002d33       _mp_clear                  00403d33 f   mpint.obj
 0001:00002d48       _mp_cmp_eq                 00403d48 f   mpint.obj
 0001:00002d96       _mp_cmp_hs                 00403d96 f   mpint.obj
 0001:00002db9       _mp_cond_add_into          00403db9 f   mpint.obj
 0001:00002de1       _mp_cond_clear             00403de1 f   mpint.obj
 0001:00002e3b       _mp_cond_sub_into          00403e3b f   mpint.obj
 0001:00002e66       _mp_cond_swap              00403e66 f   mpint.obj
 0001:00002ec5       _mp_copy                   00403ec5 f   mpint.obj
 0001:00002eee       _mp_copy_into              00403eee f   mpint.obj
 0001:00002f2b       _mp_div                    00403f2b f   mpint.obj
 0001:00002f4f       _mp_divmod_into            00403f4f f   mpint.obj
 0001:00003499       _mp_eq_integer             00404499 f   mpint.obj
 0001:000035e8       _mp_free                   004045e8 f   mpint.obj
 0001:00003604       _mp_from_bytes_be          00404604 f   mpint.obj
 0001:0000367a       _mp_from_bytes_le          0040467a f   mpint.obj
 0001:0000368f       _mp_from_decimal           0040468f f   mpint.obj
 0001:000036a6       _mp_from_decimal_pl        004046a6 f   mpint.obj
 0001:00003724       _mp_from_hex               00404724 f   mpint.obj
 0001:0000373b       _mp_from_hex_pl            0040473b f   mpint.obj
 0001:00003809       _mp_from_integer           00404809 f   mpint.obj
 0001:00003841       _mp_get_bit                00404841 f   mpint.obj
 0001:00003861       _mp_get_byte               00404861 f   mpint.obj
 0001:00003881       _mp_get_decimal            00404881 f   mpint.obj
 0001:00003a54       _mp_get_hex                00404a54 f   mpint.obj
 0001:00003aeb       _mp_get_hex_uppercase      00404aeb f   mpint.obj
 0001:00003af9       _mp_get_nbits              00404af9 f   mpint.obj
 0001:00003b53       _mp_hs_integer             00404b53 f   mpint.obj
 0001:00003bad       _mp_invert                 00404bad f   mpint.obj
 0001:00003bd1       _mp_invert_mod_2to         00404bd1 f   mpint.obj
 0001:00003ebc       _mp_lshift_fixed_into      00404ebc f   mpint.obj
 0001:00003f82       _mp_max                    00404f82 f   mpint.obj
 0001:00003fad       _mp_max_bits               00404fad f   mpint.obj
 0001:00003fb7       _mp_max_bytes              00404fb7 f   mpint.obj
 0001:00003fc1       _mp_max_into               00404fc1 f   mpint.obj
 0001:00003fe3       _mp_min                    00404fe3 f   mpint.obj
 0001:0000400e       _mp_min_into               0040500e f   mpint.obj
 0001:00004030       _mp_mod                    00405030 f   mpint.obj
 0001:00004054       _mp_modadd                 00405054 f   mpint.obj
 0001:0000407f       _mp_modmul                 0040507f f   mpint.obj
 0001:000040aa       _mp_modpow                 004050aa f   mpint.obj
 0001:00004130       _mp_modsqrt                00405130 f   mpint.obj
 0001:00004172       _mp_modsub                 00405172 f   mpint.obj
 0001:000041e5       _mp_mul                    004051e5 f   mpint.obj
 0001:000042fd       _mp_mul_integer_into       004052fd f   mpint.obj
 0001:0000464b       _mp_mul_into               0040564b f   mpint.obj
 0001:0000468e       _mp_neg_into               0040568e f   mpint.obj
 0001:000046ad       _mp_new                    004056ad f   mpint.obj
 0001:000046bf       _mp_or_into                004056bf f   mpint.obj
 0001:000046f4       _mp_power_2                004056f4 f   mpint.obj
 0001:00004716       _mp_random_bits_fn         00405716 f   mpint.obj
 0001:00004769       _mp_random_in_range_fn     00405769 f   mpint.obj
 0001:000047b8       _mp_reduce_mod_2to         004057b8 f   mpint.obj
 0001:000047e0       _mp_rshift_fixed           004057e0 f   mpint.obj
 0001:00004819       _mp_rshift_fixed_into      00405819 f   mpint.obj
 0001:00004884       _mp_rshift_safe            00405884 f   mpint.obj
 0001:000049ab       _mp_select_into            004059ab f   mpint.obj
 0001:000049ef       _mp_set_bit                004059ef f   mpint.obj
 0001:00004a3e       _mp_sub                    00405a3e f   mpint.obj
 0001:00004a69       _mp_sub_integer_into       00405a69 f   mpint.obj
 0001:00004a8d       _mp_sub_into               00405a8d f   mpint.obj
 0001:00004ac3       _mp_xor_into               00405ac3 f   mpint.obj
 0001:0000a441       _aes256_decrypt_pubkey     0040b441 f   sshauxcrypt.obj
 0001:0000a466       _aes256_encrypt_pubkey     0040b466 f   sshauxcrypt.obj
 0001:0000a4e0       _des3_decrypt_pubkey       0040b4e0 f   sshauxcrypt.obj
 0001:0000a505       _des3_decrypt_pubkey_ossh  0040b505 f   sshauxcrypt.obj
 0001:0000a52e       _des3_encrypt_pubkey       0040b52e f   sshauxcrypt.obj
 0001:0000a553       _des3_encrypt_pubkey_ossh  0040b553 f   sshauxcrypt.obj
 0001:0000a620       _des_decrypt_xdmauth       0040b620 f   sshauxcrypt.obj
 0001:0000a645       _des_encrypt_xdmauth       0040b645 f   sshauxcrypt.obj
 0001:0000a6fa       _hash_simple               0040b6fa f   sshauxcrypt.obj
 0001:0000b0f3       _blowfish_expandkey        0040c0f3 f   sshblowf.obj
 0001:0000b475       _blowfish_initkey          0040c475 f   sshblowf.obj
 0001:0000c7cc       _crc32_rfc1662             0040d7cc f   sshcrc.obj
 0001:0000c7e1       _crc32_ssh1                0040d7e1 f   sshcrc.obj
 0001:0000c7f4       _crc32_update              0040d7f4 f   sshcrc.obj
 0001:0000c90e       _crcda_free_context        0040d90e f   sshcrcda.obj
 0001:0000c92b       _crcda_make_context        0040d92b f   sshcrcda.obj
 0001:0000c944       _detect_attack             0040d944 f   sshcrcda.obj
 0001:0000d821       _des_key_setup             0040e821 f   sshdes.obj
 0001:0000d97d       _dh_cleanup                0040e97d f   sshdh.obj
 0001:0000d9d4       _dh_create_e               0040e9d4 f   sshdh.obj
 0001:0000da55       _dh_find_K                 0040ea55 f   sshdh.obj
 0001:0000da88       _dh_setup_gex              0040ea88 f   sshdh.obj
 0001:0000dabb       _dh_setup_group            0040eabb f   sshdh.obj
 0001:0000daff       _dh_validate_f             0040eaff f   sshdh.obj
 0001:0000e2f4       _dss_gen_k                 0040f2f4 f   sshdss.obj
 0001:0000fc4c       _ecdsa_public              00410c4c f   sshecc.obj
 0001:0000fe22       _eddsa_public              00410e22 f   sshecc.obj
 0001:0001000d       _ssh_ecdhkex_freekey       0041100d f   sshecc.obj
 0001:0001002b       _ssh_ecdhkex_getkey        0041102b f   sshecc.obj
 0001:00010041       _ssh_ecdhkex_getpublic     00411041 f   sshecc.obj
 0001:00010052       _ssh_ecdhkex_newkey        00411052 f   sshecc.obj
 0001:0001044d       _MD5Final                  0041144d f   sshmd5.obj
 0001:00010556       _MD5Init                   00411556 f   sshmd5.obj
 0001:00011216       _primegen                  00412216 f   sshprime.obj
 0001:000116dc       _prng_add_entropy          004126dc f   sshprng.obj
 0001:000117e2       _prng_free                 004127e2 f   sshprng.obj
 0001:00011846       _prng_new                  00412846 f   sshprng.obj
 0001:000118cd       _prng_read                 004128cd f   sshprng.obj
 0001:000119b4       _prng_seed_begin           004129b4 f   sshprng.obj
 0001:000119fb       _prng_seed_finish          004129fb f   sshprng.obj
 0001:00011f62       _rsa2_invalid              00412f62 f   sshrsa.obj
 0001:00011fba       _BinarySource_get_rsa_ssh1_priv 00412fba f   sshrsa.obj
 0001:00011fcf       _BinarySource_get_rsa_ssh1_priv_agent 00412fcf f   sshrsa.obj
 0001:00012029       _BinarySource_get_rsa_ssh1_pub 00413029 f   sshrsa.obj
 0001:000120f1       _crt_modpow                004130f1 f   sshrsa.obj
 0001:00012239       _freersakey                00413239 f   sshrsa.obj
 0001:00012280       _freersapriv               00413280 f   sshrsa.obj
 0001:000124ee       _rsa_ssh1_decrypt          004134ee f   sshrsa.obj
 0001:000124f3       _rsa_ssh1_decrypt_pkcs1    004134f3 f   sshrsa.obj
 0001:000125d9       _rsa_ssh1_encrypt          004135d9 f   sshrsa.obj
 0001:0001272b       _rsa_ssh1_fingerprint      0041372b f   sshrsa.obj
 0001:0001282c       _rsa_ssh1_public_blob      0041382c f   sshrsa.obj
 0001:0001287d       _rsa_ssh1_public_blob_len  0041387d f   sshrsa.obj
 0001:000128d6       _rsa_verify                004138d6 f   sshrsa.obj
 0001:000129f5       _rsastr_fmt                004139f5 f   sshrsa.obj
 0001:00012a20       _ssh_rsakex_decrypt        00413a20 f   sshrsa.obj
 0001:00012bbe       _ssh_rsakex_encrypt        00413bbe f   sshrsa.obj
 0001:00012cfa       _ssh_rsakex_freekey        00413cfa f   sshrsa.obj
 0001:00012d09       _ssh_rsakex_klen           00413d09 f   sshrsa.obj
 0001:00012d09       _dh_modulus_bit_size       00413d09 f   sshdh.obj
 0001:00012d17       _ssh_rsakex_newkey         00413d17 f   sshrsa.obj
 0001:00013851       _SHA384_Final              00414851 f   sshsh512.obj
 0001:00013890       _SHA384_Init               00414890 f   sshsh512.obj
 0001:00014780       _SHA512_Final              00415780 f   sshsh512.obj
 0001:000148b9       _SHA512_Init               004158b9 f   sshsh512.obj
 0001:000152f2       _aes256_decrypt_pubkey_wrapper 004162f2 f   testcrypt.obj
 0001:00015340       _aes256_encrypt_pubkey_wrapper 00416340 f   testcrypt.obj
 0001:0001538e       _crcda_detect              0041638e f   testcrypt.obj
 0001:000153e5       _des3_decrypt_pubkey_ossh_wrapper 004163e5 f   testcrypt.obj
 0001:00015443       _des3_decrypt_pubkey_wrapper 00416443 f   testcrypt.obj
 0001:00015491       _des3_encrypt_pubkey_ossh_wrapper 00416491 f   testcrypt.obj
 0001:000154ef       _des3_encrypt_pubkey_wrapper 004164ef f   testcrypt.obj
 0001:0001553d       _des_decrypt_xdmauth_wrapper 0041653d f   testcrypt.obj
 0001:0001558b       _des_encrypt_xdmauth_wrapper 0041658b f   testcrypt.obj
 0001:000155d9       _dh_validate_f_wrapper     004165d9 f   testcrypt.obj
 0001:000164ad       _main                      004174ad f   testcrypt.obj
 0001:0001674d       _monty_identity_wrapper    0041774d f   testcrypt.obj
 0001:0001675f       _monty_modulus_wrapper     0041775f f   testcrypt.obj
 0001:00016771       _out_of_memory             00417771 f   testcrypt.obj
 0001:0001677c       _primegen_wrapper          0041777c f   testcrypt.obj
 0001:000167a1       _printf                    004177a1 f i testcrypt.obj
 0001:000167be       _prng_read_wrapper         004177be f   testcrypt.obj
 0001:000167e7       _prng_reseed_time_ms       004177e7 f   testcrypt.obj
 0001:00016806       _prng_seed_update          00417806 f   testcrypt.obj
 0001:00018b0e       _random_read               00419b0e f   testcrypt.obj
 0001:00018b8f       _return_val_cipher         00419b8f f   testcrypt.obj
 0001:00018bbd       _return_val_dh             00419bbd f   testcrypt.obj
 0001:00018beb       _return_val_ecdh           00419beb f   testcrypt.obj
 0001:00018c19       _return_val_ecurve         00419c19 f   testcrypt.obj
 0001:00018c47       _return_val_epoint         00419c47 f   testcrypt.obj
 0001:00018c75       _return_val_hash           00419c75 f   testcrypt.obj
 0001:00018ca3       _return_val_key            00419ca3 f   testcrypt.obj
 0001:00018cd1       _return_val_mac            00419cd1 f   testcrypt.obj
 0001:00018cff       _return_val_mcurve         00419cff f   testcrypt.obj
 0001:00018d2d       _return_val_modsqrt        00419d2d f   testcrypt.obj
 0001:00018d5b       _return_val_monty          00419d5b f   testcrypt.obj
 0001:00018d89       _return_val_mpint          00419d89 f   testcrypt.obj
 0001:00018db7       _return_val_mpoint         00419db7 f   testcrypt.obj
 0001:00018de5       _return_val_prng           00419de5 f   testcrypt.obj
 0001:00018e13       _return_val_rsa            00419e13 f   testcrypt.obj
 0001:00018e41       _return_val_rsakex         00419e41 f   testcrypt.obj
 0001:00018e6f       _return_val_string         00419e6f f   testcrypt.obj
 0001:00018ee5       _return_val_wcurve         00419ee5 f   testcrypt.obj
 0001:00018f13       _return_val_wpoint         00419f13 f   testcrypt.obj
 0001:00018f41       _rsa_ssh1_decrypt_pkcs1_wrapper 00419f41 f   testcrypt.obj
 0001:00018f6c       _rsa_ssh1_encrypt_wrapper  00419f6c f   testcrypt.obj
 0001:00018fa3       _ssh2_mac_genresult_wrapper 00419fa3 f   testcrypt.obj
 0001:00018fca       _ssh_hash_update           00419fca f   testcrypt.obj
 0001:00018fca       _ssh2_mac_update           00419fca f   testcrypt.obj
 0001:00018fe2       _ssh_cipher_decrypt_length_wrapper 00419fe2 f   testcrypt.obj
 0001:00019031       _ssh_cipher_decrypt_wrapper 0041a031 f   testcrypt.obj
 0001:00019080       _ssh_cipher_encrypt_length_wrapper 0041a080 f   testcrypt.obj
 0001:000190c5       _ssh_cipher_encrypt_wrapper 0041a0c5 f   testcrypt.obj
 0001:00019114       _ssh_cipher_setiv_wrapper  0041a114 f   testcrypt.obj
 0001:0001913a       _ssh_cipher_setkey_wrapper 0041a13a f   testcrypt.obj
 0001:00019160       _ssh_hash_final_wrapper    0041a160 f   testcrypt.obj
 0001:000192b3       _add234                    0041a2b3 f   tree234.obj
 0001:00019815       _del234                    0041a815 f   tree234.obj
 0001:00019844       _delpos234                 0041a844 f   tree234.obj
 0001:00019cf3       _find234                   0041acf3 f   tree234.obj
 0001:00019d0c       _findrelpos234             0041ad0c f   tree234.obj
 0001:00019e42       _freetree234               0041ae42 f   tree234.obj
 0001:00019e58       _index234                  0041ae58 f   tree234.obj
 0001:00019ed2       _newtree234                0041aed2 f   tree234.obj
 0001:00019eeb       _search234_start           0041aeeb f   tree234.obj
 0001:00019f0b       _search234_step            0041af0b f   tree234.obj
 0001:00019fee       _bufchain_add              0041afee f   utils.obj
 0001:0001a08e       _bufchain_clear            0041b08e f   utils.obj
 0001:0001a0c0       _bufchain_consume          0041b0c0 f   utils.obj
 0001:0001a14a       _bufchain_fetch            0041b14a f   utils.obj
 0001:0001a1be       _bufchain_fetch_consume    0041b1be f   utils.obj
 0001:0001a1df       _bufchain_size             0041b1df f   utils.obj
 0001:0001a1e7       _bufchain_try_fetch_consume 0041b1e7 f   utils.obj
 0001:0001a208       _chomp                     0041b208 f   utils.obj
 0001:0001a235       _dupprintf                 0041b235 f   utils.obj
 0001:0001a246       _dupvprintf                0041b246 f   utils.obj
 0001:0001a2de       _fgetline                  0041b2de f   utils.obj
 0001:0001a368       _mkstr                     0041b368 f   utils.obj
 0001:0001a397       _ptrlen_eq_ptrlen          0041b397 f   utils.obj
 0001:0001a3bb       _ptrlen_eq_string          0041b3bb f   utils.obj
 0001:0001a3e5       _ptrlen_strcmp             0041b3e5 f   utils.obj
 0001:0001a424       _smemeq                    0041b424 f   utils.obj
 0001:0001a483       _strbuf_append             0041b483 f   utils.obj
 0001:0001a4c3       _strbuf_catf               0041b4c3 f   utils.obj
 0001:0001a4d9       _strbuf_catfv              0041b4d9 f   utils.obj
 0001:0001a50e       _strbuf_free               0041b50e f   utils.obj
 0001:0001a53a       _strbuf_new                0041b53a f   utils.obj
 0001:0001a58a       _strbuf_new_nm             0041b58a f   utils.obj
 0001:0001a593       _strbuf_shrink_to          0041b593 f   utils.obj
 0001:0001a5c5       _strbuf_to_str             0041b5c5 f   utils.obj
 0001:0001a5db       _string_length_for_printf  0041b5db f   utils.obj
 0001:0001a5ea       _vsnprintf                 0041b5ea f i utils.obj
 0001:0001a61b       _smemclr                   0041b61b f   winmiscs.obj
 0001:0001a635       @__security_check_cookie@4 0041b635 f   LIBCMT:_secchk_.obj
 0001:0001a650       __allmul                   0041b650 f   LIBCMT:llmul.obj
 0001:0001a690       __allshl                   0041b690 f   LIBCMT:llshl.obj
 0001:0001a6b0       __aullshr                  0041b6b0 f   LIBCMT:ullshr.obj
 0001:0001a6cf       ___raise_securityfailure   0041b6cf f   LIBCMT:gs_report.obj
 0001:0001a6f7       ___report_gsfailure        0041b6f7 f   LIBCMT:gs_report.obj
 0001:0001a7f2       ___report_rangecheckfailure 0041b7f2 f   LIBCMT:gs_report.obj
 0001:0001a7fe       ___report_securityfailure  0041b7fe f   LIBCMT:gs_report.obj
 0001:0001a8d0       __chkstk                   0041b8d0 f   LIBCMT:chkstk.obj
 0001:0001a8d0       __alloca_probe             0041b8d0 f   LIBCMT:chkstk.obj
 0001:0001a8fd       ??$__crt_fast_encode_pointer@PAP6AXXZ@@YAPAP6AXXZQAP6AXXZ@Z 0041b8fd f i LIBCMT:utility.obj
 0001:0001a8fd       ??$__crt_fast_encode_pointer@PAX@@YAPAXQAX@Z 0041b8fd f i libvcruntime:winapi_downlevel.obj
 0001:0001a95e       ___scrt_acquire_startup_lock 0041b95e f   LIBCMT:utility.obj
 0001:0001a993       ___scrt_initialize_crt     0041b993 f   LIBCMT:utility.obj
 0001:0001a9cc       ___scrt_initialize_onexit_tables 0041b9cc f   LIBCMT:utility.obj
 0001:0001aa63       ___scrt_is_nonwritable_in_current_image 0041ba63 f   LIBCMT:utility.obj
 0001:0001aaed       ___scrt_release_startup_lock 0041baed f   LIBCMT:utility.obj
 0001:0001ab0a       ___scrt_uninitialize_crt   0041bb0a f   LIBCMT:utility.obj
 0001:0001ab32       __onexit                   0041bb32 f   LIBCMT:utility.obj
 0001:0001ab6d       _atexit                    0041bb6d f   LIBCMT:utility.obj
 0001:0001adaf       _mainCRTStartup            0041bdaf f   LIBCMT:exe_main.obj
 0001:0001adb9       ___isa_available_init      0041bdb9 f   LIBCMT:_cpu_disp_.obj
 0001:0001af53       __get_startup_argv_mode    0041bf53 f   LIBCMT:argv_mode.obj
 0001:0001af57       ___scrt_is_ucrt_dll_in_use 0041bf57 f   LIBCMT:ucrt_detection.obj
 0001:0001af63       ___scrt_fastfail           0041bf63 f   LIBCMT:utility_desktop.obj
 0001:0001b07e       ___scrt_set_unhandled_exception_filter 0041c07e f   LIBCMT:utility_desktop.obj
 0001:0001b08a       ___scrt_unhandled_exception_filter@4 0041c08a f   LIBCMT:utility_desktop.obj
 0001:0001b0cb       __crt_debugger_hook        0041c0cb f   LIBCMT:utility_desktop.obj
 0001:0001b0d3       @_guard_check_icall@4      0041c0d3 f i LIBCMT:checkcfg.obj
 0001:0001b0e0       __SEH_prolog4              0041c0e0 f   LIBCMT:_sehprolg4_.obj
 0001:0001b126       __SEH_epilog4              0041c126 f   LIBCMT:_sehprolg4_.obj
 0001:0001b13b       ___security_init_cookie    0041c13b f   LIBCMT:gs_support.obj
 0001:0001b1d7       __get_startup_new_mode     0041c1d7 f   LIBCMT:new_mode.obj
 0001:0001b1d7       __matherr                  0041c1d7 f   LIBCMT:matherr.obj
 0001:0001b1d7       __get_startup_commit_mode  0041c1d7 f   LIBCMT:commit_mode.obj
 0001:0001b1d7       __get_startup_thread_locale_mode 0041c1d7 f   LIBCMT:thread_locale.obj
 0001:0001b1d7       ___scrt_initialize_winrt   0041c1d7 f   LIBCMT:utility_desktop.obj
 0001:0001b1da       __get_startup_file_mode    0041c1da f   LIBCMT:file_mode.obj
 0001:0001b1e0       ?__scrt_initialize_type_info@@YAXXZ 0041c1e0 f   LIBCMT:tncleanup.obj
 0001:0001b1ec       __initialize_default_precision 0041c1ec f   LIBCMT:default_precision.obj
 0001:0001b20d       __initialize_invalid_parameter_handler 0041c20d f   LIBCMT:invalid_parameter_handler.obj
 0001:0001b20d       @_guard_check_icall_nop@4  0041c20d f   LIBCMT:guard_support.obj
 0001:0001b20d       ___except_validate_jump_buffer 0041c20d f   libvcruntime:jbcxrval.obj
 0001:0001b20d       ___except_validate_context_record 0041c20d f   libvcruntime:jbcxrval.obj
 0001:0001b20d       __initialize_denormal_control 0041c20d f   LIBCMT:denormal_control.obj
 0001:0001b20e       ___local_stdio_scanf_options 0041c20e f i LIBCMT:default_local_stdio_options.obj
 0001:0001b214       ___scrt_initialize_default_local_stdio_options 0041c214 f   LIBCMT:default_local_stdio_options.obj
 0001:0001b231       ___scrt_is_user_matherr_present 0041c231 f   LIBCMT:matherr_detection.obj
 0001:0001b23d       ___scrt_get_dyn_tls_init_callback 0041c23d f   LIBCMT:dyn_tls_init.obj
 0001:0001b243       ___scrt_get_dyn_tls_dtor_callback 0041c243 f   LIBCMT:dyn_tls_dtor.obj
 0001:0001b249       __RTC_Initialize           0041c249 f   LIBCMT:_initsect_.obj
 0001:0001b274       __RTC_Terminate            0041c274 f   LIBCMT:_initsect_.obj
 0001:0001b2a0       _IsProcessorFeaturePresent@4 0041c2a0 f   kernel32:KERNEL32.dll
 0001:0001b2b0       _memchr                    0041c2b0 f   libvcruntime:memchr.obj
 0001:0001b360       _memset                    0041c360 f   libvcruntime:memset.obj
 0001:0001b4c0       _memcpy                    0041c4c0 f   libvcruntime:memcpy.obj
 0001:0001ba40       _memmove                   0041ca40 f   libvcruntime:memmove.obj
 0001:0001bfb4       _memcmp                    0041cfb4 f   libvcruntime:_memcmp_.obj
 0001:0001d740       _strchr                    0041e740 f   libvcruntime:strchr.obj
 0001:0001d7ae       ___from_strstr_to_strchr   0041e7ae     libvcruntime:strchr.obj
 0001:0001d86b       ___vcrt_initialize         0041e86b f   libvcruntime:initialization.obj
 0001:0001d894       ___vcrt_uninitialize       0041e894 f   libvcruntime:initialization.obj
 0001:0001d900       __except_handler4          0041e900 f   libvcruntime:_chandler4_.obj
 0001:0001da66       ___vcrt_freefls@4          0041ea66 f   libvcruntime:per_thread_data.obj
 0001:0001da82       ___vcrt_initialize_ptd     0041ea82 f   libvcruntime:per_thread_data.obj
 0001:0001dab5       ___vcrt_uninitialize_ptd   0041eab5 f   libvcruntime:per_thread_data.obj
 0001:0001dad0       ___vcrt_initialize_locks   0041ead0 f   libvcruntime:locks.obj
 0001:0001db0c       ___vcrt_uninitialize_locks 0041eb0c f   libvcruntime:locks.obj
 0001:0001dc5c       ___vcrt_FlsAlloc           0041ec5c f   libvcruntime:winapi_downlevel.obj
 0001:0001dc96       ___vcrt_FlsFree            0041ec96 f   libvcruntime:winapi_downlevel.obj
 0001:0001dcd0       ___vcrt_FlsSetValue        0041ecd0 f   libvcruntime:winapi_downlevel.obj
 0001:0001dd0d       ___vcrt_InitializeCriticalSectionEx 0041ed0d f   libvcruntime:winapi_downlevel.obj
 0001:0001dd53       ___vcrt_initialize_winapi_thunks 0041ed53 f   libvcruntime:winapi_downlevel.obj
 0001:0001dd8d       ___vcrt_uninitialize_winapi_thunks 0041ed8d f   libvcruntime:winapi_downlevel.obj
 0001:0001ddbf       ___vcrt_initialize_pure_virtual_call_handler 0041edbf f   libvcruntime:purevirt_data.obj
 0001:0001dde0       __local_unwind4            0041ede0 f   libvcruntime:_exsup4_.obj
 0001:0001deb6       __seh_longjmp_unwind4@4    0041eeb6 f   libvcruntime:_exsup4_.obj
 0001:0001dede       @_EH4_CallFilterFunc@8     0041eede f   libvcruntime:_exsup4_.obj
 0001:0001def5       @_EH4_TransferToHandler@8  0041eef5 f   libvcruntime:_exsup4_.obj
 0001:0001df0e       @_EH4_GlobalUnwind2@8      0041ef0e f   libvcruntime:_exsup4_.obj
 0001:0001df27       @_EH4_LocalUnwind@16       0041ef27 f   libvcruntime:_exsup4_.obj
 0001:0001df40       __global_unwind2           0041ef40 f   libvcruntime:_exsup_.obj
 0001:0001dfa5       __local_unwind2            0041efa5 f   libvcruntime:_exsup_.obj
 0001:0001e029       __abnormal_termination     0041f029 f   libvcruntime:_exsup_.obj
 0001:0001e04c       __NLG_Notify1              0041f04c f   libvcruntime:_exsup_.obj
 0001:0001e055       __NLG_Notify               0041f055 f   libvcruntime:_exsup_.obj
 0001:0001e06c       __NLG_Dispatch2            0041f06c     libvcruntime:_exsup_.obj
 0001:0001e06c       __NLG_Dispatch             0041f06c     libvcruntime:_exsup_.obj
 0001:0001e074       __NLG_Call                 0041f074 f   libvcruntime:_exsup_.obj
 0001:0001e076       __NLG_Return2              0041f076     libvcruntime:_exsup_.obj
 0001:0001e6db       ??$ftprintf@PAU_iobuf@@PB_WABQB_WABQB_WABI@?$__crt_char_traits@_W@@SAH$$QAPAU_iobuf@@$$QAPB_WABQB_W2ABI@Z 0041f6db f i libucrt:assert.obj
 0001:0001e7ba       __vfwprintf_l              0041f7ba f i libucrt:assert.obj
 0001:0001e7df       __vswprintf_c_l            0041f7df f i libucrt:assert.obj
 0001:0001e80e       __wassert                  0041f80e f   libucrt:assert.obj
 0001:0001e856       _fwprintf                  0041f856 f i libucrt:assert.obj
 0001:0001e871       _swprintf                  0041f871 f i libucrt:assert.obj
 0001:0001e890       _strlen                    0041f890 f   libucrt:strlen.obj
 0001:0001e91b       _free                      0041f91b f   libucrt:free.obj
 0001:0001e920       _malloc                    0041f920 f   libucrt:malloc.obj
 0001:0001e92b       _realloc                   0041f92b f   libucrt:realloc.obj
 0001:0001e936       ??$?RV<lambda_ab9923ffb5d694ec0d78876dd103e44f>@@AAV<lambda_481dd5778c961fbcd3b60b650e9b9dc4>@@V<lambda_7923d86c9e3f319b415918ec4b39749c>@@@?$__crt_seh_guarded_call@H@@QAEH$$QAV<lambda_ab9923ffb5d694ec0d78876dd103e44f>@@AAV<lambda_481dd5778c961fbcd3b60b650e9b9dc4>@@$$QAV<lambda_7923d86c9e3f319b415918ec4b39749c>@@@Z 0041f936 f i libucrt:output.obj
 0001:0001e987       ??$?RV<lambda_db08b09ef7aa9d4f8620ce68402612bc>@@AAV<lambda_4f2c1eaeead2a5fc776db5b62ea0fb9b>@@V<lambda_3ae262bc35d4ba6a3825c4f6bcaaf95c>@@@?$__crt_seh_guarded_call@H@@QAEH$$QAV<lambda_db08b09ef7aa9d4f8620ce68402612bc>@@AAV<lambda_4f2c1eaeead2a5fc776db5b62ea0fb9b>@@$$QAV<lambda_3ae262bc35d4ba6a3825c4f6bcaaf95c>@@@Z 0041f987 f i libucrt:output.obj
 0001:0001e9d8       ??$__acrt_lock_stream_and_call@V<lambda_481dd5778c961fbcd3b60b650e9b9dc4>@@@@YAHQAU_iobuf@@$$QAV<lambda_481dd5778c961fbcd3b60b650e9b9dc4>@@@Z 0041f9d8 f i libucrt:output.obj
 0001:0001ea00       ??$__acrt_lock_stream_and_call@V<lambda_4f2c1eaeead2a5fc776db5b62ea0fb9b>@@@@YAHQAU_iobuf@@$$QAV<lambda_4f2c1eaeead2a5fc776db5b62ea0fb9b>@@@Z 0041fa00 f i libucrt:output.obj
 0001:0001ed29       ??$count@D@formatting_buffer@__crt_stdio_output@@QBEIXZ 0041fd29 f i libucrt:output.obj
 0001:0001ed41       ??$ensure_buffer_is_big_enough@D@formatting_buffer@__crt_stdio_output@@QAE_NI@Z 0041fd41 f i libucrt:output.obj
 0001:0001edc7       ??$is_wide_character_specifier@D@__crt_stdio_output@@YA_N_KDW4length_modifier@0@@Z 0041fdc7 f i libucrt:output.obj
 0001:0001ee07       ??$is_wide_character_specifier@_W@__crt_stdio_output@@YA_N_K_WW4length_modifier@0@@Z 0041fe07 f i libucrt:output.obj
 0001:0001ee56       ??$scratch_data@D@formatting_buffer@__crt_stdio_output@@QAEPADXZ 0041fe56 f i libucrt:output.obj
 0001:0001ee74       ??$type_case_integer_parse_into_buffer@I@?$output_processor@_WV?$string_output_adapter@_W@__crt_stdio_output@@V?$standard_base@_WV?$string_output_adapter@_W@__crt_stdio_output@@@2@@__crt_stdio_output@@AAEXII_N@Z 0041fe74 f i libucrt:output.obj
 0001:0001ee74       ??$type_case_integer_parse_into_buffer@I@?$output_processor@DV?$string_output_adapter@D@__crt_stdio_output@@V?$standard_base@DV?$string_output_adapter@D@__crt_stdio_output@@@2@@__crt_stdio_output@@AAEXII_N@Z 0041fe74 f i libucrt:output.obj
 0001:0001ee74       ??$type_case_integer_parse_into_buffer@I@?$output_processor@_WV?$stream_output_adapter@_W@__crt_stdio_output@@V?$standard_base@_WV?$stream_output_adapter@_W@__crt_stdio_output@@@2@@__crt_stdio_output@@AAEXII_N@Z 0041fe74 f i libucrt:output.obj
 0001:0001ee74       ??$type_case_integer_parse_into_buffer@I@?$output_processor@DV?$stream_output_adapter@D@__crt_stdio_output@@V?$standard_base@DV?$stream_output_adapter@D@__crt_stdio_output@@@2@@__crt_stdio_output@@AAEXII_N@Z 0041fe74 f i libucrt:output.obj
 0001:0001eee9       ??$type_case_integer_parse_into_buffer@_K@?$output_processor@_WV?$string_output_adapter@_W@__crt_stdio_output@@V?$standard_base@_WV?$string_output_adapter@_W@__crt_stdio_output@@@2@@__crt_stdio_output@@AAEX_KI_N@Z 0041fee9 f i libucrt:output.obj
 0001:0001eee9       ??$type_case_integer_parse_into_buffer@_K@?$output_processor@DV?$string_output_adapter@D@__crt_stdio_output@@V?$standard_base@DV?$string_output_adapter@D@__crt_stdio_output@@@2@@__crt_stdio_output@@AAEX_KI_N@Z 0041fee9 f i libucrt:output.obj
 0001:0001eee9       ??$type_case_integer_parse_into_buffer@_K@?$output_processor@_WV?$stream_output_adapter@_W@__crt_stdio_output@@V?$standard_base@_WV?$stream_output_adapter@_W@__crt_stdio_output@@@2@@__crt_stdio_output@@AAEX_KI_N@Z 0041fee9 f i libucrt:output.obj
 0001:0001eee9       ??$type_case_integer_parse_into_buffer@_K@?$output_processor@DV?$stream_output_adapter@D@__crt_stdio_output@@V?$standard_base@DV?$stream_output_adapter@D@__crt_stdio_output@@@2@@__crt_stdio_output@@AAEX_KI_N@Z 0041fee9 f i libucrt:output.obj
 0001:0001ef71       ??$write_multiple_characters@V?$stream_output_adapter@D@__crt_stdio_output@@D@__crt_stdio_output@@YAXABV?$stream_output_adapter@D@0@DHQAH@Z 0041ff71 f i libucrt:output.obj
 0001:0001ef9d       ??$write_multiple_characters@V?$stream_output_adapter@_W@__crt_stdio_output@@D@__crt_stdio_output@@YAXABV?$stream_output_adapter@_W@0@DHQAH@Z 0041ff9d f i libucrt:output.obj
 0001:0001efce       ??$write_multiple_characters@V?$string_output_adapter@D@__crt_stdio_output@@D@__crt_stdio_output@@YAXABV?$string_output_adapter@D@0@DHQAH@Z 0041ffce f i libucrt:output.obj
 0001:0001effa       ??$write_multiple_characters@V?$string_output_adapter@_W@__crt_stdio_output@@D@__crt_stdio_output@@YAXABV?$string_output_adapter@_W@0@DHQAH@Z 0041fffa f i libucrt:output.obj
 0001:0001f02b       ??0?$common_data@D@__crt_stdio_output@@IAE@XZ 0042002b f i libucrt:output.obj
 0001:0001f072       ??0?$common_data@_W@__crt_stdio_output@@IAE@XZ 00420072 f i libucrt:output.obj
 0001:0001f0be       ??0?$output_adapter_data@DV?$stream_output_adapter@D@__crt_stdio_output@@@__crt_stdio_output@@IAE@ABV?$stream_output_adapter@D@1@_KQBDQAU__crt_locale_pointers@@QAD@Z 004200be f i libucrt:output.obj
 0001:0001f0be       ??0?$output_adapter_data@DV?$string_output_adapter@D@__crt_stdio_output@@@__crt_stdio_output@@IAE@ABV?$string_output_adapter@D@1@_KQBDQAU__crt_locale_pointers@@QAD@Z 004200be f i libucrt:output.obj
 0001:0001f0fa       ??0?$output_adapter_data@_WV?$string_output_adapter@_W@__crt_stdio_output@@@__crt_stdio_output@@IAE@ABV?$string_output_adapter@_W@1@_KQB_WQAU__crt_locale_pointers@@QAD@Z 004200fa f i libucrt:output.obj
 0001:0001f0fa       ??0?$output_adapter_data@_WV?$stream_output_adapter@_W@__crt_stdio_output@@@__crt_stdio_output@@IAE@ABV?$stream_output_adapter@_W@1@_KQB_WQAU__crt_locale_pointers@@QAD@Z 004200fa f i libucrt:output.obj
 0001:0001f136       ??0?$output_processor@DV?$string_output_adapter@D@__crt_stdio_output@@V?$standard_base@DV?$string_output_adapter@D@__crt_stdio_output@@@2@@__crt_stdio_output@@QAE@ABV?$string_output_adapter@D@1@_KQBDQAU__crt_locale_pointers@@QAD@Z 00420136 f i libucrt:output.obj
 0001:0001f136       ??0?$output_processor@DV?$stream_output_adapter@D@__crt_stdio_output@@V?$standard_base@DV?$stream_output_adapter@D@__crt_stdio_output@@@2@@__crt_stdio_output@@QAE@ABV?$stream_output_adapter@D@1@_KQBDQAU__crt_locale_pointers@@QAD@Z 00420136 f i libucrt:output.obj
 0001:0001f16b       ??0?$output_processor@_WV?$stream_output_adapter@_W@__crt_stdio_output@@V?$standard_base@_WV?$stream_output_adapter@_W@__crt_stdio_output@@@2@@__crt_stdio_output@@QAE@ABV?$stream_output_adapter@_W@1@_KQB_WQAU__crt_locale_pointers@@QAD@Z 0042016b f i libucrt:output.obj
 0001:0001f16b       ??0?$output_processor@_WV?$string_output_adapter@_W@__crt_stdio_output@@V?$standard_base@_WV?$string_output_adapter@_W@__crt_stdio_output@@@2@@__crt_stdio_output@@QAE@ABV?$string_output_adapter@_W@1@_KQB_WQAU__crt_locale_pointers@@QAD@Z 0042016b f i libucrt:output.obj
 0001:0001f1a0       ??0_LocaleUpdate@@QAE@QAU__crt_locale_pointers@@@Z 004201a0 f i libucrt:output.obj
 0001:0001f223       ??1formatting_buffer@__crt_stdio_output@@QAE@XZ 00420223 f i libucrt:output.obj
 0001:0001f23d       ??4?$__crt_unique_heap_ptr@DU__crt_internal_free_policy@@@@QAEAAV0@$$QAV0@@Z 0042023d f i libucrt:output.obj
 0001:0001f3db       ?crop_zeroes@__crt_stdio_output@@YAXPADQAU__crt_locale_pointers@@@Z 004203db f i libucrt:output.obj
 0001:0001f432       ?find_next_state@?$output_processor@DV?$stream_output_adapter@D@__crt_stdio_output@@V?$standard_base@DV?$stream_output_adapter@D@__crt_stdio_output@@@2@@__crt_stdio_output@@ABE?AW4state@2@DW432@@Z 00420432 f i libucrt:output.obj
 0001:0001f432       ?find_next_state@?$output_processor@DV?$string_output_adapter@D@__crt_stdio_output@@V?$standard_base@DV?$string_output_adapter@D@__crt_stdio_output@@@2@@__crt_stdio_output@@ABE?AW4state@2@DW432@@Z 00420432 f i libucrt:output.obj
 0001:0001f464       ?find_next_state@?$output_processor@_WV?$string_output_adapter@_W@__crt_stdio_output@@V?$standard_base@_WV?$string_output_adapter@_W@__crt_stdio_output@@@2@@__crt_stdio_output@@ABE?AW4state@2@_WW432@@Z 00420464 f i libucrt:output.obj
 0001:0001f464       ?find_next_state@?$output_processor@_WV?$stream_output_adapter@_W@__crt_stdio_output@@V?$standard_base@_WV?$stream_output_adapter@_W@__crt_stdio_output@@@2@@__crt_stdio_output@@ABE?AW4state@2@_WW432@@Z 00420464 f i libucrt:output.obj
 0001:0001f498       ?force_decimal_point@__crt_stdio_output@@YAXPADQAU__crt_locale_pointers@@@Z 00420498 f i libucrt:output.obj
 0001:0001f4f4       ?parse_int_from_format_string@?$output_processor@DV?$stream_output_adapter@D@__crt_stdio_output@@V?$standard_base@DV?$stream_output_adapter@D@__crt_stdio_output@@@2@@__crt_stdio_output@@AAE_NQAH@Z 004204f4 f i libucrt:output.obj
 0001:0001f4f4       ?parse_int_from_format_string@?$output_processor@DV?$string_output_adapter@D@__crt_stdio_output@@V?$standard_base@DV?$string_output_adapter@D@__crt_stdio_output@@@2@@__crt_stdio_output@@AAE_NQAH@Z 004204f4 f i libucrt:output.obj
 0001:0001f550       ?parse_int_from_format_string@?$output_processor@_WV?$stream_output_adapter@_W@__crt_stdio_output@@V?$standard_base@_WV?$stream_output_adapter@_W@__crt_stdio_output@@@2@@__crt_stdio_output@@AAE_NQAH@Z 00420550 f i libucrt:output.obj
 0001:0001f550       ?parse_int_from_format_string@?$output_processor@_WV?$string_output_adapter@_W@__crt_stdio_output@@V?$standard_base@_WV?$string_output_adapter@_W@__crt_stdio_output@@@2@@__crt_stdio_output@@AAE_NQAH@Z 00420550 f i libucrt:output.obj
 0001:0001f5ae       ?process@?$output_processor@DV?$stream_output_adapter@D@__crt_stdio_output@@V?$standard_base@DV?$stream_output_adapter@D@__crt_stdio_output@@@2@@__crt_stdio_output@@QAEHXZ 004205ae f i libucrt:output.obj
 0001:0001f6ca       ?process@?$output_processor@DV?$string_output_adapter@D@__crt_stdio_output@@V?$standard_base@DV?$string_output_adapter@D@__crt_stdio_output@@@2@@__crt_stdio_output@@QAEHXZ 004206ca f i libucrt:output.obj
 0001:0001f7e6       ?process@?$output_processor@_WV?$stream_output_adapter@_W@__crt_stdio_output@@V?$standard_base@_WV?$stream_output_adapter@_W@__crt_stdio_output@@@2@@__crt_stdio_output@@QAEHXZ 004207e6 f i libucrt:output.obj
 0001:0001f906       ?process@?$output_processor@_WV?$string_output_adapter@_W@__crt_stdio_output@@V?$standard_base@_WV?$string_output_adapter@_W@__crt_stdio_output@@@2@@__crt_stdio_output@@QAEHXZ 00420906 f i libucrt:output.obj
 0001:0001fa26       ?state_case_flag@?$output_processor@DV?$string_output_adapter@D@__crt_stdio_output@@V?$standard_base@DV?$string_output_adapter@D@__crt_stdio_output@@@2@@__crt_stdio_output@@AAE_NXZ 00420a26 f i libucrt:output.obj
 0001:0001fa26       ?state_case_flag@?$output_processor@DV?$stream_output_adapter@D@__crt_stdio_output@@V?$standard_base@DV?$stream_output_adapter@D@__crt_stdio_output@@@2@@__crt_stdio_output@@AAE_NXZ 00420a26 f i libucrt:output.obj
 0001:0001fa63       ?state_case_flag@?$output_processor@_WV?$stream_output_adapter@_W@__crt_stdio_output@@V?$standard_base@_WV?$stream_output_adapter@_W@__crt_stdio_output@@@2@@__crt_stdio_output@@AAE_NXZ 00420a63 f i libucrt:output.obj
 0001:0001fa63       ?state_case_flag@?$output_processor@_WV?$string_output_adapter@_W@__crt_stdio_output@@V?$standard_base@_WV?$string_output_adapter@_W@__crt_stdio_output@@@2@@__crt_stdio_output@@AAE_NXZ 00420a63 f i libucrt:output.obj
 0001:0001faa0       ?state_case_normal@?$output_processor@DV?$stream_output_adapter@D@__crt_stdio_output@@V?$standard_base@DV?$stream_output_adapter@D@__crt_stdio_output@@@2@@__crt_stdio_output@@AAE_NXZ 00420aa0 f i libucrt:output.obj
 0001:0001fabf       ?state_case_normal@?$output_processor@DV?$string_output_adapter@D@__crt_stdio_output@@V?$standard_base@DV?$string_output_adapter@D@__crt_stdio_output@@@2@@__crt_stdio_output@@AAE_NXZ 00420abf f i libucrt:output.obj
 0001:0001fade       ?state_case_normal@?$output_processor@_WV?$stream_output_adapter@_W@__crt_stdio_output@@V?$standard_base@_WV?$stream_output_adapter@_W@__crt_stdio_output@@@2@@__crt_stdio_output@@AAE_NXZ 00420ade f i libucrt:output.obj
 0001:0001fafd       ?state_case_normal@?$output_processor@_WV?$string_output_adapter@_W@__crt_stdio_output@@V?$standard_base@_WV?$string_output_adapter@_W@__crt_stdio_output@@@2@@__crt_stdio_output@@AAE_NXZ 00420afd f i libucrt:output.obj
 0001:0001fb1c       ?state_case_normal_common@?$output_processor@DV?$stream_output_adapter@D@__crt_stdio_output@@V?$standard_base@DV?$stream_output_adapter@D@__crt_stdio_output@@@2@@__crt_stdio_output@@AAE_NXZ 00420b1c f i libucrt:output.obj
 0001:0001fb46       ?state_case_normal_common@?$output_processor@DV?$string_output_adapter@D@__crt_stdio_output@@V?$standard_base@DV?$string_output_adapter@D@__crt_stdio_output@@@2@@__crt_stdio_output@@AAE_NXZ 00420b46 f i libucrt:output.obj
 0001:0001fb70       ?state_case_normal_common@?$output_processor@_WV?$stream_output_adapter@_W@__crt_stdio_output@@V?$standard_base@_WV?$stream_output_adapter@_W@__crt_stdio_output@@@2@@__crt_stdio_output@@AAE_NXZ 00420b70 f i libucrt:output.obj
 0001:0001fb8b       ?state_case_normal_common@?$output_processor@_WV?$string_output_adapter@_W@__crt_stdio_output@@V?$standard_base@_WV?$string_output_adapter@_W@__crt_stdio_output@@@2@@__crt_stdio_output@@AAE_NXZ 00420b8b f i libucrt:output.obj
 0001:0001fba6       ?state_case_normal_tchar@?$output_processor@DV?$stream_output_adapter@D@__crt_stdio_output@@V?$standard_base@DV?$stream_output_adapter@D@__crt_stdio_output@@@2@@__crt_stdio_output@@AAE_ND@Z 00420ba6 f i libucrt:output.obj
 0001:0001fc07       ?state_case_normal_tchar@?$output_processor@DV?$string_output_adapter@D@__crt_stdio_output@@V?$standard_base@DV?$string_output_adapter@D@__crt_stdio_output@@@2@@__crt_stdio_output@@AAE_ND@Z 00420c07 f i libucrt:output.obj
 0001:0001fc68       ?state_case_precision@?$output_processor@DV?$string_output_adapter@D@__crt_stdio_output@@V?$standard_base@DV?$string_output_adapter@D@__crt_stdio_output@@@2@@__crt_stdio_output@@AAE_NXZ 00420c68 f i libucrt:output.obj
 0001:0001fc68       ?state_case_precision@?$output_processor@DV?$stream_output_adapter@D@__crt_stdio_output@@V?$standard_base@DV?$stream_output_adapter@D@__crt_stdio_output@@@2@@__crt_stdio_output@@AAE_NXZ 00420c68 f i libucrt:output.obj
 0001:0001fc90       ?state_case_precision@?$output_processor@_WV?$stream_output_adapter@_W@__crt_stdio_output@@V?$standard_base@_WV?$stream_output_adapter@_W@__crt_stdio_output@@@2@@__crt_stdio_output@@AAE_NXZ 00420c90 f i libucrt:output.obj
 0001:0001fc90       ?state_case_precision@?$output_processor@_WV?$string_output_adapter@_W@__crt_stdio_output@@V?$standard_base@_WV?$string_output_adapter@_W@__crt_stdio_output@@@2@@__crt_stdio_output@@AAE_NXZ 00420c90 f i libucrt:output.obj
 0001:0001fcb9       ?state_case_size@?$output_processor@DV?$stream_output_adapter@D@__crt_stdio_output@@V?$standard_base@DV?$stream_output_adapter@D@__crt_stdio_output@@@2@@__crt_stdio_output@@AAE_NXZ 00420cb9 f i libucrt:output.obj
 0001:0001fe22       ?state_case_size@?$output_processor@DV?$string_output_adapter@D@__crt_stdio_output@@V?$standard_base@DV?$string_output_adapter@D@__crt_stdio_output@@@2@@__crt_stdio_output@@AAE_NXZ 00420e22 f i libucrt:output.obj
 0001:0001ff8b       ?state_case_size@?$output_processor@_WV?$stream_output_adapter@_W@__crt_stdio_output@@V?$standard_base@_WV?$stream_output_adapter@_W@__crt_stdio_output@@@2@@__crt_stdio_output@@AAE_NXZ 00420f8b f i libucrt:output.obj
 0001:00020107       ?state_case_size@?$output_processor@_WV?$string_output_adapter@_W@__crt_stdio_output@@V?$standard_base@_WV?$string_output_adapter@_W@__crt_stdio_output@@@2@@__crt_stdio_output@@AAE_NXZ 00421107 f i libucrt:output.obj
 0001:00020283       ?state_case_type@?$output_processor@DV?$stream_output_adapter@D@__crt_stdio_output@@V?$standard_base@DV?$stream_output_adapter@D@__crt_stdio_output@@@2@@__crt_stdio_output@@AAE_NXZ 00421283 f i libucrt:output.obj
 0001:000204b2       ?state_case_type@?$output_processor@DV?$string_output_adapter@D@__crt_stdio_output@@V?$standard_base@DV?$string_output_adapter@D@__crt_stdio_output@@@2@@__crt_stdio_output@@AAE_NXZ 004214b2 f i libucrt:output.obj
 0001:000206e1       ?state_case_type@?$output_processor@_WV?$stream_output_adapter@_W@__crt_stdio_output@@V?$standard_base@_WV?$stream_output_adapter@_W@__crt_stdio_output@@@2@@__crt_stdio_output@@AAE_NXZ 004216e1 f i libucrt:output.obj
 0001:0002093e       ?state_case_type@?$output_processor@_WV?$string_output_adapter@_W@__crt_stdio_output@@V?$standard_base@_WV?$string_output_adapter@_W@__crt_stdio_output@@@2@@__crt_stdio_output@@AAE_NXZ 0042193e f i libucrt:output.obj
 0001:00020b9b       ?state_case_width@?$output_processor@DV?$string_output_adapter@D@__crt_stdio_output@@V?$standard_base@DV?$string_output_adapter@D@__crt_stdio_output@@@2@@__crt_stdio_output@@AAE_NXZ 00421b9b f i libucrt:output.obj
 0001:00020b9b       ?state_case_width@?$output_processor@DV?$stream_output_adapter@D@__crt_stdio_output@@V?$standard_base@DV?$stream_output_adapter@D@__crt_stdio_output@@@2@@__crt_stdio_output@@AAE_NXZ 00421b9b f i libucrt:output.obj
 0001:00020bc6       ?state_case_width@?$output_processor@_WV?$stream_output_adapter@_W@__crt_stdio_output@@V?$standard_base@_WV?$stream_output_adapter@_W@__crt_stdio_output@@@2@@__crt_stdio_output@@AAE_NXZ 00421bc6 f i libucrt:output.obj
 0001:00020bc6       ?state_case_width@?$output_processor@_WV?$string_output_adapter@_W@__crt_stdio_output@@V?$standard_base@_WV?$string_output_adapter@_W@__crt_stdio_output@@@2@@__crt_stdio_output@@AAE_NXZ 00421bc6 f i libucrt:output.obj
 0001:00020bf2       ?to_integer_size@__crt_stdio_output@@YAIW4length_modifier@1@@Z 00421bf2 f i libucrt:output.obj
 0001:00020c4e       ?type_case_Z@?$output_processor@DV?$stream_output_adapter@D@__crt_stdio_output@@V?$standard_base@DV?$stream_output_adapter@D@__crt_stdio_output@@@2@@__crt_stdio_output@@AAE_NXZ 00421c4e f i libucrt:output.obj
 0001:00020c4e       ?type_case_Z@?$output_processor@DV?$string_output_adapter@D@__crt_stdio_output@@V?$standard_base@DV?$string_output_adapter@D@__crt_stdio_output@@@2@@__crt_stdio_output@@AAE_NXZ 00421c4e f i libucrt:output.obj
 0001:00020cb1       ?type_case_Z@?$output_processor@_WV?$string_output_adapter@_W@__crt_stdio_output@@V?$standard_base@_WV?$string_output_adapter@_W@__crt_stdio_output@@@2@@__crt_stdio_output@@AAE_NXZ 00421cb1 f i libucrt:output.obj
 0001:00020cb1       ?type_case_Z@?$output_processor@_WV?$stream_output_adapter@_W@__crt_stdio_output@@V?$standard_base@_WV?$stream_output_adapter@_W@__crt_stdio_output@@@2@@__crt_stdio_output@@AAE_NXZ 00421cb1 f i libucrt:output.obj
 0001:00020d14       ?type_case_a@?$output_processor@DV?$string_output_adapter@D@__crt_stdio_output@@V?$standard_base@DV?$string_output_adapter@D@__crt_stdio_output@@@2@@__crt_stdio_output@@AAE_NXZ 00421d14 f i libucrt:output.obj
 0001:00020d14       ?type_case_a@?$output_processor@DV?$stream_output_adapter@D@__crt_stdio_output@@V?$standard_base@DV?$stream_output_adapter@D@__crt_stdio_output@@@2@@__crt_stdio_output@@AAE_NXZ 00421d14 f i libucrt:output.obj
 0001:00020e6e       ?type_case_a@?$output_processor@_WV?$stream_output_adapter@_W@__crt_stdio_output@@V?$standard_base@_WV?$stream_output_adapter@_W@__crt_stdio_output@@@2@@__crt_stdio_output@@AAE_NXZ 00421e6e f i libucrt:output.obj
 0001:00020e6e       ?type_case_a@?$output_processor@_WV?$string_output_adapter@_W@__crt_stdio_output@@V?$standard_base@_WV?$string_output_adapter@_W@__crt_stdio_output@@@2@@__crt_stdio_output@@AAE_NXZ 00421e6e f i libucrt:output.obj
 0001:00020fe0       ?type_case_c_tchar@?$output_processor@DV?$stream_output_adapter@D@__crt_stdio_output@@V?$standard_base@DV?$stream_output_adapter@D@__crt_stdio_output@@@2@@__crt_stdio_output@@AAE_ND@Z 00421fe0 f i libucrt:output.obj
 0001:00020fe0       ?type_case_c_tchar@?$output_processor@DV?$string_output_adapter@D@__crt_stdio_output@@V?$standard_base@DV?$string_output_adapter@D@__crt_stdio_output@@@2@@__crt_stdio_output@@AAE_ND@Z 00421fe0 f i libucrt:output.obj
 0001:00021070       ?type_case_c_tchar@?$output_processor@_WV?$stream_output_adapter@_W@__crt_stdio_output@@V?$standard_base@_WV?$stream_output_adapter@_W@__crt_stdio_output@@@2@@__crt_stdio_output@@AAE_N_W@Z 00422070 f i libucrt:output.obj
 0001:00021070       ?type_case_c_tchar@?$output_processor@_WV?$string_output_adapter@_W@__crt_stdio_output@@V?$standard_base@_WV?$string_output_adapter@_W@__crt_stdio_output@@@2@@__crt_stdio_output@@AAE_N_W@Z 00422070 f i libucrt:output.obj
 0001:00021108       ?type_case_integer@?$output_processor@DV?$stream_output_adapter@D@__crt_stdio_output@@V?$standard_base@DV?$stream_output_adapter@D@__crt_stdio_output@@@2@@__crt_stdio_output@@AAE_NI_N@Z 00422108 f i libucrt:output.obj
 0001:00021108       ?type_case_integer@?$output_processor@_WV?$string_output_adapter@_W@__crt_stdio_output@@V?$standard_base@_WV?$string_output_adapter@_W@__crt_stdio_output@@@2@@__crt_stdio_output@@AAE_NI_N@Z 00422108 f i libucrt:output.obj
 0001:00021108       ?type_case_integer@?$output_processor@_WV?$stream_output_adapter@_W@__crt_stdio_output@@V?$standard_base@_WV?$stream_output_adapter@_W@__crt_stdio_output@@@2@@__crt_stdio_output@@AAE_NI_N@Z 00422108 f i libucrt:output.obj
 0001:00021108       ?type_case_integer@?$output_processor@DV?$string_output_adapter@D@__crt_stdio_output@@V?$standard_base@DV?$string_output_adapter@D@__crt_stdio_output@@@2@@__crt_stdio_output@@AAE_NI_N@Z 00422108 f i libucrt:output.obj
 0001:00021252       ?type_case_n@?$output_processor@DV?$stream_output_adapter@D@__crt_stdio_output@@V?$standard_base@DV?$stream_output_adapter@D@__crt_stdio_output@@@2@@__crt_stdio_output@@AAE_NXZ 00422252 f i libucrt:output.obj
 0001:00021252       ?type_case_n@?$output_processor@DV?$string_output_adapter@D@__crt_stdio_output@@V?$standard_base@DV?$string_output_adapter@D@__crt_stdio_output@@@2@@__crt_stdio_output@@AAE_NXZ 00422252 f i libucrt:output.obj
 0001:00021252       ?type_case_n@?$output_processor@_WV?$string_output_adapter@_W@__crt_stdio_output@@V?$standard_base@_WV?$string_output_adapter@_W@__crt_stdio_output@@@2@@__crt_stdio_output@@AAE_NXZ 00422252 f i libucrt:output.obj
 0001:00021252       ?type_case_n@?$output_processor@_WV?$stream_output_adapter@_W@__crt_stdio_output@@V?$standard_base@_WV?$stream_output_adapter@_W@__crt_stdio_output@@@2@@__crt_stdio_output@@AAE_NXZ 00422252 f i libucrt:output.obj
 0001:000212c6       ?type_case_o@?$output_processor@DV?$string_output_adapter@D@__crt_stdio_output@@V?$standard_base@DV?$string_output_adapter@D@__crt_stdio_output@@@2@@__crt_stdio_output@@AAE_NXZ 004222c6 f i libucrt:output.obj
 0001:000212c6       ?type_case_o@?$output_processor@_WV?$string_output_adapter@_W@__crt_stdio_output@@V?$standard_base@_WV?$string_output_adapter@_W@__crt_stdio_output@@@2@@__crt_stdio_output@@AAE_NXZ 004222c6 f i libucrt:output.obj
 0001:000212c6       ?type_case_o@?$output_processor@DV?$stream_output_adapter@D@__crt_stdio_output@@V?$standard_base@DV?$stream_output_adapter@D@__crt_stdio_output@@@2@@__crt_stdio_output@@AAE_NXZ 004222c6 f i libucrt:output.obj
 0001:000212c6       ?type_case_o@?$output_processor@_WV?$stream_output_adapter@_W@__crt_stdio_output@@V?$standard_base@_WV?$stream_output_adapter@_W@__crt_stdio_output@@@2@@__crt_stdio_output@@AAE_NXZ 004222c6 f i libucrt:output.obj
 0001:000212e5       ?type_case_p@?$output_processor@DV?$string_output_adapter@D@__crt_stdio_output@@V?$standard_base@DV?$string_output_adapter@D@__crt_stdio_output@@@2@@__crt_stdio_output@@AAE_NXZ 004222e5 f i libucrt:output.obj
 0001:000212e5       ?type_case_p@?$output_processor@_WV?$stream_output_adapter@_W@__crt_stdio_output@@V?$standard_base@_WV?$stream_output_adapter@_W@__crt_stdio_output@@@2@@__crt_stdio_output@@AAE_NXZ 004222e5 f i libucrt:output.obj
 0001:000212e5       ?type_case_p@?$output_processor@_WV?$string_output_adapter@_W@__crt_stdio_output@@V?$standard_base@_WV?$string_output_adapter@_W@__crt_stdio_output@@@2@@__crt_stdio_output@@AAE_NXZ 004222e5 f i libucrt:output.obj
 0001:000212e5       ?type_case_p@?$output_processor@DV?$stream_output_adapter@D@__crt_stdio_output@@V?$standard_base@DV?$stream_output_adapter@D@__crt_stdio_output@@@2@@__crt_stdio_output@@AAE_NXZ 004222e5 f i libucrt:output.obj
 0001:000212fd       ?type_case_s@?$output_processor@DV?$string_output_adapter@D@__crt_stdio_output@@V?$standard_base@DV?$string_output_adapter@D@__crt_stdio_output@@@2@@__crt_stdio_output@@AAE_NXZ 004222fd f i libucrt:output.obj
 0001:000212fd       ?type_case_s@?$output_processor@DV?$stream_output_adapter@D@__crt_stdio_output@@V?$standard_base@DV?$stream_output_adapter@D@__crt_stdio_output@@@2@@__crt_stdio_output@@AAE_NXZ 004222fd f i libucrt:output.obj
 0001:00021370       ?type_case_s@?$output_processor@_WV?$string_output_adapter@_W@__crt_stdio_output@@V?$standard_base@_WV?$string_output_adapter@_W@__crt_stdio_output@@@2@@__crt_stdio_output@@AAE_NXZ 00422370 f i libucrt:output.obj
 0001:00021370       ?type_case_s@?$output_processor@_WV?$stream_output_adapter@_W@__crt_stdio_output@@V?$standard_base@_WV?$stream_output_adapter@_W@__crt_stdio_output@@@2@@__crt_stdio_output@@AAE_NXZ 00422370 f i libucrt:output.obj
 0001:000213e4       ?type_case_s_compute_narrow_string_length@?$output_processor@_WV?$string_output_adapter@_W@__crt_stdio_output@@V?$standard_base@_WV?$string_output_adapter@_W@__crt_stdio_output@@@2@@__crt_stdio_output@@ABEHH_W@Z 004223e4 f i libucrt:output.obj
 0001:000213e4       ?type_case_s_compute_narrow_string_length@?$output_processor@_WV?$stream_output_adapter@_W@__crt_stdio_output@@V?$standard_base@_WV?$stream_output_adapter@_W@__crt_stdio_output@@@2@@__crt_stdio_output@@ABEHH_W@Z 004223e4 f i libucrt:output.obj
 0001:00021424       ?validate@?$stream_output_adapter@D@__crt_stdio_output@@QBE_NXZ 00422424 f i libucrt:output.obj
 0001:00021445       ?validate_stream_is_ansi_if_required@?$__acrt_stdio_char_traits@D@@SA_NQAU_iobuf@@@Z 00422445 f i libucrt:output.obj
 0001:000214c7       ?write_character@?$stream_output_adapter@D@__crt_stdio_output@@QBEXDQAH@Z 004224c7 f i libucrt:output.obj
 0001:00021504       ?write_character@?$stream_output_adapter@_W@__crt_stdio_output@@QBEX_WQAH@Z 00422504 f i libucrt:output.obj
 0001:00021544       ?write_character@?$string_output_adapter@D@__crt_stdio_output@@QBE_NDQAH@Z 00422544 f i libucrt:output.obj
 0001:00021586       ?write_character@?$string_output_adapter@_W@__crt_stdio_output@@QBE_N_WQAH@Z 00422586 f i libucrt:output.obj
 0001:000215cb       ?write_stored_string_tchar@?$output_processor@DV?$stream_output_adapter@D@__crt_stdio_output@@V?$standard_base@DV?$stream_output_adapter@D@__crt_stdio_output@@@2@@__crt_stdio_output@@AAE_ND@Z 004225cb f i libucrt:output.obj
 0001:00021672       ?write_stored_string_tchar@?$output_processor@DV?$string_output_adapter@D@__crt_stdio_output@@V?$standard_base@DV?$string_output_adapter@D@__crt_stdio_output@@@2@@__crt_stdio_output@@AAE_ND@Z 00422672 f i libucrt:output.obj
 0001:00021719       ?write_stored_string_tchar@?$output_processor@_WV?$stream_output_adapter@_W@__crt_stdio_output@@V?$standard_base@_WV?$stream_output_adapter@_W@__crt_stdio_output@@@2@@__crt_stdio_output@@AAE_N_W@Z 00422719 f i libucrt:output.obj
 0001:000217a4       ?write_stored_string_tchar@?$output_processor@_WV?$string_output_adapter@_W@__crt_stdio_output@@V?$standard_base@_WV?$string_output_adapter@_W@__crt_stdio_output@@@2@@__crt_stdio_output@@AAE_N_W@Z 004227a4 f i libucrt:output.obj
 0001:0002182f       ?write_string@?$stream_output_adapter@D@__crt_stdio_output@@QBEXQBDHQAH1@Z 0042282f f i libucrt:output.obj
 0001:000218b9       ?write_string@?$stream_output_adapter@_W@__crt_stdio_output@@QBEXQB_WHQAH1@Z 004228b9 f i libucrt:output.obj
 0001:00021946       ?write_string@?$string_output_adapter@D@__crt_stdio_output@@QBEXQBDHQAH1@Z 00422946 f i libucrt:output.obj
 0001:000219d9       ?write_string@?$string_output_adapter@_W@__crt_stdio_output@@QBEXQB_WHQAH1@Z 004229d9 f i libucrt:output.obj
 0001:00021a73       ___stdio_common_vfprintf   00422a73 f   libucrt:output.obj
 0001:00021aea       ___stdio_common_vfwprintf  00422aea f   libucrt:output.obj
 0001:00021b61       ___stdio_common_vsprintf   00422b61 f   libucrt:output.obj
 0001:00021b85       ___stdio_common_vswprintf  00422b85 f   libucrt:output.obj
 0001:00021ba9       _abort                     00422ba9 f   libucrt:abort.obj
 0001:00021bec       ___acrt_initialize_stdio   00422bec f   libucrt:_file.obj
 0001:00021cb4       ___acrt_iob_func           00422cb4 f   libucrt:_file.obj
 0001:00021cc4       ___acrt_uninitialize_stdio 00422cc4 f   libucrt:_file.obj
 0001:00021d10       __lock_file                00422d10 f   libucrt:_file.obj
 0001:00021d24       __unlock_file              00422d24 f   libucrt:_file.obj
 0001:00021d38       __fclose_nolock            00422d38 f   libucrt:fclose.obj
 0001:00021dae       _fclose                    00422dae f   libucrt:fclose.obj
 0001:00021e2e       ___acrt_stdio_flush_nolock 00422e2e f   libucrt:fflush.obj
 0001:00021e94       __fflush_nolock            00422e94 f   libucrt:fflush.obj
 0001:00021edb       __flushall                 00422edb f   libucrt:fflush.obj
 0001:00021fbc       _fflush                    00422fbc f   libucrt:fflush.obj
 0001:000220d6       _fopen                     004230d6 f   libucrt:fopen.obj
 0001:000220ed       __fputc_nolock             004230ed f   libucrt:fputc.obj
 0001:00022116       _fputc                     00423116 f   libucrt:fputc.obj
 0001:0002221a       ___acrt_errno_from_os_error 0042321a f   libucrt:errno.obj
 0001:0002225d       ___acrt_errno_map_os_error 0042325d f   libucrt:errno.obj
 0001:00022280       ___doserrno                00423280 f   libucrt:errno.obj
 0001:00022293       __errno                    00423293 f   libucrt:errno.obj
 0001:00022413       ___scrt_is_managed_app     00423413 f   LIBCMT:utility_desktop.obj
 0001:000224c1       ___acrt_initialize_thread_local_exit_callback 004234c1 f   libucrt:exit.obj
 0001:000224d0       __c_exit                   004234d0 f   libucrt:exit.obj
 0001:000224df       __cexit                    004234df f   libucrt:exit.obj
 0001:000224ee       __exit                     004234ee f   libucrt:exit.obj
 0001:00022504       __register_thread_local_exe_atexit_callback 00423504 f   libucrt:exit.obj
 0001:0002253c       _exit                      0042353c f   libucrt:exit.obj
 0001:00022552       ??$is_overflow_condition@K@__crt_strtox@@YA_NIK@Z 00423552 f i libucrt:strtox.obj
 0001:00022585       ??$is_overflow_condition@_K@__crt_strtox@@YA_NI_K@Z 00423585 f i libucrt:strtox.obj
 0001:000225c8       ??$make_c_string_character_source@DPAPAD@__crt_strtox@@YA?AV?$c_string_character_source@D@0@QBDQAPAD@Z 004235c8 f i libucrt:strtox.obj
 0001:000225c8       ??$make_c_string_character_source@_WPAPA_W@__crt_strtox@@YA?AV?$c_string_character_source@_W@0@QB_WQAPA_W@Z 004235c8 f i libucrt:strtox.obj
 0001:000225e3       ??$parse_integer@KV?$c_string_character_source@D@__crt_strtox@@@__crt_strtox@@YAKQAU__crt_locale_pointers@@V?$c_string_character_source@D@0@H_N@Z 004235e3 f i libucrt:strtox.obj
 0001:0002280b       ??$parse_integer@KV?$c_string_character_source@_W@__crt_strtox@@@__crt_strtox@@YAKQAU__crt_locale_pointers@@V?$c_string_character_source@_W@0@H_N@Z 0042380b f i libucrt:strtox.obj
 0001:00022ef0       ??$parse_integer@_KV?$c_string_character_source@D@__crt_strtox@@@__crt_strtox@@YA_KQAU__crt_locale_pointers@@V?$c_string_character_source@D@0@H_N@Z 00423ef0 f i libucrt:strtox.obj
 0001:00023196       ?unget@?$c_string_character_source@D@__crt_strtox@@QAEXD@Z 00424196 f i libucrt:strtox.obj
 0001:000231be       ?unget@?$c_string_character_source@_W@__crt_strtox@@QAEX_W@Z 004241be f i libucrt:strtox.obj
 0001:000231ea       ?validate@?$stream_output_adapter@_W@__crt_stdio_output@@QBE_NXZ 004241ea f i libucrt:output.obj
 0001:000231ea       ?validate@?$string_output_adapter@D@__crt_stdio_output@@QBE_NXZ 004241ea f i libucrt:output.obj
 0001:000231ea       ?validate@?$c_string_character_source@D@__crt_strtox@@QBE_NXZ 004241ea f i libucrt:strtox.obj
 0001:000231ea       ?validate@?$string_output_adapter@_W@__crt_stdio_output@@QBE_NXZ 004241ea f i libucrt:output.obj
 0001:000231ea       ?validate@?$c_string_character_source@_W@__crt_strtox@@QBE_NXZ 004241ea f i libucrt:strtox.obj
 0001:00023205       __chvalidchk_l             00424205 f i libucrt:strtox.obj
 0001:0002322f       __ischartype_l             0042422f f i libucrt:strtox.obj
 0001:00023262       _strtol                    00424262 f   libucrt:strtox.obj
 0001:0002328e       _strtoul                   0042428e f   libucrt:strtox.obj
 0001:000232ba       _strtoumax                 004242ba f   libucrt:strtox.obj
 0001:000232e6       _wcstol                    004242e6 f   libucrt:strtox.obj
 0001:00023320       _strcmp                    00424320 f   libucrt:strcmp.obj
 0001:00023428       __get_sys_err_msg          00424428 f i libucrt:strerror.obj
 0001:0002344c       _strerror                  0042444c f   libucrt:strerror.obj
 0001:0002351c       _fgets                     0042451c f   libucrt:fgets.obj
 0001:00023527       __isdigit_l                00424527 f i libucrt:_ctype.obj
 0001:0002355f       _isdigit                   0042455f f i libucrt:_ctype.obj
 0001:00023590       _strcpy                    00424590 f   libucrt:strcat.obj
 0001:000235a0       _strcat                    004245a0 f   libucrt:strcat.obj
 0001:00023690       _strcspn                   00424690 f   libucrt:strcspn.obj
 0001:000236d6       __seh_filter_exe           004246d6 f   libucrt:exception_filter.obj
 0001:00023ae2       ___acrt_allocate_buffer_for_argv 00424ae2 f   libucrt:argv_parsing.obj
 0001:00023b37       __configure_narrow_argv    00424b37 f   libucrt:argv_parsing.obj
 0001:00023d49       ??$uninitialize@A6AXAAPAPA_W@Z@?$dual_state_global@PAPA_W@__crt_state_management@@QAEXA6AXAAPAPA_W@Z@Z 00424d49 f i libucrt:environment_initialization.obj
 0001:00023d49       ??$uninitialize@A6AXAAPAPAD@Z@?$dual_state_global@PAPAD@__crt_state_management@@QAEXA6AXAAPAPAD@Z@Z 00424d49 f i libucrt:environment_initialization.obj
 0001:00023dbf       ___dcrt_get_or_create_narrow_environment_nolock 00424dbf f   libucrt:environment_initialization.obj
 0001:00023dc4       ___dcrt_uninitialize_environments_nolock 00424dc4 f   libucrt:environment_initialization.obj
 0001:00023dfb       __get_initial_narrow_environment 00424dfb f   libucrt:environment_initialization.obj
 0001:00023e0f       __initialize_narrow_environment 00424e0f f   libucrt:environment_initialization.obj
 0001:00023e14       ??$?RV<lambda_800076c951b434888f4765a74a194fcc>@@AAV<lambda_4e60a939b0d047cfe11ddc22648dfba9>@@V<lambda_6dbb1268764f43b569ce7b67e331d33a>@@@?$__crt_seh_guarded_call@H@@QAEH$$QAV<lambda_800076c951b434888f4765a74a194fcc>@@AAV<lambda_4e60a939b0d047cfe11ddc22648dfba9>@@$$QAV<lambda_6dbb1268764f43b569ce7b67e331d33a>@@@Z 00424e14 f i libucrt:onexit.obj
 0001:00023e65       ??$?RV<lambda_995298e7d72eb4c2aab26c0585b3abe5>@@AAV<lambda_275893d493268fdec8709772e3fcec0e>@@V<lambda_293819299cbf9a7022e18b56a874bb5c>@@@?$__crt_seh_guarded_call@H@@QAEH$$QAV<lambda_995298e7d72eb4c2aab26c0585b3abe5>@@AAV<lambda_275893d493268fdec8709772e3fcec0e>@@$$QAV<lambda_293819299cbf9a7022e18b56a874bb5c>@@@Z 00424e65 f i libucrt:onexit.obj
 0001:00023eb6       ??$__acrt_lock_and_call@V<lambda_275893d493268fdec8709772e3fcec0e>@@@@YAHW4__acrt_lock_id@@$$QAV<lambda_275893d493268fdec8709772e3fcec0e>@@@Z 00424eb6 f i libucrt:onexit.obj
 0001:00023ede       ??$__acrt_lock_and_call@V<lambda_4e60a939b0d047cfe11ddc22648dfba9>@@@@YAHW4__acrt_lock_id@@$$QAV<lambda_4e60a939b0d047cfe11ddc22648dfba9>@@@Z 00424ede f i libucrt:onexit.obj
 0001:00023f06       ??$__crt_fast_encode_pointer@P6GXPAXK0@Z@@YAP6GXPAXK0@ZQ6GX0K0@Z@Z 00424f06 f i libucrt:exit.obj
 0001:00023f06       ??$__crt_fast_encode_pointer@P6AHXZ@@YAP6AHXZQ6AHXZ@Z 00424f06 f i libucrt:onexit.obj
 0001:00023f06       ??$__crt_fast_encode_pointer@P6AHPAU_exception@@@Z@@YAP6AHPAU_exception@@@ZQ6AH0@Z@Z 00424f06 f i libucrt:matherr.obj
 0001:00024186       __crt_atexit               00425186 f   libucrt:onexit.obj
 0001:0002419c       __execute_onexit_table     0042519c f   libucrt:onexit.obj
 0001:000241b9       __initialize_onexit_table  004251b9 f   libucrt:onexit.obj
 0001:000241f6       __register_onexit_function 004251f6 f   libucrt:onexit.obj
 0001:00024246       __should_initialize_environment 00425246 f   LIBCMT:env_mode.obj
 0001:00024246       ___acrt_uninitialize_command_line 00425246 f   libucrt:argv_data.obj
 0001:0002430e       ___acrt_initialize         0042530e f   libucrt:initialization.obj
 0001:00024320       ___acrt_uninitialize       00425320 f   libucrt:initialization.obj
 0001:00024332       __query_app_type           00425332 f   libucrt:report_runtime_error.obj
 0001:00024338       __set_app_type             00425338 f   libucrt:report_runtime_error.obj
 0001:00024347       ?initialize@?$dual_state_global@P6AXH@Z@__crt_state_management@@QAEXQ6AXH@Z@Z 00425347 f i libucrt:signal.obj
 0001:00024347       ?initialize@?$dual_state_global@PAU__crt_locale_data@@@__crt_state_management@@QAEXQAU__crt_locale_data@@@Z 00425347 f i libucrt:initialization.obj
 0001:00024347       ?initialize@?$dual_state_global@P6AXPB_W00II@Z@__crt_state_management@@QAEXQ6AXPB_W00II@Z@Z 00425347 f i libucrt:invalid_parameter.obj
 0001:00024347       ?initialize@?$dual_state_global@P6AHPAU_exception@@@Z@__crt_state_management@@QAEXQ6AHPAU_exception@@@Z@Z 00425347 f i libucrt:matherr.obj
 0001:00024347       ?initialize@?$dual_state_global@PAPAD@__crt_state_management@@QAEXQAPAD@Z 00425347 f i libucrt:environment_initialization.obj
 0001:00024347       ?initialize@?$dual_state_global@P6AHI@Z@__crt_state_management@@QAEXQ6AHI@Z@Z 00425347 f i libucrt:new_handler.obj
 0001:00024378       ___acrt_has_user_matherr   00425378 f   libucrt:matherr.obj
 0001:00024391       ___acrt_initialize_user_matherr 00425391 f   libucrt:matherr.obj
 0001:000243a5       ___acrt_invoke_user_matherr 004253a5 f   libucrt:matherr.obj
 0001:000243ee       ___setusermatherr          004253ee f   libucrt:matherr.obj
 0001:00024403       __initterm                 00425403 f   libucrt:initterm.obj
 0001:0002445f       __initterm_e               0042545f f   libucrt:initterm.obj
 0001:000244a4       __get_fmode                004254a4 f   libucrt:setmode.obj
 0001:000244d0       __set_fmode                004254d0 f   libucrt:setmode.obj
 0001:0002450d       __setmode_nolock           0042550d f   libucrt:setmode.obj
 0001:000245de       ___acrt_initialize_command_line 004255de f   libucrt:argv_data.obj
 0001:000245f7       ___p___argc                004255f7 f   libucrt:argv_data.obj
 0001:000245fd       ___p___argv                004255fd f   libucrt:argv_data.obj
 0001:00024603       ___acrt_set_locale_changed 00425603 f   libucrt:wsetlocale.obj
 0001:0002460e       ___acrt_uninitialize_locale 0042560e f   libucrt:wsetlocale.obj
 0001:00024660       __configthreadlocale       00425660 f   libucrt:wsetlocale.obj
 0001:000246c2       __query_new_mode           004256c2 f   libucrt:new_mode.obj
 0001:000246c8       __set_new_mode             004256c8 f   libucrt:new_mode.obj
 0001:000246f7       ___p__commode              004256f7 f   libucrt:ncommode.obj
 0001:000246fd       _terminate                 004256fd f   libucrt:terminate.obj
 0001:00024739       __controlfp_s              00425739 f   libucrt:contrlfp.obj
 0001:00024798       __free_base                00425798 f   libucrt:free_base.obj
 0001:000247d2       __malloc_base              004257d2 f   libucrt:malloc_base.obj
 0001:00024820       _strcpy_s                  00425820 f   libucrt:strcpy_s.obj
 0001:0002487a       __calloc_base              0042587a f   libucrt:calloc_base.obj
 0001:000248d7       ___acrt_call_reportfault   004258d7 f   libucrt:invalid_parameter.obj
 0001:00024a12       ___acrt_initialize_invalid_parameter_handler 00425a12 f   libucrt:invalid_parameter.obj
 0001:00024a26       __invalid_parameter        00425a26 f   libucrt:invalid_parameter.obj
 0001:00024aa1       __invalid_parameter_noinfo 00425aa1 f   libucrt:invalid_parameter.obj
 0001:00024ab1       __invoke_watson            00425ab1 f   libucrt:invalid_parameter.obj
 0001:00024bd1       __itow_s                   00425bd1 f   libucrt:xtoa.obj
 0001:00024c06       __set_error_mode           00425c06 f   libucrt:set_error_mode.obj
 0001:00024c45       _wcscat_s                  00425c45 f   libucrt:wcscat_s.obj
 0001:00024cba       _wcscpy_s                  00425cba f   libucrt:wcscpy_s.obj
 0001:00024e07       _wcsncat_s                 00425e07 f   libucrt:wcsncat_s.obj
 0001:00024f0d       ___acrt_show_wide_message_box 00425f0d f   libucrt:crtmbox.obj
 0001:00024f18       ??$?RV<lambda_d92cfe8357b99225085016881b624cb0>@@AAV<lambda_b721fa326cdb32351d23dfa67958c160>@@V<lambda_42d75b0848218ec137fa420c8ba9fdf9>@@@?$__crt_seh_guarded_call@H@@QAEH$$QAV<lambda_d92cfe8357b99225085016881b624cb0>@@AAV<lambda_b721fa326cdb32351d23dfa67958c160>@@$$QAV<lambda_42d75b0848218ec137fa420c8ba9fdf9>@@@Z 00425f18 f i libucrt:setvbuf.obj
 0001:00024f69       ??$__acrt_lock_stream_and_call@V<lambda_b721fa326cdb32351d23dfa67958c160>@@@@YAHQAU_iobuf@@$$QAV<lambda_b721fa326cdb32351d23dfa67958c160>@@@Z 00425f69 f i libucrt:setvbuf.obj
 0001:0002505e       _setvbuf                   0042605e f   libucrt:setvbuf.obj
 0001:000250d4       ??$?RV<lambda_a048d3beccc847880fc8490e18b82769>@@AAV<lambda_ec61778202f4f5fc7e7711acc23c3bca>@@V<lambda_f7496a158712204296dd6628a163878e>@@@?$__crt_seh_guarded_call@P6AXH@Z@@QAEP6AXH@Z$$QAV<lambda_a048d3beccc847880fc8490e18b82769>@@AAV<lambda_ec61778202f4f5fc7e7711acc23c3bca>@@$$QAV<lambda_f7496a158712204296dd6628a163878e>@@@Z 004260d4 f i libucrt:signal.obj
 0001:0002512e       ??$__acrt_lock_and_call@V<lambda_ec61778202f4f5fc7e7711acc23c3bca>@@@@YAP6AXH@ZW4__acrt_lock_id@@$$QAV<lambda_ec61778202f4f5fc7e7711acc23c3bca>@@@Z 0042612e f i libucrt:signal.obj
 0001:000251c0       ___acrt_get_sigabrt_handler 004261c0 f   libucrt:signal.obj
 0001:000251d7       ___acrt_initialize_signal_handlers 004261d7 f   libucrt:signal.obj
 0001:00025212       ___fpecode                 00426212 f   libucrt:signal.obj
 0001:0002521b       _raise                     0042621b f   libucrt:signal.obj
 0001:000259b3       __write                    004269b3 f   libucrt:write.obj
 0001:00025a9e       __write_nolock             00426a9e f   libucrt:write.obj
 0001:00025caa       __fileno                   00426caa f   libucrt:fileno.obj
 0001:00026096       ___acrt_stdio_flush_and_write_narrow_nolock 00427096 f   libucrt:_flsbuf.obj
 0001:000260a1       ___acrt_stdio_flush_and_write_wide_nolock 004270a1 f   libucrt:_flsbuf.obj
 0001:000260ac       ___acrt_stdio_begin_temporary_buffering_nolock 004270ac f   libucrt:_sftbuf.obj
 0001:00026161       ___acrt_stdio_end_temporary_buffering_nolock 00427161 f   libucrt:_sftbuf.obj
 0001:0002619a       __realloc_base             0042719a f   libucrt:realloc_base.obj
 0001:0002636f       ___acrt_initialize_lowio   0042736f f   libucrt:ioinit.obj
 0001:000263c5       ___acrt_uninitialize_lowio 004273c5 f   libucrt:ioinit.obj
 0001:00026558       __tolower_l                00427558 f   libucrt:tolower_toupper.obj
 0001:00026572       _tolower                   00427572 f   libucrt:tolower_toupper.obj
 0001:000265a2       __mbtowc_l                 004275a2 f   libucrt:mbtowc.obj
 0001:0002669c       _mbtowc                    0042769c f   libucrt:mbtowc.obj
 0001:000266b6       __wctomb_s_l               004276b6 f   libucrt:wctomb.obj
 0001:000267d7       _wctomb_s                  004277d7 f   libucrt:wctomb.obj
 0001:000267f4       _strnlen                   004277f4 f   libucrt:strnlen.obj
 0001:0002691b       _wcsnlen                   0042791b f   libucrt:strnlen.obj
 0001:00026ad2       ??$?RV<lambda_3518db117f0e7cdb002338c5d3c47b6c>@@AAV<lambda_b2ea41f6bbb362cd97d94c6828d90b61>@@V<lambda_abdedf541bb04549bc734292b4a045d4>@@@?$__crt_seh_guarded_call@X@@QAEX$$QAV<lambda_3518db117f0e7cdb002338c5d3c47b6c>@@AAV<lambda_b2ea41f6bbb362cd97d94c6828d90b61>@@$$QAV<lambda_abdedf541bb04549bc734292b4a045d4>@@@Z 00427ad2 f i libucrt:per_thread_data.obj
 0001:00026b22       ??$?RV<lambda_51b6e8b1eb166f2a3faf91f424b38130>@@AAV<lambda_6250bd4b2a391816dd638c3bf72b0bcb>@@V<lambda_0b5a4a3e68152e1d9b943535f5f47bed>@@@?$__crt_seh_guarded_call@X@@QAEX$$QAV<lambda_51b6e8b1eb166f2a3faf91f424b38130>@@AAV<lambda_6250bd4b2a391816dd638c3bf72b0bcb>@@$$QAV<lambda_0b5a4a3e68152e1d9b943535f5f47bed>@@@Z 00427b22 f i libucrt:per_thread_data.obj
 0001:00026b83       ??$?RV<lambda_5b71d36f03204c0beab531769a5b5694>@@AAV<lambda_be2b3da3f62db62e9dad5dc70221a656>@@V<lambda_8f9ce462984622f9bf76b59e2aaaf805>@@@?$__crt_seh_guarded_call@X@@QAEX$$QAV<lambda_5b71d36f03204c0beab531769a5b5694>@@AAV<lambda_be2b3da3f62db62e9dad5dc70221a656>@@$$QAV<lambda_8f9ce462984622f9bf76b59e2aaaf805>@@@Z 00427b83 f i libucrt:per_thread_data.obj
 0001:00026bce       ??$?RV<lambda_9df27f884b057bc3edfc946cb5b7cf47>@@AAV<lambda_e69574bed617af4e071282c136b37893>@@V<lambda_cc0d902bcbbeb830f749456577db4721>@@@?$__crt_seh_guarded_call@X@@QAEX$$QAV<lambda_9df27f884b057bc3edfc946cb5b7cf47>@@AAV<lambda_e69574bed617af4e071282c136b37893>@@$$QAV<lambda_cc0d902bcbbeb830f749456577db4721>@@@Z 00427bce f i libucrt:per_thread_data.obj
 0001:00026c16       ??$__acrt_lock_and_call@V<lambda_6250bd4b2a391816dd638c3bf72b0bcb>@@@@YAXW4__acrt_lock_id@@$$QAV<lambda_6250bd4b2a391816dd638c3bf72b0bcb>@@@Z 00427c16 f i libucrt:per_thread_data.obj
 0001:00026c3e       ??$__acrt_lock_and_call@V<lambda_b2ea41f6bbb362cd97d94c6828d90b61>@@@@YAXW4__acrt_lock_id@@$$QAV<lambda_b2ea41f6bbb362cd97d94c6828d90b61>@@@Z 00427c3e f i libucrt:per_thread_data.obj
 0001:00026c66       ??$__acrt_lock_and_call@V<lambda_be2b3da3f62db62e9dad5dc70221a656>@@@@YAXW4__acrt_lock_id@@$$QAV<lambda_be2b3da3f62db62e9dad5dc70221a656>@@@Z 00427c66 f i libucrt:per_thread_data.obj
 0001:00026c8e       ??$__acrt_lock_and_call@V<lambda_e69574bed617af4e071282c136b37893>@@@@YAXW4__acrt_lock_id@@$$QAV<lambda_e69574bed617af4e071282c136b37893>@@@Z 00427c8e f i libucrt:per_thread_data.obj
 0001:00026e44       ___acrt_getptd             00427e44 f   libucrt:per_thread_data.obj
 0001:00026ec8       ___acrt_getptd_noexit      00427ec8 f   libucrt:per_thread_data.obj
 0001:00026f4d       ___acrt_initialize_ptd     00427f4d f   libucrt:per_thread_data.obj
 0001:00026f79       ___acrt_uninitialize_ptd   00427f79 f   libucrt:per_thread_data.obj
 0001:00026f93       ___acrt_update_locale_info 00427f93 f   libucrt:locale_update.obj
 0001:00026fc0       ___acrt_update_multibyte_info 00427fc0 f   libucrt:locale_update.obj
 0001:00026fed       ?__acrt_fp_classify@@YA?AW4__acrt_fp_class@@ABN@Z 00427fed f i libucrt:cvt.obj
 0001:00027059       ?__acrt_fp_is_negative@@YA_NABN@Z 00428059 f i libucrt:cvt.obj
 0001:000278b8       ___acrt_fp_format          004288b8 f   libucrt:cvt.obj
 0001:00027a34       __fputwc_nolock            00428a34 f   libucrt:fputwc.obj
 0001:00027b5a       __get_printf_count_output  00428b5a f   libucrt:printf_count_output.obj
 0001:00027cd4       ___acrt_AreFileApisANSI@0  00428cd4 f   libucrt:winapi_thunks.obj
 0001:00027d22       ___acrt_CompareStringEx@36 00428d22 f   libucrt:winapi_thunks.obj
 0001:00027d96       ___acrt_FlsAlloc@4         00428d96 f   libucrt:winapi_thunks.obj
 0001:00027dec       ___acrt_FlsFree@4          00428dec f   libucrt:winapi_thunks.obj
 0001:00027e42       ___acrt_FlsGetValue@4      00428e42 f   libucrt:winapi_thunks.obj
 0001:00027e98       ___acrt_FlsSetValue@8      00428e98 f   libucrt:winapi_thunks.obj
 0001:00027ef1       ___acrt_InitializeCriticalSectionEx@12 00428ef1 f   libucrt:winapi_thunks.obj
 0001:00027f53       ___acrt_LCMapStringEx@36   00428f53 f   libucrt:winapi_thunks.obj
 0001:00027fdb       ___acrt_LocaleNameToLCID@8 00428fdb f   libucrt:winapi_thunks.obj
 0001:00028037       ___acrt_MessageBoxW@16     00429037 f   libucrt:winapi_thunks.obj
 0001:00028080       ___acrt_can_show_message_box 00429080 f   libucrt:winapi_thunks.obj
 0001:00028099       ___acrt_get_parent_window  00429099 f   libucrt:winapi_thunks.obj
 0001:00028118       ___acrt_initialize_winapi_thunks 00429118 f   libucrt:winapi_thunks.obj
 0001:0002813e       ___acrt_is_interactive     0042913e f   libucrt:winapi_thunks.obj
 0001:000281e4       ___acrt_is_packaged_app    004291e4 f   libucrt:winapi_thunks.obj
 0001:0002826b       ___acrt_uninitialize_winapi_thunks 0042926b f   libucrt:winapi_thunks.obj
 0001:000282a1       __fcloseall                004292a1 f   libucrt:closeall.obj
 0001:00028341       ___acrt_stdio_free_buffer_nolock 00429341 f   libucrt:_freebuf.obj
 0001:0002837f       ??$?RV<lambda_123407a5e2ac06da108355a851863b7a>@@AAV<lambda_2fe9b910cf3cbf4a0ab98a02ba45b3ec>@@V<lambda_ae55bdf541ad94d75914d381c370e64d>@@@?$__crt_seh_guarded_call@H@@QAEH$$QAV<lambda_123407a5e2ac06da108355a851863b7a>@@AAV<lambda_2fe9b910cf3cbf4a0ab98a02ba45b3ec>@@$$QAV<lambda_ae55bdf541ad94d75914d381c370e64d>@@@Z 0042937f f i libucrt:close.obj
 0001:00028401       ??$__acrt_lowio_lock_fh_and_call@V<lambda_2fe9b910cf3cbf4a0ab98a02ba45b3ec>@@@@YAHH$$QAV<lambda_2fe9b910cf3cbf4a0ab98a02ba45b3ec>@@@Z 00429401 f i libucrt:close.obj
 0001:00028429       __close                    00429429 f   libucrt:close.obj
 0001:000284a8       __close_nolock             004294a8 f   libucrt:close.obj
 0001:00028544       ?__acrt_stdio_allocate_stream@@YA?AV__crt_stdio_stream@@XZ 00429544 f   libucrt:stream.obj
 0001:000285a3       ?__acrt_stdio_free_stream@@YAXV__crt_stdio_stream@@@Z 004295a3 f   libucrt:stream.obj
 0001:000286a1       ___acrt_initialize_locks   004296a1 f   libucrt:locks.obj
 0001:000286e2       ___acrt_lock               004296e2 f   libucrt:locks.obj
 0001:000286f9       ___acrt_uninitialize_locks 004296f9 f   libucrt:locks.obj
 0001:0002872a       ___acrt_unlock             0042972a f   libucrt:locks.obj
 0001:00028741       ??$?RV<lambda_61cee617f5178ae960314fd4d05640a0>@@AAV<lambda_6978c1fb23f02e42e1d9e99668cc68aa>@@V<lambda_9cd88cf8ad10232537feb2133f08c833>@@@?$__crt_seh_guarded_call@H@@QAEH$$QAV<lambda_61cee617f5178ae960314fd4d05640a0>@@AAV<lambda_6978c1fb23f02e42e1d9e99668cc68aa>@@$$QAV<lambda_9cd88cf8ad10232537feb2133f08c833>@@@Z 00429741 f i libucrt:commit.obj
 0001:000287d9       ??$__acrt_lowio_lock_fh_and_call@V<lambda_6978c1fb23f02e42e1d9e99668cc68aa>@@@@YAHH$$QAV<lambda_6978c1fb23f02e42e1d9e99668cc68aa>@@@Z 004297d9 f i libucrt:commit.obj
 0001:00028801       __commit                   00429801 f   libucrt:commit.obj
 0001:00028870       ??$__acrt_stdio_parse_mode@D@@YA?AU__acrt_stdio_stream_mode@@QBD@Z 00429870 f i libucrt:openfile.obj
 0001:00028b27       ?__acrt_stdio_parse_mode_D@@YA_NAAU__acrt_stdio_stream_mode@@@Z 00429b27 f i libucrt:openfile.obj
 0001:00028b42       ?__acrt_stdio_parse_mode_T@@YA_NAAU__acrt_stdio_stream_mode@@@Z 00429b42 f i libucrt:openfile.obj
 0001:00028b61       ?__acrt_stdio_parse_mode_b@@YA_NAAU__acrt_stdio_stream_mode@@@Z 00429b61 f i libucrt:openfile.obj
 0001:00028b81       ?__acrt_stdio_parse_mode_c@@YA_NAAU__acrt_stdio_stream_mode@@AA_N@Z 00429b81 f i libucrt:openfile.obj
 0001:00028ba3       ?__acrt_stdio_parse_mode_n@@YA_NAAU__acrt_stdio_stream_mode@@AA_N@Z 00429ba3 f i libucrt:openfile.obj
 0001:00028bc5       ?__acrt_stdio_parse_mode_plus@@YA_NAAU__acrt_stdio_stream_mode@@AA_N@Z 00429bc5 f i libucrt:openfile.obj
 0001:00028bfa       ?__acrt_stdio_parse_mode_t@@YA_NAAU__acrt_stdio_stream_mode@@@Z 00429bfa f i libucrt:openfile.obj
 0001:00028c1a       __openfile                 00429c1a f   libucrt:openfile.obj
 0001:00028c25       ___pctype_func             00429c25 f   libucrt:ctype.obj
 0001:00028c4b       _iswctype                  00429c4b f   libucrt:iswctype.obj
 0001:00028caa       __isctype_l                00429caa f   libucrt:isctype.obj
 0001:00028d7c       ___sys_errlist             00429d7c f   libucrt:syserr.obj
 0001:00028d82       ___sys_nerr                00429d82 f   libucrt:syserr.obj
 0001:00028e39       _strncpy_s                 00429e39 f   libucrt:strncpy_s.obj
 0001:00028e44       __fgetc_nolock             00429e44 f   libucrt:fgetc.obj
 0001:00028e80       __getc_nolock              00429e80 f   libucrt:fgetc.obj
 0001:00029373       __read                     0042a373 f   libucrt:read.obj
 0001:00029486       __read_nolock              0042a486 f   libucrt:read.obj
 0001:000299bc       ___acrt_stdio_refill_and_read_narrow_nolock 0042a9bc f   libucrt:_filbuf.obj
 0001:00029d89       ??1?$argument_list@D@?A0xb0e4b824@@QAE@XZ 0042ad89 f i libucrt:argv_wildcards.obj
 0001:00029dae       ?append@?$argument_list@D@?A0xb0e4b824@@QAEHQAD@Z 0042adae f i libucrt:argv_wildcards.obj
 0001:00029de3       ?expand_if_necessary@?$argument_list@D@?A0xb0e4b824@@AAEHXZ 0042ade3 f i libucrt:argv_wildcards.obj
 0001:00029e6a       ___acrt_expand_narrow_argv_wildcards 0042ae6a f   libucrt:argv_wildcards.obj
 0001:00029e75       ??$?RV<lambda_978dc153c237d78434369da87b74ff60>@@AAV<lambda_ad1ced32f4ac17aa236e5ef05d6b3b7c>@@V<lambda_4a8533e2866a575feecb8298ce776b0d>@@@?$__crt_seh_guarded_call@X@@QAEX$$QAV<lambda_978dc153c237d78434369da87b74ff60>@@AAV<lambda_ad1ced32f4ac17aa236e5ef05d6b3b7c>@@$$QAV<lambda_4a8533e2866a575feecb8298ce776b0d>@@@Z 0042ae75 f i libucrt:mbctype.obj
 0001:00029eb8       ??$__acrt_lock_and_call@V<lambda_ad1ced32f4ac17aa236e5ef05d6b3b7c>@@@@YAXW4__acrt_lock_id@@$$QAV<lambda_ad1ced32f4ac17aa236e5ef05d6b3b7c>@@@Z 0042aeb8 f i libucrt:mbctype.obj
 0001:0002a34f       ___acrt_initialize_multibyte 0042b34f f   libucrt:mbctype.obj
 0001:0002a36d       ___acrt_update_thread_multibyte_data 0042b36d f   libucrt:mbctype.obj
 0001:0002a40f       __setmbcp_nolock           0042b40f f   libucrt:mbctype.obj
 0001:0002a6da       __ismbblead                0042b6da f   libucrt:ismbbyte.obj
 0001:0002a729       ___dcrt_get_narrow_environment_from_os 0042b729 f   libucrt:get_environment_from_os.obj
 0001:0002aaec       ___dcrt_set_variable_in_narrow_environment_nolock 0042baec f   libucrt:setenv.obj
 0001:0002aaf7       __recalloc                 0042baf7 f   libucrt:recalloc.obj
 0001:0002ab02       __recalloc_base            0042bb02 f   libucrt:recalloc.obj
 0001:0002ab6f       ___acrt_initialize_heap    0042bb6f f   libucrt:heap_handle.obj
 0001:0002ab80       ___acrt_uninitialize_heap  0042bb80 f   libucrt:heap_handle.obj
 0001:0002ab8a       ___acrt_execute_initializers 0042bb8a f   libucrt:shared_initialization.obj
 0001:0002ac0d       ___acrt_execute_uninitializers 0042bc0d f   libucrt:shared_initialization.obj
 0001:0002ac5a       ___acrt_initialize_new_handler 0042bc5a f   libucrt:new_handler.obj
 0001:0002ac6e       __callnewh                 0042bc6e f   libucrt:new_handler.obj
 0001:0002acb2       __query_new_handler        0042bcb2 f   libucrt:new_handler.obj
 0001:0002ad04       ___acrt_lowio_create_handle_array 0042bd04 f   libucrt:osfinfo.obj
 0001:0002ad7e       ___acrt_lowio_destroy_handle_array 0042bd7e f   libucrt:osfinfo.obj
 0001:0002adb3       ___acrt_lowio_ensure_fh_exists 0042bdb3 f   libucrt:osfinfo.obj
 0001:0002ae4b       ___acrt_lowio_lock_fh      0042be4b f   libucrt:osfinfo.obj
 0001:0002ae6e       ___acrt_lowio_set_os_handle 0042be6e f   libucrt:osfinfo.obj
 0001:0002af02       ___acrt_lowio_unlock_fh    0042bf02 f   libucrt:osfinfo.obj
 0001:0002af25       __alloc_osfhnd             0042bf25 f   libucrt:osfinfo.obj
 0001:0002b037       __free_osfhnd              0042c037 f   libucrt:osfinfo.obj
 0001:0002b0c8       __get_osfhandle            0042c0c8 f   libucrt:osfinfo.obj
 0001:0002b132       ___acrt_locale_free_monetary 0042c132 f   libucrt:initmon.obj
 0001:0002b230       ___acrt_locale_free_numeric 0042c230 f   libucrt:initnum.obj
 0001:0002b2d5       ___acrt_locale_free_time   0042c2d5 f   libucrt:inittime.obj
 0001:0002b3b9       ___acrt_GetStringTypeA     0042c3b9 f   libucrt:getstringtypea.obj
 0001:0002b4d6       __freea_crt                0042c4d6 f i libucrt:getstringtypea.obj
 0001:0002b4f6       ___acrt_add_locale_ref     0042c4f6 f   libucrt:locale_refcounting.obj
 0001:0002b573       ___acrt_free_locale        0042c573 f   libucrt:locale_refcounting.obj
 0001:0002b6bd       ___acrt_locale_add_lc_time_reference 0042c6bd f   libucrt:locale_refcounting.obj
 0001:0002b6e6       ___acrt_locale_free_lc_time_if_unreferenced 0042c6e6 f   libucrt:locale_refcounting.obj
 0001:0002b716       ___acrt_locale_release_lc_time_reference 0042c716 f   libucrt:locale_refcounting.obj
 0001:0002b73f       ___acrt_release_locale_ref 0042c73f f   libucrt:locale_refcounting.obj
 0001:0002b7c0       ___acrt_update_thread_locale_data 0042c7c0 f   libucrt:locale_refcounting.obj
 0001:0002b837       __updatetlocinfoEx_nolock  0042c837 f   libucrt:locale_refcounting.obj
 0001:0002b932       __clearfp                  0042c932 f   libucrt:ieee87.obj
 0001:0002ba10       __control87                0042ca10 f   libucrt:ieee87.obj
 0001:0002bdab       __isatty                   0042cdab f   libucrt:isatty.obj
 0001:0002bf84       __lseeki64                 0042cf84 f   libucrt:lseek.obj
 0001:0002bf9f       __lseeki64_nolock          0042cf9f f   libucrt:lseek.obj
 0001:0002bfba       __putwch_nolock            0042cfba f   libucrt:putwch.obj
 0001:0002bfff       ___acrt_stdio_allocate_buffer_nolock 0042cfff f   libucrt:_getbuf.obj
 0001:0002c05c       __isleadbyte_l             0042d05c f i libucrt:_wctype.obj
 0001:0002c2b2       ___acrt_LCMapStringA       0042d2b2 f   libucrt:lcmapstringa.obj
 0001:0002c2fd       ___acrt_fp_strflt_to_string 0042d2fd f   libucrt:_fptostr.obj
 0001:0002c3b9       ??0scoped_fp_state_reset@?A0x48fbfdd4@@QAE@XZ 0042d3b9 f i libucrt:cfout.obj
 0001:0002c3f0       ?divide@__crt_strtox@@YA_KAAUbig_integer@1@ABU21@@Z 0042d3f0 f i libucrt:cfout.obj
 0001:0002c89e       ___acrt_fltout             0042d89e f   libucrt:cfout.obj
 0001:0002dcf6       ___acrt_DownlevelLocaleNameToLCID 0042ecf6 f   libucrt:lcidtoname_downlevel.obj
 0001:0002dd30       _strncmp                   0042ed30 f   libucrt:strncmp.obj
 0001:0002dda8       __strnicmp                 0042eda8 f   libucrt:strnicmp.obj
 0001:0002de14       __strnicmp_l               0042ee14 f   libucrt:strnicmp.obj
 0001:0002e4a5       __sopen_nolock             0042f4a5 f   libucrt:open.obj
 0001:0002e4f6       __sopen_s                  0042f4f6 f   libucrt:open.obj
 0001:0002e516       __wsopen_nolock            0042f516 f   libucrt:open.obj
 0001:0002e920       _qsort                     0042f920 f   libucrt:qsort.obj
 0001:0002ecc0       _strpbrk                   0042fcc0 f   libucrt:strpbrk.obj
 0001:0002ed00       __mbsdec                   0042fd00 f   libucrt:mbsdec.obj
 0001:0002ed17       __mbsdec_l                 0042fd17 f   libucrt:mbsdec.obj
 0001:0002edb3       __strnicoll                0042fdb3 f   libucrt:strnicol.obj
 0001:0002eddc       __strnicoll_l              0042fddc f   libucrt:strnicol.obj
 0001:0002eea6       __msize                    0042fea6 f   libucrt:msize.obj
 0001:0002eed9       ___set_fpsr_sse2           0042fed9 f   libucrt:fpctrl.obj
 0001:0002ef4f       __clrfp                    0042ff4f f   libucrt:fpctrl.obj
 0001:0002ef62       __ctrlfp                   0042ff62 f   libucrt:fpctrl.obj
 0001:0002ef8e       __set_statfp               0042ff8e f   libucrt:fpctrl.obj
 0001:0002efe9       __statfp                   0042ffe9 f   libucrt:fpctrl.obj
 0001:0002effb       ___dcrt_lowio_initialize_console_output 0042fffb f   libucrt:initcon.obj
 0001:0002f01a       ___dcrt_terminate_console_output 0043001a f   libucrt:initcon.obj
 0001:0002f031       ___strncnt                 00430031 f   libucrt:strncnt.obj
 0001:0002f04d       _fegetenv                  0043004d f   libucrt:fegetenv.obj
 0001:0002f06a       _fesetenv                  0043006a f   libucrt:fesetenv.obj
 0001:0002f0b3       _feholdexcept              004300b3 f   libucrt:feholdexcept.obj
 0001:0002f110       _log10                     00430110 f   libucrt:log10.obj
 0001:0002f150       __CIlog10                  00430150 f   libucrt:log10.obj
 0001:0002f18b       __CIlog10_default          0043018b f   libucrt:log10.obj
 0001:0002f19f       __log10_default            0043019f     libucrt:log10.obj
 0001:0002f260       _ceil                      00430260 f   libucrt:ceil_pentium4.obj
 0001:0002f2a0       __ceil_pentium4            004302a0 f   libucrt:ceil_pentium4.obj
 0001:0002f380       ___ascii_strnicmp          00430380 f   libucrt:_strnicm.obj
 0001:0002f3e1       ___acrt_copy_path_to_wide_string 004303e1 f   libucrt:string_utilities.obj
 0001:0002f4a8       __chsize_nolock            004304a8 f   libucrt:chsize.obj
 0001:0002f8e1       ___acrt_CompareStringA     004308e1 f   libucrt:comparestringa.obj
 0001:0002fbcc       __getfpcontrolword         00430bcc f   libucrt:_fenvutils.obj
 0001:0002fc0f       __getfpstatusword          00430c0f f   libucrt:_fenvutils.obj
 0001:0002fcb7       __setfpcontrolword         00430cb7 f   libucrt:_fenvutils.obj
 0001:0002fd37       __setfpstatusword          00430d37 f   libucrt:_fenvutils.obj
 0001:0002fdb7       ___acrt_initialize_sse2    00430db7 f   libucrt:mathfcns.obj
 0001:0002fdd0       __CIlog10_pentium4         00430dd0 f   libucrt:log10_pentium4.obj
 0001:0002fde8       __log10_pentium4           00430de8     libucrt:log10_pentium4.obj
 0001:00030071       __fFEXP                    00431071     libucrt:87tran.obj
 0001:000300c8       __rtinfpopse               004310c8     libucrt:87tran.obj
 0001:000300ca       __rtinfnpopse              004310ca     libucrt:87tran.obj
 0001:000300da       __fFLN                     004310da     libucrt:87tran.obj
 0001:0003018f       __rtinfpop                 0043118f     libucrt:87tran.obj
 0001:00030191       __rtinfnpop                00431191     libucrt:87tran.obj
 0001:000301ae       __ffexpm1                  004311ae     libucrt:87tran.obj
 0001:00030260       __trandisp1                00431260 f   libucrt:87disp.obj
 0001:000302c7       __trandisp2                004312c7 f   libucrt:87disp.obj
 0001:00030353       __rttospopde               00431353     libucrt:87disp.obj
 0001:00030358       __rttospop                 00431358     libucrt:87disp.obj
 0001:0003035a       __rtnospop                 0043135a     libucrt:87disp.obj
 0001:0003035c       __rttosnpop                0043135c     libucrt:87disp.obj
 0001:0003035d       __rtnospopde               0043135d     libucrt:87disp.obj
 0001:00030364       __rtzeropop                00431364     libucrt:87disp.obj
 0001:00030366       __rtzeronpop               00431366     libucrt:87disp.obj
 0001:0003036b       __rtzerospop               0043136b     libucrt:87disp.obj
 0001:00030378       __rtonepop                 00431378     libucrt:87disp.obj
 0001:0003037a       __rtonenpop                0043137a     libucrt:87disp.obj
 0001:0003037f       __tosnan1                  0043137f     libucrt:87disp.obj
 0001:000303aa       __nosnan2                  004313aa     libucrt:87disp.obj
 0001:000303ac       __tosnan2                  004313ac     libucrt:87disp.obj
 0001:000303d4       __nan2                     004313d4     libucrt:87disp.obj
 0001:00030413       __rtindfpop                00431413     libucrt:87disp.obj
 0001:00030415       __rtindfnpop               00431415     libucrt:87disp.obj
 0001:00030426       __rttosnpopde              00431426     libucrt:87disp.obj
 0001:00030430       __rtatan2inf               00431430     libucrt:87disp.obj
 0001:0003044d       __rtchsifneg               0043144d     libucrt:87disp.obj
 0001:00030460       __twoToTOS                 00431460 f   libucrt:common.obj
 0001:00030475       __load_CW                  00431475 f   libucrt:common.obj
 0001:0003048c       __convertTOStoQNaN         0043148c f   libucrt:common.obj
 0001:000304a5       __fload_withFB             004314a5 f   libucrt:common.obj
 0001:000304e8       __checkTOS_withFB          004314e8 f   libucrt:common.obj
 0001:000304fe       __fast_exit                004314fe f   libucrt:common.obj
 0001:0003050b       __math_exit                0043150b f   libucrt:common.obj
 0001:00030535       __check_overflow_exit      00431535 f   libucrt:common.obj
 0001:00030549       __check_range_exit         00431549 f   libucrt:common.obj
 0001:000305f0       __startTwoArgErrorHandling 004315f0 f   libucrt:genexcep.obj
 0001:00030607       __startOneArgErrorHandling 00431607 f   libucrt:genexcep.obj
 0001:00030643       ___libm_error_support      00431643 f   libucrt:libm_error.obj
 0001:0003085b       __ceil_default             0043185b f   libucrt:ceil.obj
 0001:00030914       __d_inttype                00431914 f   libucrt:powhlp.obj
 0001:0003097e       __powhlp                   0043197e f   libucrt:powhlp.obj
 0001:00030aa9       __87except                 00431aa9 f   libucrt:87except.obj
 0001:00030bb4       __frnd                     00431bb4 f   libucrt:frnd.obj
 0001:00030bca       __errcode                  00431bca f   libucrt:fpexcept.obj
 0001:00030bfe       __except1                  00431bfe f   libucrt:fpexcept.obj
 0001:00030ccc       __handle_exc               00431ccc f   libucrt:fpexcept.obj
 0001:00030eac       __raise_exc                00431eac f   libucrt:fpexcept.obj
 0001:00030ecf       __raise_exc_ex             00431ecf f   libucrt:fpexcept.obj
 0001:000311c0       __set_errno_from_matherr   004321c0 f   libucrt:fpexcept.obj
 0001:000311ef       __umatherr                 004321ef f   libucrt:fpexcept.obj
 0001:00031291       __decomp                   00432291 f   libucrt:util.obj
 0001:00031365       __set_exp                  00432365 f   libucrt:util.obj
 0001:00031394       __sptype                   00432394 f   libucrt:util.obj
 0001:000313f2       __fpclass                  004323f2 f   libucrt:ieeemisc.obj
 0001:000314a0       __FindPESection            004324a0 f   LIBCMT:pesect.obj
 0001:000314f0       __IsNonwritableInCurrentImage 004324f0 f   LIBCMT:pesect.obj
 0001:000315b0       __ValidateImageBase        004325b0 f   LIBCMT:pesect.obj
 0001:000315f0       __aulldvrm                 004325f0 f   LIBCMT:ulldvrm.obj
 0001:00031690       __SEH_prolog4_GS           00432690 f   LIBCMT:_sehprolg4gs_.obj
 0001:000316d9       __SEH_epilog4_GS           004326d9 f   LIBCMT:_sehprolg4gs_.obj
 0001:000316f0       __alldvrm                  004326f0 f   LIBCMT:lldvrm.obj
 0001:000317d0       __alloca_probe_16          004327d0 f   LIBCMT:alloca16.obj
 0001:000317e6       __alloca_probe_8           004327e6     LIBCMT:alloca16.obj
 0001:00031800       __ftol2_sse                00432800 f   LIBCMT:_ftol2_.obj
 0001:00031809       __ftol2_pentium4           00432809 f   LIBCMT:_ftol2_.obj
 0001:0003181c       __ftol2_sse_excpt          0043281c f   LIBCMT:_ftol2_.obj
 0001:00031840       __ftol2                    00432840 f   LIBCMT:_ftol2_.obj
 0001:000318b6       _RtlUnwind@16              004328b6 f   kernel32:KERNEL32.dll
 0001:000318c0       _strrchr                   004328c0 f   libvcruntime:strrchr.obj
 0002:00000000       __imp__GetConsoleMode@8    00433000     kernel32:KERNEL32.dll
 0002:00000004       __imp__UnhandledExceptionFilter@4 00433004     kernel32:KERNEL32.dll
 0002:00000008       __imp__SetUnhandledExceptionFilter@4 00433008     kernel32:KERNEL32.dll
 0002:0000000c       __imp__GetCurrentProcess@0 0043300c     kernel32:KERNEL32.dll
 0002:00000010       __imp__TerminateProcess@8  00433010     kernel32:KERNEL32.dll
 0002:00000014       __imp__IsProcessorFeaturePresent@4 00433014     kernel32:KERNEL32.dll
 0002:00000018       __imp__IsDebuggerPresent@0 00433018     kernel32:KERNEL32.dll
 0002:0000001c       __imp__GetStartupInfoW@4   0043301c     kernel32:KERNEL32.dll
 0002:00000020       __imp__GetModuleHandleW@4  00433020     kernel32:KERNEL32.dll
 0002:00000024       __imp__QueryPerformanceCounter@4 00433024     kernel32:KERNEL32.dll
 0002:00000028       __imp__GetCurrentProcessId@0 00433028     kernel32:KERNEL32.dll
 0002:0000002c       __imp__GetCurrentThreadId@0 0043302c     kernel32:KERNEL32.dll
 0002:00000030       __imp__GetSystemTimeAsFileTime@4 00433030     kernel32:KERNEL32.dll
 0002:00000034       __imp__InitializeSListHead@4 00433034     kernel32:KERNEL32.dll
 0002:00000038       __imp__GetLastError@0      00433038     kernel32:KERNEL32.dll
 0002:0000003c       __imp__SetLastError@4      0043303c     kernel32:KERNEL32.dll
 0002:00000040       __imp__EnterCriticalSection@4 00433040     kernel32:KERNEL32.dll
 0002:00000044       __imp__LeaveCriticalSection@4 00433044     kernel32:KERNEL32.dll
 0002:00000048       __imp__DeleteCriticalSection@4 00433048     kernel32:KERNEL32.dll
 0002:0000004c       __imp__InitializeCriticalSectionAndSpinCount@8 0043304c     kernel32:KERNEL32.dll
 0002:00000050       __imp__TlsAlloc@0          00433050     kernel32:KERNEL32.dll
 0002:00000054       __imp__TlsGetValue@4       00433054     kernel32:KERNEL32.dll
 0002:00000058       __imp__TlsSetValue@8       00433058     kernel32:KERNEL32.dll
 0002:0000005c       __imp__TlsFree@4           0043305c     kernel32:KERNEL32.dll
 0002:00000060       __imp__FreeLibrary@4       00433060     kernel32:KERNEL32.dll
 0002:00000064       __imp__GetProcAddress@8    00433064     kernel32:KERNEL32.dll
 0002:00000068       __imp__LoadLibraryExW@12   00433068     kernel32:KERNEL32.dll
 0002:0000006c       __imp__RtlUnwind@16        0043306c     kernel32:KERNEL32.dll
 0002:00000070       __imp__GetStdHandle@4      00433070     kernel32:KERNEL32.dll
 0002:00000074       __imp__GetFileType@4       00433074     kernel32:KERNEL32.dll
 0002:00000078       __imp__GetModuleFileNameA@12 00433078     kernel32:KERNEL32.dll
 0002:0000007c       __imp__GetModuleFileNameW@12 0043307c     kernel32:KERNEL32.dll
 0002:00000080       __imp__GetModuleHandleExW@12 00433080     kernel32:KERNEL32.dll
 0002:00000084       __imp__WriteConsoleW@20    00433084     kernel32:KERNEL32.dll
 0002:00000088       __imp__ExitProcess@4       00433088     kernel32:KERNEL32.dll
 0002:0000008c       __imp__MultiByteToWideChar@24 0043308c     kernel32:KERNEL32.dll
 0002:00000090       __imp__WideCharToMultiByte@32 00433090     kernel32:KERNEL32.dll
 0002:00000094       __imp__WriteFile@20        00433094     kernel32:KERNEL32.dll
 0002:00000098       __imp__GetCommandLineA@0   00433098     kernel32:KERNEL32.dll
 0002:0000009c       __imp__GetCommandLineW@0   0043309c     kernel32:KERNEL32.dll
 0002:000000a0       __imp__GetACP@0            004330a0     kernel32:KERNEL32.dll
 0002:000000a4       __imp__HeapFree@12         004330a4     kernel32:KERNEL32.dll
 0002:000000a8       __imp__HeapAlloc@12        004330a8     kernel32:KERNEL32.dll
 0002:000000ac       __imp__OutputDebugStringW@4 004330ac     kernel32:KERNEL32.dll
 0002:000000b0       __imp__CloseHandle@4       004330b0     kernel32:KERNEL32.dll
 0002:000000b4       __imp__WaitForSingleObjectEx@12 004330b4     kernel32:KERNEL32.dll
 0002:000000b8       __imp__CreateThread@24     004330b8     kernel32:KERNEL32.dll
 0002:000000bc       __imp__GetConsoleCP@0      004330bc     kernel32:KERNEL32.dll
 0002:000000c0       __imp__HeapReAlloc@16      004330c0     kernel32:KERNEL32.dll
 0002:000000c4       __imp__CompareStringW@24   004330c4     kernel32:KERNEL32.dll
 0002:000000c8       __imp__LCMapStringW@24     004330c8     kernel32:KERNEL32.dll
 0002:000000cc       __imp__FlushFileBuffers@4  004330cc     kernel32:KERNEL32.dll
 0002:000000d0       __imp__GetStringTypeW@16   004330d0     kernel32:KERNEL32.dll
 0002:000000d4       __imp__ReadFile@20         004330d4     kernel32:KERNEL32.dll
 0002:000000d8       __imp__ReadConsoleW@20     004330d8     kernel32:KERNEL32.dll
 0002:000000dc       __imp__FindClose@4         004330dc     kernel32:KERNEL32.dll
 0002:000000e0       __imp__FindFirstFileExA@24 004330e0     kernel32:KERNEL32.dll
 0002:000000e4       __imp__FindNextFileA@8     004330e4     kernel32:KERNEL32.dll
 0002:000000e8       __imp__IsValidCodePage@4   004330e8     kernel32:KERNEL32.dll
 0002:000000ec       __imp__GetOEMCP@0          004330ec     kernel32:KERNEL32.dll
 0002:000000f0       __imp__GetCPInfo@8         004330f0     kernel32:KERNEL32.dll
 0002:000000f4       __imp__GetEnvironmentStringsW@0 004330f4     kernel32:KERNEL32.dll
 0002:000000f8       __imp__FreeEnvironmentStringsW@4 004330f8     kernel32:KERNEL32.dll
 0002:000000fc       __imp__SetEnvironmentVariableA@8 004330fc     kernel32:KERNEL32.dll
 0002:00000100       __imp__GetProcessHeap@0    00433100     kernel32:KERNEL32.dll
 0002:00000104       __imp__SetStdHandle@8      00433104     kernel32:KERNEL32.dll
 0002:00000108       __imp__SetFilePointerEx@20 00433108     kernel32:KERNEL32.dll
 0002:0000010c       __imp__CreateFileW@28      0043310c     kernel32:KERNEL32.dll
 0002:00000110       __imp__HeapSize@12         00433110     kernel32:KERNEL32.dll
 0002:00000114       __imp__SetEndOfFile@4      00433114     kernel32:KERNEL32.dll
 0002:00000118       __imp__DecodePointer@4     00433118     kernel32:KERNEL32.dll
 0002:0000011c       __imp__RaiseException@16   0043311c     kernel32:KERNEL32.dll
 0002:00000120       \177KERNEL32_NULL_THUNK_DATA 00433120     kernel32:KERNEL32.dll
 0002:00000124       ___guard_check_icall_fptr  00433124     LIBCMT:guard_support.obj
 0002:00000128       ___xc_a                    00433128     LIBCMT:initializers.obj
 0002:00000130       ___xc_z                    00433130     LIBCMT:initializers.obj
 0002:00000134       ___xi_a                    00433134     LIBCMT:initializers.obj
 0002:00000140       ___acrt_stdio_initializer  00433140     libucrt:stdio_initializer.obj
 0002:00000144       ___acrt_multibyte_initializer 00433144     libucrt:multibyte_initializer.obj
 0002:00000148       ___acrt_tran_sse2_initializer 00433148     libucrt:sse2_initializer.obj
 0002:0000014c       ___xi_z                    0043314c     LIBCMT:initializers.obj
 0002:00000150       ___xp_a                    00433150     LIBCMT:initializers.obj
 0002:00000154       ___acrt_locale_terminator  00433154     libucrt:locale_initializer.obj
 0002:00000158       ___dcrt_console_output_terminator 00433158     libucrt:console_output_initializer.obj
 0002:0000015c       ___acrt_stdio_terminator   0043315c     libucrt:stdio_initializer.obj
 0002:00000160       ___xp_z                    00433160     LIBCMT:initializers.obj
 0002:00000164       ___xt_a                    00433164     LIBCMT:initializers.obj
 0002:00000168       ___xt_z                    00433168     LIBCMT:initializers.obj
 0002:00000170       ??_C@_1BC@CGLMHCPF@?$AA?4?$AA?4?$AA?2?$AAe?$AAc?$AAc?$AA?4?$AAc?$AA?$AA@ 00433170     ecc.obj
 0002:00000184       ??_C@_1O@HAOLMPOI@?$AAw?$AAc?$AA?9?$AA?$DO?$AAs?$AAc?$AA?$AA@ 00433184     ecc.obj
 0002:00000194       ??_C@_1BI@DJNJMABL@?$AAQ?$AA?9?$AA?$DO?$AAw?$AAc?$AA?5?$AA?$DN?$AA?$DN?$AA?5?$AAw?$AAc?$AA?$AA@ 00433194     ecc.obj
 0002:000001ac       ??_C@_1DI@NAHPADHE@?$AA?$CB?$AAm?$AAp?$AA_?$AAe?$AAq?$AA_?$AAi?$AAn?$AAt?$AAe?$AAg?$AAe?$AAr?$AA?$CI?$AAl?$AAa?$AAm?$AAb?$AAd?$AAa?$AA_?$AAn?$AA?0?$AA?5?$AA0?$AA?$CJ?$AA?$AA@ 004331ac     ecc.obj
 0002:000001e4       ??_C@_1BI@KHLCHIHB@?$AAQ?$AA?9?$AA?$DO?$AAm?$AAc?$AA?5?$AA?$DN?$AA?$DN?$AA?5?$AAm?$AAc?$AA?$AA@ 004331e4     ecc.obj
 0002:000001fc       ??_C@_1CE@GJPMPIEA@?$AAP?$AAm?$AAi?$AAn?$AAu?$AAs?$AAQ?$AA?9?$AA?$DO?$AAm?$AAc?$AA?5?$AA?$DN?$AA?$DN?$AA?5?$AAm?$AAc?$AA?$AA@ 004331fc     ecc.obj
 0002:00000220       ??_C@_1O@PHDHDHCJ@?$AAe?$AAc?$AA?9?$AA?$DO?$AAs?$AAc?$AA?$AA@ 00433220     ecc.obj
 0002:00000230       ??_C@_1BI@FMLAFEBA@?$AAQ?$AA?9?$AA?$DO?$AAe?$AAc?$AA?5?$AA?$DN?$AA?$DN?$AA?5?$AAe?$AAc?$AA?$AA@ 00433230     ecc.obj
 0002:00000248       ??_C@_00CNPNBAHC@?$AA@     00433248     marshal.obj
 0002:0000024c       ??_C@_1BI@OGPCMFEE@?$AA?4?$AA?4?$AA?2?$AAm?$AAe?$AAm?$AAo?$AAr?$AAy?$AA?4?$AAc?$AA?$AA@ 0043324c     memory.obj
 0002:00000264       ??_C@_1BI@CNOLHJLA@?$AAe?$AAl?$AAt?$AAs?$AAi?$AAz?$AAe?$AA?5?$AA?$DO?$AA?5?$AA0?$AA?$AA@ 00433264     memory.obj
 0002:0000027c       ??_C@_1CG@BCBMGELK@?$AAo?$AAl?$AAd?$AAs?$AAi?$AAz?$AAe?$AA?5?$AA?$DM?$AA?$DN?$AA?5?$AAm?$AAa?$AAx?$AAs?$AAi?$AAz?$AAe?$AA?$AA@ 0043327c     memory.obj
 0002:000002a4       ??_C@_1CE@MANIAPO@?$AAo?$AAl?$AAd?$AAl?$AAe?$AAn?$AA?5?$AA?$DM?$AA?$DN?$AA?5?$AAm?$AAa?$AAx?$AAs?$AAi?$AAz?$AAe?$AA?$AA@ 004332a4     memory.obj
 0002:000002c8       ??_C@_1DK@NCGJAGIA@?$AAe?$AAx?$AAt?$AAr?$AAa?$AAl?$AAe?$AAn?$AA?5?$AA?$DM?$AA?$DN?$AA?5?$AAm?$AAa?$AAx?$AAs?$AAi?$AAz?$AAe?$AA?5?$AA?9?$AA?5?$AAo?$AAl?$AAd?$AAl?$AAe?$AAn?$AA?$AA@ 004332c8     memory.obj
 0002:00000304       ??_C@_1BG@DLGFDEC@?$AA?4?$AA?4?$AA?2?$AAm?$AAp?$AAi?$AAn?$AAt?$AA?4?$AAc?$AA?$AA@ 00433304     mpint.obj
 0002:0000031c       ??_C@_15IKCLKIFD@?$AAn?$AAw?$AA?$AA@ 0043331c     mpint.obj
 0002:00000324       ??_C@_04JFFKLGJF@?$CF02X?$AA@ 00433324     mpint.obj
 0002:0000032c       ??_C@_1CC@PDPGMCFB@?$AAx?$AA0?$AA?9?$AA?$DO?$AAn?$AAw?$AA?5?$AA?$DN?$AA?$DN?$AA?5?$AAx?$AA1?$AA?9?$AA?$DO?$AAn?$AAw?$AA?$AA@ 0043332c     mpint.obj
 0002:00000350       ??_C@_1EC@JCINCOAC@?$AAd?$AAe?$AAc?$AAi?$AAm?$AAa?$AAl?$AA?4?$AAl?$AAe?$AAn?$AA?5?$AA?$DM?$AA?5?$AA?$CI?$AA?$HO?$AA?$CI?$AAs?$AAi?$AAz?$AAe?$AA_?$AAt?$AA?$CJ?$AA0?$AA?$CJ?$AA?5?$AA?1?$AA?5?$AA1?$AA9?$AA6@ 00433350     mpint.obj
 0002:00000394       ??_C@_1DI@NBGMJNJD@?$AAh?$AAe?$AAx?$AA?4?$AAl?$AAe?$AAn?$AA?5?$AA?$DM?$AA?$DN?$AA?5?$AA?$CI?$AA?$HO?$AA?$CI?$AAs?$AAi?$AAz?$AAe?$AA_?$AAt?$AA?$CJ?$AA0?$AA?$CJ?$AA?5?$AA?1?$AA?5?$AA4?$AA?$AA@ 00433394     mpint.obj
 0002:000003cc       ??_C@_1BK@PMKBAOGP@?$AAw?$AAo?$AAr?$AAd?$AA?5?$AA?$DM?$AA?5?$AAx?$AA?9?$AA?$DO?$AAn?$AAw?$AA?$AA@ 004333cc     mpint.obj
 0002:000003e8       ??_C@_1FO@FJFILELC@?$AAx?$AA?9?$AA?$DO?$AAn?$AAw?$AA?5?$AA?$DM?$AA?5?$AA?$CI?$AA?$HO?$AA?$CI?$AAs?$AAi?$AAz?$AAe?$AA_?$AAt?$AA?$CJ?$AA1?$AA?$CJ?$AA?5?$AA?1?$AA?5?$AA?$CI?$AA1?$AA4?$AA6?$AA?5?$AA?$CK?$AA?5?$AAB?$AAI@ 004333e8     mpint.obj
 0002:00000448       ??_C@_1BO@GKBMOOJP@?$AAl?$AAo?$AAw?$AA_?$AAd?$AAi?$AAg?$AAi?$AAt?$AA?5?$AA?$DM?$AA?5?$AA1?$AA0?$AA?$AA@ 00433448     mpint.obj
 0002:00000468       ??_C@_1BO@FPFHOAGI@?$AAb?$AAi?$AAt?$AAs?$AA?5?$AA?$DM?$AA?5?$AA0?$AAx?$AA1?$AA0?$AA0?$AA0?$AA0?$AA?$AA@ 00433468     mpint.obj
 0002:00000488       ??_C@_1CA@EHIIJAKE@?$AAl?$AAe?$AAn?$AA?5?$AA?$DM?$AA?$DN?$AA?5?$AAp?$AAo?$AAo?$AAl?$AA?9?$AA?$DO?$AAn?$AAw?$AA?$AA@ 00433488     mpint.obj
 0002:000004a8       ??_C@_1O@KBGOBLBB@?$AA?$CB?$AAc?$AAa?$AAr?$AAr?$AAy?$AA?$AA@ 004334a8     mpint.obj
 0002:000004b8       ??_C@_1FO@LGKPJJAD@?$AAs?$AAc?$AAr?$AAa?$AAt?$AAc?$AAh?$AA?4?$AAn?$AAw?$AA?5?$AA?$DO?$AA?$DN?$AA?5?$AAm?$AAp?$AA_?$AAm?$AAu?$AAl?$AA_?$AAs?$AAc?$AAr?$AAa?$AAt?$AAc?$AAh?$AAs?$AAp?$AAa?$AAc@ 004334b8     mpint.obj
 0002:00000518       ??_C@_1BE@OCENCALB@?$AAx?$AA?9?$AA?$DO?$AAn?$AAw?$AA?5?$AA?$DO?$AA?5?$AA0?$AA?$AA@ 00433518     mpint.obj
 0002:0000052c       ??_C@_1BI@DMHMBBIJ@?$AAx?$AA?9?$AA?$DO?$AAw?$AA?$FL?$AA0?$AA?$FN?$AA?5?$AA?$CG?$AA?5?$AA1?$AA?$AA@ 0043352c     mpint.obj
 0002:00000544       ??_C@_1M@IIPNAHGM@?$AAp?$AA?5?$AA?$DO?$AA?5?$AA0?$AA?$AA@ 00433544     mpint.obj
 0002:00000550       ??_C@_1CA@BJLPNIIK@?$AAx?$AA?9?$AA?$DO?$AAn?$AAw?$AA?5?$AA?$DM?$AA?$DN?$AA?5?$AAm?$AAc?$AA?9?$AA?$DO?$AAr?$AAw?$AA?$AA@ 00433550     mpint.obj
 0002:00000570       ??_C@_1CA@OIGFNNCA@?$AAy?$AA?9?$AA?$DO?$AAn?$AAw?$AA?5?$AA?$DM?$AA?$DN?$AA?5?$AAm?$AAc?$AA?9?$AA?$DO?$AAr?$AAw?$AA?$AA@ 00433570     mpint.obj
 0002:00000590       ??_C@_1CE@LKLOMEKL@?$AAx?$AA?9?$AA?$DO?$AAn?$AAw?$AA?5?$AA?$DM?$AA?$DN?$AA?5?$AA2?$AA?$CK?$AAm?$AAc?$AA?9?$AA?$DO?$AAr?$AAw?$AA?$AA@ 00433590     mpint.obj
 0002:000005b4       ??_C@_1CA@CMFDAHKD@?$AAm?$AAo?$AAd?$AAu?$AAl?$AAu?$AAs?$AA?9?$AA?$DO?$AAn?$AAw?$AA?5?$AA?$DO?$AA?5?$AA0?$AA?$AA@ 004335b4     mpint.obj
 0002:000005d4       ??_C@_1CE@FDPDAOJA@?$AAm?$AAo?$AAd?$AAu?$AAl?$AAu?$AAs?$AA?9?$AA?$DO?$AAw?$AA?$FL?$AA0?$AA?$FN?$AA?5?$AA?$CG?$AA?5?$AA1?$AA?$AA@ 004335d4     mpint.obj
 0002:000005f8       ??_C@_1FA@LPLBDJBP@?$AAm?$AAp?$AA_?$AAc?$AAm?$AAp?$AA_?$AAe?$AAq?$AA?$CI?$AAa?$AA?0?$AA?5?$AAa?$AA_?$AAi?$AAn?$AA?$CJ?$AA?5?$AA?$CG?$AA?5?$AAm?$AAp?$AA_?$AAc?$AAm?$AAp?$AA_?$AAe?$AAq?$AA?$CI?$AAb@ 004335f8     mpint.obj
 0002:00000648       ??_C@_1CK@CHHMAJLF@?$AA?$CB?$AAm?$AAp?$AA_?$AAe?$AAq?$AA_?$AAi?$AAn?$AAt?$AAe?$AAg?$AAe?$AAr?$AA?$CI?$AAd?$AA?0?$AA?5?$AA0?$AA?$CJ?$AA?$AA@ 00433648     mpint.obj
 0002:00000678       ??_C@_1FA@EMKFMKIH@?$AAo?$AAu?$AAt?$AAp?$AAu?$AAt?$AA_?$AAb?$AAi?$AAt?$AA_?$AAi?$AAn?$AAd?$AAe?$AAx?$AA?5?$AA?$CF?$AA?5?$AAB?$AAI?$AAG?$AAN?$AAU?$AAM?$AA_?$AAI?$AAN?$AAT?$AA_?$AAB?$AAI@ 00433678     mpint.obj
 0002:000006c8       ??_C@_1DC@JPFGKKME@?$AA?$CB?$AAm?$AAp?$AA_?$AAc?$AAm?$AAp?$AA_?$AAh?$AAs?$AA?$CI?$AAr?$AAe?$AAm?$AAa?$AAi?$AAn?$AAd?$AAe?$AAr?$AA?0?$AA?5?$AAd?$AA?$CJ?$AA?$AA@ 004336c8     mpint.obj
 0002:000006fc       ??_C@_0CB@NJEJMLLL@AES?9256?5CBC?5?$CIAES?9NI?5accelerated?$CJ@ 004336fc     sshaes.obj
 0002:00000720       _extra_aes256_cbc          00433720     sshaes.obj
 0002:00000728       _extra_aes256_sdctr        00433728     sshaes.obj
 0002:00000798       _extra_aes128_cbc          00433798     sshaes.obj
 0002:000007a0       _extra_aes128_sdctr        004337a0     sshaes.obj
 0002:000007a8       _ssh_aes256_sdctr          004337a8     sshaes.obj
 0002:000007e8       _ssh_aes256_sdctr_hw       004337e8     sshaes.obj
 0002:00000828       _ssh_aes256_sdctr_sw       00433828     sshaes.obj
 0002:00000868       _ssh_aes256_cbc            00433868     sshaes.obj
 0002:000008a8       _ssh_aes256_cbc_hw         004338a8     sshaes.obj
 0002:000008e8       _ssh_aes256_cbc_sw         004338e8     sshaes.obj
 0002:00000928       _ssh_aes192_sdctr          00433928     sshaes.obj
 0002:00000968       _ssh_aes192_sdctr_hw       00433968     sshaes.obj
 0002:000009a8       _ssh_aes192_sdctr_sw       004339a8     sshaes.obj
 0002:000009e8       _ssh_aes192_cbc            004339e8     sshaes.obj
 0002:00000a28       _ssh_aes192_cbc_hw         00433a28     sshaes.obj
 0002:00000a68       _ssh_aes192_cbc_sw         00433a68     sshaes.obj
 0002:00000aa8       _ssh_aes128_sdctr          00433aa8     sshaes.obj
 0002:00000ae8       _ssh_aes128_sdctr_hw       00433ae8     sshaes.obj
 0002:00000b28       _ssh_aes128_sdctr_sw       00433b28     sshaes.obj
 0002:00000b68       _ssh_aes128_cbc            00433b68     sshaes.obj
 0002:00000ba8       _ssh_aes128_cbc_hw         00433ba8     sshaes.obj
 0002:00000be8       _ssh_aes128_cbc_sw         00433be8     sshaes.obj
 0002:00000c28       _ssh2_aes                  00433c28     sshaes.obj
 0002:00000c30       _extra_aes192_cbc          00433c30     sshaes.obj
 0002:00000c38       _extra_aes192_sdctr        00433c38     sshaes.obj
 0002:00000c40       ??_C@_0CE@GLAFCKHH@AES?9256?5CBC?5?$CIdummy?5selector?5vtab@ 00433c40     sshaes.obj
 0002:00000c64       ??_C@_0L@EKGBGFCK@aes256?9ctr?$AA@ 00433c64     sshaes.obj
 0002:00000c70       ??_C@_0BO@PCFPJHGM@AES?9256?5SDCTR?5?$CIunaccelerated?$CJ?$AA@ 00433c70     sshaes.obj
 0002:00000c90       ??_C@_0CD@JJIEHMKL@AES?9256?5SDCTR?5?$CIAES?9NI?5accelerate@ 00433c90     sshaes.obj
 0002:00000cb4       ??_C@_0CG@DJHCAPDF@AES?9256?5SDCTR?5?$CIdummy?5selector?5vt@ 00433cb4     sshaes.obj
 0002:00000cdc       ??_C@_0BM@MGEJEKIP@rijndael?9cbc?$EAlysator?4liu?4se?$AA@ 00433cdc     sshaes.obj
 0002:00000cf8       ??_C@_0L@HADBMBOF@aes128?9cbc?$AA@ 00433cf8     sshaes.obj
 0002:00000d04       ??_C@_0BM@CJAJGFLE@AES?9128?5CBC?5?$CIunaccelerated?$CJ?$AA@ 00433d04     sshaes.obj
 0002:00000d20       ??_C@_0CB@GJDNIMJ@AES?9128?5CBC?5?$CIAES?9NI?5accelerated?$CJ@ 00433d20     sshaes.obj
 0002:00000d44       ??_C@_0CE@DLJJOMMO@AES?9128?5CBC?5?$CIdummy?5selector?5vtab@ 00433d44     sshaes.obj
 0002:00000d68       ??_C@_0L@DLEDDNDH@aes128?9ctr?$AA@ 00433d68     sshaes.obj
 0002:00000d74       ??_C@_0BO@KMGIOINC@AES?9128?5SDCTR?5?$CIunaccelerated?$CJ?$AA@ 00433d74     sshaes.obj
 0002:00000d94       ??_C@_0CD@DDPJNL@AES?9128?5SDCTR?5?$CIAES?9NI?5accelerate@ 00433d94     sshaes.obj
 0002:00000db8       ??_C@_0CG@HOHCCNNN@AES?9128?5SDCTR?5?$CIdummy?5selector?5vt@ 00433db8     sshaes.obj
 0002:00000de0       ??_C@_0L@NDKNLGHJ@aes192?9cbc?$AA@ 00433de0     sshaes.obj
 0002:00000dec       ??_C@_0BM@MIEGPACP@AES?9192?5CBC?5?$CIunaccelerated?$CJ?$AA@ 00433dec     sshaes.obj
 0002:00000e08       ??_C@_0CB@BGHINHAO@AES?9192?5CBC?5?$CIAES?9NI?5accelerated?$CJ@ 00433e08     sshaes.obj
 0002:00000e2c       ??_C@_0CE@BPDJELCE@AES?9192?5CBC?5?$CIdummy?5selector?5vtab@ 00433e2c     sshaes.obj
 0002:00000e50       ??_C@_0L@JINPEKKL@aes192?9ctr?$AA@ 00433e50     sshaes.obj
 0002:00000e5c       ??_C@_0BO@LOLIDNIH@AES?9192?5SDCTR?5?$CIunaccelerated?$CJ?$AA@ 00433e5c     sshaes.obj
 0002:00000e7c       ??_C@_0CD@BEDHLFCI@AES?9192?5SDCTR?5?$CIAES?9NI?5accelerate@ 00433e7c     sshaes.obj
 0002:00000ea0       ??_C@_0CG@JCFBCEFA@AES?9192?5SDCTR?5?$CIdummy?5selector?5vt@ 00433ea0     sshaes.obj
 0002:00000ec8       ??_C@_0L@BBDJJPI@aes256?9cbc?$AA@ 00433ec8     sshaes.obj
 0002:00000ed4       ??_C@_0BM@MMBMCILC@AES?9256?5CBC?5?$CIunaccelerated?$CJ?$AA@ 00433ed4     sshaes.obj
 0002:00000ef0       ??_C@_1BI@FNOKOHIF@?$AA?4?$AA?4?$AA?2?$AAs?$AAs?$AAh?$AAa?$AAe?$AAs?$AA?4?$AAc?$AA?$AA@ 00433ef0     sshaes.obj
 0002:00000f08       ??_C@_1FG@IEDDKBB@?$AAr?$AAc?$AAo?$AAn?$AAp?$AAo?$AAs?$AA?5?$AA?$DM?$AA?5?$AAl?$AAe?$AAn?$AAo?$AAf?$AA?$CI?$AAk?$AAe?$AAy?$AA_?$AAs?$AAe?$AAt?$AAu?$AAp?$AA_?$AAr?$AAo?$AAu?$AAn?$AAd?$AA_@ 00433f08     sshaes.obj
 0002:00000f60       __xmm@00000000000000000000000000000001 00433f60     sshaes.obj
 0002:00000f70       __xmm@000102030405060708090a0b0c0d0e0f 00433f70     sshaes.obj
 0002:00000f80       __xmm@000f000f000f000f000f000f000f000f 00433f80     sshaes.obj
 0002:00000f90       ??_C@_0L@FJBAEHAD@arcfour128?$AA@ 00433f90     ssharcf.obj
 0002:00000f9c       ??_C@_0M@CMMMHGEF@Arcfour?9128?$AA@ 00433f9c     ssharcf.obj
 0002:00000fa8       ??_C@_0L@NAGJNDOG@arcfour256?$AA@ 00433fa8     ssharcf.obj
 0002:00000fb4       ??_C@_0M@KFLFOCKA@Arcfour?9256?$AA@ 00433fb4     ssharcf.obj
 0002:00000fc8       _ssh_arcfour256_ssh2       00433fc8     ssharcf.obj
 0002:00001008       _ssh_arcfour128_ssh2       00434008     ssharcf.obj
 0002:00001048       _ssh2_arcfour              00434048     ssharcf.obj
 0002:00001050       ??_C@_1BK@EHJJFLKD@?$AA?4?$AA?4?$AA?2?$AAs?$AAs?$AAh?$AAa?$AAr?$AAc?$AAf?$AA?4?$AAc?$AA?$AA@ 00434050     ssharcf.obj
 0002:0000106c       ??_C@_1CA@NEGFHBCJ@?$AAk?$AAe?$AAy?$AAb?$AAy?$AAt?$AAe?$AAs?$AA?5?$AA?$DM?$AA?$DN?$AA?5?$AA2?$AA5?$AA6?$AA?$AA@ 0043406c     ssharcf.obj
 0002:0000108c       ??_C@_0BB@HKAENLKH@Blowfish?9256?5CBC?$AA@ 0043408c     sshblowf.obj
 0002:000010a0       ??_C@_0N@KIHOJLLD@blowfish?9cbc?$AA@ 004340a0     sshblowf.obj
 0002:000010b0       ??_C@_0BB@LCGIDLK@Blowfish?9128?5CBC?$AA@ 004340b0     sshblowf.obj
 0002:000010c4       ??_C@_0N@ODAMGHGB@blowfish?9ctr?$AA@ 004340c4     sshblowf.obj
 0002:000010d4       ??_C@_0BD@JPOJBFPH@Blowfish?9256?5SDCTR?$AA@ 004340d4     sshblowf.obj
 0002:00002138       _ssh_blowfish_ssh1         00435138     sshblowf.obj
 0002:00002178       _ssh_blowfish_ssh2_ctr     00435178     sshblowf.obj
 0002:000021b8       _ssh_blowfish_ssh2         004351b8     sshblowf.obj
 0002:000021f8       _ssh2_blowfish             004351f8     sshblowf.obj
 0002:00002200       ??_C@_1BM@FADJMCIB@?$AA?4?$AA?4?$AA?2?$AAs?$AAs?$AAh?$AAb?$AAl?$AAo?$AAw?$AAf?$AA?4?$AAc?$AA?$AA@ 00435200     sshblowf.obj
 0002:0000221c       ??_C@_1BO@CPHGGKB@?$AA?$CI?$AAl?$AAe?$AAn?$AA?5?$AA?$CG?$AA?5?$AA7?$AA?$CJ?$AA?5?$AA?$DN?$AA?$DN?$AA?5?$AA0?$AA?$AA@ 0043521c     sshblowf.obj
 0002:0000223c       ??_C@_0BO@LOFLNEO@chacha20?9poly1305?$EAopenssh?4com?$AA@ 0043523c     sshccp.obj
 0002:0000225c       ??_C@_08ILJLPLOJ@ChaCha20?$AA@ 0043525c     sshccp.obj
 0002:0000227c       _ssh2_poly1305             0043527c     sshccp.obj
 0002:000022a8       _ssh2_chacha20_poly1305    004352a8     sshccp.obj
 0002:000022e8       _ssh2_ccp                  004352e8     sshccp.obj
 0002:000022f0       ??_C@_1BI@DCEAAOLO@?$AA?4?$AA?4?$AA?2?$AAs?$AAs?$AAh?$AAc?$AAc?$AAp?$AA?4?$AAc?$AA?$AA@ 004352f0     sshccp.obj
 0002:00002308       ??_C@_1BM@HEJNGGC@?$AAk?$AAe?$AAy?$AA?4?$AAl?$AAe?$AAn?$AA?5?$AA?$DN?$AA?$DN?$AA?5?$AA3?$AA2?$AA?$AA@ 00435308     sshccp.obj
 0002:00002324       ??_C@_08PKNBIDPH@Poly1305?$AA@ 00435324     sshccp.obj
 0002:00002330       ??_C@_1BM@JACOEEIP@?$AA?4?$AA?4?$AA?2?$AAs?$AAs?$AAh?$AAc?$AAr?$AAc?$AAd?$AAa?$AA?4?$AAc?$AA?$AA@ 00435330     sshcrcda.obj
 0002:00002350       ??_C@_1IK@KCKLAJE@?$AA?$CB?$AA?$CI?$AAl?$AAe?$AAn?$AA?5?$AA?$DO?$AA?5?$AA?$CI?$AAS?$AAS?$AAH?$AA_?$AAM?$AAA?$AAX?$AAB?$AAL?$AAO?$AAC?$AAK?$AAS?$AA?5?$AA?$CK?$AA?5?$AAS?$AAS?$AAH?$AA_?$AAB?$AAL?$AAO@ 00435350     sshcrcda.obj
 0002:000023dc       ??_C@_15IIAMFFIG@?$AAI?$AAV?$AA?$AA@ 004353dc     sshcrcda.obj
 0002:000023e4       ??_C@_07IPAFAGII@des?9cbc?$AA@ 004353e4     sshdes.obj
 0002:000023ec       ??_C@_0P@HKDDLANN@single?9DES?5CBC?$AA@ 004353ec     sshdes.obj
 0002:000023fc       ??_C@_0BA@IBKFJPCP@des?9cbc?$EAssh?4com?$AA@ 004353fc     sshdes.obj
 0002:00002620       _ssh_3des_ssh1             00435620     sshdes.obj
 0002:00002660       _ssh_3des_ssh2_ctr         00435660     sshdes.obj
 0002:000026a0       _ssh_3des_ssh2             004356a0     sshdes.obj
 0002:000026e0       _ssh_des                   004356e0     sshdes.obj
 0002:00002720       _ssh_des_sshcom_ssh2       00435720     sshdes.obj
 0002:00002760       _ssh2_3des                 00435760     sshdes.obj
 0002:00002768       _ssh2_des                  00435768     sshdes.obj
 0002:00002830       ??_C@_08BLJCDBFI@3des?9cbc?$AA@ 00435830     sshdes.obj
 0002:0000283c       ??_C@_0P@MNELLKGN@triple?9DES?5CBC?$AA@ 0043583c     sshdes.obj
 0002:0000284c       ??_C@_08FAOAMNIK@3des?9ctr?$AA@ 0043584c     sshdes.obj
 0002:00002858       ??_C@_0BB@JEEJMMLC@triple?9DES?5SDCTR?$AA@ 00435858     sshdes.obj
 0002:0000286c       ??_C@_0BF@OCGINFLB@triple?9DES?5inner?9CBC?$AA@ 0043586c     sshdes.obj
 0002:0000295c       _ssh_diffiehellman_group1  0043595c     sshdh.obj
 0002:00002964       _ssh_diffiehellman_group14 00435964     sshdh.obj
 0002:0000296c       _ssh_diffiehellman_gex     0043596c     sshdh.obj
 0002:00002974       _ssh_gssk5_sha1_kex        00435974     sshdh.obj
 0002:0000297c       ??_C@_0BL@PFLALLMH@diffie?9hellman?9group1?9sha1?$AA@ 0043597c     sshdh.obj
 0002:00002998       ??_C@_06LPEHCBPA@group1?$AA@ 00435998     sshdh.obj
 0002:000029a0       ??_C@_0BO@JDCEIBAC@diffie?9hellman?9group14?9sha256?$AA@ 004359a0     sshdh.obj
 0002:000029c0       ??_C@_07GCIEGMK@group14?$AA@ 004359c0     sshdh.obj
 0002:000029c8       ??_C@_0BM@BOOJHCJ@diffie?9hellman?9group14?9sha1?$AA@ 004359c8     sshdh.obj
 0002:000029e4       ??_C@_0CF@GMBBFDCM@diffie?9hellman?9group?9exchange?9sh@ 004359e4     sshdh.obj
 0002:00002a0c       ??_C@_0CD@MOBIAEI@diffie?9hellman?9group?9exchange?9sh@ 00435a0c     sshdh.obj
 0002:00002a30       ??_C@_0CG@LMDLIGID@gss?9gex?9sha1?9toWM5Slw5Ew8Mqkay?$CLa@ 00435a30     sshdh.obj
 0002:00002a58       ??_C@_0CK@DJCCEFEA@gss?9group14?9sha1?9toWM5Slw5Ew8Mqk@ 00435a58     sshdh.obj
 0002:00002a84       ??_C@_0CJ@LAJENDFA@gss?9group1?9sha1?9toWM5Slw5Ew8Mqka@ 00435a84     sshdh.obj
 0002:00002ab0       ??_C@_0BAD@OHPAAHDM@0xFFFFFFFFFFFFFFFFC90FDAA22168C2@ 00435ab0     sshdh.obj
 0002:00002bb8       ??_C@_0CAD@BEBEAHDJ@0xFFFFFFFFFFFFFFFFC90FDAA22168C2@ 00435bb8     sshdh.obj
 0002:00002dbc       ??_C@_1BG@BOOBEGGO@?$AA?4?$AA?4?$AA?2?$AAs?$AAs?$AAh?$AAd?$AAh?$AA?4?$AAc?$AA?$AA@ 00435dbc     sshdh.obj
 0002:00002dd4       ??_C@_1BI@CPGAAJAC@?$AA?$CB?$AAe?$AAx?$AAt?$AAr?$AAa?$AA?9?$AA?$DO?$AAg?$AAe?$AAx?$AA?$AA@ 00435dd4     sshdh.obj
 0002:00002dec       ??_C@_0BO@CHDADGJ@f?5value?5received?5is?5too?5small?$AA@ 00435dec     sshdh.obj
 0002:00002e0c       ??_C@_0BO@KKDIPCPP@f?5value?5received?5is?5too?5large?$AA@ 00435e0c     sshdh.obj
 0002:00002e2c       ??_C@_07FOJFIGLJ@ssh?9dss?$AA@ 00435e2c     sshdss.obj
 0002:00002e34       ??_C@_03DIFKLMIL@dss?$AA@  00435e34     sshdss.obj
 0002:00002e38       _ssh_dss                   00435e38     sshdss.obj
 0002:00002e78       ??_C@_02MDDDDAID@0x?$AA@   00435e78     sshdss.obj
 0002:00002e7c       ??_C@_0BO@DJMBCJHK@DSA?5deterministic?5k?5generator?$AA@ 00435e7c     sshdss.obj
 0002:00002ea0       _ec_nist_curve_lengths     00435ea0     sshecc.obj
 0002:00002eac       _n_ec_nist_curve_lengths   00435eac     sshecc.obj
 0002:00002eb0       _sign_extra_ed25519        00435eb0     sshecc.obj
 0002:00002ec8       _sign_extra_nistp256       00435ec8     sshecc.obj
 0002:00002ee0       _sign_extra_nistp384       00435ee0     sshecc.obj
 0002:00002ef8       _sign_extra_nistp521       00435ef8     sshecc.obj
 0002:00002f1c       _kex_extra_nistp256        00435f1c     sshecc.obj
 0002:00002f30       _kex_extra_nistp384        00435f30     sshecc.obj
 0002:00002f44       _kex_extra_nistp521        00435f44     sshecc.obj
 0002:00002f68       _ssh_ec_kex_curve25519     00435f68     sshecc.obj
 0002:00002f7c       _ssh_ec_kex_nistp256       00435f7c     sshecc.obj
 0002:00002f90       _ssh_ec_kex_nistp384       00435f90     sshecc.obj
 0002:00002fa4       _ssh_ec_kex_nistp521       00435fa4     sshecc.obj
 0002:00002fb8       _ssh_ecdh_kex              00435fb8     sshecc.obj
 0002:00002fc0       _ssh_ecdsa_ed25519         00435fc0     sshecc.obj
 0002:00003000       _ssh_ecdsa_nistp256        00436000     sshecc.obj
 0002:00003040       _ssh_ecdsa_nistp384        00436040     sshecc.obj
 0002:00003080       _ssh_ecdsa_nistp521        00436080     sshecc.obj
 0002:000030c0       ??_C@_0M@CKOJCCOB@ssh?9ed25519?$AA@ 004360c0     sshecc.obj
 0002:000030cc       ??_C@_0BE@KBAHEFJL@ecdsa?9sha2?9nistp256?$AA@ 004360cc     sshecc.obj
 0002:000030e0       ??_C@_0BE@CDFFNDCP@ecdsa?9sha2?9nistp384?$AA@ 004360e0     sshecc.obj
 0002:000030f4       ??_C@_0BE@HGNOPNGA@ecdsa?9sha2?9nistp521?$AA@ 004360f4     sshecc.obj
 0002:00003108       ??_C@_0BN@NJCKAAJN@curve25519?9sha256?$EAlibssh?4org?$AA@ 00436108     sshecc.obj
 0002:00003128       ??_C@_0BD@OGBONNOE@ecdh?9sha2?9nistp256?$AA@ 00436128     sshecc.obj
 0002:0000313c       ??_C@_0BD@GEEMELFA@ecdh?9sha2?9nistp384?$AA@ 0043613c     sshecc.obj
 0002:00003150       ??_C@_0BD@DBMHGFBP@ecdh?9sha2?9nistp521?$AA@ 00436150     sshecc.obj
 0002:00003168       ??_C@_0ED@BLEJKNFH@0xffffffff0000000100000000000000@ 00436168     sshecc.obj
 0002:000031b0       ??_C@_0ED@GGDOFJBC@0xffffffff0000000100000000000000@ 004361b0     sshecc.obj
 0002:000031f8       ??_C@_0ED@ELEHELBK@0x5ac635d8aa3a93e7b3ebbd55769886@ 004361f8     sshecc.obj
 0002:00003240       ??_C@_0ED@JMNGKDIH@0x6b17d1f2e12c4247f8bce6e563a440@ 00436240     sshecc.obj
 0002:00003288       ??_C@_0ED@FAPGEAEA@0x4fe342e2fe1a7f9b8ee7eb4a7c0f9e@ 00436288     sshecc.obj
 0002:000032d0       ??_C@_0ED@MKOGGFDP@0xffffffff00000000ffffffffffffff@ 004362d0     sshecc.obj
 0002:00003314       ??_C@_08HIMOJHN@nistp256?$AA@ 00436314     sshecc.obj
 0002:00003320       ??_C@_0GD@DPOIOGLL@0xffffffffffffffffffffffffffffff@ 00436320     sshecc.obj
 0002:00003388       ??_C@_0GD@ECJPBCPO@0xffffffffffffffffffffffffffffff@ 00436388     sshecc.obj
 0002:000033f0       ??_C@_0GD@LBIDCCF@0xb3312fa7e23ee7e4988e056be3f82d@ 004363f0     sshecc.obj
 0002:00003458       ??_C@_0GD@KIKBNJKE@0xaa87ca22be8b05378eb1c71ef320ad@ 00436458     sshecc.obj
 0002:000034c0       ??_C@_0GD@KMMGIBKM@0x3617de4a96262c6f5d9e98bf9292dc@ 004364c0     sshecc.obj
 0002:00003528       ??_C@_0GD@MBEDEGHC@0xffffffffffffffffffffffffffffff@ 00436528     sshecc.obj
 0002:0000358c       ??_C@_08IFNOHPMJ@nistp384?$AA@ 0043658c     sshecc.obj
 0002:00003598       ??_C@_0IH@NCDENOOI@0x01ffffffffffffffffffffffffffff@ 00436598     sshecc.obj
 0002:00003620       ??_C@_0IH@KPEDCKKN@0x01ffffffffffffffffffffffffffff@ 00436620     sshecc.obj
 0002:000036a8       ??_C@_0IH@IHMDBAAE@0x0051953eb9618e1c9a1f929a21a0b6@ 004366a8     sshecc.obj
 0002:00003730       ??_C@_0IH@JHNALAOJ@0x00c6858e06b70404e9cd9e3ecb6623@ 00436730     sshecc.obj
 0002:000037b8       ??_C@_0IH@DOBIDCAF@0x011839296a789a3bc0045c8a5fb42c@ 004367b8     sshecc.obj
 0002:00003840       ??_C@_0IH@LBEBMOHG@0x01ffffffffffffffffffffffffffff@ 00436840     sshecc.obj
 0002:000038c8       ??_C@_08NAFFFBIG@nistp521?$AA@ 004368c8     sshecc.obj
 0002:000038d8       ??_C@_0ED@JEPIGPHB@0x7fffffffffffffffffffffffffffff@ 004368d8     sshecc.obj
 0002:00003920       ??_C@_0ED@IPDBLGCA@0x000000000000000000000000000000@ 00436920     sshecc.obj
 0002:00003968       ??_C@_0ED@BGFKHNAK@0x000000000000000000000000000000@ 00436968     sshecc.obj
 0002:000039b0       ??_C@_0ED@NOIDPHAC@0x000000000000000000000000000000@ 004369b0     sshecc.obj
 0002:000039f4       ??_C@_0L@GKPNPEPJ@Curve25519?$AA@ 004369f4     sshecc.obj
 0002:00003a00       ??_C@_0ED@OHFNPGAC@0x52036cee2b6ffe738cc740797779e8@ 00436a00     sshecc.obj
 0002:00003a48       ??_C@_0ED@NLLJPJLG@0x7fffffffffffffffffffffffffffff@ 00436a48     sshecc.obj
 0002:00003a90       ??_C@_0ED@ILOIKJEI@0x216936d3cd6e53fec0a4e231fdd6dc@ 00436a90     sshecc.obj
 0002:00003ad8       ??_C@_0ED@BAIJKLGI@0x666666666666666666666666666666@ 00436ad8     sshecc.obj
 0002:00003b20       ??_C@_0ED@PLMKLCAL@0x100000000000000000000000000000@ 00436b20     sshecc.obj
 0002:00003b64       ??_C@_07EIPCBPDH@Ed25519?$AA@ 00436b64     sshecc.obj
 0002:00003b6c       ??_C@_1BI@CPEJJNJG@?$AA?4?$AA?4?$AA?2?$AAs?$AAs?$AAh?$AAe?$AAc?$AAc?$AA?4?$AAc?$AA?$AA@ 00436b6c     sshecc.obj
 0002:00003b84       ??_C@_1DM@NDELGDGI@?$AAc?$AAu?$AAr?$AAv?$AAe?$AA?9?$AA?$DO?$AAt?$AAy?$AAp?$AAe?$AA?5?$AA?$DN?$AA?$DN?$AA?5?$AAE?$AAC?$AA_?$AAW?$AAE?$AAI?$AAE?$AAR?$AAS?$AAT?$AAR?$AAA?$AAS?$AAS?$AA?$AA@ 00436b84     sshecc.obj
 0002:00003bc0       ??_C@_1DM@ENMBENHJ@?$AAh?$AAa?$AAs?$AAh?$AA?4?$AAl?$AAe?$AAn?$AA?5?$AA?$DO?$AA?$DN?$AA?5?$AAc?$AAu?$AAr?$AAv?$AAe?$AA?9?$AA?$DO?$AAf?$AAi?$AAe?$AAl?$AAd?$AAB?$AAy?$AAt?$AAe?$AAs?$AA?$AA@ 00436bc0     sshecc.obj
 0002:00003bfc       ??_C@_1DE@NBKLAKDH@?$AAc?$AAu?$AAr?$AAv?$AAe?$AA?9?$AA?$DO?$AAt?$AAy?$AAp?$AAe?$AA?5?$AA?$DN?$AA?$DN?$AA?5?$AAE?$AAC?$AA_?$AAE?$AAD?$AAW?$AAA?$AAR?$AAD?$AAS?$AA?$AA@ 00436bfc     sshecc.obj
 0002:00003c30       ??_C@_1DE@JALDAAJ@?$AAc?$AAu?$AAr?$AAv?$AAe?$AA?9?$AA?$DO?$AAf?$AAi?$AAe?$AAl?$AAd?$AAB?$AAi?$AAt?$AAs?$AA?5?$AA?$CF?$AA?5?$AA8?$AA?5?$AA?$DN?$AA?$DN?$AA?5?$AA7?$AA?$AA@ 00436c30     sshecc.obj
 0002:00003c64       ??_C@_1CO@KBIANCHI@?$AAc?$AAu?$AAr?$AAv?$AAe?$AA?9?$AA?$DO?$AAf?$AAi?$AAe?$AAl?$AAd?$AAB?$AAy?$AAt?$AAe?$AAs?$AA?5?$AA?$DO?$AA?$DN?$AA?5?$AA2?$AA?$AA@ 00436c64     sshecc.obj
 0002:00003c94       ??_C@_03CGNBMCEI@?$CFs?0?$AA@ 00436c94     sshecc.obj
 0002:00003c98       ??_C@_09BGLLIJHO@0x?$CFs?00x?$CFs?$AA@ 00436c98     sshecc.obj
 0002:00003ca4       ??_C@_1BO@CNPEABPI@?$AAe?$AAk?$AA?9?$AA?$DO?$AAp?$AAr?$AAi?$AAv?$AAa?$AAt?$AAe?$AAK?$AAe?$AAy?$AA?$AA@ 00436ca4     sshecc.obj
 0002:00003cc4       ??_C@_1DM@LNHGHOMK@?$AAe?$AAk?$AA?9?$AA?$DO?$AAc?$AAu?$AAr?$AAv?$AAe?$AA?9?$AA?$DO?$AAt?$AAy?$AAp?$AAe?$AA?5?$AA?$DN?$AA?$DN?$AA?5?$AAE?$AAC?$AA_?$AAE?$AAD?$AAW?$AAA?$AAR?$AAD?$AAS?$AA?$AA@ 00436cc4     sshecc.obj
 0002:00003d00       ??_C@_0CA@MJMKOHPH@ECDSA?5deterministic?5k?5generator?$AA@ 00436d00     sshecc.obj
 0002:00003d20       _ssh_hmac_sha256_extra     00436d20     sshhmac.obj
 0002:00003d2c       _ssh_hmac_md5_extra        00436d2c     sshhmac.obj
 0002:00003d38       _ssh_hmac_sha1_extra       00436d38     sshhmac.obj
 0002:00003d44       _ssh_hmac_sha1_96_extra    00436d44     sshhmac.obj
 0002:00003d50       _ssh_hmac_sha1_buggy_extra 00436d50     sshhmac.obj
 0002:00003d5c       _ssh_hmac_sha1_96_buggy_extra 00436d5c     sshhmac.obj
 0002:00003d68       _ssh_hmac_md5              00436d68     sshhmac.obj
 0002:00003d94       _ssh_hmac_sha1             00436d94     sshhmac.obj
 0002:00003dc0       _ssh_hmac_sha1_buggy       00436dc0     sshhmac.obj
 0002:00003dec       _ssh_hmac_sha1_96          00436dec     sshhmac.obj
 0002:00003e18       _ssh_hmac_sha1_96_buggy    00436e18     sshhmac.obj
 0002:00003e44       _ssh_hmac_sha256           00436e44     sshhmac.obj
 0002:00003e70       ??_C@_0O@HOOBDNEB@hmac?9sha2?9256?$AA@ 00436e70     sshhmac.obj
 0002:00003e80       ??_C@_0BO@MPEKOAFF@hmac?9sha2?9256?9etm?$EAopenssh?4com?$AA@ 00436e80     sshhmac.obj
 0002:00003ea0       ??_C@_08LPACCAD@hmac?9md5?$AA@ 00436ea0     sshhmac.obj
 0002:00003eac       ??_C@_0BJ@CKBIHNJD@hmac?9md5?9etm?$EAopenssh?4com?$AA@ 00436eac     sshhmac.obj
 0002:00003ec8       ??_C@_09KBOMLGBN@hmac?9sha1?$AA@ 00436ec8     sshhmac.obj
 0002:00003ed4       ??_C@_0BK@JCIBKLE@hmac?9sha1?9etm?$EAopenssh?4com?$AA@ 00436ed4     sshhmac.obj
 0002:00003ef0       ??_C@_03COEFBIGK@?996?$AA@ 00436ef0     sshhmac.obj
 0002:00003ef4       ??_C@_0N@PPCDKPGG@hmac?9sha1?996?$AA@ 00436ef4     sshhmac.obj
 0002:00003f04       ??_C@_0BN@NJLHJNBE@hmac?9sha1?996?9etm?$EAopenssh?4com?$AA@ 00436f04     sshhmac.obj
 0002:00003f24       ??_C@_0P@FANIAEGB@bug?9compatible?$AA@ 00436f24     sshhmac.obj
 0002:00003f34       ??_C@_1BK@NLFGAIDH@?$AA?4?$AA?4?$AA?2?$AAs?$AAs?$AAh?$AAh?$AAm?$AAa?$AAc?$AA?4?$AAc?$AA?$AA@ 00436f34     sshhmac.obj
 0002:00003f50       ??_C@_1CO@FIPHLDOL@?$AAc?$AAt?$AAx?$AA?9?$AA?$DO?$AAh?$AAa?$AAs?$AAh?$AAa?$AAl?$AAg?$AA?9?$AA?$DO?$AAb?$AAl?$AAo?$AAc?$AAk?$AAl?$AAe?$AAn?$AA?$AA@ 00436f50     sshhmac.obj
 0002:00003f80       ??_C@_09NPBMIOMK@HMAC?9?$CFs?$CFs?$AA@ 00436f80     sshhmac.obj
 0002:00003f8c       ??_C@_02GFKOMOKH@?5?$CI?$AA@ 00436f8c     sshhmac.obj
 0002:00003f90       ??_C@_04HDOCAJNK@?$CFs?$CFs?$AA@ 00436f90     sshhmac.obj
 0002:00003f98       ??_C@_02KEGNLNML@?0?5?$AA@ 00436f98     sshhmac.obj
 0002:00003f9c       ??_C@_01PKGAHCOL@?$CJ?$AA@ 00436f9c     sshhmac.obj
 0002:00003fa0       _ssh_md5                   00436fa0     sshmd5.obj
 0002:00003fc4       ??_C@_03GCGHEHKJ@MD5?$AA@  00436fc4     sshmd5.obj
 0002:00003fc8       ??_C@_1BM@MNKJADLC@?$AA?4?$AA?4?$AA?2?$AAs?$AAs?$AAh?$AAp?$AAr?$AAi?$AAm?$AAe?$AA?4?$AAc?$AA?$AA@ 00436fc8     sshprime.obj
 0002:00003fe4       ??_C@_1BO@KEJGJAFN@?$AAp?$AAo?$AAs?$AA?5?$AA?$DN?$AA?$DN?$AA?5?$AAN?$AAP?$AAR?$AAI?$AAM?$AAE?$AAS?$AA?$AA@ 00436fe4     sshprime.obj
 0002:00004004       ??_C@_1CM@KALCMHBO@?$AAm?$AAp?$AA_?$AAg?$AAe?$AAt?$AA_?$AAb?$AAi?$AAt?$AA?$CI?$AAp?$AA?0?$AA?5?$AA0?$AA?$CJ?$AA?5?$AA?$DN?$AA?$DN?$AA?5?$AA0?$AA?$AA@ 00437004     sshprime.obj
 0002:00004030       ??_C@_1BK@IFHAANJH@?$AA?4?$AA?4?$AA?2?$AAs?$AAs?$AAh?$AAp?$AAr?$AAn?$AAg?$AA?4?$AAc?$AA?$AA@ 00437030     sshprng.obj
 0002:0000404c       ??_C@_1BM@DKAGBLEM@?$AA?$CB?$AAp?$AAi?$AA?9?$AA?$DO?$AAk?$AAe?$AAy?$AAm?$AAa?$AAk?$AAe?$AAr?$AA?$AA@ 0043704c     sshprng.obj
 0002:00004068       ??_C@_1BK@CCJAIMCK@?$AAp?$AAi?$AA?9?$AA?$DO?$AAk?$AAe?$AAy?$AAm?$AAa?$AAk?$AAe?$AAr?$AA?$AA@ 00437068     sshprng.obj
 0002:00004084       ??_C@_1BO@IPNDPBPH@?$AA?$CB?$AAp?$AAi?$AA?9?$AA?$DO?$AAg?$AAe?$AAn?$AAe?$AAr?$AAa?$AAt?$AAo?$AAr?$AA?$AA@ 00437084     sshprng.obj
 0002:000040a4       ??_C@_1DM@LOAMELAH@?$AAs?$AAo?$AAu?$AAr?$AAc?$AAe?$AA_?$AAi?$AAd?$AA?5?$AA?$DM?$AA?5?$AAN?$AAO?$AAI?$AAS?$AAE?$AA_?$AAM?$AAA?$AAX?$AA_?$AAS?$AAO?$AAU?$AAR?$AAC?$AAE?$AAS?$AA?$AA@ 004370a4     sshprng.obj
 0002:000040e0       ??_C@_07FDBDPOCJ@ssh?9rsa?$AA@ 004370e0     sshrsa.obj
 0002:00004158       _ssh_rsa_kex               00437158     sshrsa.obj
 0002:00004160       _ssh_rsa                   00437160     sshrsa.obj
 0002:000041a0       ??_C@_04GHCAEBFJ@rsa2?$AA@ 004371a0     sshrsa.obj
 0002:000041a8       ??_C@_0N@KOPDGDGF@rsa1024?9sha1?$AA@ 004371a8     sshrsa.obj
 0002:000041b8       ??_C@_0P@OJIMEJLA@rsa2048?9sha256?$AA@ 004371b8     sshrsa.obj
 0002:000041c8       ??_C@_1BI@DCECBPHA@?$AA?4?$AA?4?$AA?2?$AAs?$AAs?$AAh?$AAr?$AAs?$AAa?$AA?4?$AAc?$AA?$AA@ 004371c8     sshrsa.obj
 0002:000041e0       ??_C@_1BI@EMHJEBCI@?$AAb?$AAy?$AAt?$AAe?$AA?5?$AA?$CB?$AA?$DN?$AA?5?$AA2?$AA5?$AA5?$AA?$AA@ 004371e0     sshrsa.obj
 0002:000041f8       ??_C@_04PDMAGGHH@?$CFzu?5?$AA@ 004371f8     sshrsa.obj
 0002:00004200       ??_C@_01JLIPDDHJ@?3?$AA@   00437200     sshrsa.obj
 0002:00004204       ??_C@_06ELKDNDAA@?$CFs?$CF02x?$AA@ 00437204     sshrsa.obj
 0002:0000420c       ??_C@_03EEBNCBOD@?5?$CFs?$AA@ 0043720c     sshrsa.obj
 0002:00004210       ??_C@_0N@DEJCCKFG@rsa?9sha2?9256?$AA@ 00437210     sshrsa.obj
 0002:00004220       ??_C@_0N@MKCAHPDH@rsa?9sha2?9512?$AA@ 00437220     sshrsa.obj
 0002:00004230       ??_C@_1FK@HGBNENJN@?$AAf?$AAa?$AAl?$AAs?$AAe?$AA?5?$AA?$CG?$AA?$CG?$AA?5?$AA?$CC?$AAb?$AAa?$AAd?$AA?5?$AAh?$AAa?$AAs?$AAh?$AA?5?$AAa?$AAl?$AAg?$AAo?$AAr?$AAi?$AAt?$AAh?$AAm?$AA?5?$AAf?$AAo?$AAr@ 00437230     sshrsa.obj
 0002:0000428c       ??_C@_1CM@FBJADDKF@?$AAn?$AAb?$AAy?$AAt?$AAe?$AAs?$AA?5?$AA?$DO?$AA?$DN?$AA?5?$AAf?$AAi?$AAx?$AAe?$AAd?$AA_?$AAp?$AAa?$AAr?$AAt?$AAs?$AA?$AA@ 0043728c     sshrsa.obj
 0002:000042b8       ??_C@_0DH@JDBBJPFC@?$CFzu?9bit?5RSA?5key?5is?5too?5short?5to?5@ 004372b8     sshrsa.obj
 0002:000042f0       ??_C@_1DA@DMPGGLNP@?$AAh?$AA?9?$AA?$DO?$AAh?$AAl?$AAe?$AAn?$AA?5?$AA?$DM?$AA?$DN?$AA?5?$AAM?$AAA?$AAX?$AA_?$AAH?$AAA?$AAS?$AAH?$AA_?$AAL?$AAE?$AAN?$AA?$AA@ 004372f0     sshrsa.obj
 0002:00004320       ??_C@_1EO@CAPKDNBP@?$AAi?$AAn?$AA?4?$AAl?$AAe?$AAn?$AA?5?$AA?$DO?$AA?5?$AA0?$AA?5?$AA?$CG?$AA?$CG?$AA?5?$AAi?$AAn?$AA?4?$AAl?$AAe?$AAn?$AA?5?$AA?$DM?$AA?$DN?$AA?5?$AAk?$AA?5?$AA?9?$AA?5?$AA2?$AA?$CK?$AAH?$AAL@ 00437320     sshrsa.obj
 0002:00004370       ??_C@_1DC@GKFAMNJG@?$AAH?$AAL?$AAE?$AAN?$AA?5?$AA?$DM?$AA?$DN?$AA?5?$AAl?$AAe?$AAn?$AAo?$AAf?$AA?$CI?$AAl?$AAa?$AAb?$AAe?$AAl?$AAh?$AAa?$AAs?$AAh?$AA?$CJ?$AA?$AA@ 00437370     sshrsa.obj
 0002:000043a4       ??_C@_0BD@ILPMBBEM@SHA?9NI?5accelerated?$AA@ 004373a4     sshsh256.obj
 0002:000043b8       ??_C@_0BN@BEOECJPP@SHA?9256?5?$CISHA?9NI?5accelerated?$CJ?$AA@ 004373b8     sshsh256.obj
 0002:000043d8       ??_C@_07DKFLFLPF@SHA?9256?$AA@ 004373d8     sshsh256.obj
 0002:000043e0       ??_C@_0BG@GBFIHHLJ@dummy?5selector?5vtable?$AA@ 004373e0     sshsh256.obj
 0002:000043f8       ??_C@_0CA@GJLHNGGJ@SHA?9256?5?$CIdummy?5selector?5vtable?$CJ?$AA@ 004373f8     sshsh256.obj
 0002:00004538       _ssh_sha256                00437538     sshsh256.obj
 0002:0000455c       _ssh_sha256_hw             0043755c     sshsh256.obj
 0002:00004580       _ssh_sha256_sw             00437580     sshsh256.obj
 0002:000045a4       ??_C@_0O@PFNKJCBK@unaccelerated?$AA@ 004375a4     sshsh256.obj
 0002:000045b4       ??_C@_0BI@CHMICMJN@SHA?9256?5?$CIunaccelerated?$CJ?$AA@ 004375b4     sshsh256.obj
 0002:000045cc       ??_C@_1BM@GMGHJNCM@?$AA?4?$AA?4?$AA?2?$AAs?$AAs?$AAh?$AAs?$AAh?$AA2?$AA5?$AA6?$AA?4?$AAc?$AA?$AA@ 004375cc     sshsh256.obj
 0002:000045e8       ??_C@_1HK@HPJBMGCP@?$AAb?$AAl?$AAk?$AA?9?$AA?$DO?$AAu?$AAs?$AAe?$AAd?$AA?5?$AA?$DN?$AA?$DN?$AA?5?$AA0?$AA?5?$AA?$CG?$AA?$CG?$AA?5?$AA?$CC?$AAS?$AAh?$AAo?$AAu?$AAl?$AAd?$AA?5?$AAh?$AAa?$AAv?$AAe?$AA?5?$AAe@ 004375e8     sshsh256.obj
 0002:00004670       __xmm@0c0d0e0f08090a0b0405060700010203 00437670     sshsh256.obj
 0002:00004680       __xmm@106aa070f40e3585d6990624d192e819 00437680     sshsh256.obj
 0002:00004690       __xmm@1429296706ca6351d5a79147c6e00bf3 00437690     sshsh256.obj
 0002:000046a0       __xmm@240ca1cc0fc19dc6efbe4786e49b69c1 004376a0     sshsh256.obj
 0002:000046b0       __xmm@34b0bcb52748774c1e376c0819a4c116 004376b0     sshsh256.obj
 0002:000046c0       __xmm@3c6ef372a54ff53a1f83d9ab5be0cd19 004376c0     sshsh256.obj
 0002:000046d0       __xmm@53380d134d2c6dfc2e1b213827b70a85 004376d0     sshsh256.obj
 0002:000046e0       __xmm@550c7dc3243185be12835b01d807aa98 004376e0     sshsh256.obj
 0002:000046f0       __xmm@682e6ff35b9cca4f4ed8aa4a391c0cb3 004376f0     sshsh256.obj
 0002:00004700       __xmm@6a09e667bb67ae85510e527f9b05688c 00437700     sshsh256.obj
 0002:00004710       __xmm@76f988da5cb0a9dc4a7484aa2de92c6f 00437710     sshsh256.obj
 0002:00004720       __xmm@8cc7020884c8781478a5636f748f82ee 00437720     sshsh256.obj
 0002:00004730       __xmm@92722c8581c2c92e766a0abb650a7354 00437730     sshsh256.obj
 0002:00004740       __xmm@ab1c5ed5923f82a459f111f13956c25b 00437740     sshsh256.obj
 0002:00004750       __xmm@bf597fc7b00327c8a831c66d983e5152 00437750     sshsh256.obj
 0002:00004760       __xmm@c19bf1749bdc06a780deb1fe72be5d74 00437760     sshsh256.obj
 0002:00004770       __xmm@c67178f2bef9a3f7a4506ceb90befffa 00437770     sshsh256.obj
 0002:00004780       __xmm@c76c51a3c24b8b70a81a664ba2bfe8a1 00437780     sshsh256.obj
 0002:00004790       __xmm@e9b5dba5b5c0fbcf71374491428a2f98 00437790     sshsh256.obj
 0002:000047a0       ??_C@_07MEOJAOJE@SHA?9512?$AA@ 004377a0     sshsh512.obj
 0002:000047a8       ??_C@_07LIAJMNEB@SHA?9384?$AA@ 004377a8     sshsh512.obj
 0002:00004ab0       _ssh_sha384                00437ab0     sshsh512.obj
 0002:00004ad4       _ssh_sha512                00437ad4     sshsh512.obj
 0002:00004af8       ??_C@_0BL@IIKHCMEF@SHA?91?5?$CISHA?9NI?5accelerated?$CJ?$AA@ 00437af8     sshsha.obj
 0002:00004b14       ??_C@_05HJMENKNE@SHA?91?$AA@ 00437b14     sshsha.obj
 0002:00004b1c       ??_C@_0BO@DDNMEJFM@SHA?91?5?$CIdummy?5selector?5vtable?$CJ?$AA@ 00437b1c     sshsha.obj
 0002:00004b50       _ssh_sha1                  00437b50     sshsha.obj
 0002:00004b74       _ssh_sha1_hw               00437b74     sshsha.obj
 0002:00004b98       _ssh_sha1_sw               00437b98     sshsha.obj
 0002:00004bbc       ??_C@_0BG@NKPBHHDP@SHA?91?5?$CIunaccelerated?$CJ?$AA@ 00437bbc     sshsha.obj
 0002:00004bd4       ??_C@_1BI@HGKJCJAA@?$AA?4?$AA?4?$AA?2?$AAs?$AAs?$AAh?$AAs?$AAh?$AAa?$AA?4?$AAc?$AA?$AA@ 00437bd4     sshsha.obj
 0002:00004bf0       __xmm@67452301efcdab8998badcfe10325476 00437bf0     sshsha.obj
 0002:00004c00       __xmm@c3d2e1f0000000000000000000000000 00437c00     sshsha.obj
 0002:00004c10       _type_names                00437c10     testcrypt.obj
 0002:00004e30       ??_C@_06ICGJLFIM@string?$AA@ 00437e30     testcrypt.obj
 0002:00004e38       ??_C@_05EMLBEAEG@mpint?$AA@ 00437e38     testcrypt.obj
 0002:00004e40       ??_C@_07EOHPLJJG@modsqrt?$AA@ 00437e40     testcrypt.obj
 0002:00004e48       ??_C@_05JHMJCAEH@monty?$AA@ 00437e48     testcrypt.obj
 0002:00004e50       ??_C@_06HNMODPHI@wcurve?$AA@ 00437e50     testcrypt.obj
 0002:00004e58       ??_C@_06BECIMBCI@wpoint?$AA@ 00437e58     testcrypt.obj
 0002:00004e60       ??_C@_06LOGAPMPI@mcurve?$AA@ 00437e60     testcrypt.obj
 0002:00004e68       ??_C@_06NHIGACKI@mpoint?$AA@ 00437e68     testcrypt.obj
 0002:00004e70       ??_C@_06INIPLCJP@ecurve?$AA@ 00437e70     testcrypt.obj
 0002:00004e78       ??_C@_06OEGJEMMP@epoint?$AA@ 00437e78     testcrypt.obj
 0002:00004e80       ??_C@_04OIJGJDKO@hash?$AA@ 00437e80     testcrypt.obj
 0002:00004e88       ??_C@_03ICHNJLJF@key?$AA@  00437e88     testcrypt.obj
 0002:00004e8c       ??_C@_06KDGDAFPH@cipher?$AA@ 00437e8c     testcrypt.obj
 0002:00004e94       ??_C@_03BADCJGEO@mac?$AA@  00437e94     testcrypt.obj
 0002:00004e98       ??_C@_02OCEEKELO@dh?$AA@   00437e98     testcrypt.obj
 0002:00004e9c       ??_C@_04KDGGCKGB@ecdh?$AA@ 00437e9c     testcrypt.obj
 0002:00004ea4       ??_C@_06HFFNEKCG@rsakex?$AA@ 00437ea4     testcrypt.obj
 0002:00004eac       ??_C@_03DFNMMEBL@rsa?$AA@  00437eac     testcrypt.obj
 0002:00004eb0       ??_C@_04GJMMJLHA@prng?$AA@ 00437eb0     testcrypt.obj
 0002:00004eb8       ??_C@_03PKBIKOHH@md5?$AA@  00437eb8     testcrypt.obj
 0002:00004ebc       ??_C@_04PGHFOLLE@sha1?$AA@ 00437ebc     testcrypt.obj
 0002:00004ec4       ??_C@_07PKBFNPGC@sha1_sw?$AA@ 00437ec4     testcrypt.obj
 0002:00004ecc       ??_C@_07OKGGJDPD@sha1_hw?$AA@ 00437ecc     testcrypt.obj
 0002:00004ed4       ??_C@_06OHILPNJ@sha256?$AA@ 00437ed4     testcrypt.obj
 0002:00004edc       ??_C@_09BKHMGDAE@sha256_sw?$AA@ 00437edc     testcrypt.obj
 0002:00004ee8       ??_C@_09KAPCPJF@sha256_hw?$AA@ 00437ee8     testcrypt.obj
 0002:00004ef4       ??_C@_06IMCKCJGN@sha384?$AA@ 00437ef4     testcrypt.obj
 0002:00004efc       ??_C@_06PAMKOKLI@sha512?$AA@ 00437efc     testcrypt.obj
 0002:00004f04       ??_C@_08IIOCJBKM@hmac_md5?$AA@ 00437f04     testcrypt.obj
 0002:00004f10       ??_C@_09OHAGBKNH@hmac_sha1?$AA@ 00437f10     testcrypt.obj
 0002:00004f1c       ??_C@_0BA@BIKKLCFN@hmac_sha1_buggy?$AA@ 00437f1c     testcrypt.obj
 0002:00004f2c       ??_C@_0N@OAEACMCC@hmac_sha1_96?$AA@ 00437f2c     testcrypt.obj
 0002:00004f3c       ??_C@_0BD@MIKEGGLF@hmac_sha1_96_buggy?$AA@ 00437f3c     testcrypt.obj
 0002:00004f50       ??_C@_0M@IKBCFEEE@hmac_sha256?$AA@ 00437f50     testcrypt.obj
 0002:00004f5c       ??_C@_08HICAABFE@poly1305?$AA@ 00437f5c     testcrypt.obj
 0002:00004f68       ??_C@_03EAKOMMFI@dsa?$AA@  00437f68     testcrypt.obj
 0002:00004f6c       ??_C@_07LBIEHNGB@ed25519?$AA@ 00437f6c     testcrypt.obj
 0002:00004f74       ??_C@_04DBJBGOAJ@p256?$AA@ 00437f74     testcrypt.obj
 0002:00004f7c       ??_C@_04LDMDPILN@p384?$AA@ 00437f7c     testcrypt.obj
 0002:00004f84       ??_C@_04OGEINGPC@p521?$AA@ 00437f84     testcrypt.obj
 0002:00004f8c       ??_C@_08NDPCHOCF@3des_ctr?$AA@ 00437f8c     testcrypt.obj
 0002:00004f98       ??_C@_09EKCBPLNF@3des_ssh2?$AA@ 00437f98     testcrypt.obj
 0002:00004fa4       ??_C@_09GBAMKIBG@3des_ssh1?$AA@ 00437fa4     testcrypt.obj
 0002:00004fb0       ??_C@_07MBHLFCH@des_cbc?$AA@ 00437fb0     testcrypt.obj
 0002:00004fb8       ??_C@_0L@MJHDNGIF@aes256_ctr?$AA@ 00437fb8     testcrypt.obj
 0002:00004fc4       ??_C@_0O@EMEEPBOA@aes256_ctr_hw?$AA@ 00437fc4     testcrypt.obj
 0002:00004fd4       ??_C@_0O@FMDHLNHB@aes256_ctr_sw?$AA@ 00437fd4     testcrypt.obj
 0002:00004fe4       ??_C@_0L@ICABCKFH@aes256_cbc?$AA@ 00437fe4     testcrypt.obj
 0002:00004ff0       ??_C@_0O@MEELKOFE@aes256_cbc_hw?$AA@ 00437ff0     testcrypt.obj
 0002:00005000       ??_C@_0O@NEDIOCMF@aes256_cbc_sw?$AA@ 00438000     testcrypt.obj
 0002:00005010       ??_C@_0L@BLMNPJAE@aes192_ctr?$AA@ 00438010     testcrypt.obj
 0002:0000501c       ??_C@_0O@JCHGCGGD@aes192_ctr_hw?$AA@ 0043801c     testcrypt.obj
 0002:0000502c       ??_C@_0O@ICAFGKPC@aes192_ctr_sw?$AA@ 0043802c     testcrypt.obj
 0002:0000503c       ??_C@_0L@FALPAFNG@aes192_cbc?$AA@ 0043803c     testcrypt.obj
 0002:00005048       ??_C@_0O@BKHJHJNH@aes192_cbc_hw?$AA@ 00438048     testcrypt.obj
 0002:00005058       ??_C@_0O@KAKDFEG@aes192_cbc_sw?$AA@ 00438058     testcrypt.obj
 0002:00005068       ??_C@_0L@LIFBIOJI@aes128_ctr?$AA@ 00438068     testcrypt.obj
 0002:00005074       ??_C@_0O@PPLIFHAK@aes128_ctr_hw?$AA@ 00438074     testcrypt.obj
 0002:00005084       ??_C@_0O@OPMLBLJL@aes128_ctr_sw?$AA@ 00438084     testcrypt.obj
 0002:00005094       ??_C@_0L@PDCDHCEK@aes128_cbc?$AA@ 00438094     testcrypt.obj
 0002:000050a0       ??_C@_0O@HHLHAILO@aes128_cbc_hw?$AA@ 004380a0     testcrypt.obj
 0002:000050b0       ??_C@_0O@GHMEEECP@aes128_cbc_sw?$AA@ 004380b0     testcrypt.obj
 0002:000050c0       ??_C@_0N@GABONEMO@blowfish_ctr?$AA@ 004380c0     testcrypt.obj
 0002:000050d0       ??_C@_0O@HNEKCMIP@blowfish_ssh2?$AA@ 004380d0     testcrypt.obj
 0002:000050e0       ??_C@_0O@FGGHHPEM@blowfish_ssh1?$AA@ 004380e0     testcrypt.obj
 0002:000050f0       ??_C@_0BC@FBGGEIBP@chacha20_poly1305?$AA@ 004380f0     testcrypt.obj
 0002:00005104       ??_C@_0L@OMGBHLCO@curve25519?$AA@ 00438104     testcrypt.obj
 0002:00005110       ??_C@_0P@KKIGPAGB@exponent_first?$AA@ 00438110     testcrypt.obj
 0002:00005120       ??_C@_0O@IIDBEJDJ@modulus_first?$AA@ 00438120     testcrypt.obj
 0002:00005130       ??_C@_0M@JKJNLMJA@testcrypt?3?5?$AA@ 00438130     testcrypt.obj
 0002:0000513c       ??_C@_0O@BNNCBLEN@out?5of?5memory?$AA@ 0043813c     testcrypt.obj
 0002:0000514c       ??_C@_0BI@ILHEIHPA@No?5random?5data?5in?5queue?$AA@ 0043814c     testcrypt.obj
 0002:00005164       ??_C@_06BJPEBOON@?$CFs?$CFllu?$AA@ 00438164     testcrypt.obj
 0002:0000516c       ??_C@_1BO@INBHAKDE@?$AA?4?$AA?4?$AA?2?$AAt?$AAe?$AAs?$AAt?$AAc?$AAr?$AAy?$AAp?$AAt?$AA?4?$AAc?$AA?$AA@ 0043816c     testcrypt.obj
 0002:0000518c       ??_C@_1BK@KNDPMAPD@?$AAa?$AAd?$AAd?$AAe?$AAd?$AA?5?$AA?$DN?$AA?$DN?$AA?5?$AAv?$AAa?$AAl?$AA?$AA@ 0043818c     testcrypt.obj
 0002:000051a8       ??_C@_0BK@BOHNAKGH@hashalg?5?8?$CF?4?$CKs?8?3?5not?5found?$AA@ 004381a8     testcrypt.obj
 0002:000051c4       ??_C@_0BJ@EBMCFAJB@macalg?5?8?$CF?4?$CKs?8?3?5not?5found?$AA@ 004381c4     testcrypt.obj
 0002:000051e0       ??_C@_0BJ@KPECLEOL@keyalg?5?8?$CF?4?$CKs?8?3?5not?5found?$AA@ 004381e0     testcrypt.obj
 0002:000051fc       ??_C@_0BM@IPELFOJM@cipheralg?5?8?$CF?4?$CKs?8?3?5not?5found?$AA@ 004381fc     testcrypt.obj
 0002:00005218       ??_C@_0BL@LKMFPIGM@dh_group?5?8?$CF?4?$CKs?8?3?5not?5found?$AA@ 00438218     testcrypt.obj
 0002:00005234       ??_C@_0BL@MDHCIJDN@ecdh_alg?5?8?$CF?4?$CKs?8?3?5not?5found?$AA@ 00438234     testcrypt.obj
 0002:00005250       ??_C@_0BL@CJDBNAPP@rsaorder?5?8?$CF?4?$CKs?8?3?5not?5found?$AA@ 00438250     testcrypt.obj
 0002:0000526c       ??_C@_0BF@MPKBFFKE@id?5?8?$CF?4?$CKs?8?3?5not?5found?$AA@ 0043826c     testcrypt.obj
 0002:00005284       ??_C@_0BP@NEIMGHMD@id?5?8?$CF?4?$CKs?8?3?5expected?5?$CFs?0?5got?5?$CFs?$AA@ 00438284     testcrypt.obj
 0002:000052a4       ??_C@_03OBICDNNO@?$CFu?6?$AA@ 004382a4     testcrypt.obj
 0002:000052a8       ??_C@_05IBFPJDFI@?$CFlld?6?$AA@ 004382a8     testcrypt.obj
 0002:000052b0       ??_C@_07CCIEDMFH@0x?$CFllX?6?$AA@ 004382b0     testcrypt.obj
 0002:000052b8       ??_C@_04LOAJBDKD@true?$AA@ 004382b8     testcrypt.obj
 0002:000052c0       ??_C@_05LAPONLG@false?$AA@ 004382c0     testcrypt.obj
 0002:000052c8       ??_C@_03OFAPEBGM@?$CFs?6?$AA@ 004382c8     testcrypt.obj
 0002:000052cc       ??_C@_05NJDBAOFA@NULL?6?$AA@ 004382cc     testcrypt.obj
 0002:000052d4       ??_C@_0O@NPGLDEEI@hello?0?5world?6?$AA@ 004382d4     testcrypt.obj
 0002:000052e4       ??_C@_06EPABMEI@?$CF?$CF?$CF02X?$AA@ 004382e4     testcrypt.obj
 0002:000052ec       ??_C@_0CJ@ONPPCKGI@ssh_cipher_setiv?3?5needs?5exactly?5@ 004382ec     testcrypt.obj
 0002:00005318       ??_C@_0CK@KIGDPEJM@ssh_cipher_setkey?3?5needs?5exactly@ 00438318     testcrypt.obj
 0002:00005344       ??_C@_0DB@PDIGKPMG@ssh_cipher_encrypt?3?5needs?5a?5mult@ 00438344     testcrypt.obj
 0002:00005378       ??_C@_0DB@PIMJMADK@ssh_cipher_decrypt?3?5needs?5a?5mult@ 00438378     testcrypt.obj
 0002:000053ac       ??_C@_0DB@FJANJMPK@ssh_cipher_encrypt_length?3?5needs@ 004383ac     testcrypt.obj
 0002:000053e0       ??_C@_0DB@FCECPDAG@ssh_cipher_decrypt_length?3?5needs@ 004383e0     testcrypt.obj
 0002:00005414       ??_C@_0CO@LBNFPNNB@des_encrypt_xdmauth?3?5key?5must?5be@ 00438414     testcrypt.obj
 0002:00005444       ??_C@_0DI@LAPLHAOF@des_encrypt_xdmauth?3?5data?5must?5b@ 00438444     testcrypt.obj
 0002:0000547c       ??_C@_0CO@NONNFCJB@des_decrypt_xdmauth?3?5key?5must?5be@ 0043847c     testcrypt.obj
 0002:000054ac       ??_C@_0DI@LLEHBNMB@des_decrypt_xdmauth?3?5data?5must?5b@ 004384ac     testcrypt.obj
 0002:000054e4       ??_C@_0CP@HAGEMKJC@des3_encrypt_pubkey?3?5key?5must?5be@ 004384e4     testcrypt.obj
 0002:00005514       ??_C@_0DI@ENHMHJOB@des3_encrypt_pubkey?3?5data?5must?5b@ 00438514     testcrypt.obj
 0002:0000554c       ??_C@_0CP@BPGMGFNC@des3_decrypt_pubkey?3?5key?5must?5be@ 0043854c     testcrypt.obj
 0002:0000557c       ??_C@_0DI@CKMOHMCO@des3_decrypt_pubkey?3?5data?5must?5b@ 0043857c     testcrypt.obj
 0002:000055b4       ??_C@_0DE@HFHPDFIK@des3_encrypt_pubkey_ossh?3?5key?5mu@ 004385b4     testcrypt.obj
 0002:000055e8       ??_C@_0DC@EJABKOOH@des3_encrypt_pubkey_ossh?3?5iv?5mus@ 004385e8     testcrypt.obj
 0002:0000561c       ??_C@_0DN@BBIODGFE@des3_encrypt_pubkey_ossh?3?5data?5m@ 0043861c     testcrypt.obj
 0002:0000565c       ??_C@_0DE@NEPCECEA@des3_decrypt_pubkey_ossh?3?5key?5mu@ 0043865c     testcrypt.obj
 0002:00005690       ??_C@_0DN@KBHDGOHC@des3_decrypt_pubkey_ossh?3?5data?5m@ 00438690     testcrypt.obj
 0002:000056d0       ??_C@_0DB@BDGKCDNP@aes256_encrypt_pubkey?3?5key?5must?5@ 004386d0     testcrypt.obj
 0002:00005704       ??_C@_0DL@PMFMCFKC@aes256_encrypt_pubkey?3?5data?5must@ 00438704     testcrypt.obj
 0002:00005740       ??_C@_0DB@HMGCIMJP@aes256_decrypt_pubkey?3?5key?5must?5@ 00438740     testcrypt.obj
 0002:00005774       ??_C@_0DL@PHOAEIIG@aes256_decrypt_pubkey?3?5data?5must@ 00438774     testcrypt.obj
 0002:000057b0       ??_C@_0CP@CEOFAJAO@crcda_detect?3?5iv?5must?5be?5empty?5o@ 004387b0     testcrypt.obj
 0002:000057e0       ??_C@_0DD@JCPPHJPG@crcda_detect?3?5packet?5must?5be?5a?5m@ 004387e0     testcrypt.obj
 0002:00005814       ??_C@_04HIBGFPH@NULL?$AA@  00438814     testcrypt.obj
 0002:0000581c       ??_C@_05CJBACGMB@hello?$AA@ 0043881c     testcrypt.obj
 0002:00005824       ??_C@_04LIAPHEDB@free?$AA@ 00438824     testcrypt.obj
 0002:0000582c       ??_C@_09IDMAGKCF@newstring?$AA@ 0043882c     testcrypt.obj
 0002:00005838       ??_C@_09PBFKEGAM@getstring?$AA@ 00438838     testcrypt.obj
 0002:00005844       ??_C@_0L@ENPKHIJA@mp_literal?$AA@ 00438844     testcrypt.obj
 0002:00005850       ??_C@_07JPOAFPFD@mp_dump?$AA@ 00438850     testcrypt.obj
 0002:00005858       ??_C@_06MMAIDOLF@mp_new?$AA@ 00438858     testcrypt.obj
 0002:00005860       ??_C@_08EHFBNPIG@mp_clear?$AA@ 00438860     testcrypt.obj
 0002:0000586c       ??_C@_0BB@IANNPHDO@mp_from_bytes_le?$AA@ 0043886c     testcrypt.obj
 0002:00005880       ??_C@_0BB@IKEDNKDE@mp_from_bytes_be?$AA@ 00438880     testcrypt.obj
 0002:00005894       ??_C@_0BA@FIJNEBAF@mp_from_integer?$AA@ 00438894     testcrypt.obj
 0002:000058a4       ??_C@_0BD@CDILLILN@mp_from_decimal_pl?$AA@ 004388a4     testcrypt.obj
 0002:000058b8       ??_C@_0BA@KGEJKIGL@mp_from_decimal?$AA@ 004388b8     testcrypt.obj
 0002:000058c8       ??_C@_0P@BFHLAECC@mp_from_hex_pl?$AA@ 004388c8     testcrypt.obj
 0002:000058d8       ??_C@_0M@GBFJOIMI@mp_from_hex?$AA@ 004388d8     testcrypt.obj
 0002:000058e4       ??_C@_07NHFILPNC@mp_copy?$AA@ 004388e4     testcrypt.obj
 0002:000058ec       ??_C@_0L@IJGHKDCA@mp_power_2?$AA@ 004388ec     testcrypt.obj
 0002:000058f8       ??_C@_0M@HPKLEDLN@mp_get_byte?$AA@ 004388f8     testcrypt.obj
 0002:00005904       ??_C@_0L@OALADAOL@mp_get_bit?$AA@ 00438904     testcrypt.obj
 0002:00005910       ??_C@_0L@BIEBAPDK@mp_set_bit?$AA@ 00438910     testcrypt.obj
 0002:0000591c       ??_C@_0N@KMNMJKMN@mp_max_bytes?$AA@ 0043891c     testcrypt.obj
 0002:0000592c       ??_C@_0M@OFOOEPOF@mp_max_bits?$AA@ 0043892c     testcrypt.obj
 0002:00005938       ??_C@_0N@GONIGOKK@mp_get_nbits?$AA@ 00438938     testcrypt.obj
 0002:00005948       ??_C@_0P@KDPFIBOH@mp_get_decimal?$AA@ 00438948     testcrypt.obj
 0002:00005958       ??_C@_0L@CKKCGGOH@mp_get_hex?$AA@ 00438958     testcrypt.obj
 0002:00005964       ??_C@_0BF@FCGGEGOG@mp_get_hex_uppercase?$AA@ 00438964     testcrypt.obj
 0002:0000597c       ??_C@_09GCJHDPJM@mp_cmp_hs?$AA@ 0043897c     testcrypt.obj
 0002:00005988       ??_C@_09FIHJMOEN@mp_cmp_eq?$AA@ 00438988     testcrypt.obj
 0002:00005994       ??_C@_0O@JLFCOBDF@mp_hs_integer?$AA@ 00438994     testcrypt.obj
 0002:000059a4       ??_C@_0O@FEDDHMAP@mp_eq_integer?$AA@ 004389a4     testcrypt.obj
 0002:000059b4       ??_C@_0M@DOHFKJFB@mp_min_into?$AA@ 004389b4     testcrypt.obj
 0002:000059c0       ??_C@_0M@OJJOBLBA@mp_max_into?$AA@ 004389c0     testcrypt.obj
 0002:000059cc       ??_C@_06EMKHMBCH@mp_min?$AA@ 004389cc     testcrypt.obj
 0002:000059d4       ??_C@_06FOCMCFEI@mp_max?$AA@ 004389d4     testcrypt.obj
 0002:000059dc       ??_C@_0N@BJGMMGOP@mp_copy_into?$AA@ 004389dc     testcrypt.obj
 0002:000059ec       ??_C@_0P@LICMBIDH@mp_select_into?$AA@ 004389ec     testcrypt.obj
 0002:000059fc       ??_C@_0M@OHDEBANK@mp_add_into?$AA@ 004389fc     testcrypt.obj
 0002:00005a08       ??_C@_0M@LGMDHOKC@mp_sub_into?$AA@ 00438a08     testcrypt.obj
 0002:00005a14       ??_C@_0M@ICPOJMBM@mp_mul_into?$AA@ 00438a14     testcrypt.obj
 0002:00005a20       ??_C@_06PEEGAFEG@mp_add?$AA@ 00438a20     testcrypt.obj
 0002:00005a28       ??_C@_06EFOIPEJD@mp_sub?$AA@ 00438a28     testcrypt.obj
 0002:00005a30       ??_C@_06GLKNPJLB@mp_mul?$AA@ 00438a30     testcrypt.obj
 0002:00005a38       ??_C@_0M@HGPEAMBC@mp_and_into?$AA@ 00438a38     testcrypt.obj
 0002:00005a44       ??_C@_0L@CFDIHFMM@mp_or_into?$AA@ 00438a44     testcrypt.obj
 0002:00005a50       ??_C@_0M@LODDFBFC@mp_xor_into?$AA@ 00438a50     testcrypt.obj
 0002:00005a5c       ??_C@_0M@IABLAHEA@mp_bic_into?$AA@ 00438a5c     testcrypt.obj
 0002:00005a68       ??_C@_0BE@DKFOCDNN@mp_add_integer_into?$AA@ 00438a68     testcrypt.obj
 0002:00005a7c       ??_C@_0BE@JDIGFBJK@mp_sub_integer_into?$AA@ 00438a7c     testcrypt.obj
 0002:00005a90       ??_C@_0BE@CIIACIAE@mp_mul_integer_into?$AA@ 00438a90     testcrypt.obj
 0002:00005aa4       ??_C@_0BB@IBKMIHIC@mp_cond_add_into?$AA@ 00438aa4     testcrypt.obj
 0002:00005ab8       ??_C@_0BB@NAFLOJPK@mp_cond_sub_into?$AA@ 00438ab8     testcrypt.obj
 0002:00005acc       ??_C@_0N@KGKCOAML@mp_cond_swap?$AA@ 00438acc     testcrypt.obj
 0002:00005adc       ??_C@_0O@JHHJFILE@mp_cond_clear?$AA@ 00438adc     testcrypt.obj
 0002:00005aec       ??_C@_0P@HBJDLEDL@mp_divmod_into?$AA@ 00438aec     testcrypt.obj
 0002:00005afc       ??_C@_06LDLEBGPE@mp_div?$AA@ 00438afc     testcrypt.obj
 0002:00005b04       ??_C@_06LCMFFFBP@mp_mod?$AA@ 00438b04     testcrypt.obj
 0002:00005b0c       ??_C@_0BC@NNBODACF@mp_reduce_mod_2to?$AA@ 00438b0c     testcrypt.obj
 0002:00005b20       ??_C@_0BC@HHOHDNMJ@mp_invert_mod_2to?$AA@ 00438b20     testcrypt.obj
 0002:00005b34       ??_C@_09OFFEPHI@mp_invert?$AA@ 00438b34     testcrypt.obj
 0002:00005b40       ??_C@_0M@CELPEMJJ@modsqrt_new?$AA@ 00438b40     testcrypt.obj
 0002:00005b4c       ??_C@_0L@IADIAHBD@mp_modsqrt?$AA@ 00438b4c     testcrypt.obj
 0002:00005b58       ??_C@_09FAFHCFE@monty_new?$AA@ 00438b58     testcrypt.obj
 0002:00005b64       ??_C@_0O@KHFAKLBD@monty_modulus?$AA@ 00438b64     testcrypt.obj
 0002:00005b74       ??_C@_0P@PKBEEFJN@monty_identity?$AA@ 00438b74     testcrypt.obj
 0002:00005b84       ??_C@_0BC@GICHIFCE@monty_import_into?$AA@ 00438b84     testcrypt.obj
 0002:00005b98       ??_C@_0N@OCGBOOPI@monty_import?$AA@ 00438b98     testcrypt.obj
 0002:00005ba8       ??_C@_0BC@LCIMKACM@monty_export_into?$AA@ 00438ba8     testcrypt.obj
 0002:00005bbc       ??_C@_0N@HGNKBHKE@monty_export?$AA@ 00438bbc     testcrypt.obj
 0002:00005bcc       ??_C@_0P@FEGIGKKC@monty_mul_into?$AA@ 00438bcc     testcrypt.obj
 0002:00005bdc       ??_C@_09DNELEJKH@monty_add?$AA@ 00438bdc     testcrypt.obj
 0002:00005be8       ??_C@_09IMOFLIHC@monty_sub?$AA@ 00438be8     testcrypt.obj
 0002:00005bf4       ??_C@_09KCKALFFA@monty_mul?$AA@ 00438bf4     testcrypt.obj
 0002:00005c00       ??_C@_09LIFENHCO@monty_pow?$AA@ 00438c00     testcrypt.obj
 0002:00005c0c       ??_C@_0N@IEAIIJJC@monty_invert?$AA@ 00438c0c     testcrypt.obj
 0002:00005c1c       ??_C@_0O@MAGNFBLD@monty_modsqrt?$AA@ 00438c1c     testcrypt.obj
 0002:00005c2c       ??_C@_09HDHCLIGB@mp_modpow?$AA@ 00438c2c     testcrypt.obj
 0002:00005c38       ??_C@_09GJIGNKBP@mp_modmul?$AA@ 00438c38     testcrypt.obj
 0002:00005c44       ??_C@_09PGGNCGOI@mp_modadd?$AA@ 00438c44     testcrypt.obj
 0002:00005c50       ??_C@_09EHMDNHDN@mp_modsub?$AA@ 00438c50     testcrypt.obj
 0002:00005c5c       ??_C@_0P@FFILAHDL@mp_rshift_safe?$AA@ 00438c5c     testcrypt.obj
 0002:00005c6c       ??_C@_0BF@GPCPPJCM@mp_lshift_fixed_into?$AA@ 00438c6c     testcrypt.obj
 0002:00005c84       ??_C@_0BF@FIKBLHLN@mp_rshift_fixed_into?$AA@ 00438c84     testcrypt.obj
 0002:00005c9c       ??_C@_0BA@GDGCDEMF@mp_rshift_fixed?$AA@ 00438c9c     testcrypt.obj
 0002:00005cac       ??_C@_0P@CJEHHLAD@mp_random_bits?$AA@ 00438cac     testcrypt.obj
 0002:00005cbc       ??_C@_0BD@BDFENMHM@mp_random_in_range?$AA@ 00438cbc     testcrypt.obj
 0002:00005cd0       ??_C@_0BG@FKKJBLIB@ecc_weierstrass_curve?$AA@ 00438cd0     testcrypt.obj
 0002:00005ce8       ??_C@_0CD@GACBCLEC@ecc_weierstrass_point_new_identi@ 00438ce8     testcrypt.obj
 0002:00005d0c       ??_C@_0BK@LGCIMALL@ecc_weierstrass_point_new?$AA@ 00438d0c     testcrypt.obj
 0002:00005d28       ??_C@_0CB@IKJABBCD@ecc_weierstrass_point_new_from_x@ 00438d28     testcrypt.obj
 0002:00005d4c       ??_C@_0BL@DAJKLCCL@ecc_weierstrass_point_copy?$AA@ 00438d4c     testcrypt.obj
 0002:00005d68       ??_C@_0BM@EHNPKLEP@ecc_weierstrass_point_valid?$AA@ 00438d68     testcrypt.obj
 0002:00005d84       ??_C@_0BM@KNNJMDEH@ecc_weierstrass_add_general?$AA@ 00438d84     testcrypt.obj
 0002:00005da0       ??_C@_0BE@GKHANOFM@ecc_weierstrass_add?$AA@ 00438da0     testcrypt.obj
 0002:00005db4       ??_C@_0BH@IHAPLNGL@ecc_weierstrass_double?$AA@ 00438db4     testcrypt.obj
 0002:00005dcc       ??_C@_0BJ@EFNPIBFH@ecc_weierstrass_multiply?$AA@ 00438dcc     testcrypt.obj
 0002:00005de8       ??_C@_0BM@JIGPEKKG@ecc_weierstrass_is_identity?$AA@ 00438de8     testcrypt.obj
 0002:00005e04       ??_C@_0BL@LPEKODOI@ecc_weierstrass_get_affine?$AA@ 00438e04     testcrypt.obj
 0002:00005e20       ??_C@_0BF@PLCELBNN@ecc_montgomery_curve?$AA@ 00438e20     testcrypt.obj
 0002:00005e38       ??_C@_0BJ@MMOANNGP@ecc_montgomery_point_new?$AA@ 00438e38     testcrypt.obj
 0002:00005e54       ??_C@_0BK@LBFOGMPL@ecc_montgomery_point_copy?$AA@ 00438e54     testcrypt.obj
 0002:00005e70       ??_C@_0BI@LNPKNDEF@ecc_montgomery_diff_add?$AA@ 00438e70     testcrypt.obj
 0002:00005e88       ??_C@_0BG@OFHDCNBO@ecc_montgomery_double?$AA@ 00438e88     testcrypt.obj
 0002:00005ea0       ??_C@_0BI@OHJIPNNM@ecc_montgomery_multiply?$AA@ 00438ea0     testcrypt.obj
 0002:00005eb8       ??_C@_0BK@DOIODNDI@ecc_montgomery_get_affine?$AA@ 00438eb8     testcrypt.obj
 0002:00005ed4       ??_C@_0BC@EEGNIACG@ecc_edwards_curve?$AA@ 00438ed4     testcrypt.obj
 0002:00005ee8       ??_C@_0BG@MCELJJDP@ecc_edwards_point_new?$AA@ 00438ee8     testcrypt.obj
 0002:00005f00       ??_C@_0BN@POJMINOK@ecc_edwards_point_new_from_y?$AA@ 00438f00     testcrypt.obj
 0002:00005f20       ??_C@_0BH@NKDLJGEL@ecc_edwards_point_copy?$AA@ 00438f20     testcrypt.obj
 0002:00005f38       ??_C@_0BA@LJIEPCOE@ecc_edwards_add?$AA@ 00438f38     testcrypt.obj
 0002:00005f48       ??_C@_0BF@JHFEJPNE@ecc_edwards_multiply?$AA@ 00438f48     testcrypt.obj
 0002:00005f60       ??_C@_0P@JIEFAGPP@ecc_edwards_eq?$AA@ 00438f60     testcrypt.obj
 0002:00005f70       ??_C@_0BH@FFOLMHII@ecc_edwards_get_affine?$AA@ 00438f70     testcrypt.obj
 0002:00005f88       ??_C@_0N@ILGMKKED@ssh_hash_new?$AA@ 00438f88     testcrypt.obj
 0002:00005f98       ??_C@_0O@IDMBIMGP@ssh_hash_copy?$AA@ 00438f98     testcrypt.obj
 0002:00005fa8       ??_C@_0P@GJLICPJJ@ssh_hash_final?$AA@ 00438fa8     testcrypt.obj
 0002:00005fb8       ??_C@_0BA@LLFKDDEE@ssh_hash_update?$AA@ 00438fb8     testcrypt.obj
 0002:00005fc8       ??_C@_0N@CIAMOAPD@ssh2_mac_new?$AA@ 00438fc8     testcrypt.obj
 0002:00005fd8       ??_C@_0BA@PNCFEOMO@ssh2_mac_setkey?$AA@ 00438fd8     testcrypt.obj
 0002:00005fe8       ??_C@_0P@BEAHNPPC@ssh2_mac_start?$AA@ 00438fe8     testcrypt.obj
 0002:00005ff8       ??_C@_0BA@DJCAALCA@ssh2_mac_update?$AA@ 00438ff8     testcrypt.obj
 0002:00006008       ??_C@_0BD@JDHIBOKO@ssh2_mac_genresult?$AA@ 00439008     testcrypt.obj
 0002:0000601c       ??_C@_0BD@DGBENHME@ssh2_mac_text_name?$AA@ 0043901c     testcrypt.obj
 0002:00006030       ??_C@_0BA@GCAEBFOM@ssh_key_new_pub?$AA@ 00439030     testcrypt.obj
 0002:00006040       ??_C@_0BB@EBDJKDGO@ssh_key_new_priv?$AA@ 00439040     testcrypt.obj
 0002:00006054       ??_C@_0BJ@EBKONPGM@ssh_key_new_priv_openssh?$AA@ 00439054     testcrypt.obj
 0002:00006070       ??_C@_0BA@OGCCIIPI@ssh_key_invalid?$AA@ 00439070     testcrypt.obj
 0002:00006080       ??_C@_0N@IKMGHHON@ssh_key_sign?$AA@ 00439080     testcrypt.obj
 0002:00006090       ??_C@_0P@IHDLFJEC@ssh_key_verify?$AA@ 00439090     testcrypt.obj
 0002:000060a0       ??_C@_0BE@IFCMGINA@ssh_key_public_blob?$AA@ 004390a0     testcrypt.obj
 0002:000060b4       ??_C@_0BF@GKKEHOOK@ssh_key_private_blob?$AA@ 004390b4     testcrypt.obj
 0002:000060cc       ??_C@_0BF@MCKPMCGP@ssh_key_openssh_blob?$AA@ 004390cc     testcrypt.obj
 0002:000060e4       ??_C@_0BC@NMAPALDB@ssh_key_cache_str?$AA@ 004390e4     testcrypt.obj
 0002:000060f8       ??_C@_0BE@PBFIPHGD@ssh_key_public_bits?$AA@ 004390f8     testcrypt.obj
 0002:0000610c       ??_C@_0P@HEMJEABN@ssh_cipher_new?$AA@ 0043910c     testcrypt.obj
 0002:0000611c       ??_C@_0BB@BKCOMJDB@ssh_cipher_setiv?$AA@ 0043911c     testcrypt.obj
 0002:00006130       ??_C@_0BC@BLFADJOO@ssh_cipher_setkey?$AA@ 00439130     testcrypt.obj
 0002:00006144       ??_C@_0BD@NCBEFLJK@ssh_cipher_encrypt?$AA@ 00439144     testcrypt.obj
 0002:00006158       ??_C@_0BD@BMLJAPPO@ssh_cipher_decrypt?$AA@ 00439158     testcrypt.obj
 0002:0000616c       ??_C@_0BK@NCMKOPLB@ssh_cipher_encrypt_length?$AA@ 0043916c     testcrypt.obj
 0002:00006188       ??_C@_0BK@CEAJAPLE@ssh_cipher_decrypt_length?$AA@ 00439188     testcrypt.obj
 0002:000061a4       ??_C@_0P@LHLPNFFO@dh_setup_group?$AA@ 004391a4     testcrypt.obj
 0002:000061b4       ??_C@_0N@NIHDMAGD@dh_setup_gex?$AA@ 004391b4     testcrypt.obj
 0002:000061c4       ??_C@_0BE@HMAODLK@dh_modulus_bit_size?$AA@ 004391c4     testcrypt.obj
 0002:000061d8       ??_C@_0M@ODALOHDP@dh_create_e?$AA@ 004391d8     testcrypt.obj
 0002:000061e4       ??_C@_0O@BENHCEAB@dh_validate_f?$AA@ 004391e4     testcrypt.obj
 0002:000061f4       ??_C@_09IOHCIACD@dh_find_K?$AA@ 004391f4     testcrypt.obj
 0002:00006200       ??_C@_0BD@HIBEGEFI@ssh_ecdhkex_newkey?$AA@ 00439200     testcrypt.obj
 0002:00006214       ??_C@_0BG@CGHMFML@ssh_ecdhkex_getpublic?$AA@ 00439214     testcrypt.obj
 0002:0000622c       ??_C@_0BD@KKCMFLFL@ssh_ecdhkex_getkey?$AA@ 0043922c     testcrypt.obj
 0002:00006240       ??_C@_0BC@LEGNOONK@ssh_rsakex_newkey?$AA@ 00439240     testcrypt.obj
 0002:00006254       ??_C@_0BA@LMDDOANF@ssh_rsakex_klen?$AA@ 00439254     testcrypt.obj
 0002:00006264       ??_C@_0BD@JCCFMEKM@ssh_rsakex_encrypt?$AA@ 00439264     testcrypt.obj
 0002:00006278       ??_C@_0BD@FMIIJAMI@ssh_rsakex_decrypt?$AA@ 00439278     testcrypt.obj
 0002:0000628c       ??_C@_0BI@FDIMJHGF@get_rsa_ssh1_priv_agent?$AA@ 0043928c     testcrypt.obj
 0002:000062a4       ??_C@_07CFFIJOOC@rsa_new?$AA@ 004392a4     testcrypt.obj
 0002:000062ac       ??_C@_0BB@MDPKFPDF@get_rsa_ssh1_pub?$AA@ 004392ac     testcrypt.obj
 0002:000062c0       ??_C@_0BC@LOJHDHFE@get_rsa_ssh1_priv?$AA@ 004392c0     testcrypt.obj
 0002:000062d4       ??_C@_0BB@CJCOIJGH@rsa_ssh1_encrypt?$AA@ 004392d4     testcrypt.obj
 0002:000062e8       ??_C@_0BB@OHIDNNAD@rsa_ssh1_decrypt?$AA@ 004392e8     testcrypt.obj
 0002:000062fc       ??_C@_0BH@CNJEENCD@rsa_ssh1_decrypt_pkcs1?$AA@ 004392fc     testcrypt.obj
 0002:00006314       ??_C@_0L@LHBANEJI@rsastr_fmt?$AA@ 00439314     testcrypt.obj
 0002:00006320       ??_C@_0BF@KHJABDKN@rsa_ssh1_fingerprint?$AA@ 00439320     testcrypt.obj
 0002:00006338       ??_C@_0BF@FCKIPOGI@rsa_ssh1_public_blob?$AA@ 00439338     testcrypt.obj
 0002:00006350       ??_C@_0BJ@NMKCNIEM@rsa_ssh1_public_blob_len?$AA@ 00439350     testcrypt.obj
 0002:0000636c       ??_C@_08IGIAIIOD@prng_new?$AA@ 0043936c     testcrypt.obj
 0002:00006378       ??_C@_0BA@NBHAIIDO@prng_seed_begin?$AA@ 00439378     testcrypt.obj
 0002:00006388       ??_C@_0BB@LLPNLHDA@prng_seed_update?$AA@ 00439388     testcrypt.obj
 0002:0000639c       ??_C@_0BB@PGPHDKLG@prng_seed_finish?$AA@ 0043939c     testcrypt.obj
 0002:000063b0       ??_C@_09IFKPDIKI@prng_read?$AA@ 004393b0     testcrypt.obj
 0002:000063bc       ??_C@_0BB@NNLCALKF@prng_add_entropy?$AA@ 004393bc     testcrypt.obj
 0002:000063d0       ??_C@_0N@KKKFCJGA@ecdsa_public?$AA@ 004393d0     testcrypt.obj
 0002:000063e0       ??_C@_0N@NODNMAOP@eddsa_public?$AA@ 004393e0     testcrypt.obj
 0002:000063f0       ??_C@_0BE@KDOBDAI@des_encrypt_xdmauth?$AA@ 004393f0     testcrypt.obj
 0002:00006404       ??_C@_0BE@HKKCCEGH@des_decrypt_xdmauth?$AA@ 00439404     testcrypt.obj
 0002:00006418       ??_C@_0BE@NMJLLPKC@des3_encrypt_pubkey?$AA@ 00439418     testcrypt.obj
 0002:0000642c       ??_C@_0BE@CKFIFPKH@des3_decrypt_pubkey?$AA@ 0043942c     testcrypt.obj
 0002:00006440       ??_C@_0BJ@PHJOCNFC@des3_encrypt_pubkey_ossh?$AA@ 00439440     testcrypt.obj
 0002:0000645c       ??_C@_0BJ@DIAOINDI@des3_decrypt_pubkey_ossh?$AA@ 0043945c     testcrypt.obj
 0002:00006478       ??_C@_0BG@JFDNNOLB@aes256_encrypt_pubkey?$AA@ 00439478     testcrypt.obj
 0002:00006490       ??_C@_0BG@GDPODOLE@aes256_decrypt_pubkey?$AA@ 00439490     testcrypt.obj
 0002:000064a8       ??_C@_0O@CHBNMDJM@crc32_rfc1662?$AA@ 004394a8     testcrypt.obj
 0002:000064b8       ??_C@_0L@EEBLAEGO@crc32_ssh1?$AA@ 004394b8     testcrypt.obj
 0002:000064c4       ??_C@_0N@FMNIDMHC@crc32_update?$AA@ 004394c4     testcrypt.obj
 0002:000064d4       ??_C@_0N@HLEPEOJC@crcda_detect?$AA@ 004394d4     testcrypt.obj
 0002:000064e4       ??_C@_08OPCFNDLO@primegen?$AA@ 004394e4     testcrypt.obj
 0002:000064f0       ??_C@_0N@OJNHKIBD@random_queue?$AA@ 004394f0     testcrypt.obj
 0002:00006500       ??_C@_0BB@PMLJKCOO@random_queue_len?$AA@ 00439500     testcrypt.obj
 0002:00006514       ??_C@_0N@NEJFHBEK@random_clear?$AA@ 00439514     testcrypt.obj
 0002:00006524       ??_C@_0BN@PEPAGCAJ@command?5?8?$CF?4?$CKs?8?3?5unrecognised?$AA@ 00439524     testcrypt.obj
 0002:00006544       ??_C@_02NCEOIEDG@?9o?$AA@  00439544     testcrypt.obj
 0002:00006548       ??_C@_0BJ@IJIHBBOP@?8?9o?8?5expects?5a?5filename?6?$AA@ 00439548     testcrypt.obj
 0002:00006564       ??_C@_02BAABKJLB@?9?9?$AA@ 00439564     testcrypt.obj
 0002:00006568       ??_C@_06LMIDBODK@?9?9help?$AA@ 00439568     testcrypt.obj
 0002:00006570       ??_C@_0CI@ODEGCOIP@usage?3?5testcrypt?5?$FLINFILE?$FN?5?$FL?9o?5OU@ 00439570     testcrypt.obj
 0002:00006598       ??_C@_0DB@KBDGGFHB@?5also?3?5testcrypt?5?9?9help?5?5?5?5?5?5?5di@ 00439598     testcrypt.obj
 0002:000065cc       ??_C@_0CC@GKPCNEPJ@unknown?5command?5line?5option?5?8?$CFs?8@ 004395cc     testcrypt.obj
 0002:000065f0       ??_C@_0CF@DDAHPAOE@can?5only?5handle?5one?5input?5file?5n@ 004395f0     testcrypt.obj
 0002:00006618       ??_C@_01KDCPPGHE@r?$AA@    00439618     testcrypt.obj
 0002:0000661c       ??_C@_0O@NEGGLOHK@?$CFs?3?5open?3?5?$CFs?6?$AA@ 0043961c     testcrypt.obj
 0002:0000662c       ??_C@_01NOFIACDB@w?$AA@    0043962c     testcrypt.obj
 0002:00006630       ??_C@_06DBLEDJPI@?$CFzu?6?$CFs?$AA@ 00439630     testcrypt.obj
 0002:00006638       ??_C@_1BK@MHBNEDJA@?$AA?4?$AA?4?$AA?2?$AAt?$AAr?$AAe?$AAe?$AA2?$AA3?$AA4?$AA?4?$AAc?$AA?$AA@ 00439638     tree234.obj
 0002:00006654       ??_C@_1DC@HAJCHCAO@?$AA?$CB?$AA?$CI?$AAe?$AAq?$AAu?$AAa?$AAl?$AA_?$AAp?$AAe?$AAr?$AAm?$AAi?$AAt?$AAt?$AAe?$AAd?$AA?5?$AA?$CG?$AA?$CG?$AA?5?$AA?$CB?$AAe?$AA?$CJ?$AA?$AA@ 00439654     tree234.obj
 0002:00006688       ??_C@_1BE@JDCCMFIA@?$AAd?$AAi?$AAr?$AAe?$AAc?$AAt?$AAi?$AAo?$AAn?$AA?$AA@ 00439688     tree234.obj
 0002:000066e4       ??_C@_1BG@IBBOKEKM@?$AA?4?$AA?4?$AA?2?$AAu?$AAt?$AAi?$AAl?$AAs?$AA?4?$AAc?$AA?$AA@ 004396e4     utils.obj
 0002:000066fc       ??_C@_1CI@JGIJONMH@?$AAn?$AAe?$AAw?$AA_?$AAl?$AAe?$AAn?$AA?5?$AA?$DM?$AA?$DN?$AA?5?$AAb?$AAu?$AAf?$AA?9?$AA?$DO?$AAl?$AAe?$AAn?$AA?$AA@ 004396fc     utils.obj
 0002:00006724       ??_C@_1CM@MFBGKCEF@?$AAc?$AAh?$AA?9?$AA?$DO?$AAb?$AAu?$AAf?$AAf?$AAe?$AAr?$AAs?$AAi?$AAz?$AAe?$AA?5?$AA?$DO?$AA?$DN?$AA?5?$AAl?$AAe?$AAn?$AA?$AA@ 00439724     utils.obj
 0002:00006750       ??_C@_1CC@FNDPGLGN@?$AAc?$AAh?$AA?9?$AA?$DO?$AAh?$AAe?$AAa?$AAd?$AA?5?$AA?$CB?$AA?$DN?$AA?5?$AAN?$AAU?$AAL?$AAL?$AA?$AA@ 00439750     utils.obj
 0002:00006774       ??_C@_1BI@DJGBLBGG@?$AAt?$AAm?$AAp?$AA?5?$AA?$CB?$AA?$DN?$AA?5?$AAN?$AAU?$AAL?$AAL?$AA?$AA@ 00439774     utils.obj
 0002:000067a4       ??_C@_1BC@DNHGCMLG@?$AAa?$AAd?$AAv?$AAa?$AAp?$AAi?$AA3?$AA2?$AA?$AA@ 004397a4     libvcruntime:winapi_downlevel.obj
 0002:000067b8       ??_C@_1DM@KHCHBNEB@?$AAa?$AAp?$AAi?$AA?9?$AAm?$AAs?$AA?9?$AAw?$AAi?$AAn?$AA?9?$AAc?$AAo?$AAr?$AAe?$AA?9?$AAf?$AAi?$AAb?$AAe?$AAr?$AAs?$AA?9?$AAl?$AA1?$AA?9?$AA1?$AA?9?$AA1?$AA?$AA@ 004397b8     libvcruntime:winapi_downlevel.obj
 0002:000067f4       ??_C@_1DK@LPPGFMPP@?$AAa?$AAp?$AAi?$AA?9?$AAm?$AAs?$AA?9?$AAw?$AAi?$AAn?$AA?9?$AAc?$AAo?$AAr?$AAe?$AA?9?$AAs?$AAy?$AAn?$AAc?$AAh?$AA?9?$AAl?$AA1?$AA?9?$AA2?$AA?9?$AA0?$AA?$AA@ 004397f4     libvcruntime:winapi_downlevel.obj
 0002:00006830       ??_C@_1BC@GDMECMAK@?$AAk?$AAe?$AAr?$AAn?$AAe?$AAl?$AA3?$AA2?$AA?$AA@ 00439830     libvcruntime:winapi_downlevel.obj
 0002:0000684c       ??_C@_08KNHFBNJ@FlsAlloc?$AA@ 0043984c     libvcruntime:winapi_downlevel.obj
 0002:00006860       ??_C@_07PEJMOBNF@FlsFree?$AA@ 00439860     libvcruntime:winapi_downlevel.obj
 0002:00006868       ??_C@_0M@GDNOONDI@FlsGetValue?$AA@ 00439868     libvcruntime:winapi_downlevel.obj
 0002:0000687c       ??_C@_0M@JCPCPOEF@FlsSetValue?$AA@ 0043987c     libvcruntime:winapi_downlevel.obj
 0002:00006890       ??_C@_0BM@HCFOFFN@InitializeCriticalSectionEx?$AA@ 00439890     libvcruntime:winapi_downlevel.obj
 0002:00006a40       ??_C@_08EHJDFFNH@__based?$CI?$AA@ 00439a40     libvcruntime:undname.obj
 0002:00006a4c       ??_C@_07KOLFKCDI@__cdecl?$AA@ 00439a4c     libvcruntime:undname.obj
 0002:00006a54       ??_C@_08GHMPAG@__pascal?$AA@ 00439a54     libvcruntime:undname.obj
 0002:00006a60       ??_C@_09IFJBGAPI@__stdcall?$AA@ 00439a60     libvcruntime:undname.obj
 0002:00006a6c       ??_C@_0L@NPHFGOKO@__thiscall?$AA@ 00439a6c     libvcruntime:undname.obj
 0002:00006a78       ??_C@_0L@JMKHOMEK@__fastcall?$AA@ 00439a78     libvcruntime:undname.obj
 0002:00006a84       ??_C@_0N@BCKKPABJ@__vectorcall?$AA@ 00439a84     libvcruntime:undname.obj
 0002:00006a94       ??_C@_09HIJEGCPM@__clrcall?$AA@ 00439a94     libvcruntime:undname.obj
 0002:00006aa0       ??_C@_06GHPCKEAG@__eabi?$AA@ 00439aa0     libvcruntime:undname.obj
 0002:00006aa8       ??_C@_07JOMMBBKO@__ptr64?$AA@ 00439aa8     libvcruntime:undname.obj
 0002:00006ab0       ??_C@_0L@PILCLIHE@__restrict?$AA@ 00439ab0     libvcruntime:undname.obj
 0002:00006abc       ??_C@_0M@GFIIJFMG@__unaligned?$AA@ 00439abc     libvcruntime:undname.obj
 0002:00006ac8       ??_C@_09DHDLOLLB@restrict?$CI?$AA@ 00439ac8     libvcruntime:undname.obj
 0002:00006ad4       ??_C@_04NIHEBCM@?5new?$AA@ 00439ad4     libvcruntime:undname.obj
 0002:00006adc       ??_C@_07FPCDHGMM@?5delete?$AA@ 00439adc     libvcruntime:undname.obj
 0002:00006ae4       ??_C@_01NEMOKFLO@?$DN?$AA@ 00439ae4     libvcruntime:undname.obj
 0002:00006ae8       ??_C@_02GPIOPFAK@?$DO?$DO?$AA@ 00439ae8     libvcruntime:undname.obj
 0002:00006aec       ??_C@_02FODMEDOG@?$DM?$DM?$AA@ 00439aec     libvcruntime:undname.obj
 0002:00006af0       ??_C@_01DCLJPIOD@?$CB?$AA@ 00439af0     libvcruntime:undname.obj
 0002:00006af4       ??_C@_02EGOFBIJA@?$DN?$DN?$AA@ 00439af4     libvcruntime:undname.obj
 0002:00006af8       ??_C@_02FDNJECIE@?$CB?$DN?$AA@ 00439af8     libvcruntime:undname.obj
 0002:00006afc       ??_C@_02GPECMEKF@?$FL?$FN?$AA@ 00439afc     libvcruntime:undname.obj
 0002:00006b00       ??_C@_08LHJFAFGD@operator?$AA@ 00439b00     libvcruntime:undname.obj
 0002:00006b0c       ??_C@_02HBOOOICD@?9?$DO?$AA@ 00439b0c     libvcruntime:undname.obj
 0002:00006b10       ??_C@_01NBENCBCI@?$CK?$AA@ 00439b10     libvcruntime:undname.obj
 0002:00006b14       ??_C@_02ECNGHCIF@?$CL?$CL?$AA@ 00439b14     libvcruntime:undname.obj
 0002:00006b18       ??_C@_01JOAMLHOP@?9?$AA@   00439b18     libvcruntime:undname.obj
 0002:00006b1c       ??_C@_01MIFGBAGJ@?$CL?$AA@ 00439b1c     libvcruntime:undname.obj
 0002:00006b20       ??_C@_01HNPIGOCE@?$CG?$AA@ 00439b20     libvcruntime:undname.obj
 0002:00006b24       ??_C@_03MNHNFDLC@?9?$DO?$CK?$AA@ 00439b24     libvcruntime:undname.obj
 0002:00006b28       ??_C@_01KMDKNFGN@?1?$AA@   00439b28     libvcruntime:undname.obj
 0002:00006b2c       ??_C@_01FGNFDNOH@?$CF?$AA@ 00439b2c     libvcruntime:undname.obj
 0002:00006b30       ??_C@_01MNNFJEPP@?$DM?$AA@ 00439b30     libvcruntime:undname.obj
 0002:00006b34       ??_C@_02EHCHHCKH@?$DM?$DN?$AA@ 00439b34     libvcruntime:undname.obj
 0002:00006b38       ??_C@_01PPODPGHN@?$DO?$AA@ 00439b38     libvcruntime:undname.obj
 0002:00006b3c       ??_C@_02EEKDKGMJ@?$DO?$DN?$AA@ 00439b3c     libvcruntime:undname.obj
 0002:00006b40       ??_C@_01IHBHIGKO@?0?$AA@   00439b40     libvcruntime:undname.obj
 0002:00006b44       ??_C@_02HCKGKOFO@?$CI?$CJ?$AA@ 00439b44     libvcruntime:undname.obj
 0002:00006b48       ??_C@_01PJKLJHI@?$HO?$AA@  00439b48     libvcruntime:undname.obj
 0002:00006b4c       ??_C@_01JKBOJNNK@?$FO?$AA@ 00439b4c     libvcruntime:undname.obj
 0002:00006b50       ??_C@_01DNKMNLPK@?$HM?$AA@ 00439b50     libvcruntime:undname.obj
 0002:00006b54       ??_C@_02PPKAJPJL@?$CG?$CG?$AA@ 00439b54     libvcruntime:undname.obj
 0002:00006b58       ??_C@_02NONPIBCD@?$HM?$HM?$AA@ 00439b58     libvcruntime:undname.obj
 0002:00006b5c       ??_C@_02FPIMKNGF@?$CK?$DN?$AA@ 00439b5c     libvcruntime:undname.obj
 0002:00006b60       ??_C@_02FOEOMHFC@?$CL?$DN?$AA@ 00439b60     libvcruntime:undname.obj
 0002:00006b64       ??_C@_02FKMDLLOA@?9?$DN?$AA@ 00439b64     libvcruntime:undname.obj
 0002:00006b68       ??_C@_02FJEHGPIO@?1?$DN?$AA@ 00439b68     libvcruntime:undname.obj
 0002:00006b6c       ??_C@_02FENAOKFI@?$CF?$DN?$AA@ 00439b6c     libvcruntime:undname.obj
 0002:00006b70       ??_C@_03IKFCCPFF@?$DO?$DO?$DN?$AA@ 00439b70     libvcruntime:undname.obj
 0002:00006b74       ??_C@_03CDNPDDLA@?$DM?$DM?$DN?$AA@ 00439b74     libvcruntime:undname.obj
 0002:00006b78       ??_C@_02FGJGFEAB@?$CG?$DN?$AA@ 00439b78     libvcruntime:undname.obj
 0002:00006b7c       ??_C@_02DHLNPPGH@?$HM?$DN?$AA@ 00439b7c     libvcruntime:undname.obj
 0002:00006b80       ??_C@_02MHEGNOJ@?$FO?$DN?$AA@ 00439b80     libvcruntime:undname.obj
 0002:00006b84       ??_C@_09IFPLHPGF@?$GAvftable?8?$AA@ 00439b84     libvcruntime:undname.obj
 0002:00006b90       ??_C@_09BLBHBJP@?$GAvbtable?8?$AA@ 00439b90     libvcruntime:undname.obj
 0002:00006b9c       ??_C@_07FEEIOKP@?$GAvcall?8?$AA@ 00439b9c     libvcruntime:undname.obj
 0002:00006ba4       ??_C@_08LLFFHHDJ@?$GAtypeof?8?$AA@ 00439ba4     libvcruntime:undname.obj
 0002:00006bb0       ??_C@_0BF@KDPPACIK@?$GAlocal?5static?5guard?8?$AA@ 00439bb0     libvcruntime:undname.obj
 0002:00006bc8       ??_C@_08OBABFOLI@?$GAstring?8?$AA@ 00439bc8     libvcruntime:undname.obj
 0002:00006bd4       ??_C@_0BD@JDLKDPAB@?$GAvbase?5destructor?8?$AA@ 00439bd4     libvcruntime:undname.obj
 0002:00006be8       ??_C@_0BN@DEGPLNFK@?$GAvector?5deleting?5destructor?8?$AA@ 00439be8     libvcruntime:undname.obj
 0002:00006c08       ??_C@_0BO@OBMKPJIG@?$GAdefault?5constructor?5closure?8?$AA@ 00439c08     libvcruntime:undname.obj
 0002:00006c28       ??_C@_0BN@IMDCHIKM@?$GAscalar?5deleting?5destructor?8?$AA@ 00439c28     libvcruntime:undname.obj
 0002:00006c48       ??_C@_0BO@PFGOCPJJ@?$GAvector?5constructor?5iterator?8?$AA@ 00439c48     libvcruntime:undname.obj
 0002:00006c68       ??_C@_0BN@LFPFMEDL@?$GAvector?5destructor?5iterator?8?$AA@ 00439c68     libvcruntime:undname.obj
 0002:00006c88       ??_C@_0CE@IKBNEHA@?$GAvector?5vbase?5constructor?5iterat@ 00439c88     libvcruntime:undname.obj
 0002:00006cac       ??_C@_0BL@NILFHHPC@?$GAvirtual?5displacement?5map?8?$AA@ 00439cac     libvcruntime:undname.obj
 0002:00006cc8       ??_C@_0CB@JONCMFFK@?$GAeh?5vector?5constructor?5iterator?8@ 00439cc8     libvcruntime:undname.obj
 0002:00006cec       ??_C@_0CA@GCEOPDGL@?$GAeh?5vector?5destructor?5iterator?8?$AA@ 00439cec     libvcruntime:undname.obj
 0002:00006d0c       ??_C@_0CH@OOJPLCPH@?$GAeh?5vector?5vbase?5constructor?5ite@ 00439d0c     libvcruntime:undname.obj
 0002:00006d34       ??_C@_0BL@LLKPOHJI@?$GAcopy?5constructor?5closure?8?$AA@ 00439d34     libvcruntime:undname.obj
 0002:00006d50       ??_C@_0BA@KBCDOMBN@?$GAudt?5returning?8?$AA@ 00439d50     libvcruntime:undname.obj
 0002:00006d60       ??_C@_03KLGMFNMG@?$GAEH?$AA@ 00439d60     libvcruntime:undname.obj
 0002:00006d64       ??_C@_05KHLCHHI@?$GARTTI?$AA@ 00439d64     libvcruntime:undname.obj
 0002:00006d6c       ??_C@_0BA@KKLDJDLB@?$GAlocal?5vftable?8?$AA@ 00439d6c     libvcruntime:undname.obj
 0002:00006d7c       ??_C@_0CE@IIHCMGGL@?$GAlocal?5vftable?5constructor?5closu@ 00439d7c     libvcruntime:undname.obj
 0002:00006da0       ??_C@_06FHBGPFGH@?5new?$FL?$FN?$AA@ 00439da0     libvcruntime:undname.obj
 0002:00006da8       ??_C@_09LBNFPBCA@?5delete?$FL?$FN?$AA@ 00439da8     libvcruntime:undname.obj
 0002:00006db4       ??_C@_0P@HJKNJFNN@?$GAomni?5callsig?8?$AA@ 00439db4     libvcruntime:undname.obj
 0002:00006dc4       ??_C@_0BL@CNOONJFP@?$GAplacement?5delete?5closure?8?$AA@ 00439dc4     libvcruntime:undname.obj
 0002:00006de0       ??_C@_0BN@CKNJLHMB@?$GAplacement?5delete?$FL?$FN?5closure?8?$AA@ 00439de0     libvcruntime:undname.obj
 0002:00006e00       ??_C@_0CG@CFDHKGGD@?$GAmanaged?5vector?5constructor?5iter@ 00439e00     libvcruntime:undname.obj
 0002:00006e28       ??_C@_0CF@IMGKMJNO@?$GAmanaged?5vector?5destructor?5itera@ 00439e28     libvcruntime:undname.obj
 0002:00006e50       ??_C@_0CG@HLDDJMAG@?$GAeh?5vector?5copy?5constructor?5iter@ 00439e50     libvcruntime:undname.obj
 0002:00006e78       ??_C@_0CM@FCBBDIGB@?$GAeh?5vector?5vbase?5copy?5constructo@ 00439e78     libvcruntime:undname.obj
 0002:00006ea4       ??_C@_0BL@CLIPGLGB@?$GAdynamic?5initializer?5for?5?8?$AA@ 00439ea4     libvcruntime:undname.obj
 0002:00006ec0       ??_C@_0CB@PDBIFEP@?$GAdynamic?5atexit?5destructor?5for?5?8@ 00439ec0     libvcruntime:undname.obj
 0002:00006ee4       ??_C@_0CD@CGAJBKEJ@?$GAvector?5copy?5constructor?5iterato@ 00439ee4     libvcruntime:undname.obj
 0002:00006f08       ??_C@_0CJ@GJELGAMM@?$GAvector?5vbase?5copy?5constructor?5i@ 00439f08     libvcruntime:undname.obj
 0002:00006f34       ??_C@_0CL@FGIJHLCE@?$GAmanaged?5vector?5copy?5constructor@ 00439f34     libvcruntime:undname.obj
 0002:00006f60       ??_C@_0BM@PMGGMLDN@?$GAlocal?5static?5thread?5guard?8?$AA@ 00439f60     libvcruntime:undname.obj
 0002:00006f7c       ??_C@_0N@BDNMDMOL@operator?5?$CC?$CC?5?$AA@ 00439f7c     libvcruntime:undname.obj
 0002:00006f8c       ??_C@_0BC@DAFEJGAK@?5Type?5Descriptor?8?$AA@ 00439f8c     libvcruntime:undname.obj
 0002:00006fa0       ??_C@_0BM@LDKODKLH@?5Base?5Class?5Descriptor?5at?5?$CI?$AA@ 00439fa0     libvcruntime:undname.obj
 0002:00006fbc       ??_C@_0BD@LGICGFMM@?5Base?5Class?5Array?8?$AA@ 00439fbc     libvcruntime:undname.obj
 0002:00006fd0       ??_C@_0BN@MECKDCOJ@?5Class?5Hierarchy?5Descriptor?8?$AA@ 00439fd0     libvcruntime:undname.obj
 0002:00006ff0       ??_C@_0BK@CFCOFLF@?5Complete?5Object?5Locator?8?$AA@ 00439ff0     libvcruntime:undname.obj
 0002:00007010       ??_C@_1EK@MBDPDCGA@?$AAM?$AAi?$AAc?$AAr?$AAo?$AAs?$AAo?$AAf?$AAt?$AA?5?$AAV?$AAi?$AAs?$AAu?$AAa?$AAl?$AA?5?$AAC?$AA?$CL?$AA?$CL?$AA?5?$AAR?$AAu?$AAn?$AAt?$AAi?$AAm?$AAe?$AA?5?$AAL?$AAi?$AAb@ 0043a010     libucrt:assert.obj
 0002:00007060       ??_C@_1FE@LHBLIKM@?$AAA?$AAs?$AAs?$AAe?$AAr?$AAt?$AAi?$AAo?$AAn?$AA?5?$AAf?$AAa?$AAi?$AAl?$AAe?$AAd?$AA?3?$AA?5?$AA?$CF?$AAT?$AAs?$AA?0?$AA?5?$AAf?$AAi?$AAl?$AAe?$AA?5?$AA?$CF?$AAT?$AAs?$AA?0@ 0043a060     libucrt:assert.obj
 0002:000070b4       ??_C@_1CE@OJBNHDMO@?$AAA?$AAs?$AAs?$AAe?$AAr?$AAt?$AAi?$AAo?$AAn?$AA?5?$AAf?$AAa?$AAi?$AAl?$AAe?$AAd?$AA?$CB?$AA?$AA@ 0043a0b4     libucrt:assert.obj
 0002:000070d8       ??_C@_1BE@PHKBBGE@?$AAP?$AAr?$AAo?$AAg?$AAr?$AAa?$AAm?$AA?3?$AA?5?$AA?$AA@ 0043a0d8     libucrt:assert.obj
 0002:000070ec       ??_C@_1O@HEMHKNDC@?$AAF?$AAi?$AAl?$AAe?$AA?3?$AA?5?$AA?$AA@ 0043a0ec     libucrt:assert.obj
 0002:000070fc       ??_C@_1O@KCAFKHJE@?$AAL?$AAi?$AAn?$AAe?$AA?3?$AA?5?$AA?$AA@ 0043a0fc     libucrt:assert.obj
 0002:0000710c       ??_C@_1BK@PEDCIPMA@?$AAE?$AAx?$AAp?$AAr?$AAe?$AAs?$AAs?$AAi?$AAo?$AAn?$AA?3?$AA?5?$AA?$AA@ 0043a10c     libucrt:assert.obj
 0002:00007128       ??_C@_1OA@EGMLFBHJ@?$AAF?$AAo?$AAr?$AA?5?$AAi?$AAn?$AAf?$AAo?$AAr?$AAm?$AAa?$AAt?$AAi?$AAo?$AAn?$AA?5?$AAo?$AAn?$AA?5?$AAh?$AAo?$AAw?$AA?5?$AAy?$AAo?$AAu?$AAr?$AA?5?$AAp?$AAr?$AAo?$AAg@ 0043a128     libucrt:assert.obj
 0002:00007208       ??_C@_1HK@POCJMFGK@?$AA?$CI?$AAP?$AAr?$AAe?$AAs?$AAs?$AA?5?$AAR?$AAe?$AAt?$AAr?$AAy?$AA?5?$AAt?$AAo?$AA?5?$AAd?$AAe?$AAb?$AAu?$AAg?$AA?5?$AAt?$AAh?$AAe?$AA?5?$AAa?$AAp?$AAp?$AAl?$AAi?$AAc@ 0043a208     libucrt:assert.obj
 0002:00007284       ??_C@_17LGKOMLJ@?$AA?4?$AA?4?$AA?4?$AA?$AA@ 0043a284     libucrt:assert.obj
 0002:0000728c       ??_C@_13LBAGMAIH@?$AA?6?$AA?$AA@ 0043a28c     libucrt:assert.obj
 0002:00007290       ??_C@_15IABLJNFO@?$AA?6?$AA?6?$AA?$AA@ 0043a290     libucrt:assert.obj
 0002:00007298       ??_C@_1CO@EAEJAADC@?$AA?$DM?$AAp?$AAr?$AAo?$AAg?$AAr?$AAa?$AAm?$AA?5?$AAn?$AAa?$AAm?$AAe?$AA?5?$AAu?$AAn?$AAk?$AAn?$AAo?$AAw?$AAn?$AA?$DO?$AA?$AA@ 0043a298     libucrt:assert.obj
 0002:000072c8       _standard_lookup_table     0043a2c8     libucrt:output.obj
 0002:00007324       ??_C@_06OJHGLDPL@?$CInull?$CJ?$AA@ 0043a324     libucrt:output.obj
 0002:0000732c       ??_C@_1O@CEDCILHN@?$AA?$CI?$AAn?$AAu?$AAl?$AAl?$AA?$CJ?$AA?$AA@ 0043a32c     libucrt:output.obj
 0002:000074a8       ??_C@_1BI@BGOHAHKC@?$AAm?$AAs?$AAc?$AAo?$AAr?$AAe?$AAe?$AA?4?$AAd?$AAl?$AAl?$AA?$AA@ 0043a4a8     libucrt:exit.obj
 0002:000074c0       ??_C@_0P@MIGLKIOC@CorExitProcess?$AA@ 0043a4c0     libucrt:exit.obj
 0002:000074d0       ??_C@_0EA@FCLIIPNN@Visual?5C?$CL?$CL?5CRT?3?5Not?5enough?5memor@ 0043a4d0     libucrt:strerror.obj
 0002:00007510       ___acrt_exception_action_table 0043a510     libucrt:exception_filter.obj
 0002:000075a0       ___acrt_signal_action_table_count 0043a5a0     libucrt:exception_filter.obj
 0002:000075a4       ___acrt_signal_action_first_fpe_index 0043a5a4     libucrt:exception_filter.obj
 0002:000075a8       ___acrt_signal_action_fpe_count 0043a5a8     libucrt:exception_filter.obj
 0002:00007628       ??_C@_03OEIAHPBN@INF?$AA@  0043a628     libucrt:cvt.obj
 0002:0000762c       ??_C@_03OJHLLCGB@inf?$AA@  0043a62c     libucrt:cvt.obj
 0002:00007630       ??_C@_03LKNCIKJB@NAN?$AA@  0043a630     libucrt:cvt.obj
 0002:00007634       ??_C@_03LHCJEHON@nan?$AA@  0043a634     libucrt:cvt.obj
 0002:00007638       ??_C@_09OFJJIMPC@NAN?$CISNAN?$CJ?$AA@ 0043a638     libucrt:cvt.obj
 0002:00007644       ??_C@_09IPFBKMDL@nan?$CIsnan?$CJ?$AA@ 0043a644     libucrt:cvt.obj
 0002:00007650       ??_C@_08IKHNHAJ@NAN?$CIIND?$CJ?$AA@ 0043a650     libucrt:cvt.obj
 0002:0000765c       ??_C@_08OFCDMILK@nan?$CIind?$CJ?$AA@ 0043a65c     libucrt:cvt.obj
 0002:00007668       ??_C@_05KLBDPFGC@e?$CL000?$AA@ 0043a668     libucrt:cvt.obj
 0002:00007670       ??_C@_03KOEHGMDN@Sun?$AA@  0043a670     libucrt:nlsdata.obj
 0002:00007674       ??_C@_03PDAGKDH@Mon?$AA@   0043a674     libucrt:nlsdata.obj
 0002:00007678       ??_C@_03NAGEINEP@Tue?$AA@  0043a678     libucrt:nlsdata.obj
 0002:0000767c       ??_C@_03MHOMLAJA@Wed?$AA@  0043a67c     libucrt:nlsdata.obj
 0002:00007680       ??_C@_03IOFIKPDN@Thu?$AA@  0043a680     libucrt:nlsdata.obj
 0002:00007684       ??_C@_03IDIOELNC@Fri?$AA@  0043a684     libucrt:nlsdata.obj
 0002:00007688       ??_C@_03FEFJNEK@Sat?$AA@   0043a688     libucrt:nlsdata.obj
 0002:0000768c       ??_C@_06OOPIFAJ@Sunday?$AA@ 0043a68c     libucrt:nlsdata.obj
 0002:00007694       ??_C@_06JLEDEDGH@Monday?$AA@ 0043a694     libucrt:nlsdata.obj
 0002:0000769c       ??_C@_07BAAGCFCM@Tuesday?$AA@ 0043a69c     libucrt:nlsdata.obj
 0002:000076a4       ??_C@_09DLIGFAKA@Wednesday?$AA@ 0043a6a4     libucrt:nlsdata.obj
 0002:000076b0       ??_C@_08HACCIKIA@Thursday?$AA@ 0043a6b0     libucrt:nlsdata.obj
 0002:000076bc       ??_C@_06JECMNKMI@Friday?$AA@ 0043a6bc     libucrt:nlsdata.obj
 0002:000076c4       ??_C@_08INBOOONO@Saturday?$AA@ 0043a6c4     libucrt:nlsdata.obj
 0002:000076d0       ??_C@_03JIHJHPIE@Jan?$AA@  0043a6d0     libucrt:nlsdata.obj
 0002:000076d4       ??_C@_03HJBDCHOM@Feb?$AA@  0043a6d4     libucrt:nlsdata.obj
 0002:000076d8       ??_C@_03ODNJBKGA@Mar?$AA@  0043a6d8     libucrt:nlsdata.obj
 0002:000076dc       ??_C@_03LEOLGMJP@Apr?$AA@  0043a6dc     libucrt:nlsdata.obj
 0002:000076e0       ??_C@_03CNMDKL@May?$AA@    0043a6e0     libucrt:nlsdata.obj
 0002:000076e4       ??_C@_03IDFGHECI@Jun?$AA@  0043a6e4     libucrt:nlsdata.obj
 0002:000076e8       ??_C@_03LBGABGKK@Jul?$AA@  0043a6e8     libucrt:nlsdata.obj
 0002:000076ec       ??_C@_03IFJFEIGA@Aug?$AA@  0043a6ec     libucrt:nlsdata.obj
 0002:000076f0       ??_C@_03GGCAPAJC@Sep?$AA@  0043a6f0     libucrt:nlsdata.obj
 0002:000076f4       ??_C@_03BMAOKBAD@Oct?$AA@  0043a6f4     libucrt:nlsdata.obj
 0002:000076f8       ??_C@_03JPJOFNIA@Nov?$AA@  0043a6f8     libucrt:nlsdata.obj
 0002:000076fc       ??_C@_03MKABNOCG@Dec?$AA@  0043a6fc     libucrt:nlsdata.obj
 0002:00007700       ??_C@_07CGJPFGJA@January?$AA@ 0043a700     libucrt:nlsdata.obj
 0002:00007708       ??_C@_08GNJGEPFN@February?$AA@ 0043a708     libucrt:nlsdata.obj
 0002:00007714       ??_C@_05HPCKOFNC@March?$AA@ 0043a714     libucrt:nlsdata.obj
 0002:0000771c       ??_C@_05DMJDNLEJ@April?$AA@ 0043a71c     libucrt:nlsdata.obj
 0002:00007724       ??_C@_04CNLMGBGM@June?$AA@ 0043a724     libucrt:nlsdata.obj
 0002:0000772c       ??_C@_04MIEPOIFP@July?$AA@ 0043a72c     libucrt:nlsdata.obj
 0002:00007734       ??_C@_06LBBHFDDG@August?$AA@ 0043a734     libucrt:nlsdata.obj
 0002:0000773c       ??_C@_09BHHEALKD@September?$AA@ 0043a73c     libucrt:nlsdata.obj
 0002:00007748       ??_C@_07JJNFCEND@October?$AA@ 0043a748     libucrt:nlsdata.obj
 0002:00007750       ??_C@_08HCHEGEOA@November?$AA@ 0043a750     libucrt:nlsdata.obj
 0002:0000775c       ??_C@_08EDHMEBNP@December?$AA@ 0043a75c     libucrt:nlsdata.obj
 0002:00007768       ??_C@_02DEDBPAFC@AM?$AA@   0043a768     libucrt:nlsdata.obj
 0002:0000776c       ??_C@_02CJNFDJBF@PM?$AA@   0043a76c     libucrt:nlsdata.obj
 0002:00007770       ??_C@_08BPBNCDIB@MM?1dd?1yy?$AA@ 0043a770     libucrt:nlsdata.obj
 0002:0000777c       ??_C@_0BE@CKGJFCPC@dddd?0?5MMMM?5dd?0?5yyyy?$AA@ 0043a77c     libucrt:nlsdata.obj
 0002:00007790       ??_C@_08JCCMCCIL@HH?3mm?3ss?$AA@ 0043a790     libucrt:nlsdata.obj
 0002:0000779c       ??_C@_17MBGCMIPB@?$AAS?$AAu?$AAn?$AA?$AA@ 0043a79c     libucrt:nlsdata.obj
 0002:000077a4       ??_C@_17KBOMKBF@?$AAM?$AAo?$AAn?$AA?$AA@ 0043a7a4     libucrt:nlsdata.obj
 0002:000077ac       ??_C@_17BMKGEGOJ@?$AAT?$AAu?$AAe?$AA?$AA@ 0043a7ac     libucrt:nlsdata.obj
 0002:000077b4       ??_C@_17CJEDCEPE@?$AAW?$AAe?$AAd?$AA?$AA@ 0043a7b4     libucrt:nlsdata.obj
 0002:000077bc       ??_C@_17PDPHAADD@?$AAT?$AAh?$AAu?$AA?$AA@ 0043a7bc     libucrt:nlsdata.obj
 0002:000077c4       ??_C@_17HFOLPPLP@?$AAF?$AAr?$AAi?$AA?$AA@ 0043a7c4     libucrt:nlsdata.obj
 0002:000077cc       ??_C@_17GGIBDPIH@?$AAS?$AAa?$AAt?$AA?$AA@ 0043a7cc     libucrt:nlsdata.obj
 0002:000077d4       ??_C@_1O@IHNHDHPB@?$AAS?$AAu?$AAn?$AAd?$AAa?$AAy?$AA?$AA@ 0043a7d4     libucrt:nlsdata.obj
 0002:000077e4       ??_C@_1O@MMNBFLIA@?$AAM?$AAo?$AAn?$AAd?$AAa?$AAy?$AA?$AA@ 0043a7e4     libucrt:nlsdata.obj
 0002:000077f4       ??_C@_1BA@ENFBFFEK@?$AAT?$AAu?$AAe?$AAs?$AAd?$AAa?$AAy?$AA?$AA@ 0043a7f4     libucrt:nlsdata.obj
 0002:00007804       ??_C@_1BE@EBOGMDOH@?$AAW?$AAe?$AAd?$AAn?$AAe?$AAs?$AAd?$AAa?$AAy?$AA?$AA@ 0043a804     libucrt:nlsdata.obj
 0002:00007818       ??_C@_1BC@HHMNLIHE@?$AAT?$AAh?$AAu?$AAr?$AAs?$AAd?$AAa?$AAy?$AA?$AA@ 0043a818     libucrt:nlsdata.obj
 0002:0000782c       ??_C@_1O@PDICJHAG@?$AAF?$AAr?$AAi?$AAd?$AAa?$AAy?$AA?$AA@ 0043a82c     libucrt:nlsdata.obj
 0002:0000783c       ??_C@_1BC@ENMNNPAJ@?$AAS?$AAa?$AAt?$AAu?$AAr?$AAd?$AAa?$AAy?$AA?$AA@ 0043a83c     libucrt:nlsdata.obj
 0002:00007850       ??_C@_17DKNBKCHM@?$AAJ?$AAa?$AAn?$AA?$AA@ 0043a850     libucrt:nlsdata.obj
 0002:00007858       ??_C@_17LMDJEKJN@?$AAF?$AAe?$AAb?$AA?$AA@ 0043a858     libucrt:nlsdata.obj
 0002:00007860       ??_C@_17CKNLEDEC@?$AAM?$AAa?$AAr?$AA?$AA@ 0043a860     libucrt:nlsdata.obj
 0002:00007868       ??_C@_17LFPOIHDD@?$AAA?$AAp?$AAr?$AA?$AA@ 0043a868     libucrt:nlsdata.obj
 0002:00007870       ??_C@_17PNNKMEED@?$AAM?$AAa?$AAy?$AA?$AA@ 0043a870     libucrt:nlsdata.obj
 0002:00007878       ??_C@_17KCJGOCPB@?$AAJ?$AAu?$AAn?$AA?$AA@ 0043a878     libucrt:nlsdata.obj
 0002:00007880       ??_C@_17IJPCKHK@?$AAJ?$AAu?$AAl?$AA?$AA@ 0043a880     libucrt:nlsdata.obj
 0002:00007888       ??_C@_17ICPELBCN@?$AAA?$AAu?$AAg?$AA?$AA@ 0043a888     libucrt:nlsdata.obj
 0002:00007890       ??_C@_17HCHCOKMG@?$AAS?$AAe?$AAp?$AA?$AA@ 0043a890     libucrt:nlsdata.obj
 0002:00007898       ??_C@_17FNLKOI@?$AAO?$AAc?$AAt?$AA?$AA@ 0043a898     libucrt:nlsdata.obj
 0002:000078a0       ??_C@_17BBDMLCIG@?$AAN?$AAo?$AAv?$AA?$AA@ 0043a8a0     libucrt:nlsdata.obj
 0002:000078a8       ??_C@_17EGKACKIF@?$AAD?$AAe?$AAc?$AA?$AA@ 0043a8a8     libucrt:nlsdata.obj
 0002:000078b0       ??_C@_1BA@EFMEIEBA@?$AAJ?$AAa?$AAn?$AAu?$AAa?$AAr?$AAy?$AA?$AA@ 0043a8b0     libucrt:nlsdata.obj
 0002:000078c0       ??_C@_1BC@JGDDFFAM@?$AAF?$AAe?$AAb?$AAr?$AAu?$AAa?$AAr?$AAy?$AA?$AA@ 0043a8c0     libucrt:nlsdata.obj
 0002:000078d4       ??_C@_1M@IKEENEDF@?$AAM?$AAa?$AAr?$AAc?$AAh?$AA?$AA@ 0043a8d4     libucrt:nlsdata.obj
 0002:000078e0       ??_C@_1M@GJNLMHFD@?$AAA?$AAp?$AAr?$AAi?$AAl?$AA?$AA@ 0043a8e0     libucrt:nlsdata.obj
 0002:000078ec       ??_C@_19EPFLPGAP@?$AAJ?$AAu?$AAn?$AAe?$AA?$AA@ 0043a8ec     libucrt:nlsdata.obj
 0002:000078f8       ??_C@_19BIFMLPCD@?$AAJ?$AAu?$AAl?$AAy?$AA?$AA@ 0043a8f8     libucrt:nlsdata.obj
 0002:00007904       ??_C@_1O@PAHLKOAC@?$AAA?$AAu?$AAg?$AAu?$AAs?$AAt?$AA?$AA@ 0043a904     libucrt:nlsdata.obj
 0002:00007914       ??_C@_1BE@DKAAMBJL@?$AAS?$AAe?$AAp?$AAt?$AAe?$AAm?$AAb?$AAe?$AAr?$AA?$AA@ 0043a914     libucrt:nlsdata.obj
 0002:00007928       ??_C@_1BA@EPANDLNG@?$AAO?$AAc?$AAt?$AAo?$AAb?$AAe?$AAr?$AA?$AA@ 0043a928     libucrt:nlsdata.obj
 0002:00007938       ??_C@_1BC@BGLIFPF@?$AAN?$AAo?$AAv?$AAe?$AAm?$AAb?$AAe?$AAr?$AA?$AA@ 0043a938     libucrt:nlsdata.obj
 0002:0000794c       ??_C@_1BC@FEMKIFH@?$AAD?$AAe?$AAc?$AAe?$AAm?$AAb?$AAe?$AAr?$AA?$AA@ 0043a94c     libucrt:nlsdata.obj
 0002:00007960       ??_C@_15ODEHAHHF@?$AAA?$AAM?$AA?$AA@ 0043a960     libucrt:nlsdata.obj
 0002:00007968       ??_C@_15CLMNNGEL@?$AAP?$AAM?$AA?$AA@ 0043a968     libucrt:nlsdata.obj
 0002:00007970       ??_C@_1BC@IEBCMHCM@?$AAM?$AAM?$AA?1?$AAd?$AAd?$AA?1?$AAy?$AAy?$AA?$AA@ 0043a970     libucrt:nlsdata.obj
 0002:00007984       ??_C@_1CI@KNAKOEBC@?$AAd?$AAd?$AAd?$AAd?$AA?0?$AA?5?$AAM?$AAM?$AAM?$AAM?$AA?5?$AAd?$AAd?$AA?0?$AA?5?$AAy?$AAy?$AAy?$AAy?$AA?$AA@ 0043a984     libucrt:nlsdata.obj
 0002:000079ac       ??_C@_1BC@GDGBMEMK@?$AAH?$AAH?$AA?3?$AAm?$AAm?$AA?3?$AAs?$AAs?$AA?$AA@ 0043a9ac     libucrt:nlsdata.obj
 0002:000079c0       ??_C@_1M@BMHNFIME@?$AAe?$AAn?$AA?9?$AAU?$AAS?$AA?$AA@ 0043a9c0     libucrt:nlsdata.obj
 0002:000079d0       ___lc_time_c               0043a9d0     libucrt:nlsdata.obj
 0002:00007b88       ??_C@_1EG@CNNIPFIM@?$AAa?$AAp?$AAi?$AA?9?$AAm?$AAs?$AA?9?$AAw?$AAi?$AAn?$AA?9?$AAa?$AAp?$AAp?$AAm?$AAo?$AAd?$AAe?$AAl?$AA?9?$AAr?$AAu?$AAn?$AAt?$AAi?$AAm?$AAe?$AA?9?$AAl?$AA1?$AA?9?$AA1@ 0043ab88     libucrt:winapi_thunks.obj
 0002:00007bd0       ??_C@_1EA@JGEFHKEI@?$AAa?$AAp?$AAi?$AA?9?$AAm?$AAs?$AA?9?$AAw?$AAi?$AAn?$AA?9?$AAc?$AAo?$AAr?$AAe?$AA?9?$AAd?$AAa?$AAt?$AAe?$AAt?$AAi?$AAm?$AAe?$AA?9?$AAl?$AA1?$AA?9?$AA1?$AA?9?$AA1?$AA?$AA@ 0043abd0     libucrt:winapi_thunks.obj
 0002:00007c10       ??_C@_1DI@GCIAAENM@?$AAa?$AAp?$AAi?$AA?9?$AAm?$AAs?$AA?9?$AAw?$AAi?$AAn?$AA?9?$AAc?$AAo?$AAr?$AAe?$AA?9?$AAf?$AAi?$AAl?$AAe?$AA?9?$AAl?$AA2?$AA?9?$AA1?$AA?9?$AA1?$AA?$AA@ 0043ac10     libucrt:winapi_thunks.obj
 0002:00007c48       ??_C@_1EI@MPIAOHOC@?$AAa?$AAp?$AAi?$AA?9?$AAm?$AAs?$AA?9?$AAw?$AAi?$AAn?$AA?9?$AAc?$AAo?$AAr?$AAe?$AA?9?$AAl?$AAo?$AAc?$AAa?$AAl?$AAi?$AAz?$AAa?$AAt?$AAi?$AAo?$AAn?$AA?9?$AAl?$AA1?$AA?9@ 0043ac48     libucrt:winapi_thunks.obj
 0002:00007c90       ??_C@_1FK@FPHCKFIE@?$AAa?$AAp?$AAi?$AA?9?$AAm?$AAs?$AA?9?$AAw?$AAi?$AAn?$AA?9?$AAc?$AAo?$AAr?$AAe?$AA?9?$AAl?$AAo?$AAc?$AAa?$AAl?$AAi?$AAz?$AAa?$AAt?$AAi?$AAo?$AAn?$AA?9?$AAo?$AAb?$AAs@ 0043ac90     libucrt:winapi_thunks.obj
 0002:00007cf0       ??_C@_1EM@DILCGIIO@?$AAa?$AAp?$AAi?$AA?9?$AAm?$AAs?$AA?9?$AAw?$AAi?$AAn?$AA?9?$AAc?$AAo?$AAr?$AAe?$AA?9?$AAp?$AAr?$AAo?$AAc?$AAe?$AAs?$AAs?$AAt?$AAh?$AAr?$AAe?$AAa?$AAd?$AAs?$AA?9?$AAl@ 0043acf0     libucrt:winapi_thunks.obj
 0002:00007d3c       ??_C@_1DM@LNCGDDPN@?$AAa?$AAp?$AAi?$AA?9?$AAm?$AAs?$AA?9?$AAw?$AAi?$AAn?$AA?9?$AAc?$AAo?$AAr?$AAe?$AA?9?$AAs?$AAt?$AAr?$AAi?$AAn?$AAg?$AA?9?$AAl?$AA1?$AA?9?$AA1?$AA?9?$AA0?$AA?$AA@ 0043ad3c     libucrt:winapi_thunks.obj
 0002:00007d78       ??_C@_1DO@FPAPJEMD@?$AAa?$AAp?$AAi?$AA?9?$AAm?$AAs?$AA?9?$AAw?$AAi?$AAn?$AA?9?$AAc?$AAo?$AAr?$AAe?$AA?9?$AAs?$AAy?$AAs?$AAi?$AAn?$AAf?$AAo?$AA?9?$AAl?$AA1?$AA?9?$AA2?$AA?9?$AA1?$AA?$AA@ 0043ad78     libucrt:winapi_thunks.obj
 0002:00007db8       ??_C@_1DK@NDHNAHIO@?$AAa?$AAp?$AAi?$AA?9?$AAm?$AAs?$AA?9?$AAw?$AAi?$AAn?$AA?9?$AAc?$AAo?$AAr?$AAe?$AA?9?$AAw?$AAi?$AAn?$AAr?$AAt?$AA?9?$AAl?$AA1?$AA?9?$AA1?$AA?9?$AA0?$AA?$AA@ 0043adb8     libucrt:winapi_thunks.obj
 0002:00007df4       ??_C@_1DM@KGHDGBCM@?$AAa?$AAp?$AAi?$AA?9?$AAm?$AAs?$AA?9?$AAw?$AAi?$AAn?$AA?9?$AAc?$AAo?$AAr?$AAe?$AA?9?$AAx?$AAs?$AAt?$AAa?$AAt?$AAe?$AA?9?$AAl?$AA2?$AA?9?$AA1?$AA?9?$AA0?$AA?$AA@ 0043adf4     libucrt:winapi_thunks.obj
 0002:00007e30       ??_C@_1EO@IJIOEFOH@?$AAa?$AAp?$AAi?$AA?9?$AAm?$AAs?$AA?9?$AAw?$AAi?$AAn?$AA?9?$AAr?$AAt?$AAc?$AAo?$AAr?$AAe?$AA?9?$AAn?$AAt?$AAu?$AAs?$AAe?$AAr?$AA?9?$AAw?$AAi?$AAn?$AAd?$AAo?$AAw?$AA?9@ 0043ae30     libucrt:winapi_thunks.obj
 0002:00007e80       ??_C@_1FG@HHGEKANL@?$AAa?$AAp?$AAi?$AA?9?$AAm?$AAs?$AA?9?$AAw?$AAi?$AAn?$AA?9?$AAs?$AAe?$AAc?$AAu?$AAr?$AAi?$AAt?$AAy?$AA?9?$AAs?$AAy?$AAs?$AAt?$AAe?$AAm?$AAf?$AAu?$AAn?$AAc?$AAt?$AAi@ 0043ae80     libucrt:winapi_thunks.obj
 0002:00007ed8       ??_C@_1FG@NCKKOLKO@?$AAe?$AAx?$AAt?$AA?9?$AAm?$AAs?$AA?9?$AAw?$AAi?$AAn?$AA?9?$AAk?$AAe?$AAr?$AAn?$AAe?$AAl?$AA3?$AA2?$AA?9?$AAp?$AAa?$AAc?$AAk?$AAa?$AAg?$AAe?$AA?9?$AAc?$AAu?$AAr?$AAr@ 0043aed8     libucrt:winapi_thunks.obj
 0002:00007f30       ??_C@_1EG@DBIOJECG@?$AAe?$AAx?$AAt?$AA?9?$AAm?$AAs?$AA?9?$AAw?$AAi?$AAn?$AA?9?$AAn?$AAt?$AAu?$AAs?$AAe?$AAr?$AA?9?$AAd?$AAi?$AAa?$AAl?$AAo?$AAg?$AAb?$AAo?$AAx?$AA?9?$AAl?$AA1?$AA?9?$AA1@ 0043af30     libucrt:winapi_thunks.obj
 0002:00007f78       ??_C@_1EO@FIHMJCLF@?$AAe?$AAx?$AAt?$AA?9?$AAm?$AAs?$AA?9?$AAw?$AAi?$AAn?$AA?9?$AAn?$AAt?$AAu?$AAs?$AAe?$AAr?$AA?9?$AAw?$AAi?$AAn?$AAd?$AAo?$AAw?$AAs?$AAt?$AAa?$AAt?$AAi?$AAo?$AAn?$AA?9@ 0043af78     libucrt:winapi_thunks.obj
 0002:00007fc8       ??_C@_1O@BCCLBEOE@?$AAu?$AAs?$AAe?$AAr?$AA3?$AA2?$AA?$AA@ 0043afc8     libucrt:winapi_thunks.obj
 0002:00007fdc       ??_C@_0BA@FHFNEAED@AreFileApisANSI?$AA@ 0043afdc     libucrt:winapi_thunks.obj
 0002:00007ff4       ??_C@_0BA@IHGNDAEB@CompareStringEx?$AA@ 0043aff4     libucrt:winapi_thunks.obj
 0002:0000802c       ??_C@_0BA@HNOPNCHB@GetActiveWindow?$AA@ 0043b02c     libucrt:winapi_thunks.obj
 0002:00008044       ??_C@_0BE@JOGNEJCI@GetCurrentPackageId?$AA@ 0043b044     libucrt:winapi_thunks.obj
 0002:00008060       ??_C@_0BD@HHGDFDBJ@GetLastActivePopup?$AA@ 0043b060     libucrt:winapi_thunks.obj
 0002:0000807c       ??_C@_0BI@DFKBFLJE@GetProcessWindowStation?$AA@ 0043b07c     libucrt:winapi_thunks.obj
 0002:0000809c       ??_C@_0BK@DEKFELLI@GetUserObjectInformationW?$AA@ 0043b09c     libucrt:winapi_thunks.obj
 0002:000080c8       ??_C@_0O@KKBNKAPF@LCMapStringEx?$AA@ 0043b0c8     libucrt:winapi_thunks.obj
 0002:000080e0       ??_C@_0BB@HBDEELFH@LocaleNameToLCID?$AA@ 0043b0e0     libucrt:winapi_thunks.obj
 0002:000080fc       ??_C@_0M@CHKKJDAI@MessageBoxA?$AA@ 0043b0fc     libucrt:winapi_thunks.obj
 0002:00008110       ??_C@_0M@DLDCCGNP@MessageBoxW?$AA@ 0043b110     libucrt:winapi_thunks.obj
 0002:0000811c       ?ccs@?BL@???$__acrt_stdio_parse_mode@D@@YA?AU__acrt_stdio_stream_mode@@QBD@Z@4QBDB 0043b11c     libucrt:openfile.obj
 0002:00008120       ?utf8_encoding@?BL@???$__acrt_stdio_parse_mode@D@@YA?AU__acrt_stdio_stream_mode@@QBD@Z@4QBDB 0043b120     libucrt:openfile.obj
 0002:00008128       ?utf16_encoding@?BL@???$__acrt_stdio_parse_mode@D@@YA?AU__acrt_stdio_stream_mode@@QBD@Z@4QBDB 0043b128     libucrt:openfile.obj
 0002:00008130       ?unicode_encoding@?BL@???$__acrt_stdio_parse_mode@D@@YA?AU__acrt_stdio_stream_mode@@QBD@Z@4QBDB 0043b130     libucrt:openfile.obj
 0002:00008138       __wctype                   0043b138     libucrt:ctype.obj
 0002:00008340       ___newctype                0043b340     libucrt:ctype.obj
 0002:00008640       ___newclmap                0043b640     libucrt:ctype.obj
 0002:000087c0       ___newcumap                0043b7c0     libucrt:ctype.obj
 0002:00008940       __sys_errlist              0043b940     libucrt:syserr.obj
 0002:000089f0       ??_C@_08INEPGKHH@No?5error?$AA@ 0043b9f0     libucrt:syserr.obj
 0002:000089fc       ??_C@_0BI@BJFCGOHL@Operation?5not?5permitted?$AA@ 0043b9fc     libucrt:syserr.obj
 0002:00008a14       ??_C@_0BK@FMDHKPNF@No?5such?5file?5or?5directory?$AA@ 0043ba14     libucrt:syserr.obj
 0002:00008a30       ??_C@_0BA@FKIAIBGA@No?5such?5process?$AA@ 0043ba30     libucrt:syserr.obj
 0002:00008a40       ??_C@_0BK@FJBOAFDK@Interrupted?5function?5call?$AA@ 0043ba40     libucrt:syserr.obj
 0002:00008a5c       ??_C@_0BD@KKNFOBBD@Input?1output?5error?$AA@ 0043ba5c     libucrt:syserr.obj
 0002:00008a70       ??_C@_0BK@DPKMCKJ@No?5such?5device?5or?5address?$AA@ 0043ba70     libucrt:syserr.obj
 0002:00008a8c       ??_C@_0BC@MFFGCDFL@Arg?5list?5too?5long?$AA@ 0043ba8c     libucrt:syserr.obj
 0002:00008aa0       ??_C@_0BC@HKPNECK@Exec?5format?5error?$AA@ 0043baa0     libucrt:syserr.obj
 0002:00008ab4       ??_C@_0BE@NFGDDCEF@Bad?5file?5descriptor?$AA@ 0043bab4     libucrt:syserr.obj
 0002:00008ac8       ??_C@_0BD@LOHELEP@No?5child?5processes?$AA@ 0043bac8     libucrt:syserr.obj
 0002:00008adc       ??_C@_0CB@EPFKGNAK@Resource?5temporarily?5unavailable@ 0043badc     libucrt:syserr.obj
 0002:00008b00       ??_C@_0BB@IMDKMPFB@Not?5enough?5space?$AA@ 0043bb00     libucrt:syserr.obj
 0002:00008b14       ??_C@_0BC@HFNFNKAI@Permission?5denied?$AA@ 0043bb14     libucrt:syserr.obj
 0002:00008b28       ??_C@_0M@LOEHLCJD@Bad?5address?$AA@ 0043bb28     libucrt:syserr.obj
 0002:00008b34       ??_C@_0O@NIPGCINC@Unknown?5error?$AA@ 0043bb34     libucrt:syserr.obj
 0002:00008b44       ??_C@_0BA@BIBLIOEK@Resource?5device?$AA@ 0043bb44     libucrt:syserr.obj
 0002:00008b54       ??_C@_0M@NAAJNNGH@File?5exists?$AA@ 0043bb54     libucrt:syserr.obj
 0002:00008b60       ??_C@_0O@OAMDNOCP@Improper?5link?$AA@ 0043bb60     libucrt:syserr.obj
 0002:00008b70       ??_C@_0P@NLEIANHE@No?5such?5device?$AA@ 0043bb70     libucrt:syserr.obj
 0002:00008b80       ??_C@_0BA@CJBACOOL@Not?5a?5directory?$AA@ 0043bb80     libucrt:syserr.obj
 0002:00008b90       ??_C@_0P@NDHGCGKE@Is?5a?5directory?$AA@ 0043bb90     libucrt:syserr.obj
 0002:00008ba0       ??_C@_0BB@HMGGCEBG@Invalid?5argument?$AA@ 0043bba0     libucrt:syserr.obj
 0002:00008bb4       ??_C@_0BO@IIFBODJE@Too?5many?5open?5files?5in?5system?$AA@ 0043bbb4     libucrt:syserr.obj
 0002:00008bd4       ??_C@_0BE@INBJMKGG@Too?5many?5open?5files?$AA@ 0043bbd4     libucrt:syserr.obj
 0002:00008be8       ??_C@_0CE@ONOKNLPF@Inappropriate?5I?1O?5control?5operat@ 0043bbe8     libucrt:syserr.obj
 0002:00008c0c       ??_C@_0P@LFMMIPAE@File?5too?5large?$AA@ 0043bc0c     libucrt:syserr.obj
 0002:00008c1c       ??_C@_0BI@FEALHKLD@No?5space?5left?5on?5device?$AA@ 0043bc1c     libucrt:syserr.obj
 0002:00008c34       ??_C@_0N@FEHLOILP@Invalid?5seek?$AA@ 0043bc34     libucrt:syserr.obj
 0002:00008c44       ??_C@_0BG@DDBFNKBH@Read?9only?5file?5system?$AA@ 0043bc44     libucrt:syserr.obj
 0002:00008c5c       ??_C@_0P@PKCJJLLM@Too?5many?5links?$AA@ 0043bc5c     libucrt:syserr.obj
 0002:00008c6c       ??_C@_0M@LHEPIIOM@Broken?5pipe?$AA@ 0043bc6c     libucrt:syserr.obj
 0002:00008c78       ??_C@_0N@MMJPGLJK@Domain?5error?$AA@ 0043bc78     libucrt:syserr.obj
 0002:00008c88       ??_C@_0BB@FCBJFCAJ@Result?5too?5large?$AA@ 0043bc88     libucrt:syserr.obj
 0002:00008c9c       ??_C@_0BK@JAEBMJJM@Resource?5deadlock?5avoided?$AA@ 0043bc9c     libucrt:syserr.obj
 0002:00008cb8       ??_C@_0BC@BEDIHIDK@Filename?5too?5long?$AA@ 0043bcb8     libucrt:syserr.obj
 0002:00008ccc       ??_C@_0BD@CLHBCGPB@No?5locks?5available?$AA@ 0043bccc     libucrt:syserr.obj
 0002:00008ce0       ??_C@_0BJ@IHEHINLI@Function?5not?5implemented?$AA@ 0043bce0     libucrt:syserr.obj
 0002:00008cfc       ??_C@_0BE@ICMCHPHH@Directory?5not?5empty?$AA@ 0043bcfc     libucrt:syserr.obj
 0002:00008d10       ??_C@_0BG@KLEAJEFJ@Illegal?5byte?5sequence?$AA@ 0043bd10     libucrt:syserr.obj
 0002:00008d28       __sys_nerr                 0043bd28     libucrt:syserr.obj
 0002:00008d3c       ??_C@_1M@HPNHIDJI@?$AAj?$AAa?$AA?9?$AAJ?$AAP?$AA?$AA@ 0043bd3c     libucrt:mbctype.obj
 0002:00008d48       ??_C@_1M@BIBDDEMK@?$AAz?$AAh?$AA?9?$AAC?$AAN?$AA?$AA@ 0043bd48     libucrt:mbctype.obj
 0002:00008d54       ??_C@_1M@JLOOOEGK@?$AAk?$AAo?$AA?9?$AAK?$AAR?$AA?$AA@ 0043bd54     libucrt:mbctype.obj
 0002:00008d60       ??_C@_1M@CLNBBOPM@?$AAz?$AAh?$AA?9?$AAT?$AAW?$AA?$AA@ 0043bd60     libucrt:mbctype.obj
 0002:00008d6c       ??_C@_15PJPFLCCM@?$AAu?$AAk?$AA?$AA@ 0043bd6c     libucrt:get_qualified_locale.obj
 0002:00008d78       ?large_power_data@?1??multiply_by_power_of_ten@__crt_strtox@@YA_NAAUbig_integer@2@I@Z@4QBIB 0043bd78     libucrt:cfout.obj
 0002:00009680       ?large_power_indices@?1??multiply_by_power_of_ten@__crt_strtox@@YA_NAAUbig_integer@2@I@Z@4QBUunpack_index@?1??12@YA_N0I@Z@B 0043c680     libucrt:cfout.obj
 0002:00009718       ?small_powers_of_ten@?6??multiply_by_power_of_ten@__crt_strtox@@YA_NAAUbig_integer@2@I@Z@4QBIB 0043c718     libucrt:cfout.obj
 0002:0000973c       ??_C@_01GBGANLPD@0?$AA@    0043c73c     libucrt:cfout.obj
 0002:00009740       ??_C@_05DNEBIAHO@1?$CDINF?$AA@ 0043c740     libucrt:cfout.obj
 0002:00009748       ??_C@_06IMKFLFPG@1?$CDQNAN?$AA@ 0043c748     libucrt:cfout.obj
 0002:00009750       ??_C@_06PGGFOGJG@1?$CDSNAN?$AA@ 0043c750     libucrt:cfout.obj
 0002:00009758       ??_C@_05PHHOCPM@1?$CDIND?$AA@ 0043c758     libucrt:cfout.obj
 0002:00009e80       ??_C@_15EMKDOKLE@?$AAa?$AAr?$AA?$AA@ 0043ce80     libucrt:lcidtoname_downlevel.obj
 0002:00009e88       ??_C@_15KNPADPLH@?$AAb?$AAg?$AA?$AA@ 0043ce88     libucrt:lcidtoname_downlevel.obj
 0002:00009e90       ??_C@_15EDMHLDMO@?$AAc?$AAa?$AA?$AA@ 0043ce90     libucrt:lcidtoname_downlevel.obj
 0002:00009e98       ??_C@_1O@BPEAJADD@?$AAz?$AAh?$AA?9?$AAC?$AAH?$AAS?$AA?$AA@ 0043ce98     libucrt:lcidtoname_downlevel.obj
 0002:00009ea8       ??_C@_15LJNHCMNK@?$AAc?$AAs?$AA?$AA@ 0043cea8     libucrt:lcidtoname_downlevel.obj
 0002:00009eb0       ??_C@_15FOMCIDHG@?$AAd?$AAa?$AA?$AA@ 0043ceb0     libucrt:lcidtoname_downlevel.obj
 0002:00009eb8       ??_C@_15NBKABECB@?$AAd?$AAe?$AA?$AA@ 0043ceb8     libucrt:lcidtoname_downlevel.obj
 0002:00009ec0       ??_C@_15GHPEIIAO@?$AAe?$AAl?$AA?$AA@ 0043cec0     libucrt:lcidtoname_downlevel.obj
 0002:00009ec8       ??_C@_15MNPNEAIF@?$AAe?$AAn?$AA?$AA@ 0043cec8     libucrt:lcidtoname_downlevel.obj
 0002:00009ed0       ??_C@_15GPIOMPMH@?$AAe?$AAs?$AA?$AA@ 0043ced0     libucrt:lcidtoname_downlevel.obj
 0002:00009ed8       ??_C@_15NGLOAKJC@?$AAf?$AAi?$AA?$AA@ 0043ced8     libucrt:lcidtoname_downlevel.obj
 0002:00009ee0       ??_C@_15FBKGNKAM@?$AAf?$AAr?$AA?$AA@ 0043cee0     libucrt:lcidtoname_downlevel.obj
 0002:00009ee8       ??_C@_15KGGCNEFK@?$AAh?$AAe?$AA?$AA@ 0043cee8     libucrt:lcidtoname_downlevel.obj
 0002:00009ef0       ??_C@_15PGHLIDMF@?$AAh?$AAu?$AA?$AA@ 0043cef0     libucrt:lcidtoname_downlevel.obj
 0002:00009ef8       ??_C@_15BIEMAPLM@?$AAi?$AAs?$AA?$AA@ 0043cef8     libucrt:lcidtoname_downlevel.obj
 0002:00009f00       ??_C@_15IFJLDHAF@?$AAi?$AAt?$AA?$AA@ 0043cf00     libucrt:lcidtoname_downlevel.obj
 0002:00009f08       ??_C@_15GEMIOCAG@?$AAj?$AAa?$AA?$AA@ 0043cf08     libucrt:lcidtoname_downlevel.obj
 0002:00009f10       ??_C@_15EPELEGJA@?$AAk?$AAo?$AA?$AA@ 0043cf10     libucrt:lcidtoname_downlevel.obj
 0002:00009f18       ??_C@_15NDDHIMN@?$AAn?$AAl?$AA?$AA@ 0043cf18     libucrt:lcidtoname_downlevel.obj
 0002:00009f20       ??_C@_15BPIGNHCD@?$AAn?$AAo?$AA?$AA@ 0043cf20     libucrt:lcidtoname_downlevel.obj
 0002:00009f28       ??_C@_15DEOPBLCG@?$AAp?$AAl?$AA?$AA@ 0043cf28     libucrt:lcidtoname_downlevel.obj
 0002:00009f30       ??_C@_15KBECGEFG@?$AAp?$AAt?$AA?$AA@ 0043cf30     libucrt:lcidtoname_downlevel.obj
 0002:00009f38       ??_C@_15GLJCBFMD@?$AAr?$AAo?$AA?$AA@ 0043cf38     libucrt:lcidtoname_downlevel.obj
 0002:00009f40       ??_C@_15FEDGKCDI@?$AAr?$AAu?$AA?$AA@ 0043cf40     libucrt:lcidtoname_downlevel.obj
 0002:00009f48       ??_C@_15GLKMLLHM@?$AAh?$AAr?$AA?$AA@ 0043cf48     libucrt:lcidtoname_downlevel.obj
 0002:00009f50       ??_C@_15CPKMFBDB@?$AAs?$AAk?$AA?$AA@ 0043cf50     libucrt:lcidtoname_downlevel.obj
 0002:00009f58       ??_C@_15BAAIOGMK@?$AAs?$AAq?$AA?$AA@ 0043cf58     libucrt:lcidtoname_downlevel.obj
 0002:00009f60       ??_C@_15INNPNOHD@?$AAs?$AAv?$AA?$AA@ 0043cf60     libucrt:lcidtoname_downlevel.obj
 0002:00009f68       ??_C@_15CABMMOGH@?$AAt?$AAh?$AA?$AA@ 0043cf68     libucrt:lcidtoname_downlevel.obj
 0002:00009f70       ??_C@_15BPLIHJJM@?$AAt?$AAr?$AA?$AA@ 0043cf70     libucrt:lcidtoname_downlevel.obj
 0002:00009f78       ??_C@_15NEOEKKDJ@?$AAu?$AAr?$AA?$AA@ 0043cf78     libucrt:lcidtoname_downlevel.obj
 0002:00009f80       ??_C@_15NFICGAJK@?$AAi?$AAd?$AA?$AA@ 0043cf80     libucrt:lcidtoname_downlevel.obj
 0002:00009f88       ??_C@_15HPJPHDM@?$AAb?$AAe?$AA?$AA@ 0043cf88     libucrt:lcidtoname_downlevel.obj
 0002:00009f90       ??_C@_15LCHLGJII@?$AAs?$AAl?$AA?$AA@ 0043cf90     libucrt:lcidtoname_downlevel.obj
 0002:00009f98       ??_C@_15PCFJPHHO@?$AAe?$AAt?$AA?$AA@ 0043cf98     libucrt:lcidtoname_downlevel.obj
 0002:00009fa0       ??_C@_15HPFPGODN@?$AAl?$AAv?$AA?$AA@ 0043cfa0     libucrt:lcidtoname_downlevel.obj
 0002:00009fa8       ??_C@_15NFFGKGLG@?$AAl?$AAt?$AA?$AA@ 0043cfa8     libucrt:lcidtoname_downlevel.obj
 0002:00009fb0       ??_C@_15BDAKCCHN@?$AAf?$AAa?$AA?$AA@ 0043cfb0     libucrt:lcidtoname_downlevel.obj
 0002:00009fb8       ??_C@_15NFGIAIAJ@?$AAv?$AAi?$AA?$AA@ 0043cfb8     libucrt:lcidtoname_downlevel.obj
 0002:00009fc0       ??_C@_15LMKNDMHN@?$AAh?$AAy?$AA?$AA@ 0043cfc0     libucrt:lcidtoname_downlevel.obj
 0002:00009fc8       ??_C@_15IJBHMCFL@?$AAa?$AAz?$AA?$AA@ 0043cfc8     libucrt:lcidtoname_downlevel.obj
 0002:00009fd0       ??_C@_15EKOFJABL@?$AAe?$AAu?$AA?$AA@ 0043cfd0     libucrt:lcidtoname_downlevel.obj
 0002:00009fd8       ??_C@_15BGHADCNK@?$AAm?$AAk?$AA?$AA@ 0043cfd8     libucrt:lcidtoname_downlevel.obj
 0002:00009fe0       ??_C@_15JDNICKHM@?$AAa?$AAf?$AA?$AA@ 0043cfe0     libucrt:lcidtoname_downlevel.obj
 0002:00009fe8       ??_C@_15KPJEDBKD@?$AAk?$AAa?$AA?$AA@ 0043cfe8     libucrt:lcidtoname_downlevel.obj
 0002:00009ff0       ??_C@_15PDNFFFEO@?$AAf?$AAo?$AA?$AA@ 0043cff0     libucrt:lcidtoname_downlevel.obj
 0002:00009ff8       ??_C@_15OMLEGLOC@?$AAh?$AAi?$AA?$AA@ 0043cff8     libucrt:lcidtoname_downlevel.obj
 0002:0000a000       ??_C@_15IDNNENKK@?$AAm?$AAs?$AA?$AA@ 0043d000     libucrt:lcidtoname_downlevel.obj
 0002:0000a008       ??_C@_15MACJNBMH@?$AAk?$AAk?$AA?$AA@ 0043d008     libucrt:lcidtoname_downlevel.obj
 0002:0000a010       ??_C@_15DKDJEOND@?$AAk?$AAy?$AA?$AA@ 0043d010     libucrt:lcidtoname_downlevel.obj
 0002:0000a018       ??_C@_15DFGDLJBG@?$AAs?$AAw?$AA?$AA@ 0043d018     libucrt:lcidtoname_downlevel.obj
 0002:0000a020       ??_C@_15BBFAICNG@?$AAu?$AAz?$AA?$AA@ 0043d020     libucrt:lcidtoname_downlevel.obj
 0002:0000a028       ??_C@_15DKNDCGEA@?$AAt?$AAt?$AA?$AA@ 0043d028     libucrt:lcidtoname_downlevel.obj
 0002:0000a030       ??_C@_15MGIFMDPL@?$AAp?$AAa?$AA?$AA@ 0043d030     libucrt:lcidtoname_downlevel.obj
 0002:0000a038       ??_C@_15HCNDBBA@?$AAg?$AAu?$AA?$AA@ 0043d038     libucrt:lcidtoname_downlevel.obj
 0002:0000a040       ??_C@_15FNBEIBON@?$AAt?$AAa?$AA?$AA@ 0043d040     libucrt:lcidtoname_downlevel.obj
 0002:0000a048       ??_C@_15NCHGBGLK@?$AAt?$AAe?$AA?$AA@ 0043d048     libucrt:lcidtoname_downlevel.obj
 0002:0000a050       ??_C@_15PHPHCBPF@?$AAk?$AAn?$AA?$AA@ 0043d050     libucrt:lcidtoname_downlevel.obj
 0002:0000a058       ??_C@_15DLGBCKMP@?$AAm?$AAr?$AA?$AA@ 0043d058     libucrt:lcidtoname_downlevel.obj
 0002:0000a060       ??_C@_15EABBLBFF@?$AAs?$AAa?$AA?$AA@ 0043d060     libucrt:lcidtoname_downlevel.obj
 0002:0000a068       ??_C@_15CBKOMCOI@?$AAm?$AAn?$AA?$AA@ 0043d068     libucrt:lcidtoname_downlevel.obj
 0002:0000a070       ??_C@_15CKDMCJAF@?$AAg?$AAl?$AA?$AA@ 0043d070     libucrt:lcidtoname_downlevel.obj
 0002:0000a078       ??_C@_17CNJFBPG@?$AAk?$AAo?$AAk?$AA?$AA@ 0043d078     libucrt:lcidtoname_downlevel.obj
 0002:0000a080       ??_C@_17FFBJICPL@?$AAs?$AAy?$AAr?$AA?$AA@ 0043d080     libucrt:lcidtoname_downlevel.obj
 0002:0000a088       ??_C@_17KPNDCPAF@?$AAd?$AAi?$AAv?$AA?$AA@ 0043d088     libucrt:lcidtoname_downlevel.obj
 0002:0000a090       ??_C@_11LOCGONAA@?$AA?$AA@ 0043d090     libucrt:lcidtoname_downlevel.obj
 0002:0000a094       ??_C@_1M@OKAHONE@?$AAa?$AAr?$AA?9?$AAS?$AAA?$AA?$AA@ 0043d094     libucrt:lcidtoname_downlevel.obj
 0002:0000a0a0       ??_C@_1M@FFFIGIGK@?$AAb?$AAg?$AA?9?$AAB?$AAG?$AA?$AA@ 0043d0a0     libucrt:lcidtoname_downlevel.obj
 0002:0000a0ac       ??_C@_1M@BJNKEDC@?$AAc?$AAa?$AA?9?$AAE?$AAS?$AA?$AA@ 0043d0ac     libucrt:lcidtoname_downlevel.obj
 0002:0000a0b8       ??_C@_1M@IJJHFJHA@?$AAc?$AAs?$AA?9?$AAC?$AAZ?$AA?$AA@ 0043d0b8     libucrt:lcidtoname_downlevel.obj
 0002:0000a0c4       ??_C@_1M@CLPEOBGI@?$AAd?$AAa?$AA?9?$AAD?$AAK?$AA?$AA@ 0043d0c4     libucrt:lcidtoname_downlevel.obj
 0002:0000a0d0       ??_C@_1M@MCMADGCB@?$AAd?$AAe?$AA?9?$AAD?$AAE?$AA?$AA@ 0043d0d0     libucrt:lcidtoname_downlevel.obj
 0002:0000a0dc       ??_C@_1M@OOCKEMAM@?$AAe?$AAl?$AA?9?$AAG?$AAR?$AA?$AA@ 0043d0dc     libucrt:lcidtoname_downlevel.obj
 0002:0000a0e8       ??_C@_1M@DDNJFGID@?$AAf?$AAi?$AA?9?$AAF?$AAI?$AA?$AA@ 0043d0e8     libucrt:lcidtoname_downlevel.obj
 0002:0000a0f4       ??_C@_1M@GLIPPMAC@?$AAf?$AAr?$AA?9?$AAF?$AAR?$AA?$AA@ 0043d0f4     libucrt:lcidtoname_downlevel.obj
 0002:0000a100       ??_C@_1M@GFMCHPE@?$AAh?$AAe?$AA?9?$AAI?$AAL?$AA?$AA@ 0043d100     libucrt:lcidtoname_downlevel.obj
 0002:0000a10c       ??_C@_1M@MHLPGNKM@?$AAh?$AAu?$AA?9?$AAH?$AAU?$AA?$AA@ 0043d10c     libucrt:lcidtoname_downlevel.obj
 0002:0000a118       ??_C@_1M@LPDDNNPN@?$AAi?$AAs?$AA?9?$AAI?$AAS?$AA?$AA@ 0043d118     libucrt:lcidtoname_downlevel.obj
 0002:0000a124       ??_C@_1M@MADIPODN@?$AAi?$AAt?$AA?9?$AAI?$AAT?$AA?$AA@ 0043d124     libucrt:lcidtoname_downlevel.obj
 0002:0000a130       ??_C@_1M@IHBJJGG@?$AAn?$AAl?$AA?9?$AAN?$AAL?$AA?$AA@ 0043d130     libucrt:lcidtoname_downlevel.obj
 0002:0000a13c       ??_C@_1M@EANAGDL@?$AAn?$AAb?$AA?9?$AAN?$AAO?$AA?$AA@ 0043d13c     libucrt:lcidtoname_downlevel.obj
 0002:0000a148       ??_C@_1M@NEIEMEGP@?$AAp?$AAl?$AA?9?$AAP?$AAL?$AA?$AA@ 0043d148     libucrt:lcidtoname_downlevel.obj
 0002:0000a154       ??_C@_1M@BOCFIGEP@?$AAp?$AAt?$AA?9?$AAB?$AAR?$AA?$AA@ 0043d154     libucrt:lcidtoname_downlevel.obj
 0002:0000a160       ??_C@_1M@IMPFOPBG@?$AAr?$AAo?$AA?9?$AAR?$AAO?$AA?$AA@ 0043d160     libucrt:lcidtoname_downlevel.obj
 0002:0000a16c       ??_C@_1M@IDNNEJMM@?$AAr?$AAu?$AA?9?$AAR?$AAU?$AA?$AA@ 0043d16c     libucrt:lcidtoname_downlevel.obj
 0002:0000a178       ??_C@_1M@LILEEOGM@?$AAh?$AAr?$AA?9?$AAH?$AAR?$AA?$AA@ 0043d178     libucrt:lcidtoname_downlevel.obj
 0002:0000a184       ??_C@_1M@FKIFEHPB@?$AAs?$AAk?$AA?9?$AAS?$AAK?$AA?$AA@ 0043d184     libucrt:lcidtoname_downlevel.obj
 0002:0000a190       ??_C@_1M@LJMAMNPJ@?$AAs?$AAq?$AA?9?$AAA?$AAL?$AA?$AA@ 0043d190     libucrt:lcidtoname_downlevel.obj
 0002:0000a19c       ??_C@_1M@GIAKDKJK@?$AAs?$AAv?$AA?9?$AAS?$AAE?$AA?$AA@ 0043d19c     libucrt:lcidtoname_downlevel.obj
 0002:0000a1a8       ??_C@_1M@MKJKIKCL@?$AAt?$AAh?$AA?9?$AAT?$AAH?$AA?$AA@ 0043d1a8     libucrt:lcidtoname_downlevel.obj
 0002:0000a1b4       ??_C@_1M@MFLCCMPB@?$AAt?$AAr?$AA?9?$AAT?$AAR?$AA?$AA@ 0043d1b4     libucrt:lcidtoname_downlevel.obj
 0002:0000a1c0       ??_C@_1M@OIJHDKJN@?$AAu?$AAr?$AA?9?$AAP?$AAK?$AA?$AA@ 0043d1c0     libucrt:lcidtoname_downlevel.obj
 0002:0000a1cc       ??_C@_1M@LHIPCIEK@?$AAi?$AAd?$AA?9?$AAI?$AAD?$AA?$AA@ 0043d1cc     libucrt:lcidtoname_downlevel.obj
 0002:0000a1d8       ??_C@_1M@MFMOBGI@?$AAu?$AAk?$AA?9?$AAU?$AAA?$AA?$AA@ 0043d1d8     libucrt:lcidtoname_downlevel.obj
 0002:0000a1e4       ??_C@_1M@OBGLJIPL@?$AAb?$AAe?$AA?9?$AAB?$AAY?$AA?$AA@ 0043d1e4     libucrt:lcidtoname_downlevel.obj
 0002:0000a1f0       ??_C@_1M@BCFAJEAD@?$AAs?$AAl?$AA?9?$AAS?$AAI?$AA?$AA@ 0043d1f0     libucrt:lcidtoname_downlevel.obj
 0002:0000a1fc       ??_C@_1M@FKFFEDDN@?$AAe?$AAt?$AA?9?$AAE?$AAE?$AA?$AA@ 0043d1fc     libucrt:lcidtoname_downlevel.obj
 0002:0000a208       ??_C@_1M@KGKKAACI@?$AAl?$AAv?$AA?9?$AAL?$AAV?$AA?$AA@ 0043d208     libucrt:lcidtoname_downlevel.obj
 0002:0000a214       ??_C@_1M@IFGBIJO@?$AAl?$AAt?$AA?9?$AAL?$AAT?$AA?$AA@ 0043d214     libucrt:lcidtoname_downlevel.obj
 0002:0000a220       ??_C@_1M@FGEAHEDM@?$AAf?$AAa?$AA?9?$AAI?$AAR?$AA?$AA@ 0043d220     libucrt:lcidtoname_downlevel.obj
 0002:0000a22c       ??_C@_1M@KBMAIBFN@?$AAv?$AAi?$AA?9?$AAV?$AAN?$AA?$AA@ 0043d22c     libucrt:lcidtoname_downlevel.obj
 0002:0000a238       ??_C@_1M@GPCBKDJK@?$AAh?$AAy?$AA?9?$AAA?$AAM?$AA?$AA@ 0043d238     libucrt:lcidtoname_downlevel.obj
 0002:0000a244       ??_C@_1BG@BECMDDJB@?$AAa?$AAz?$AA?9?$AAA?$AAZ?$AA?9?$AAL?$AAa?$AAt?$AAn?$AA?$AA@ 0043d244     libucrt:lcidtoname_downlevel.obj
 0002:0000a25c       ??_C@_1M@MAOFCAEA@?$AAe?$AAu?$AA?9?$AAE?$AAS?$AA?$AA@ 0043d25c     libucrt:lcidtoname_downlevel.obj
 0002:0000a268       ??_C@_1M@IGHABKPI@?$AAm?$AAk?$AA?9?$AAM?$AAK?$AA?$AA@ 0043d268     libucrt:lcidtoname_downlevel.obj
 0002:0000a274       ??_C@_1M@IAIGNEJG@?$AAt?$AAn?$AA?9?$AAZ?$AAA?$AA?$AA@ 0043d274     libucrt:lcidtoname_downlevel.obj
 0002:0000a280       ??_C@_1M@IIJCOJFA@?$AAx?$AAh?$AA?9?$AAZ?$AAA?$AA?$AA@ 0043d280     libucrt:lcidtoname_downlevel.obj
 0002:0000a28c       ??_C@_1M@LGPJHNJH@?$AAz?$AAu?$AA?9?$AAZ?$AAA?$AA?$AA@ 0043d28c     libucrt:lcidtoname_downlevel.obj
 0002:0000a298       ??_C@_1M@HOKAOIO@?$AAa?$AAf?$AA?9?$AAZ?$AAA?$AA?$AA@ 0043d298     libucrt:lcidtoname_downlevel.obj
 0002:0000a2a4       ??_C@_1M@DPCLHLIE@?$AAk?$AAa?$AA?9?$AAG?$AAE?$AA?$AA@ 0043d2a4     libucrt:lcidtoname_downlevel.obj
 0002:0000a2b0       ??_C@_1M@BLKMHJBI@?$AAf?$AAo?$AA?9?$AAF?$AAO?$AA?$AA@ 0043d2b0     libucrt:lcidtoname_downlevel.obj
 0002:0000a2bc       ??_C@_1M@LGGJAPPB@?$AAh?$AAi?$AA?9?$AAI?$AAN?$AA?$AA@ 0043d2bc     libucrt:lcidtoname_downlevel.obj
 0002:0000a2c8       ??_C@_1M@FIKPIHFE@?$AAm?$AAt?$AA?9?$AAM?$AAT?$AA?$AA@ 0043d2c8     libucrt:lcidtoname_downlevel.obj
 0002:0000a2d4       ??_C@_1M@HEGGPBFA@?$AAs?$AAe?$AA?9?$AAN?$AAO?$AA?$AA@ 0043d2d4     libucrt:lcidtoname_downlevel.obj
 0002:0000a2e0       ??_C@_1M@EIBJEEPA@?$AAm?$AAs?$AA?9?$AAM?$AAY?$AA?$AA@ 0043d2e0     libucrt:lcidtoname_downlevel.obj
 0002:0000a2ec       ??_C@_1M@FHLBGMPP@?$AAk?$AAk?$AA?9?$AAK?$AAZ?$AA?$AA@ 0043d2ec     libucrt:lcidtoname_downlevel.obj
 0002:0000a2f8       ??_C@_1M@NGJJLCGI@?$AAk?$AAy?$AA?9?$AAK?$AAG?$AA?$AA@ 0043d2f8     libucrt:lcidtoname_downlevel.obj
 0002:0000a304       ??_C@_1M@GIENNBFC@?$AAs?$AAw?$AA?9?$AAK?$AAE?$AA?$AA@ 0043d304     libucrt:lcidtoname_downlevel.obj
 0002:0000a310       ??_C@_1BG@NDGMJIMJ@?$AAu?$AAz?$AA?9?$AAU?$AAZ?$AA?9?$AAL?$AAa?$AAt?$AAn?$AA?$AA@ 0043d310     libucrt:lcidtoname_downlevel.obj
 0002:0000a328       ??_C@_1M@IDCCIHBC@?$AAt?$AAt?$AA?9?$AAR?$AAU?$AA?$AA@ 0043d328     libucrt:lcidtoname_downlevel.obj
 0002:0000a334       ??_C@_1M@LOICPMOJ@?$AAb?$AAn?$AA?9?$AAI?$AAN?$AA?$AA@ 0043d334     libucrt:lcidtoname_downlevel.obj
 0002:0000a340       ??_C@_1M@KPKKNEAH@?$AAp?$AAa?$AA?9?$AAI?$AAN?$AA?$AA@ 0043d340     libucrt:lcidtoname_downlevel.obj
 0002:0000a34c       ??_C@_1M@PJGPPBOG@?$AAg?$AAu?$AA?9?$AAI?$AAN?$AA?$AA@ 0043d34c     libucrt:lcidtoname_downlevel.obj
 0002:0000a358       ??_C@_1M@KMKMOPHI@?$AAt?$AAa?$AA?9?$AAI?$AAN?$AA?$AA@ 0043d358     libucrt:lcidtoname_downlevel.obj
 0002:0000a364       ??_C@_1M@KFEHEPAC@?$AAt?$AAe?$AA?9?$AAI?$AAN?$AA?$AA@ 0043d364     libucrt:lcidtoname_downlevel.obj
 0002:0000a370       ??_C@_1M@CDCLMGHI@?$AAk?$AAn?$AA?9?$AAI?$AAN?$AA?$AA@ 0043d370     libucrt:lcidtoname_downlevel.obj
 0002:0000a37c       ??_C@_1M@MIODLDKF@?$AAm?$AAl?$AA?9?$AAI?$AAN?$AA?$AA@ 0043d37c     libucrt:lcidtoname_downlevel.obj
 0002:0000a388       ??_C@_1M@PBIEACPO@?$AAm?$AAr?$AA?9?$AAI?$AAN?$AA?$AA@ 0043d388     libucrt:lcidtoname_downlevel.obj
 0002:0000a394       ??_C@_1M@NIDEAGPH@?$AAs?$AAa?$AA?9?$AAI?$AAN?$AA?$AA@ 0043d394     libucrt:lcidtoname_downlevel.obj
 0002:0000a3a0       ??_C@_1M@FHIHCBIO@?$AAm?$AAn?$AA?9?$AAM?$AAN?$AA?$AA@ 0043d3a0     libucrt:lcidtoname_downlevel.obj
 0002:0000a3ac       ??_C@_1M@JAIJPENP@?$AAc?$AAy?$AA?9?$AAG?$AAB?$AA?$AA@ 0043d3ac     libucrt:lcidtoname_downlevel.obj
 0002:0000a3b8       ??_C@_1M@PHGFBEPN@?$AAg?$AAl?$AA?9?$AAE?$AAS?$AA?$AA@ 0043d3b8     libucrt:lcidtoname_downlevel.obj
 0002:0000a3c4       ??_C@_1O@KPIPDNCP@?$AAk?$AAo?$AAk?$AA?9?$AAI?$AAN?$AA?$AA@ 0043d3c4     libucrt:lcidtoname_downlevel.obj
 0002:0000a3d4       ??_C@_1O@KNHJLDJA@?$AAs?$AAy?$AAr?$AA?9?$AAS?$AAY?$AA?$AA@ 0043d3d4     libucrt:lcidtoname_downlevel.obj
 0002:0000a3e4       ??_C@_1O@MKEKBLAH@?$AAd?$AAi?$AAv?$AA?9?$AAM?$AAV?$AA?$AA@ 0043d3e4     libucrt:lcidtoname_downlevel.obj
 0002:0000a3f4       ??_C@_1O@OHDCKDDF@?$AAq?$AAu?$AAz?$AA?9?$AAB?$AAO?$AA?$AA@ 0043d3f4     libucrt:lcidtoname_downlevel.obj
 0002:0000a404       ??_C@_1M@LEPJNLFD@?$AAn?$AAs?$AA?9?$AAZ?$AAA?$AA?$AA@ 0043d404     libucrt:lcidtoname_downlevel.obj
 0002:0000a410       ??_C@_1M@OMLEIIJB@?$AAm?$AAi?$AA?9?$AAN?$AAZ?$AA?$AA@ 0043d410     libucrt:lcidtoname_downlevel.obj
 0002:0000a41c       ??_C@_1M@PMPEAILG@?$AAa?$AAr?$AA?9?$AAI?$AAQ?$AA?$AA@ 0043d41c     libucrt:lcidtoname_downlevel.obj
 0002:0000a428       ??_C@_1M@CNKPNOEE@?$AAd?$AAe?$AA?9?$AAC?$AAH?$AA?$AA@ 0043d428     libucrt:lcidtoname_downlevel.obj
 0002:0000a434       ??_C@_1M@LKMGMLKO@?$AAe?$AAn?$AA?9?$AAG?$AAB?$AA?$AA@ 0043d434     libucrt:lcidtoname_downlevel.obj
 0002:0000a440       ??_C@_1M@PGKJFFGL@?$AAe?$AAs?$AA?9?$AAM?$AAX?$AA?$AA@ 0043d440     libucrt:lcidtoname_downlevel.obj
 0002:0000a44c       ??_C@_1M@DNNANBDC@?$AAf?$AAr?$AA?9?$AAB?$AAE?$AA?$AA@ 0043d44c     libucrt:lcidtoname_downlevel.obj
 0002:0000a458       ??_C@_1M@HLGMDFHM@?$AAi?$AAt?$AA?9?$AAC?$AAH?$AA?$AA@ 0043d458     libucrt:lcidtoname_downlevel.obj
 0002:0000a464       ??_C@_1M@CLLBGJH@?$AAn?$AAl?$AA?9?$AAB?$AAE?$AA?$AA@ 0043d464     libucrt:lcidtoname_downlevel.obj
 0002:0000a470       ??_C@_1M@BODBOGLF@?$AAn?$AAn?$AA?9?$AAN?$AAO?$AA?$AA@ 0043d470     libucrt:lcidtoname_downlevel.obj
 0002:0000a47c       ??_C@_1M@HFFAHKAD@?$AAp?$AAt?$AA?9?$AAP?$AAT?$AA?$AA@ 0043d47c     libucrt:lcidtoname_downlevel.obj
 0002:0000a488       ??_C@_1BG@LNOAKHIE@?$AAs?$AAr?$AA?9?$AAS?$AAP?$AA?9?$AAL?$AAa?$AAt?$AAn?$AA?$AA@ 0043d488     libucrt:lcidtoname_downlevel.obj
 0002:0000a4a0       ??_C@_1M@HBMHBGAK@?$AAs?$AAv?$AA?9?$AAF?$AAI?$AA?$AA@ 0043d4a0     libucrt:lcidtoname_downlevel.obj
 0002:0000a4ac       ??_C@_1BG@DGCJGJBE@?$AAa?$AAz?$AA?9?$AAA?$AAZ?$AA?9?$AAC?$AAy?$AAr?$AAl?$AA?$AA@ 0043d4ac     libucrt:lcidtoname_downlevel.obj
 0002:0000a4c4       ??_C@_1M@KEJDAAHB@?$AAs?$AAe?$AA?9?$AAS?$AAE?$AA?$AA@ 0043d4c4     libucrt:lcidtoname_downlevel.obj
 0002:0000a4d0       ??_C@_1M@HEIBJJAD@?$AAm?$AAs?$AA?9?$AAB?$AAN?$AA?$AA@ 0043d4d0     libucrt:lcidtoname_downlevel.obj
 0002:0000a4dc       ??_C@_1BG@PBGJMCEM@?$AAu?$AAz?$AA?9?$AAU?$AAZ?$AA?9?$AAC?$AAy?$AAr?$AAl?$AA?$AA@ 0043d4dc     libucrt:lcidtoname_downlevel.obj
 0002:0000a4f4       ??_C@_1O@LAOBCMDF@?$AAq?$AAu?$AAz?$AA?9?$AAE?$AAC?$AA?$AA@ 0043d4f4     libucrt:lcidtoname_downlevel.obj
 0002:0000a504       ??_C@_1M@POEEMAIO@?$AAa?$AAr?$AA?9?$AAE?$AAG?$AA?$AA@ 0043d504     libucrt:lcidtoname_downlevel.obj
 0002:0000a510       ??_C@_1M@EFAKDEDL@?$AAz?$AAh?$AA?9?$AAH?$AAK?$AA?$AA@ 0043d510     libucrt:lcidtoname_downlevel.obj
 0002:0000a51c       ??_C@_1M@HKKIJHGI@?$AAd?$AAe?$AA?9?$AAA?$AAT?$AA?$AA@ 0043d51c     libucrt:lcidtoname_downlevel.obj
 0002:0000a528       ??_C@_1M@KBFBEHJF@?$AAe?$AAn?$AA?9?$AAA?$AAU?$AA?$AA@ 0043d528     libucrt:lcidtoname_downlevel.obj
 0002:0000a534       ??_C@_1M@MNPLFAAH@?$AAe?$AAs?$AA?9?$AAE?$AAS?$AA?$AA@ 0043d534     libucrt:lcidtoname_downlevel.obj
 0002:0000a540       ??_C@_1M@HJOOJFMA@?$AAf?$AAr?$AA?9?$AAC?$AAA?$AA?$AA@ 0043d540     libucrt:lcidtoname_downlevel.obj
 0002:0000a54c       ??_C@_1BG@JPOFPNAB@?$AAs?$AAr?$AA?9?$AAS?$AAP?$AA?9?$AAC?$AAy?$AAr?$AAl?$AA?$AA@ 0043d54c     libucrt:lcidtoname_downlevel.obj
 0002:0000a564       ??_C@_1M@LNFOCMOB@?$AAs?$AAe?$AA?9?$AAF?$AAI?$AA?$AA@ 0043d564     libucrt:lcidtoname_downlevel.obj
 0002:0000a570       ??_C@_1O@MGJBOAMB@?$AAq?$AAu?$AAz?$AA?9?$AAP?$AAE?$AA?$AA@ 0043d570     libucrt:lcidtoname_downlevel.obj
 0002:0000a580       ??_C@_1M@GJINLBOK@?$AAa?$AAr?$AA?9?$AAL?$AAY?$AA?$AA@ 0043d580     libucrt:lcidtoname_downlevel.obj
 0002:0000a58c       ??_C@_1M@GGMNHJNL@?$AAz?$AAh?$AA?9?$AAS?$AAG?$AA?$AA@ 0043d58c     libucrt:lcidtoname_downlevel.obj
 0002:0000a598       ??_C@_1M@HOIKODND@?$AAd?$AAe?$AA?9?$AAL?$AAU?$AA?$AA@ 0043d598     libucrt:lcidtoname_downlevel.obj
 0002:0000a5a4       ??_C@_1M@DDOCCGFG@?$AAe?$AAn?$AA?9?$AAC?$AAA?$AA?$AA@ 0043d5a4     libucrt:lcidtoname_downlevel.obj
 0002:0000a5b0       ??_C@_1M@BNOEMJLF@?$AAe?$AAs?$AA?9?$AAG?$AAT?$AA?$AA@ 0043d5b0     libucrt:lcidtoname_downlevel.obj
 0002:0000a5bc       ??_C@_1M@EOGNKEK@?$AAf?$AAr?$AA?9?$AAC?$AAH?$AA?$AA@ 0043d5bc     libucrt:lcidtoname_downlevel.obj
 0002:0000a5c8       ??_C@_1M@FLIDJFHL@?$AAh?$AAr?$AA?9?$AAB?$AAA?$AA?$AA@ 0043d5c8     libucrt:lcidtoname_downlevel.obj
 0002:0000a5d4       ??_C@_1O@FMCELNAJ@?$AAs?$AAm?$AAj?$AA?9?$AAN?$AAO?$AA?$AA@ 0043d5d4     libucrt:lcidtoname_downlevel.obj
 0002:0000a5e4       ??_C@_1M@JHGLJMGJ@?$AAa?$AAr?$AA?9?$AAD?$AAZ?$AA?$AA@ 0043d5e4     libucrt:lcidtoname_downlevel.obj
 0002:0000a5f0       ??_C@_1M@JKKFDCNP@?$AAz?$AAh?$AA?9?$AAM?$AAO?$AA?$AA@ 0043d5f0     libucrt:lcidtoname_downlevel.obj
 0002:0000a5fc       ??_C@_1M@GEEFALPE@?$AAd?$AAe?$AA?9?$AAL?$AAI?$AA?$AA@ 0043d5fc     libucrt:lcidtoname_downlevel.obj
 0002:0000a608       ??_C@_1M@IGEOFBG@?$AAe?$AAn?$AA?9?$AAN?$AAZ?$AA?$AA@ 0043d608     libucrt:lcidtoname_downlevel.obj
 0002:0000a614       ??_C@_1M@KDBONEHP@?$AAe?$AAs?$AA?9?$AAC?$AAR?$AA?$AA@ 0043d614     libucrt:lcidtoname_downlevel.obj
 0002:0000a620       ??_C@_1M@FHMDOHNN@?$AAf?$AAr?$AA?9?$AAL?$AAU?$AA?$AA@ 0043d620     libucrt:lcidtoname_downlevel.obj
 0002:0000a62c       ??_C@_1BG@NFKKMAFG@?$AAb?$AAs?$AA?9?$AAB?$AAA?$AA?9?$AAL?$AAa?$AAt?$AAn?$AA?$AA@ 0043d62c     libucrt:lcidtoname_downlevel.obj
 0002:0000a644       ??_C@_1O@IMNBEMCI@?$AAs?$AAm?$AAj?$AA?9?$AAS?$AAE?$AA?$AA@ 0043d644     libucrt:lcidtoname_downlevel.obj
 0002:0000a654       ??_C@_1M@DHHMBNDP@?$AAa?$AAr?$AA?9?$AAM?$AAA?$AA?$AA@ 0043d654     libucrt:lcidtoname_downlevel.obj
 0002:0000a660       ??_C@_1M@BNBLJCGH@?$AAe?$AAn?$AA?9?$AAI?$AAE?$AA?$AA@ 0043d660     libucrt:lcidtoname_downlevel.obj
 0002:0000a66c       ??_C@_1M@GEPAFMDL@?$AAe?$AAs?$AA?9?$AAP?$AAA?$AA?$AA@ 0043d66c     libucrt:lcidtoname_downlevel.obj
 0002:0000a678       ??_C@_1M@OJONDMDL@?$AAf?$AAr?$AA?9?$AAM?$AAC?$AA?$AA@ 0043d678     libucrt:lcidtoname_downlevel.obj
 0002:0000a684       ??_C@_1BG@OBCNFJB@?$AAs?$AAr?$AA?9?$AAB?$AAA?$AA?9?$AAL?$AAa?$AAt?$AAn?$AA?$AA@ 0043d684     libucrt:lcidtoname_downlevel.obj
 0002:0000a69c       ??_C@_1O@KEMEEGPO@?$AAs?$AAm?$AAa?$AA?9?$AAN?$AAO?$AA?$AA@ 0043d69c     libucrt:lcidtoname_downlevel.obj
 0002:0000a6ac       ??_C@_1M@ELMGFODK@?$AAa?$AAr?$AA?9?$AAT?$AAN?$AA?$AA@ 0043d6ac     libucrt:lcidtoname_downlevel.obj
 0002:0000a6b8       ??_C@_1M@BHDLHFAF@?$AAe?$AAn?$AA?9?$AAZ?$AAA?$AA?$AA@ 0043d6b8     libucrt:lcidtoname_downlevel.obj
 0002:0000a6c4       ??_C@_1M@BMGIGLIF@?$AAe?$AAs?$AA?9?$AAD?$AAO?$AA?$AA@ 0043d6c4     libucrt:lcidtoname_downlevel.obj
 0002:0000a6d0       ??_C@_1BG@CMBHIPBE@?$AAs?$AAr?$AA?9?$AAB?$AAA?$AA?9?$AAC?$AAy?$AAr?$AAl?$AA?$AA@ 0043d6d0     libucrt:lcidtoname_downlevel.obj
 0002:0000a6e8       ??_C@_1O@HEDBLHNP@?$AAs?$AAm?$AAa?$AA?9?$AAS?$AAE?$AA?$AA@ 0043d6e8     libucrt:lcidtoname_downlevel.obj
 0002:0000a6f8       ??_C@_1M@DAGCADIM@?$AAa?$AAr?$AA?9?$AAO?$AAM?$AA?$AA@ 0043d6f8     libucrt:lcidtoname_downlevel.obj
 0002:0000a704       ??_C@_1M@FODLMICG@?$AAe?$AAn?$AA?9?$AAJ?$AAM?$AA?$AA@ 0043d704     libucrt:lcidtoname_downlevel.obj
 0002:0000a710       ??_C@_1M@DNMLCIHB@?$AAe?$AAs?$AA?9?$AAV?$AAE?$AA?$AA@ 0043d710     libucrt:lcidtoname_downlevel.obj
 0002:0000a71c       ??_C@_1O@EOKHMKJK@?$AAs?$AAm?$AAs?$AA?9?$AAF?$AAI?$AA?$AA@ 0043d71c     libucrt:lcidtoname_downlevel.obj
 0002:0000a72c       ??_C@_1M@CAFJMKOF@?$AAa?$AAr?$AA?9?$AAY?$AAE?$AA?$AA@ 0043d72c     libucrt:lcidtoname_downlevel.obj
 0002:0000a738       ??_C@_1M@CBFHIJLI@?$AAe?$AAn?$AA?9?$AAC?$AAB?$AA?$AA@ 0043d738     libucrt:lcidtoname_downlevel.obj
 0002:0000a744       ??_C@_1M@BGNFLDN@?$AAe?$AAs?$AA?9?$AAC?$AAO?$AA?$AA@ 0043d744     libucrt:lcidtoname_downlevel.obj
 0002:0000a750       ??_C@_1O@JMPHMAMC@?$AAs?$AAm?$AAn?$AA?9?$AAF?$AAI?$AA?$AA@ 0043d750     libucrt:lcidtoname_downlevel.obj
 0002:0000a760       ??_C@_1M@JLANABKE@?$AAa?$AAr?$AA?9?$AAS?$AAY?$AA?$AA@ 0043d760     libucrt:lcidtoname_downlevel.obj
 0002:0000a76c       ??_C@_1M@HPKGCFGN@?$AAe?$AAn?$AA?9?$AAB?$AAZ?$AA?$AA@ 0043d76c     libucrt:lcidtoname_downlevel.obj
 0002:0000a778       ??_C@_1M@OLJCMLGM@?$AAe?$AAs?$AA?9?$AAP?$AAE?$AA?$AA@ 0043d778     libucrt:lcidtoname_downlevel.obj
 0002:0000a784       ??_C@_1M@MKKGFKLE@?$AAa?$AAr?$AA?9?$AAJ?$AAO?$AA?$AA@ 0043d784     libucrt:lcidtoname_downlevel.obj
 0002:0000a790       ??_C@_1M@EKPGLDNI@?$AAe?$AAn?$AA?9?$AAT?$AAT?$AA?$AA@ 0043d790     libucrt:lcidtoname_downlevel.obj
 0002:0000a79c       ??_C@_1M@OONGHFHE@?$AAe?$AAs?$AA?9?$AAA?$AAR?$AA?$AA@ 0043d79c     libucrt:lcidtoname_downlevel.obj
 0002:0000a7a8       ??_C@_1M@OOJFGBHE@?$AAa?$AAr?$AA?9?$AAL?$AAB?$AA?$AA@ 0043d7a8     libucrt:lcidtoname_downlevel.obj
 0002:0000a7b4       ??_C@_1M@GCEJHNEG@?$AAe?$AAn?$AA?9?$AAZ?$AAW?$AA?$AA@ 0043d7b4     libucrt:lcidtoname_downlevel.obj
 0002:0000a7c0       ??_C@_1M@JNOCAHJI@?$AAe?$AAs?$AA?9?$AAE?$AAC?$AA?$AA@ 0043d7c0     libucrt:lcidtoname_downlevel.obj
 0002:0000a7cc       ??_C@_1M@JEFHPGGB@?$AAa?$AAr?$AA?9?$AAK?$AAW?$AA?$AA@ 0043d7cc     libucrt:lcidtoname_downlevel.obj
 0002:0000a7d8       ??_C@_1M@MLKIBJOJ@?$AAe?$AAn?$AA?9?$AAP?$AAH?$AA?$AA@ 0043d7d8     libucrt:lcidtoname_downlevel.obj
 0002:0000a7e4       ??_C@_1M@BDNIPEND@?$AAe?$AAs?$AA?9?$AAC?$AAL?$AA?$AA@ 0043d7e4     libucrt:lcidtoname_downlevel.obj
 0002:0000a7f0       ??_C@_1M@MPNMEKBD@?$AAa?$AAr?$AA?9?$AAA?$AAE?$AA?$AA@ 0043d7f0     libucrt:lcidtoname_downlevel.obj
 0002:0000a7fc       ??_C@_1M@KBJALCPI@?$AAe?$AAs?$AA?9?$AAU?$AAY?$AA?$AA@ 0043d7fc     libucrt:lcidtoname_downlevel.obj
 0002:0000a808       ??_C@_1M@LLCCOAGA@?$AAa?$AAr?$AA?9?$AAB?$AAH?$AA?$AA@ 0043d808     libucrt:lcidtoname_downlevel.obj
 0002:0000a814       ??_C@_1M@PBFNCDEL@?$AAe?$AAs?$AA?9?$AAP?$AAY?$AA?$AA@ 0043d814     libucrt:lcidtoname_downlevel.obj
 0002:0000a820       ??_C@_1M@EDGINPNP@?$AAa?$AAr?$AA?9?$AAQ?$AAA?$AA?$AA@ 0043d820     libucrt:lcidtoname_downlevel.obj
 0002:0000a82c       ??_C@_1M@MKDBIIJI@?$AAe?$AAs?$AA?9?$AAB?$AAO?$AA?$AA@ 0043d82c     libucrt:lcidtoname_downlevel.obj
 0002:0000a838       ??_C@_1M@CPKKEBLD@?$AAe?$AAs?$AA?9?$AAS?$AAV?$AA?$AA@ 0043d838     libucrt:lcidtoname_downlevel.obj
 0002:0000a844       ??_C@_1M@NDBGMMJL@?$AAe?$AAs?$AA?9?$AAH?$AAN?$AA?$AA@ 0043d844     libucrt:lcidtoname_downlevel.obj
 0002:0000a850       ??_C@_1M@JIJIBHDP@?$AAe?$AAs?$AA?9?$AAN?$AAI?$AA?$AA@ 0043d850     libucrt:lcidtoname_downlevel.obj
 0002:0000a85c       ??_C@_1M@CGFMKEEK@?$AAe?$AAs?$AA?9?$AAP?$AAR?$AA?$AA@ 0043d85c     libucrt:lcidtoname_downlevel.obj
 0002:0000a868       ??_C@_1O@ICJHKIIK@?$AAz?$AAh?$AA?9?$AAC?$AAH?$AAT?$AA?$AA@ 0043d868     libucrt:lcidtoname_downlevel.obj
 0002:0000a878       ??_C@_15CLNEJCE@?$AAs?$AAr?$AA?$AA@ 0043d878     libucrt:lcidtoname_downlevel.obj
 0002:0000afa0       ??_C@_1M@KAHEKEIG@?$AAa?$AAf?$AA?9?$AAz?$AAa?$AA?$AA@ 0043dfa0     libucrt:lcidtoname_downlevel.obj
 0002:0000afac       ??_C@_1M@GIECOABL@?$AAa?$AAr?$AA?9?$AAa?$AAe?$AA?$AA@ 0043dfac     libucrt:lcidtoname_downlevel.obj
 0002:0000afb8       ??_C@_1M@BMLMEKGI@?$AAa?$AAr?$AA?9?$AAb?$AAh?$AA?$AA@ 0043dfb8     libucrt:lcidtoname_downlevel.obj
 0002:0000afc4       ??_C@_1M@DAPFDGGB@?$AAa?$AAr?$AA?9?$AAd?$AAz?$AA?$AA@ 0043dfc4     libucrt:lcidtoname_downlevel.obj
 0002:0000afd0       ??_C@_1M@FJNKGKIG@?$AAa?$AAr?$AA?9?$AAe?$AAg?$AA?$AA@ 0043dfd0     libucrt:lcidtoname_downlevel.obj
 0002:0000afdc       ??_C@_1M@FLGKKCLO@?$AAa?$AAr?$AA?9?$AAi?$AAq?$AA?$AA@ 0043dfdc     libucrt:lcidtoname_downlevel.obj
 0002:0000afe8       ??_C@_1M@GNDIPALM@?$AAa?$AAr?$AA?9?$AAj?$AAo?$AA?$AA@ 0043dfe8     libucrt:lcidtoname_downlevel.obj
 0002:0000aff4       ??_C@_1M@DDMJFMGJ@?$AAa?$AAr?$AA?9?$AAk?$AAw?$AA?$AA@ 0043dff4     libucrt:lcidtoname_downlevel.obj
 0002:0000b000       ??_C@_1M@EJALMLHM@?$AAa?$AAr?$AA?9?$AAl?$AAb?$AA?$AA@ 0043e000     libucrt:lcidtoname_downlevel.obj
 0002:0000b00c       ??_C@_1M@MOBDBLOC@?$AAa?$AAr?$AA?9?$AAl?$AAy?$AA?$AA@ 0043e00c     libucrt:lcidtoname_downlevel.obj
 0002:0000b018       ??_C@_1M@JAOCLHDH@?$AAa?$AAr?$AA?9?$AAm?$AAa?$AA?$AA@ 0043e018     libucrt:lcidtoname_downlevel.obj
 0002:0000b024       ??_C@_1M@JHPMKJIE@?$AAa?$AAr?$AA?9?$AAo?$AAm?$AA?$AA@ 0043e024     libucrt:lcidtoname_downlevel.obj
 0002:0000b030       ??_C@_1M@OEPGHFNH@?$AAa?$AAr?$AA?9?$AAq?$AAa?$AA?$AA@ 0043e030     libucrt:lcidtoname_downlevel.obj
 0002:0000b03c       ??_C@_1M@KJDONENM@?$AAa?$AAr?$AA?9?$AAs?$AAa?$AA?$AA@ 0043e03c     libucrt:lcidtoname_downlevel.obj
 0002:0000b048       ??_C@_1M@DMJDKLKM@?$AAa?$AAr?$AA?9?$AAs?$AAy?$AA?$AA@ 0043e048     libucrt:lcidtoname_downlevel.obj
 0002:0000b054       ??_C@_1M@OMFIPEDC@?$AAa?$AAr?$AA?9?$AAt?$AAn?$AA?$AA@ 0043e054     libucrt:lcidtoname_downlevel.obj
 0002:0000b060       ??_C@_1M@IHMHGAON@?$AAa?$AAr?$AA?9?$AAy?$AAe?$AA?$AA@ 0043e060     libucrt:lcidtoname_downlevel.obj
 0002:0000b06c       ??_C@_1BG@KDCPGJGB@?$AAa?$AAz?$AA?9?$AAa?$AAz?$AA?9?$AAc?$AAy?$AAr?$AAl?$AA?$AA@ 0043e06c     libucrt:lcidtoname_downlevel.obj
 0002:0000b084       ??_C@_1BG@IBCKDDOE@?$AAa?$AAz?$AA?9?$AAa?$AAz?$AA?9?$AAl?$AAa?$AAt?$AAn?$AA?$AA@ 0043e084     libucrt:lcidtoname_downlevel.obj
 0002:0000b09c       ??_C@_1M@EGPFDCPD@?$AAb?$AAe?$AA?9?$AAb?$AAy?$AA?$AA@ 0043e09c     libucrt:lcidtoname_downlevel.obj
 0002:0000b0a8       ??_C@_1M@PCMGMCGC@?$AAb?$AAg?$AA?9?$AAb?$AAg?$AA?$AA@ 0043e0a8     libucrt:lcidtoname_downlevel.obj
 0002:0000b0b4       ??_C@_1M@BJBMFGOB@?$AAb?$AAn?$AA?9?$AAi?$AAn?$AA?$AA@ 0043e0b4     libucrt:lcidtoname_downlevel.obj
 0002:0000b0c0       ??_C@_1BG@EAKMMACD@?$AAb?$AAs?$AA?9?$AAb?$AAa?$AA?9?$AAl?$AAa?$AAt?$AAn?$AA?$AA@ 0043e0c0     libucrt:lcidtoname_downlevel.obj
 0002:0000b0d8       ??_C@_1M@KGADAODK@?$AAc?$AAa?$AA?9?$AAe?$AAs?$AA?$AA@ 0043e0d8     libucrt:lcidtoname_downlevel.obj
 0002:0000b0e4       ??_C@_1M@COAJPDHI@?$AAc?$AAs?$AA?9?$AAc?$AAz?$AA?$AA@ 0043e0e4     libucrt:lcidtoname_downlevel.obj
 0002:0000b0f0       ??_C@_1M@DHBHFONH@?$AAc?$AAy?$AA?9?$AAg?$AAb?$AA?$AA@ 0043e0f0     libucrt:lcidtoname_downlevel.obj
 0002:0000b0fc       ??_C@_1M@IMGKELGA@?$AAd?$AAa?$AA?9?$AAd?$AAk?$AA?$AA@ 0043e0fc     libucrt:lcidtoname_downlevel.obj
 0002:0000b108       ??_C@_1M@NNDGDNGA@?$AAd?$AAe?$AA?9?$AAa?$AAt?$AA?$AA@ 0043e108     libucrt:lcidtoname_downlevel.obj
 0002:0000b114       ??_C@_1M@IKDBHEEM@?$AAd?$AAe?$AA?9?$AAc?$AAh?$AA?$AA@ 0043e114     libucrt:lcidtoname_downlevel.obj
 0002:0000b120       ??_C@_1M@GFFOJMCJ@?$AAd?$AAe?$AA?9?$AAd?$AAe?$AA?$AA@ 0043e120     libucrt:lcidtoname_downlevel.obj
 0002:0000b12c       ??_C@_1M@MDNLKBPM@?$AAd?$AAe?$AA?9?$AAl?$AAi?$AA?$AA@ 0043e12c     libucrt:lcidtoname_downlevel.obj
 0002:0000b138       ??_C@_1M@NJBEEJNL@?$AAd?$AAe?$AA?9?$AAl?$AAu?$AA?$AA@ 0043e138     libucrt:lcidtoname_downlevel.obj
 0002:0000b144       ??_C@_1O@GNNELBAP@?$AAd?$AAi?$AAv?$AA?9?$AAm?$AAv?$AA?$AA@ 0043e144     libucrt:lcidtoname_downlevel.obj
 0002:0000b154       ??_C@_1M@EJLEOGAE@?$AAe?$AAl?$AA?9?$AAg?$AAr?$AA?$AA@ 0043e154     libucrt:lcidtoname_downlevel.obj
 0002:0000b160       ??_C@_1M@GMPONJN@?$AAe?$AAn?$AA?9?$AAa?$AAu?$AA?$AA@ 0043e160     libucrt:lcidtoname_downlevel.obj
 0002:0000b16c       ??_C@_1M@NIDIIPGF@?$AAe?$AAn?$AA?9?$AAb?$AAz?$AA?$AA@ 0043e16c     libucrt:lcidtoname_downlevel.obj
 0002:0000b178       ??_C@_1M@JEHMIMFO@?$AAe?$AAn?$AA?9?$AAc?$AAa?$AA?$AA@ 0043e178     libucrt:lcidtoname_downlevel.obj
 0002:0000b184       ??_C@_1M@IGMJCDLA@?$AAe?$AAn?$AA?9?$AAc?$AAb?$AA?$AA@ 0043e184     libucrt:lcidtoname_downlevel.obj
 0002:0000b190       ??_C@_1M@BNFIGBKG@?$AAe?$AAn?$AA?9?$AAg?$AAb?$AA?$AA@ 0043e190     libucrt:lcidtoname_downlevel.obj
 0002:0000b19c       ??_C@_1M@LKIFDIGP@?$AAe?$AAn?$AA?9?$AAi?$AAe?$AA?$AA@ 0043e19c     libucrt:lcidtoname_downlevel.obj
 0002:0000b1a8       ??_C@_1M@PJKFGCCO@?$AAe?$AAn?$AA?9?$AAj?$AAm?$AA?$AA@ 0043e1a8     libucrt:lcidtoname_downlevel.obj
 0002:0000b1b4       ??_C@_1M@KPPKEPBO@?$AAe?$AAn?$AA?9?$AAn?$AAz?$AA?$AA@ 0043e1b4     libucrt:lcidtoname_downlevel.obj
 0002:0000b1c0       ??_C@_1M@GMDGLDOB@?$AAe?$AAn?$AA?9?$AAp?$AAh?$AA?$AA@ 0043e1c0     libucrt:lcidtoname_downlevel.obj
 0002:0000b1cc       ??_C@_1M@ONGIBJNA@?$AAe?$AAn?$AA?9?$AAt?$AAt?$AA?$AA@ 0043e1cc     libucrt:lcidtoname_downlevel.obj
 0002:0000b1d8       ??_C@_1M@LLODPCMM@?$AAe?$AAn?$AA?9?$AAu?$AAs?$AA?$AA@ 0043e1d8     libucrt:lcidtoname_downlevel.obj
 0002:0000b1e4       ??_C@_1M@LAKFNPAN@?$AAe?$AAn?$AA?9?$AAz?$AAa?$AA?$AA@ 0043e1e4     libucrt:lcidtoname_downlevel.obj
 0002:0000b1f0       ??_C@_1M@MFNHNHEO@?$AAe?$AAn?$AA?9?$AAz?$AAw?$AA?$AA@ 0043e1f0     libucrt:lcidtoname_downlevel.obj
 0002:0000b1fc       ??_C@_1M@EJEINPHM@?$AAe?$AAs?$AA?9?$AAa?$AAr?$AA?$AA@ 0043e1fc     libucrt:lcidtoname_downlevel.obj
 0002:0000b208       ??_C@_1M@GNKPCCJA@?$AAe?$AAs?$AA?9?$AAb?$AAo?$AA?$AA@ 0043e208     libucrt:lcidtoname_downlevel.obj
 0002:0000b214       ??_C@_1M@LEEGFONL@?$AAe?$AAs?$AA?9?$AAc?$AAl?$AA?$AA@ 0043e214     libucrt:lcidtoname_downlevel.obj
 0002:0000b220       ??_C@_1M@KGPDPBDF@?$AAe?$AAs?$AA?9?$AAc?$AAo?$AA?$AA@ 0043e220     libucrt:lcidtoname_downlevel.obj
 0002:0000b22c       ??_C@_1M@EIAHOHH@?$AAe?$AAs?$AA?9?$AAc?$AAr?$AA?$AA@ 0043e22c     libucrt:lcidtoname_downlevel.obj
 0002:0000b238       ??_C@_1M@LLPGMBIN@?$AAe?$AAs?$AA?9?$AAd?$AAo?$AA?$AA@ 0043e238     libucrt:lcidtoname_downlevel.obj
 0002:0000b244       ??_C@_1M@DKHMKNJA@?$AAe?$AAs?$AA?9?$AAe?$AAc?$AA?$AA@ 0043e244     libucrt:lcidtoname_downlevel.obj
 0002:0000b250       ??_C@_1M@GKGFPKAP@?$AAe?$AAs?$AA?9?$AAe?$AAs?$AA?$AA@ 0043e250     libucrt:lcidtoname_downlevel.obj
 0002:0000b25c       ??_C@_1M@LKHKGDLN@?$AAe?$AAs?$AA?9?$AAg?$AAt?$AA?$AA@ 0043e25c     libucrt:lcidtoname_downlevel.obj
 0002:0000b268       ??_C@_1M@HEIIGGJD@?$AAe?$AAs?$AA?9?$AAh?$AAn?$AA?$AA@ 0043e268     libucrt:lcidtoname_downlevel.obj
 0002:0000b274       ??_C@_1M@FBDHPPGD@?$AAe?$AAs?$AA?9?$AAm?$AAx?$AA?$AA@ 0043e274     libucrt:lcidtoname_downlevel.obj
 0002:0000b280       ??_C@_1M@DPAGLNDH@?$AAe?$AAs?$AA?9?$AAn?$AAi?$AA?$AA@ 0043e280     libucrt:lcidtoname_downlevel.obj
 0002:0000b28c       ??_C@_1M@MDGOPGDD@?$AAe?$AAs?$AA?9?$AAp?$AAa?$AA?$AA@ 0043e28c     libucrt:lcidtoname_downlevel.obj
 0002:0000b298       ??_C@_1M@EMAMGBGE@?$AAe?$AAs?$AA?9?$AAp?$AAe?$AA?$AA@ 0043e298     libucrt:lcidtoname_downlevel.obj
 0002:0000b2a4       ??_C@_1M@IBMCAOEC@?$AAe?$AAs?$AA?9?$AAp?$AAr?$AA?$AA@ 0043e2a4     libucrt:lcidtoname_downlevel.obj
 0002:0000b2b0       ??_C@_1M@FGMDIJED@?$AAe?$AAs?$AA?9?$AAp?$AAy?$AA?$AA@ 0043e2b0     libucrt:lcidtoname_downlevel.obj
 0002:0000b2bc       ??_C@_1M@IIDEOLLL@?$AAe?$AAs?$AA?9?$AAs?$AAv?$AA?$AA@ 0043e2bc     libucrt:lcidtoname_downlevel.obj
 0002:0000b2c8       ??_C@_1M@GAOBIPA@?$AAe?$AAs?$AA?9?$AAu?$AAy?$AA?$AA@ 0043e2c8     libucrt:lcidtoname_downlevel.obj
 0002:0000b2d4       ??_C@_1M@JKFFICHJ@?$AAe?$AAs?$AA?9?$AAv?$AAe?$AA?$AA@ 0043e2d4     libucrt:lcidtoname_downlevel.obj
 0002:0000b2e0       ??_C@_1M@PNMLOJDF@?$AAe?$AAt?$AA?9?$AAe?$AAe?$AA?$AA@ 0043e2e0     libucrt:lcidtoname_downlevel.obj
 0002:0000b2ec       ??_C@_1M@GHHLIKEI@?$AAe?$AAu?$AA?9?$AAe?$AAs?$AA?$AA@ 0043e2ec     libucrt:lcidtoname_downlevel.obj
 0002:0000b2f8       ??_C@_1M@PBNONODE@?$AAf?$AAa?$AA?9?$AAi?$AAr?$AA?$AA@ 0043e2f8     libucrt:lcidtoname_downlevel.obj
 0002:0000b304       ??_C@_1M@JEEHPMIL@?$AAf?$AAi?$AA?9?$AAf?$AAi?$AA?$AA@ 0043e304     libucrt:lcidtoname_downlevel.obj
 0002:0000b310       ??_C@_1M@LMDCNDBA@?$AAf?$AAo?$AA?9?$AAf?$AAo?$AA?$AA@ 0043e310     libucrt:lcidtoname_downlevel.obj
 0002:0000b31c       ??_C@_1M@JKEOHLDK@?$AAf?$AAr?$AA?9?$AAb?$AAe?$AA?$AA@ 0043e31c     libucrt:lcidtoname_downlevel.obj
 0002:0000b328       ??_C@_1M@NOHADPMI@?$AAf?$AAr?$AA?9?$AAc?$AAa?$AA?$AA@ 0043e328     libucrt:lcidtoname_downlevel.obj
 0002:0000b334       ??_C@_1M@KDHIHAEC@?$AAf?$AAr?$AA?9?$AAc?$AAh?$AA?$AA@ 0043e334     libucrt:lcidtoname_downlevel.obj
 0002:0000b340       ??_C@_1M@MMBBFGAK@?$AAf?$AAr?$AA?9?$AAf?$AAr?$AA?$AA@ 0043e340     libucrt:lcidtoname_downlevel.obj
 0002:0000b34c       ??_C@_1M@PAFNENNF@?$AAf?$AAr?$AA?9?$AAl?$AAu?$AA?$AA@ 0043e34c     libucrt:lcidtoname_downlevel.obj
 0002:0000b358       ??_C@_1M@EOHDJGDD@?$AAf?$AAr?$AA?9?$AAm?$AAc?$AA?$AA@ 0043e358     libucrt:lcidtoname_downlevel.obj
 0002:0000b364       ??_C@_1M@FAPLLOPF@?$AAg?$AAl?$AA?9?$AAe?$AAs?$AA?$AA@ 0043e364     libucrt:lcidtoname_downlevel.obj
 0002:0000b370       ??_C@_1M@FOPBFLOO@?$AAg?$AAu?$AA?9?$AAi?$AAn?$AA?$AA@ 0043e370     libucrt:lcidtoname_downlevel.obj
 0002:0000b37c       ??_C@_1M@KBMCINPM@?$AAh?$AAe?$AA?9?$AAi?$AAl?$AA?$AA@ 0043e37c     libucrt:lcidtoname_downlevel.obj
 0002:0000b388       ??_C@_1M@BBPHKFPJ@?$AAh?$AAi?$AA?9?$AAi?$AAn?$AA?$AA@ 0043e388     libucrt:lcidtoname_downlevel.obj
 0002:0000b394       ??_C@_1M@PMBNDPHD@?$AAh?$AAr?$AA?9?$AAb?$AAa?$AA?$AA@ 0043e394     libucrt:lcidtoname_downlevel.obj
 0002:0000b3a0       ??_C@_1M@BPCKOEGE@?$AAh?$AAr?$AA?9?$AAh?$AAr?$AA?$AA@ 0043e3a0     libucrt:lcidtoname_downlevel.obj
 0002:0000b3ac       ??_C@_1M@GACBMHKE@?$AAh?$AAu?$AA?9?$AAh?$AAu?$AA?$AA@ 0043e3ac     libucrt:lcidtoname_downlevel.obj
 0002:0000b3b8       ??_C@_1M@MILPAJJC@?$AAh?$AAy?$AA?9?$AAa?$AAm?$AA?$AA@ 0043e3b8     libucrt:lcidtoname_downlevel.obj
 0002:0000b3c4       ??_C@_1M@BABBICEC@?$AAi?$AAd?$AA?9?$AAi?$AAd?$AA?$AA@ 0043e3c4     libucrt:lcidtoname_downlevel.obj
 0002:0000b3d0       ??_C@_1M@BIKNHHPF@?$AAi?$AAs?$AA?9?$AAi?$AAs?$AA?$AA@ 0043e3d0     libucrt:lcidtoname_downlevel.obj
 0002:0000b3dc       ??_C@_1M@NMPCJPHE@?$AAi?$AAt?$AA?9?$AAc?$AAh?$AA?$AA@ 0043e3dc     libucrt:lcidtoname_downlevel.obj
 0002:0000b3e8       ??_C@_1M@GHKGFEDF@?$AAi?$AAt?$AA?9?$AAi?$AAt?$AA?$AA@ 0043e3e8     libucrt:lcidtoname_downlevel.obj
 0002:0000b3f4       ??_C@_1M@NIEJCJJA@?$AAj?$AAa?$AA?9?$AAj?$AAp?$AA?$AA@ 0043e3f4     libucrt:lcidtoname_downlevel.obj
 0002:0000b400       ??_C@_1M@JILFNBIM@?$AAk?$AAa?$AA?9?$AAg?$AAe?$AA?$AA@ 0043e400     libucrt:lcidtoname_downlevel.obj
 0002:0000b40c       ??_C@_1M@PACPMGPH@?$AAk?$AAk?$AA?9?$AAk?$AAz?$AA?$AA@ 0043e40c     libucrt:lcidtoname_downlevel.obj
 0002:0000b418       ??_C@_1M@IELFGMHA@?$AAk?$AAn?$AA?9?$AAi?$AAn?$AA?$AA@ 0043e418     libucrt:lcidtoname_downlevel.obj
 0002:0000b424       ??_C@_1O@IBBJHCH@?$AAk?$AAo?$AAk?$AA?9?$AAi?$AAn?$AA?$AA@ 0043e424     libucrt:lcidtoname_downlevel.obj
 0002:0000b434       ??_C@_1M@DMHAEOGC@?$AAk?$AAo?$AA?9?$AAk?$AAr?$AA?$AA@ 0043e434     libucrt:lcidtoname_downlevel.obj
 0002:0000b440       ??_C@_1M@HBAHBIGA@?$AAk?$AAy?$AA?9?$AAk?$AAg?$AA?$AA@ 0043e440     libucrt:lcidtoname_downlevel.obj
 0002:0000b44c       ??_C@_1M@KPMILCJG@?$AAl?$AAt?$AA?9?$AAl?$AAt?$AA?$AA@ 0043e44c     libucrt:lcidtoname_downlevel.obj
 0002:0000b458       ??_C@_1M@BDEKKCA@?$AAl?$AAv?$AA?9?$AAl?$AAv?$AA?$AA@ 0043e458     libucrt:lcidtoname_downlevel.obj
 0002:0000b464       ??_C@_1M@ELCKCCJJ@?$AAm?$AAi?$AA?9?$AAn?$AAz?$AA?$AA@ 0043e464     libucrt:lcidtoname_downlevel.obj
 0002:0000b470       ??_C@_1M@CBOOLAPA@?$AAm?$AAk?$AA?9?$AAm?$AAk?$AA?$AA@ 0043e470     libucrt:lcidtoname_downlevel.obj
 0002:0000b47c       ??_C@_1M@GPHNBJKN@?$AAm?$AAl?$AA?9?$AAi?$AAn?$AA?$AA@ 0043e47c     libucrt:lcidtoname_downlevel.obj
 0002:0000b488       ??_C@_1M@PABJILIG@?$AAm?$AAn?$AA?9?$AAm?$AAn?$AA?$AA@ 0043e488     libucrt:lcidtoname_downlevel.obj
 0002:0000b494       ??_C@_1M@FGBKKIPG@?$AAm?$AAr?$AA?9?$AAi?$AAn?$AA?$AA@ 0043e494     libucrt:lcidtoname_downlevel.obj
 0002:0000b4a0       ??_C@_1M@NDBPDDAL@?$AAm?$AAs?$AA?9?$AAb?$AAn?$AA?$AA@ 0043e4a0     libucrt:lcidtoname_downlevel.obj
 0002:0000b4ac       ??_C@_1M@OPIHOOPI@?$AAm?$AAs?$AA?9?$AAm?$AAy?$AA?$AA@ 0043e4ac     libucrt:lcidtoname_downlevel.obj
 0002:0000b4b8       ??_C@_1M@PPDBCNFM@?$AAm?$AAt?$AA?9?$AAm?$AAt?$AA?$AA@ 0043e4b8     libucrt:lcidtoname_downlevel.obj
 0002:0000b4c4       ??_C@_1M@KDJDKMDD@?$AAn?$AAb?$AA?9?$AAn?$AAo?$AA?$AA@ 0043e4c4     libucrt:lcidtoname_downlevel.obj
 0002:0000b4d0       ??_C@_1M@KFCFLMJP@?$AAn?$AAl?$AA?9?$AAb?$AAe?$AA?$AA@ 0043e4d0     libucrt:lcidtoname_downlevel.obj
 0002:0000b4dc       ??_C@_1M@KPOPDDGO@?$AAn?$AAl?$AA?9?$AAn?$AAl?$AA?$AA@ 0043e4dc     libucrt:lcidtoname_downlevel.obj
 0002:0000b4e8       ??_C@_1M@LJKPEMLN@?$AAn?$AAn?$AA?9?$AAn?$AAo?$AA?$AA@ 0043e4e8     libucrt:lcidtoname_downlevel.obj
 0002:0000b4f4       ??_C@_1M@BDGHHBFL@?$AAn?$AAs?$AA?9?$AAz?$AAa?$AA?$AA@ 0043e4f4     libucrt:lcidtoname_downlevel.obj
 0002:0000b500       ??_C@_1M@IDEHOAP@?$AAp?$AAa?$AA?9?$AAi?$AAn?$AA?$AA@ 0043e500     libucrt:lcidtoname_downlevel.obj
 0002:0000b50c       ??_C@_1M@HDBKGOGH@?$AAp?$AAl?$AA?9?$AAp?$AAl?$AA?$AA@ 0043e50c     libucrt:lcidtoname_downlevel.obj
 0002:0000b518       ??_C@_1M@LJLLCMEH@?$AAp?$AAt?$AA?9?$AAb?$AAr?$AA?$AA@ 0043e518     libucrt:lcidtoname_downlevel.obj
 0002:0000b524       ??_C@_1M@NCMONAAL@?$AAp?$AAt?$AA?9?$AAp?$AAt?$AA?$AA@ 0043e524     libucrt:lcidtoname_downlevel.obj
 0002:0000b530       ??_C@_1O@EAKMAJDN@?$AAq?$AAu?$AAz?$AA?9?$AAb?$AAo?$AA?$AA@ 0043e530     libucrt:lcidtoname_downlevel.obj
 0002:0000b540       ??_C@_1O@BHHPIGDN@?$AAq?$AAu?$AAz?$AA?9?$AAe?$AAc?$AA?$AA@ 0043e540     libucrt:lcidtoname_downlevel.obj
 0002:0000b550       ??_C@_1O@GBAPEKMJ@?$AAq?$AAu?$AAz?$AA?9?$AAp?$AAe?$AA?$AA@ 0043e550     libucrt:lcidtoname_downlevel.obj
 0002:0000b560       ??_C@_1M@CLGLEFBO@?$AAr?$AAo?$AA?9?$AAr?$AAo?$AA?$AA@ 0043e560     libucrt:lcidtoname_downlevel.obj
 0002:0000b56c       ??_C@_1M@CEEDODME@?$AAr?$AAu?$AA?9?$AAr?$AAu?$AA?$AA@ 0043e56c     libucrt:lcidtoname_downlevel.obj
 0002:0000b578       ??_C@_1M@HPKKKMPP@?$AAs?$AAa?$AA?9?$AAi?$AAn?$AA?$AA@ 0043e578     libucrt:lcidtoname_downlevel.obj
 0002:0000b584       ??_C@_1M@BKMAIGOJ@?$AAs?$AAe?$AA?9?$AAf?$AAi?$AA?$AA@ 0043e584     libucrt:lcidtoname_downlevel.obj
 0002:0000b590       ??_C@_1M@NDPIFLFI@?$AAs?$AAe?$AA?9?$AAn?$AAo?$AA?$AA@ 0043e590     libucrt:lcidtoname_downlevel.obj
 0002:0000b59c       ??_C@_1M@DANKKHJ@?$AAs?$AAe?$AA?9?$AAs?$AAe?$AA?$AA@ 0043e59c     libucrt:lcidtoname_downlevel.obj
 0002:0000b5a8       ??_C@_1M@PNBLONPJ@?$AAs?$AAk?$AA?9?$AAs?$AAk?$AA?$AA@ 0043e5a8     libucrt:lcidtoname_downlevel.obj
 0002:0000b5b4       ??_C@_1M@LFMODOAL@?$AAs?$AAl?$AA?9?$AAs?$AAi?$AA?$AA@ 0043e5b4     libucrt:lcidtoname_downlevel.obj
 0002:0000b5c0       ??_C@_1O@DFKOMPG@?$AAs?$AAm?$AAa?$AA?9?$AAn?$AAo?$AA?$AA@ 0043e5c0     libucrt:lcidtoname_downlevel.obj
 0002:0000b5d0       ??_C@_1O@NDKPBNNH@?$AAs?$AAm?$AAa?$AA?9?$AAs?$AAe?$AA?$AA@ 0043e5d0     libucrt:lcidtoname_downlevel.obj
 0002:0000b5e0       ??_C@_1O@PLLKBHAB@?$AAs?$AAm?$AAj?$AA?9?$AAn?$AAo?$AA?$AA@ 0043e5e0     libucrt:lcidtoname_downlevel.obj
 0002:0000b5f0       ??_C@_1O@CLEPOGCA@?$AAs?$AAm?$AAj?$AA?9?$AAs?$AAe?$AA?$AA@ 0043e5f0     libucrt:lcidtoname_downlevel.obj
 0002:0000b600       ??_C@_1O@DLGJGKMK@?$AAs?$AAm?$AAn?$AA?9?$AAf?$AAi?$AA?$AA@ 0043e600     libucrt:lcidtoname_downlevel.obj
 0002:0000b610       ??_C@_1O@OJDJGAJC@?$AAs?$AAm?$AAs?$AA?9?$AAf?$AAi?$AA?$AA@ 0043e610     libucrt:lcidtoname_downlevel.obj
 0002:0000b620       ??_C@_1M@BOFOGHPB@?$AAs?$AAq?$AA?9?$AAa?$AAl?$AA?$AA@ 0043e620     libucrt:lcidtoname_downlevel.obj
 0002:0000b62c       ??_C@_1BG@LJBBIPGB@?$AAs?$AAr?$AA?9?$AAb?$AAa?$AA?9?$AAc?$AAy?$AAr?$AAl?$AA?$AA@ 0043e62c     libucrt:lcidtoname_downlevel.obj
 0002:0000b644       ??_C@_1BG@JLBENFOE@?$AAs?$AAr?$AA?9?$AAb?$AAa?$AA?9?$AAl?$AAa?$AAt?$AAn?$AA?$AA@ 0043e644     libucrt:lcidtoname_downlevel.obj
 0002:0000b65c       ??_C@_1BG@KODPNHE@?$AAs?$AAr?$AA?9?$AAs?$AAp?$AA?9?$AAc?$AAy?$AAr?$AAl?$AA?$AA@ 0043e65c     libucrt:lcidtoname_downlevel.obj
 0002:0000b674       ??_C@_1BG@CIOGKHPB@?$AAs?$AAr?$AA?9?$AAs?$AAp?$AA?9?$AAl?$AAa?$AAt?$AAn?$AA?$AA@ 0043e674     libucrt:lcidtoname_downlevel.obj
 0002:0000b68c       ??_C@_1M@NGFJLMAC@?$AAs?$AAv?$AA?9?$AAf?$AAi?$AA?$AA@ 0043e68c     libucrt:lcidtoname_downlevel.obj
 0002:0000b698       ??_C@_1M@MPJEJAJC@?$AAs?$AAv?$AA?9?$AAs?$AAe?$AA?$AA@ 0043e698     libucrt:lcidtoname_downlevel.obj
 0002:0000b6a4       ??_C@_1M@MPNDHLFK@?$AAs?$AAw?$AA?9?$AAk?$AAe?$AA?$AA@ 0043e6a4     libucrt:lcidtoname_downlevel.obj
 0002:0000b6b0       ??_C@_1O@KOHBJJI@?$AAs?$AAy?$AAr?$AA?9?$AAs?$AAy?$AA?$AA@ 0043e6b0     libucrt:lcidtoname_downlevel.obj
 0002:0000b6c0       ??_C@_1M@LDCEFHA@?$AAt?$AAa?$AA?9?$AAi?$AAn?$AA?$AA@ 0043e6c0     libucrt:lcidtoname_downlevel.obj
 0002:0000b6cc       ??_C@_1M@CNJOFAK@?$AAt?$AAe?$AA?9?$AAi?$AAn?$AA?$AA@ 0043e6cc     libucrt:lcidtoname_downlevel.obj
 0002:0000b6d8       ??_C@_1M@GNAECACD@?$AAt?$AAh?$AA?9?$AAt?$AAh?$AA?$AA@ 0043e6d8     libucrt:lcidtoname_downlevel.obj
 0002:0000b6e4       ??_C@_1M@CHBIHOJO@?$AAt?$AAn?$AA?9?$AAz?$AAa?$AA?$AA@ 0043e6e4     libucrt:lcidtoname_downlevel.obj
 0002:0000b6f0       ??_C@_1M@GCCMIGPJ@?$AAt?$AAr?$AA?9?$AAt?$AAr?$AA?$AA@ 0043e6f0     libucrt:lcidtoname_downlevel.obj
 0002:0000b6fc       ??_C@_1M@CELMCNBK@?$AAt?$AAt?$AA?9?$AAr?$AAu?$AA?$AA@ 0043e6fc     libucrt:lcidtoname_downlevel.obj
 0002:0000b708       ??_C@_1M@KLMCELGA@?$AAu?$AAk?$AA?9?$AAu?$AAa?$AA?$AA@ 0043e708     libucrt:lcidtoname_downlevel.obj
 0002:0000b714       ??_C@_1M@EPAJJAJF@?$AAu?$AAr?$AA?9?$AAp?$AAk?$AA?$AA@ 0043e714     libucrt:lcidtoname_downlevel.obj
 0002:0000b720       ??_C@_1BG@GEGPMCDJ@?$AAu?$AAz?$AA?9?$AAu?$AAz?$AA?9?$AAc?$AAy?$AAr?$AAl?$AA?$AA@ 0043e720     libucrt:lcidtoname_downlevel.obj
 0002:0000b738       ??_C@_1BG@EGGKJILM@?$AAu?$AAz?$AA?9?$AAu?$AAz?$AA?9?$AAl?$AAa?$AAt?$AAn?$AA?$AA@ 0043e738     libucrt:lcidtoname_downlevel.obj
 0002:0000b750       ??_C@_1M@GFOCLFF@?$AAv?$AAi?$AA?9?$AAv?$AAn?$AA?$AA@ 0043e750     libucrt:lcidtoname_downlevel.obj
 0002:0000b75c       ??_C@_1M@CPAMEDFI@?$AAx?$AAh?$AA?9?$AAz?$AAa?$AA?$AA@ 0043e75c     libucrt:lcidtoname_downlevel.obj
 0002:0000b768       ??_C@_1O@EBKIFIGN@?$AAz?$AAh?$AA?9?$AAc?$AAh?$AAs?$AA?$AA@ 0043e768     libucrt:lcidtoname_downlevel.obj
 0002:0000b778       ??_C@_1O@NMHPGANE@?$AAz?$AAh?$AA?9?$AAc?$AAh?$AAt?$AA?$AA@ 0043e778     libucrt:lcidtoname_downlevel.obj
 0002:0000b788       ??_C@_1M@LPINJOMC@?$AAz?$AAh?$AA?9?$AAc?$AAn?$AA?$AA@ 0043e788     libucrt:lcidtoname_downlevel.obj
 0002:0000b794       ??_C@_1M@OCJEJODD@?$AAz?$AAh?$AA?9?$AAh?$AAk?$AA?$AA@ 0043e794     libucrt:lcidtoname_downlevel.obj
 0002:0000b7a0       ??_C@_1M@DNDLJINH@?$AAz?$AAh?$AA?9?$AAm?$AAo?$AA?$AA@ 0043e7a0     libucrt:lcidtoname_downlevel.obj
 0002:0000b7ac       ??_C@_1M@MBFDNDND@?$AAz?$AAh?$AA?9?$AAs?$AAg?$AA?$AA@ 0043e7ac     libucrt:lcidtoname_downlevel.obj
 0002:0000b7b8       ??_C@_1M@IMEPLEPE@?$AAz?$AAh?$AA?9?$AAt?$AAw?$AA?$AA@ 0043e7b8     libucrt:lcidtoname_downlevel.obj
 0002:0000b7c4       ??_C@_1M@BBGHNHJP@?$AAz?$AAu?$AA?9?$AAz?$AAa?$AA?$AA@ 0043e7c4     libucrt:lcidtoname_downlevel.obj
 0002:0000b7e8       ??_C@_1BA@BALFACEM@?$AAC?$AAO?$AAN?$AAO?$AAU?$AAT?$AA$?$AA?$AA@ 0043e7e8     libucrt:initcon.obj
 0002:0000b960       __infinity                 0043e960     libucrt:87tran.obj
 0002:0000b96a       __minfinity                0043e96a     libucrt:87tran.obj
 0002:0000b974       __logemax                  0043e974     libucrt:87tran.obj
 0002:0000b99a       __OP_EXPjmptab             0043e99a     libucrt:87tran.obj
 0002:0000b9c0       __indefinite               0043e9c0     libucrt:87disp.obj
 0002:0000b9ca       __piby2                    0043e9ca     libucrt:87disp.obj
 0002:0000b9d4       __piby4                    0043e9d4     libucrt:87disp.obj
 0002:0000ba08       __DEFAULT_CW_in_mem        0043ea08     libucrt:common.obj
 0002:0000ba0a       __pi_by_2_to_61            0043ea0a     libucrt:common.obj
 0002:0000ba44       ??_C@_03MGHMBJCF@log?$AA@  0043ea44     libucrt:libm_error.obj
 0002:0000ba48       ??_C@_05HGHHAHAP@log10?$AA@ 0043ea48     libucrt:libm_error.obj
 0002:0000ba50       ??_C@_03KHJOGHMM@exp?$AA@  0043ea50     libucrt:libm_error.obj
 0002:0000ba54       ??_C@_03JGHBODFD@pow?$AA@  0043ea54     libucrt:libm_error.obj
 0002:0000ba58       ??_C@_04FIHNOPOL@asin?$AA@ 0043ea58     libucrt:libm_error.obj
 0002:0000ba60       ??_C@_04PDIFKINK@acos?$AA@ 0043ea60     libucrt:libm_error.obj
 0002:0000ba68       ??_C@_04EIAKFFMI@sqrt?$AA@ 0043ea68     libucrt:libm_error.obj
 0002:0000ba70       __real@3ff0000000000000    0043ea70     libucrt:libm_error.obj
 0002:0000ba80       ___acrt_log10_table_t      0043ea80     libucrt:log10_tables.obj
 0002:0000be90       ___acrt_log10_table_cb     0043ee90     libucrt:log10_tables.obj
 0002:0000c2a0       __real@3fe0000000000000    0043f2a0     libucrt:powhlp.obj
 0002:0000c2a8       ??_C@_04FJHINJAO@tanh?$AA@ 0043f2a8     libucrt:fpexcept.obj
 0002:0000c2b0       ??_C@_04MLLJIGOK@atan?$AA@ 0043f2b0     libucrt:fpexcept.obj
 0002:0000c2b8       ??_C@_05KNGEOGJB@atan2?$AA@ 0043f2b8     libucrt:fpexcept.obj
 0002:0000c2c0       ??_C@_03BLEJJJBH@sin?$AA@  0043f2c0     libucrt:fpexcept.obj
 0002:0000c2c4       ??_C@_03LALBNOCG@cos?$AA@  0043f2c4     libucrt:fpexcept.obj
 0002:0000c2c8       ??_C@_03IIINPABG@tan?$AA@  0043f2c8     libucrt:fpexcept.obj
 0002:0000c2cc       ??_C@_04GFPJNGEK@ceil?$AA@ 0043f2cc     libucrt:fpexcept.obj
 0002:0000c2d4       ??_C@_05PBJFFIGL@floor?$AA@ 0043f2d4     libucrt:fpexcept.obj
 0002:0000c2dc       ??_C@_04ODHECPBC@fabs?$AA@ 0043f2dc     libucrt:fpexcept.obj
 0002:0000c2e4       ??_C@_04EHEDPDJG@modf?$AA@ 0043f2e4     libucrt:fpexcept.obj
 0002:0000c2ec       ??_C@_05CEJMAHNP@ldexp?$AA@ 0043f2ec     libucrt:fpexcept.obj
 0002:0000c2f4       ??_C@_05KBKMEMPO@_cabs?$AA@ 0043f2f4     libucrt:fpexcept.obj
 0002:0000c2fc       ??_C@_06MEIMCGCF@_hypot?$AA@ 0043f2fc     libucrt:fpexcept.obj
 0002:0000c304       ??_C@_04KEPJIHGP@fmod?$AA@ 0043f304     libucrt:fpexcept.obj
 0002:0000c30c       ??_C@_05GKKHEGJL@frexp?$AA@ 0043f30c     libucrt:fpexcept.obj
 0002:0000c314       ??_C@_03MJLDFKDL@_y0?$AA@  0043f314     libucrt:fpexcept.obj
 0002:0000c318       ??_C@_03NAKIGLHK@_y1?$AA@  0043f318     libucrt:fpexcept.obj
 0002:0000c31c       ??_C@_03ONILCKOB@_yn?$AA@  0043f31c     libucrt:fpexcept.obj
 0002:0000c320       ??_C@_05JGDBENOH@_logb?$AA@ 0043f320     libucrt:fpexcept.obj
 0002:0000c328       ??_C@_0L@KDOEJCKC@_nextafter?$AA@ 0043f328     libucrt:fpexcept.obj
 0002:0000c420       ??_C@_04COOMCNPB@sinh?$AA@ 0043f420     libucrt:fpexcept.obj
 0002:0000c428       ??_C@_04HPJJNFIM@cosh?$AA@ 0043f428     libucrt:fpexcept.obj
 0002:0000c430       __d_inf                    0043f430     libucrt:util.obj
 0002:0000c438       __d_max                    0043f438     libucrt:util.obj
 0002:0000c440       __d_mzero                  0043f440     libucrt:util.obj
 0002:0000c470       __load_config_used         0043f470     LIBCMT:loadcfg.obj
 0002:0000c4d0       ___safe_se_handler_table   0043f4d0     <linker-defined>
 0002:0000c76c       ___rtc_iaa                 0043f76c     LIBCMT:_initsect_.obj
 0002:0000c770       ___rtc_izz                 0043f770     LIBCMT:_initsect_.obj
 0002:0000c774       ___rtc_taa                 0043f774     LIBCMT:_initsect_.obj
 0002:0000c778       ___rtc_tzz                 0043f778     LIBCMT:_initsect_.obj
 0002:0000cc6c       __IMPORT_DESCRIPTOR_KERNEL32 0043fc6c     kernel32:KERNEL32.dll
 0002:0000cc80       __NULL_IMPORT_DESCRIPTOR   0043fc80     kernel32:KERNEL32.dll
 0003:00000000       _ONE                       00441000     sshcrcda.obj
 0003:00000010       ___security_cookie_complement 00441010     LIBCMT:gs_cookie.obj
 0003:00000014       ___security_cookie         00441014     LIBCMT:gs_cookie.obj
 0003:00000020       ___scrt_native_dllmain_reason 00441020     LIBCMT:utility.obj
 0003:00000024       ___isa_enabled             00441024     LIBCMT:_cpu_disp_.obj
 0003:00000030       ___scrt_default_matherr    00441030     LIBCMT:matherr.obj
 0003:00000050       __NLG_Destination          00441050     libvcruntime:_exsup_.obj
 0003:00000060       ___abort_behavior          00441060     libucrt:abort.obj
 0003:00000068       __iob                      00441068     libucrt:_file.obj
 0003:00000120       ___badioinfo               00441120     libucrt:ioinit.obj
 0003:00000158       ___acrt_initial_locale_data 00441158     libucrt:nlsdata.obj
 0003:00000210       ___acrt_initial_locale_pointers 00441210     libucrt:nlsdata.obj
 0003:00000218       ___acrt_wide_c_locale_string 00441218     libucrt:nlsdata.obj
 0003:0000021c       __pwctype                  0044121c     libucrt:ctype.obj
 0003:00000220       __lookuptrailbytes         00441220     libucrt:read.obj
 0003:00000418       __mbctype                  00441418     libucrt:mbctype.obj
 0003:00000520       __mbcasemap                00441520     libucrt:mbctype.obj
 0003:00000620       ___acrt_initial_multibyte_data 00441620     libucrt:mbctype.obj
 0003:00000840       ___acrt_current_multibyte_data 00441840     libucrt:mbctype.obj
 0003:00000844       ___acrt_lconv_static_decimal 00441844     libucrt:localeconv.obj
 0003:00000848       ___acrt_lconv_static_W_decimal 00441848     libucrt:localeconv.obj
 0003:00000850       ___acrt_lconv_c            00441850     libucrt:localeconv.obj
 0003:000008a0       ___globallocalestatus      004418a0     libucrt:glstatus.obj
 0003:000008b4       ___dcrt_lowio_console_output_handle 004418b4     libucrt:initcon.obj
 0003:000008c0       __fltused                  004418c0     LIBCMT:fltused.obj
 0003:000008d4       _ZERO                      004418d4     sshcrcda.obj
 0003:00004004       ___scrt_current_native_startup_state 00445004     LIBCMT:utility.obj
 0003:00004008       ___scrt_native_startup_lock 00445008     LIBCMT:utility.obj
 0003:00004028       ___isa_available           00445028     LIBCMT:_cpu_disp_.obj
 0003:0000402c       ___favor                   0044502c     LIBCMT:_cpu_disp_.obj
 0003:00004030       ___scrt_debugger_hook_flag 00445030     LIBCMT:utility_desktop.obj
 0003:00004038       ?__type_info_root_node@@3U__type_info_node@@A 00445038     LIBCMT:tncleanup.obj
 0003:00004040       ?_OptionsStorage@?1??__local_stdio_scanf_options@@9@4_KA 00445040     LIBCMT:default_local_stdio_options.obj
 0003:000040c0       ___pPurecall               004450c0     libvcruntime:purevirt_data.obj
 0003:000040c4       ?pArgList@UnDecorator@@0PAVReplicator@@A 004450c4     libvcruntime:undname.obj
 0003:000040c8       ?pZNameList@UnDecorator@@0PAVReplicator@@A 004450c8     libvcruntime:undname.obj
 0003:000040cc       ?pTemplateArgList@UnDecorator@@0PAVReplicator@@A 004450cc     libvcruntime:undname.obj
 0003:000040d0       ?gName@UnDecorator@@0PBDB  004450d0     libvcruntime:undname.obj
 0003:000040d4       ?name@UnDecorator@@0PBDB   004450d4     libvcruntime:undname.obj
 0003:000040d8       ?outputString@UnDecorator@@0PADA 004450d8     libvcruntime:undname.obj
 0003:000040dc       ?maxStringLength@UnDecorator@@0HA 004450dc     libvcruntime:undname.obj
 0003:000040e0       ?disableFlags@UnDecorator@@0KA 004450e0     libvcruntime:undname.obj
 0003:000040e4       ?fExplicitTemplateParams@UnDecorator@@0_NA 004450e4     libvcruntime:undname.obj
 0003:000040e5       ?fGetTemplateArgumentList@UnDecorator@@0_NA 004450e5     libvcruntime:undname.obj
 0003:000040e8       ?m_pGetParameter@UnDecorator@@0P6APADJ@ZA 004450e8     libvcruntime:undname.obj
 0003:00004100       __nstream                  00445100     libucrt:_file.obj
 0003:00004104       ___piob                    00445104     libucrt:_file.obj
 0003:00004108       __cflush                   00445108     libucrt:_file.obj
 0003:00004220       __environ_table            00445220     libucrt:environment_initialization.obj
 0003:00004224       __wenviron_table           00445224     libucrt:environment_initialization.obj
 0003:00004228       ___dcrt_initial_wide_environment 00445228     libucrt:environment_initialization.obj
 0003:0000422c       ___dcrt_initial_narrow_environment 0044522c     libucrt:environment_initialization.obj
 0003:00004230       ___acrt_atexit_table       00445230     libucrt:onexit.obj
 0003:0000423c       ___acrt_at_quick_exit_table 0044523c     libucrt:onexit.obj
 0003:00004250       ___argc                    00445250     libucrt:argv_data.obj
 0003:00004254       ___argv                    00445254     libucrt:argv_data.obj
 0003:00004258       ___wargv                   00445258     libucrt:argv_data.obj
 0003:0000425c       __acmdln                   0044525c     libucrt:argv_data.obj
 0003:00004260       __wcmdln                   00445260     libucrt:argv_data.obj
 0003:00004264       __pgmptr                   00445264     libucrt:argv_data.obj
 0003:00004268       ___acrt_locale_changed_data 00445268     libucrt:wsetlocale.obj
 0003:00004270       __commode                  00445270     libucrt:ncommode.obj
 0003:0000428c       ___acrt_stdout_buffer      0044528c     libucrt:_sftbuf.obj
 0003:00004290       ___acrt_stderr_buffer      00445290     libucrt:_sftbuf.obj
 0003:00004298       ___pioinfo                 00445298     libucrt:ioinit.obj
 0003:00004498       __nhandle                  00445498     libucrt:ioinit.obj
 0003:000044a0       ___acrt_current_locale_data 004454a0     libucrt:nlsdata.obj
 0003:000046bc       ___mblocalename            004456bc     libucrt:mbctype.obj
 0003:000046c0       ___mbcodepage              004456c0     libucrt:mbctype.obj
 0003:000046c4       ___ismbcodepage            004456c4     libucrt:mbctype.obj
 0003:000046c8       ___mbulinfo                004456c8     libucrt:mbctype.obj
 0003:000046dc       ___acrt_heap               004456dc     libucrt:heap_handle.obj
 0003:000046e4       __fmode                    004456e4     libucrt:txtmode.obj
 0003:000046e8       ___acrt_lconv_static_null  004456e8     libucrt:localeconv.obj
 0003:000046ec       ___acrt_lconv_static_W_null 004456ec     libucrt:localeconv.obj
 0003:000046f0       __umaskval                 004456f0     libucrt:umask.obj
 0003:000046f4       ___fastflag                004456f4     libucrt:fp_flags.obj
 0003:000046fc       _finalisersize             004456fc     <common>
 0003:00004700       _nfinalisers               00445700     <common>
 0003:00004708       ?_OptionsStorage@?1??__local_stdio_printf_options@@9@9 00445708     <common>
 0003:00004710       ___dyn_tls_dtor_callback   00445710     <common>
 0003:00004714       ___dyn_tls_init_callback   00445714     <common>
 0003:00004718       ___scrt_ucrt_dll_is_in_use 00445718     <common>
 0003:0000471c       __pDestructExceptionObject 0044571c     <common>
 0003:00004720       __pmatherr                 00445720     <common>
 0003:00004724       ___use_sse2_mathfcns       00445724     <common>

 entry point at        0001:0001adaf

 Static symbols

 0001:00000226       _ecc_edwards_cond_overwrite 00401226 f   ecc.obj
 0001:00000279       _ecc_edwards_cond_swap     00401279 f   ecc.obj
 0001:000005dd       _ecc_edwards_point_new_empty 004015dd f   ecc.obj
 0001:00000749       _ecc_edwards_point_new_imported 00401749 f   ecc.obj
 0001:0000078a       _ecc_montgomery_cond_overwrite 0040178a f   ecc.obj
 0001:000007bb       _ecc_montgomery_cond_swap  004017bb f   ecc.obj
 0001:00000d62       _ecc_montgomery_point_new_empty 00401d62 f   ecc.obj
 0001:00000fd0       _ecc_weierstrass_add_prologue 00401fd0 f   ecc.obj
 0001:00001109       _ecc_weierstrass_cond_overwrite 00402109 f   ecc.obj
 0001:0000114b       _ecc_weierstrass_cond_swap 0040214b f   ecc.obj
 0001:000011d7       _ecc_weierstrass_epilogue  004021d7 f   ecc.obj
 0001:0000145f       _ecc_weierstrass_normalise 0040245f f   ecc.obj
 0001:00001579       _ecc_weierstrass_point_new_empty 00402579 f   ecc.obj
 0001:000016e0       _ecc_weierstrass_point_new_imported 004026e0 f   ecc.obj
 0001:00001857       _ecc_weierstrass_select_into 00402857 f   ecc.obj
 0001:0000189e       _ecc_weierstrass_tangent_slope 0040289e f   ecc.obj
 0001:00001972       _projective_eq             00402972 f   ecc.obj
 0001:00001b4d       _BinarySource_data_avail   00402b4d f   marshal.obj
 0001:00002688       _monty_reduce              00403688 f   mpint.obj
 0001:000026c4       _monty_reduce_internal     004036c4 f   mpint.obj
 0001:0000282f       _mp_add_integer_into_shifted_by_words 0040382f f   mpint.obj
 0001:00002912       _mp_add_masked_integer_into 00403912 f   mpint.obj
 0001:0000296f       _mp_add_masked_into        0040396f f   mpint.obj
 0001:000029c7       _mp_alloc_from_scratch     004039c7 f   mpint.obj
 0001:00002a46       _mp_bezout_into            00403a46 f   mpint.obj
 0001:00002e01       _mp_cond_negate            00403e01 f   mpint.obj
 0001:000034f4       _mp_find_highest_nonzero_word_pair 004044f4 f   mpint.obj
 0001:0000361c       _mp_from_bytes_int         0040461c f   mpint.obj
 0001:00003a62       _mp_get_hex_internal       00404a62 f   mpint.obj
 0001:00003f3c       _mp_make_sized             00404f3c f   mpint.obj
 0001:0000420d       _mp_mul_add_simple         0040520d f   mpint.obj
 0001:00004356       _mp_mul_internal           00405356 f   mpint.obj
 0001:00004aad       _mp_word                   00405aad f   mpint.obj
 0001:00004af8       _recip_approx_32           00405af8 f   mpint.obj
 0001:00004bc5       _trim_leading_zeroes       00405bc5 f   mpint.obj
 0001:00004c56       _aes256_cbc_hw_encrypt     00405c56 f   sshaes.obj
 0001:00004c70       _aes256_cbc_hw_decrypt     00405c70 f   sshaes.obj
 0001:00004c8a       _aes256_sdctr_hw           00405c8a f   sshaes.obj
 0001:00004ca4       _aes_select                00405ca4 f   sshaes.obj
 0001:00004cc0       _aes_sw_new                00405cc0 f   sshaes.obj
 0001:00004cdd       _aes_sw_free               00405cdd f   sshaes.obj
 0001:00004cfe       _aes_sw_setiv_cbc          00405cfe f   sshaes.obj
 0001:00004d15       _aes_sw_setiv_sdctr        00405d15 f   sshaes.obj
 0001:00004d64       _aes_sw_setkey             00405d64 f   sshaes.obj
 0001:00004d85       _aes_hw_new                00405d85 f   sshaes.obj
 0001:00004dbf       _aes_hw_free               00405dbf f   sshaes.obj
 0001:00004de5       _aes_hw_setiv_cbc          00405de5 f   sshaes.obj
 0001:00004df5       _aes_hw_setiv_sdctr        00405df5 f   sshaes.obj
 0001:00004e0e       _aes_hw_setkey             00405e0e f   sshaes.obj
 0001:00004e40       _aes128_cbc_hw_encrypt     00405e40 f   sshaes.obj
 0001:00004e5a       _aes128_cbc_hw_decrypt     00405e5a f   sshaes.obj
 0001:00004e74       _aes128_sdctr_hw           00405e74 f   sshaes.obj
 0001:00004e8e       _aes256_cbc_sw_encrypt     00405e8e f   sshaes.obj
 0001:00004e8e       _aes128_cbc_sw_encrypt     00405e8e f   sshaes.obj
 0001:00004e8e       _aes192_cbc_sw_encrypt     00405e8e f   sshaes.obj
 0001:00004e93       _aes192_cbc_hw_encrypt     00405e93 f   sshaes.obj
 0001:00004ead       _aes192_cbc_hw_decrypt     00405ead f   sshaes.obj
 0001:00004ec7       _aes192_sdctr_sw           00405ec7 f   sshaes.obj
 0001:00004ec7       _aes256_sdctr_sw           00405ec7 f   sshaes.obj
 0001:00004ec7       _aes128_sdctr_sw           00405ec7 f   sshaes.obj
 0001:00004ecc       _aes192_sdctr_hw           00405ecc f   sshaes.obj
 0001:00004ee6       _aes128_cbc_sw_decrypt     00405ee6 f   sshaes.obj
 0001:00004ee6       _aes256_cbc_sw_decrypt     00405ee6 f   sshaes.obj
 0001:00004ee6       _aes192_cbc_sw_decrypt     00405ee6 f   sshaes.obj
 0001:00004eeb       _GET_64BIT_LSB_FIRST       00405eeb f   sshaes.obj
 0001:00004f6c       _PUT_64BIT_LSB_FIRST       00405f6c f   sshaes.obj
 0001:00004fc0       _aes_cbc_ni_decrypt        00405fc0 f   sshaes.obj
 0001:0000501a       _aes_cbc_ni_encrypt        0040601a f   sshaes.obj
 0001:0000505f       _aes_cbc_sw_decrypt        0040605f f   sshaes.obj
 0001:0000516d       _aes_cbc_sw_encrypt        0040616d f   sshaes.obj
 0001:000051b7       _aes_hw_available_cached   004061b7 f   sshaes.obj
 0001:0000520e       _aes_ni_128_d              0040620e f   sshaes.obj
 0001:000052a0       _aes_ni_128_e              004062a0 f   sshaes.obj
 0001:00005332       _aes_ni_192_d              00406332 f   sshaes.obj
 0001:000053e6       _aes_ni_192_e              004063e6 f   sshaes.obj
 0001:0000549a       _aes_ni_256_d              0040649a f   sshaes.obj
 0001:00005570       _aes_ni_256_e              00406570 f   sshaes.obj
 0001:00005646       _aes_ni_key_expand         00406646 f   sshaes.obj
 0001:00005857       _aes_sdctr_ni              00406857 f   sshaes.obj
 0001:000058cd       _aes_sdctr_sw              004068cd f   sshaes.obj
 0001:000059df       _aes_sliced_d_parallel     004069df f   sshaes.obj
 0001:0000601a       _aes_sliced_e_parallel     0040701a f   sshaes.obj
 0001:0000661c       _aes_sliced_e_serial       0040761c f   sshaes.obj
 0001:00006a2d       _aes_sliced_key_setup      00407a2d f   sshaes.obj
 0001:0000733f       _aes_sliced_round_d_parallel 0040833f f   sshaes.obj
 0001:00008001       _aes_sliced_round_d_parallel_first 00409001 f   sshaes.obj
 0001:00008501       _aes_sliced_round_e_parallel 00409501 f   sshaes.obj
 0001:00008cd3       _aes_sliced_round_e_parallel_last 00409cd3 f   sshaes.obj
 0001:000091ee       _aes_sliced_round_e_serial 0040a1ee f   sshaes.obj
 0001:00009bff       _aes_sliced_round_e_serial_last 0040abff f   sshaes.obj
 0001:0000a209       _memxor16                  0040b209 f   sshaes.obj
 0001:0000a265       _arcfour_new               0040b265 f   ssharcf.obj
 0001:0000a282       _arcfour_free              0040b282 f   ssharcf.obj
 0001:0000a2a3       _arcfour_ssh2_setkey       0040b2a3 f   ssharcf.obj
 0001:0000a2f9       _arcfour_ssh2_block        0040b2f9 f   ssharcf.obj
 0001:0000a314       _arcfour_block             0040b314 f   ssharcf.obj
 0001:0000a36c       _arcfour_setkey            0040b36c f   ssharcf.obj
 0001:0000a48b       _aes256_pubkey_cipher      0040b48b f   sshauxcrypt.obj
 0001:0000a57c       _des3_pubkey_cipher        0040b57c f   sshauxcrypt.obj
 0001:0000a5f7       _des3_pubkey_ossh_cipher   0040b5f7 f   sshauxcrypt.obj
 0001:0000a66a       _des_xdmauth_cipher        0040b66a f   sshauxcrypt.obj
 0001:0000a723       _blowfish_new              0040b723 f   sshblowf.obj
 0001:0000a740       _blowfish_free             0040b740 f   sshblowf.obj
 0001:0000a761       _blowfish_ssh_setkey       0040b761 f   sshblowf.obj
 0001:0000a792       _blowfish_ssh1_setiv       0040b792 f   sshblowf.obj
 0001:0000a7b6       _blowfish_ssh2_setiv       0040b7b6 f   sshblowf.obj
 0001:0000a7da       _blowfish_ssh1_encrypt_blk 0040b7da f   sshblowf.obj
 0001:0000a7f5       _blowfish_ssh1_decrypt_blk 0040b7f5 f   sshblowf.obj
 0001:0000a810       _blowfish_ssh2_encrypt_blk 0040b810 f   sshblowf.obj
 0001:0000a82b       _blowfish_ssh2_decrypt_blk 0040b82b f   sshblowf.obj
 0001:0000a846       _blowfish_ssh2_sdctr       0040b846 f   sshblowf.obj
 0001:0000a861       _GET_32BIT_LSB_FIRST       0040b861 f   sshccp.obj
 0001:0000a861       _GET_32BIT_LSB_FIRST       0040b861 f   sshblowf.obj
 0001:0000a884       _GET_32BIT_MSB_FIRST       0040b884 f   sshblowf.obj
 0001:0000a8a7       _blowfish_decrypt          0040b8a7 f   sshblowf.obj
 0001:0000accd       _blowfish_encrypt          0040bccd f   sshblowf.obj
 0001:0000b4d0       _blowfish_lsb_decrypt_cbc  0040c4d0 f   sshblowf.obj
 0001:0000b5d1       _blowfish_lsb_encrypt_cbc  0040c5d1 f   sshblowf.obj
 0001:0000b6c7       _blowfish_msb_decrypt_cbc  0040c6c7 f   sshblowf.obj
 0001:0000b7d4       _blowfish_msb_encrypt_cbc  0040c7d4 f   sshblowf.obj
 0001:0000b8d8       _blowfish_msb_sdctr        0040c8d8 f   sshblowf.obj
 0001:0000b9c3       _poly_ssh2_new             0040c9c3 f   sshccp.obj
 0001:0000b9d7       _poly_start                0040c9d7 f   sshccp.obj
 0001:0000b9fb       _poly_genresult            0040c9fb f   sshccp.obj
 0001:0000ba0f       _poly_text_name            0040ca0f f   sshccp.obj
 0001:0000ba15       _ccp_new                   0040ca15 f   sshccp.obj
 0001:0000ba55       _ccp_free                  0040ca55 f   sshccp.obj
 0001:0000ba94       _ccp_key                   0040ca94 f   sshccp.obj
 0001:0000bac1       _ccp_decrypt               0040cac1 f   sshccp.obj
 0001:0000bac1       _ccp_encrypt               0040cac1 f   sshccp.obj
 0001:0000badc       _ccp_decrypt_length        0040cadc f   sshccp.obj
 0001:0000badc       _ccp_encrypt_length        0040cadc f   sshccp.obj
 0001:0000bb0a       _bigval_add                0040cb0a f   sshccp.obj
 0001:0000bb71       _bigval_final_reduce       0040cb71 f   sshccp.obj
 0001:0000bc14       _bigval_import_le          0040cc14 f   sshccp.obj
 0001:0000bc62       _bigval_mul_mod_p          0040cc62 f   sshccp.obj
 0001:0000bfb9       _ccp_length_op             0040cfb9 f   sshccp.obj
 0001:0000c02b       _chacha20_encrypt          0040d02b f   sshccp.obj
 0001:0000c079       _chacha20_iv               0040d079 f   sshccp.obj
 0001:0000c0d9       _chacha20_key              0040d0d9 f   sshccp.obj
 0001:0000c189       _chacha20_round            0040d189 f   sshccp.obj
 0001:0000c4e0       _poly1305_feed             0040d4e0 f   sshccp.obj
 0001:0000c566       _poly1305_feed_chunk       0040d566 f   sshccp.obj
 0001:0000c5e0       _poly1305_finalise         0040d5e0 f   sshccp.obj
 0001:0000c670       _poly1305_init             0040d670 f   sshccp.obj
 0001:0000c692       _poly1305_key              0040d692 f   sshccp.obj
 0001:0000c72a       _poly_BinarySink_write     0040d72a f   sshccp.obj
 0001:0000c85b       _check_crc                 0040d85b f   sshcrcda.obj
 0001:0000c8f5       _crc_update                0040d8f5 f   sshcrcda.obj
 0001:0000cbaa       _des_cbc_new               0040dbaa f   sshdes.obj
 0001:0000cbc7       _des_cbc_free              0040dbc7 f   sshdes.obj
 0001:0000cbe8       _des_cbc_setkey            0040dbe8 f   sshdes.obj
 0001:0000cc07       _des3_cbc1_setiv           0040dc07 f   sshdes.obj
 0001:0000cc07       _des_cbc_setiv             0040dc07 f   sshdes.obj
 0001:0000cc1c       _des_cbc_encrypt           0040dc1c f   sshdes.obj
 0001:0000cc9e       _des_cbc_decrypt           0040dc9e f   sshdes.obj
 0001:0000cd20       _des3_cbc1_new             0040dd20 f   sshdes.obj
 0001:0000cd20       _des3_sdctr_new            0040dd20 f   sshdes.obj
 0001:0000cd3d       _des3_cbc1_cbc_encrypt     0040dd3d f   sshdes.obj
 0001:0000cdfa       _des3_cbc1_cbc_decrypt     0040ddfa f   sshdes.obj
 0001:0000ceab       _des3_sdctr_free           0040deab f   sshdes.obj
 0001:0000ceab       _des3_cbc1_free            0040deab f   sshdes.obj
 0001:0000cecc       _des3_sdctr_setkey         0040decc f   sshdes.obj
 0001:0000cecc       _des3_cbc1_setkey          0040decc f   sshdes.obj
 0001:0000cf01       _des3_sdctr_setiv          0040df01 f   sshdes.obj
 0001:0000cf42       _des3_sdctr_encrypt_decrypt 0040df42 f   sshdes.obj
 0001:0000d07b       _des3_cbc3_new             0040e07b f   sshdes.obj
 0001:0000d098       _des3_cbc3_free            0040e098 f   sshdes.obj
 0001:0000d0b9       _des3_cbc3_setkey          0040e0b9 f   sshdes.obj
 0001:0000d0ee       _des3_cbc3_setiv           0040e0ee f   sshdes.obj
 0001:0000d11a       _des3_cbc3_cbc_encrypt     0040e11a f   sshdes.obj
 0001:0000d1fc       _des3_cbc3_cbc_decrypt     0040e1fc f   sshdes.obj
 0001:0000d2e2       _bitsel                    0040e2e2 f   sshdes.obj
 0001:0000d33a       _des_FP                    0040e33a f   sshdes.obj
 0001:0000d3b3       _des_IP                    0040e3b3 f   sshdes.obj
 0001:0000d42c       _des_S                     0040e42c f   sshdes.obj
 0001:0000d540       _des_f                     0040e540 f   sshdes.obj
 0001:0000d5ca       _des_inner_cipher          0040e5ca f   sshdes.obj
 0001:0000d8b3       _des_load_lr               0040e8b3 f   sshdes.obj
 0001:0000d8f9       _des_store_lr              0040e8f9 f   sshdes.obj
 0001:0000d937       _dh_group1_construct       0040e937 f   sshdh.obj
 0001:0000d95a       _dh_group14_construct      0040e95a f   sshdh.obj
 0001:0000da6b       _dh_init                   0040ea6b f   sshdh.obj
 0001:0000db58       _dss_freekey               0040eb58 f   sshdss.obj
 0001:0000dbb2       _dss_new_pub               0040ebb2 f   sshdss.obj
 0001:0000dc79       _dss_cache_str             0040ec79 f   sshdss.obj
 0001:0000dcc7       _dss_verify                0040ecc7 f   sshdss.obj
 0001:0000df01       _dss_public_blob           0040ef01 f   sshdss.obj
 0001:0000df4a       _dss_private_blob          0040ef4a f   sshdss.obj
 0001:0000df60       _dss_new_priv              0040ef60 f   sshdss.obj
 0001:0000e076       _dss_new_priv_openssh      0040f076 f   sshdss.obj
 0001:0000e109       _dss_openssh_blob          0040f109 f   sshdss.obj
 0001:0000e150       _dss_pubkey_bits           0040f150 f   sshdss.obj
 0001:0000e188       _dss_sign                  0040f188 f   sshdss.obj
 0001:0000e3e9       _ecdsa_new_priv_openssh    0040f3e9 f   sshecc.obj
 0001:0000e46c       _ecdsa_openssh_blob        0040f46c f   sshecc.obj
 0001:0000e4a5       _ec_shared_pubkey_bits     0040f4a5 f   sshecc.obj
 0001:0000e4b2       _ecdsa_verify              0040f4b2 f   sshecc.obj
 0001:0000e6a9       _eddsa_verify              0040f6a9 f   sshecc.obj
 0001:0000e826       _ecdsa_sign                0040f826 f   sshecc.obj
 0001:0000e9ad       _eddsa_sign                0040f9ad f   sshecc.obj
 0001:0000ebde       _ssh_ecdhkex_w_setup       0040fbde f   sshecc.obj
 0001:0000ec20       _ssh_ecdhkex_m_setup       0040fc20 f   sshecc.obj
 0001:0000ecb3       _ssh_ecdhkex_w_getpublic   0040fcb3 f   sshecc.obj
 0001:0000eccf       _ssh_ecdhkex_m_getpublic   0040fccf f   sshecc.obj
 0001:0000ed25       _ssh_ecdhkex_w_getkey      0040fd25 f   sshecc.obj
 0001:0000ed89       _ssh_ecdhkex_m_getkey      0040fd89 f   sshecc.obj
 0001:0000ee62       _ssh_ecdhkex_w_cleanup     0040fe62 f   sshecc.obj
 0001:0000ee70       _ec_p256                   0040fe70 f   sshecc.obj
 0001:0000ef5e       _ssh_ecdhkex_m_cleanup     0040ff5e f   sshecc.obj
 0001:0000ef6c       _ec_p384                   0040ff6c f   sshecc.obj
 0001:0000f05a       _ec_p521                   0041005a f   sshecc.obj
 0001:0000f148       _ec_curve25519             00410148 f   sshecc.obj
 0001:0000f1fc       _ec_ed25519                004101fc f   sshecc.obj
 0001:0000f310       _ecdsa_freekey             00410310 f   sshecc.obj
 0001:0000f33f       _eddsa_freekey             0041033f f   sshecc.obj
 0001:0000f36e       _ecdsa_new_pub             0041036e f   sshecc.obj
 0001:0000f423       _eddsa_new_pub             00410423 f   sshecc.obj
 0001:0000f4d6       _ecdsa_cache_str           004104d6 f   sshecc.obj
 0001:0000f51b       _eddsa_cache_str           0041051b f   sshecc.obj
 0001:0000f560       _ecdsa_public_blob         00410560 f   sshecc.obj
 0001:0000f59b       _eddsa_public_blob         0041059b f   sshecc.obj
 0001:0000f5c8       _ecdsa_private_blob        004105c8 f   sshecc.obj
 0001:0000f5fd       _eddsa_private_blob        004105fd f   sshecc.obj
 0001:0000f632       _ecdsa_new_priv            00410632 f   sshecc.obj
 0001:0000f67b       _eddsa_new_priv            0041067b f   sshecc.obj
 0001:0000f6cd       _eddsa_new_priv_openssh    004106cd f   sshecc.obj
 0001:0000f7ef       _eddsa_openssh_blob        004107ef f   sshecc.obj
 0001:0000f8b7       _BinarySink_put_epoint     004108b7 f   sshecc.obj
 0001:0000f97a       _BinarySink_put_mp_le_unsigned 0041097a f   sshecc.obj
 0001:0000f9c4       _BinarySink_put_wpoint     004109c4 f   sshecc.obj
 0001:0000faa3       _BinarySource_get_wpoint   00410aa3 f   sshecc.obj
 0001:0000facd       _ecc_cache_str_shared      00410acd f   sshecc.obj
 0001:0000fb2c       _ecdsa_decode              00410b2c f   sshecc.obj
 0001:0000fc9c       _ecdsa_signing_exponent_from_data 00410c9c f   sshecc.obj
 0001:0000fd25       _eddsa_decode              00410d25 f   sshecc.obj
 0001:0000fdbc       _eddsa_exponent_from_hash  00410dbc f   sshecc.obj
 0001:0000fee2       _eddsa_signing_exponent_from_data 00410ee2 f   sshecc.obj
 0001:0000ff6e       _initialise_common         00410f6e f   sshecc.obj
 0001:0000ff9e       _initialise_wcurve         00410f9e f   sshecc.obj
 0001:0000ffe4       _mp__from_string_literal   00410fe4 f   sshecc.obj
 0001:0000ffe4       _mp__from_string_literal   00410fe4 f   sshdh.obj
 0001:0001007f       _hmac_new                  0041107f f   sshhmac.obj
 0001:0001017f       _hmac_free                 0041117f f   sshhmac.obj
 0001:000101d2       _hmac_key                  004111d2 f   sshhmac.obj
 0001:0001033b       _hmac_start                0041133b f   sshhmac.obj
 0001:0001035f       _hmac_genresult            0041135f f   sshhmac.obj
 0001:000103c1       _hmac_text_name            004113c1 f   sshhmac.obj
 0001:000103cb       _md5_new                   004113cb f   sshmd5.obj
 0001:000103f3       _md5_copy                  004113f3 f   sshmd5.obj
 0001:00010415       _md5_free                  00411415 f   sshmd5.obj
 0001:00010430       _md5_final                 00411430 f   sshmd5.obj
 0001:0001058d       _MD5_BinarySink_write      0041158d f   sshmd5.obj
 0001:00010664       _MD5_Block                 00411664 f   sshmd5.obj
 0001:00011110       _init_primes_array         00412110 f   sshprime.obj
 0001:000111d6       _mp_mod_short              004121d6 f   sshprime.obj
 0001:0001197a       _prng_seed_BinarySink_write 0041297a f   sshprng.obj
 0001:00011a97       _rsa2_freekey              00412a97 f   sshrsa.obj
 0001:00011aaf       _rsa2_new_pub              00412aaf f   sshrsa.obj
 0001:00011b49       _rsa2_cache_str            00412b49 f   sshrsa.obj
 0001:00011b58       _rsa2_public_blob          00412b58 f   sshrsa.obj
 0001:00011b8b       _rsa2_private_blob         00412b8b f   sshrsa.obj
 0001:00011bc7       _rsa2_new_priv             00412bc7 f   sshrsa.obj
 0001:00011c57       _rsa2_new_priv_openssh     00412c57 f   sshrsa.obj
 0001:00011ce2       _rsa2_openssh_blob         00412ce2 f   sshrsa.obj
 0001:00011d34       _rsa2_pubkey_bits          00412d34 f   sshrsa.obj
 0001:00011d6c       _rsa2_verify               00412d6c f   sshrsa.obj
 0001:00011ea8       _rsa2_sign                 00412ea8 f   sshrsa.obj
 0001:00012098       _append_hex_to_strbuf      00413098 f   sshdss.obj
 0001:00012098       _append_hex_to_strbuf      00413098 f   sshrsa.obj
 0001:000122cf       _oaep_mask                 004132cf f   sshrsa.obj
 0001:00012396       _rsa2_hash_alg_for_flags   00413396 f   sshrsa.obj
 0001:000123d1       _rsa_pkcs1_prefix_for_hash 004133d1 f   sshrsa.obj
 0001:00012424       _rsa_pkcs1_signature_string 00413424 f   sshrsa.obj
 0001:000124ce       _rsa_privkey_op            004134ce f   sshrsa.obj
 0001:00012d35       _sha256_select             00413d35 f   sshsh256.obj
 0001:00012d4e       _sha256_sw_new             00413d4e f   sshsh256.obj
 0001:00012d95       _sha256_sw_copy            00413d95 f   sshsh256.obj
 0001:00012dc9       _sha256_ni_new             00413dc9 f   sshsh256.obj
 0001:00012e18       _sha256_sw_free            00413e18 f   sshsh256.obj
 0001:00012e36       _sha256_sw_final           00413e36 f   sshsh256.obj
 0001:00012e83       _sha256_ni_final           00413e83 f   sshsh256.obj
 0001:00012ed8       _sha256_block_pad          00413ed8 f   sshsh256.obj
 0001:00012f57       _sha1_block_write          00413f57 f   sshsha.obj
 0001:00012f57       _sha256_block_write        00413f57 f   sshsh256.obj
 0001:00012fad       _sha256_hw_available_cached 00413fad f   sshsh256.obj
 0001:00012fce       _sha256_ni_alloc           00413fce f   sshsh256.obj
 0001:00012fce       _sha1_ni_alloc             00413fce f   sshsha.obj
 0001:00012feb       _sha256_ni_block           00413feb f   sshsh256.obj
 0001:000132e1       _sha256_ni_write           004142e1 f   sshsh256.obj
 0001:0001331d       _sha256_sw_block           0041431d f   sshsh256.obj
 0001:0001361b       _sha256_sw_round           0041461b f   sshsh256.obj
 0001:000136a3       _sha256_sw_write           004146a3 f   sshsh256.obj
 0001:000136df       _sha512_new                004146df f   sshsh512.obj
 0001:00013713       _sha512_copy               00414713 f   sshsh512.obj
 0001:0001373b       _sha512_free               0041473b f   sshsh512.obj
 0001:0001375c       _sha512_final              0041475c f   sshsh512.obj
 0001:0001377c       _sha384_new                0041477c f   sshsh512.obj
 0001:000137b0       _sha384_final              004147b0 f   sshsh512.obj
 0001:000137d0       _GET_64BIT_MSB_FIRST       004147d0 f   sshdes.obj
 0001:000137d0       _GET_64BIT_MSB_FIRST       004147d0 f   sshsh512.obj
 0001:000138d7       _SHA512_BinarySink_write   004148d7 f   sshsh512.obj
 0001:00013a26       _SHA512_Block              00414a26 f   sshsh512.obj
 0001:00014900       _sha1_select               00415900 f   sshsha.obj
 0001:00014919       _sha1_sw_new               00415919 f   sshsha.obj
 0001:0001495d       _sha1_sw_copy              0041595d f   sshsha.obj
 0001:0001498c       _sha1_ni_new               0041598c f   sshsha.obj
 0001:000149db       _sha1_ni_copy              004159db f   sshsha.obj
 0001:000149db       _sha256_ni_copy            004159db f   sshsh256.obj
 0001:00014a0c       _sha1_sw_free              00415a0c f   sshsha.obj
 0001:00014a27       _sha1_ni_free              00415a27 f   sshsha.obj
 0001:00014a27       _sha256_ni_free            00415a27 f   sshsh256.obj
 0001:00014a48       _sha1_sw_final             00415a48 f   sshsha.obj
 0001:00014a95       _sha1_ni_final             00415a95 f   sshsha.obj
 0001:00014aeb       _sha1_block_pad            00415aeb f   sshsha.obj
 0001:00014b6a       _sha1_hw_available         00415b6a f   sshsha.obj
 0001:00014b6a       _sha256_hw_available       00415b6a f   sshsh256.obj
 0001:00014bb3       _sha1_hw_available_cached  00415bb3 f   sshsha.obj
 0001:00014bd4       _sha1_ni_block             00415bd4 f   sshsha.obj
 0001:00014e16       _sha1_ni_write             00415e16 f   sshsha.obj
 0001:00014e52       _sha1_sw_block             00415e52 f   sshsha.obj
 0001:00015270       _sha1_sw_write             00416270 f   sshsha.obj
 0001:000152ac       _add_finaliser             004162ac f   testcrypt.obj
 0001:000155ee       _fatal_error               004165ee f   testcrypt.obj
 0001:00015635       _finaliser_return_uint     00416635 f   testcrypt.obj
 0001:00015655       _finaliser_return_value    00416655 f   testcrypt.obj
 0001:00015679       _finaliser_sfree           00416679 f   testcrypt.obj
 0001:00015684       _free_all_values           00416684 f   testcrypt.obj
 0001:000156bc       _free_value                004166bc f   testcrypt.obj
 0001:000157a4       $LN36                      004167a4     testcrypt.obj
 0001:000157f0       _get_hashalg               004167f0 f   testcrypt.obj
 0001:0001583f       _get_keyalg                0041683f f   testcrypt.obj
 0001:0001588e       _get_opt_val_mpint         0041688e f   testcrypt.obj
 0001:000158cc       _get_out_uint              004168cc f   testcrypt.obj
 0001:000158ec       _get_out_val_mpint         004168ec f   testcrypt.obj
 0001:00015909       _get_out_val_string_binarysink 00416909 f   testcrypt.obj
 0001:00015931       _get_rsaorder              00416931 f   testcrypt.obj
 0001:00015980       _get_uint                  00416980 f   testcrypt.obj
 0001:000159b4       _get_val_cipher            004169b4 f   testcrypt.obj
 0001:000159c9       _get_val_dh                004169c9 f   testcrypt.obj
 0001:00015a03       _get_val_ecdh              00416a03 f   testcrypt.obj
 0001:00015a3d       _get_val_ecurve            00416a3d f   testcrypt.obj
 0001:00015a77       _get_val_epoint            00416a77 f   testcrypt.obj
 0001:00015ab1       _get_val_key               00416ab1 f   testcrypt.obj
 0001:00015aeb       _get_val_mac               00416aeb f   testcrypt.obj
 0001:00015b25       _get_val_modsqrt           00416b25 f   testcrypt.obj
 0001:00015b5f       _get_val_monty             00416b5f f   testcrypt.obj
 0001:00015b99       _get_val_mpint             00416b99 f   testcrypt.obj
 0001:00015bae       _get_val_mpoint            00416bae f   testcrypt.obj
 0001:00015be8       _get_val_prng              00416be8 f   testcrypt.obj
 0001:00015c22       _get_val_rsa               00416c22 f   testcrypt.obj
 0001:00015c5c       _get_val_rsakex            00416c5c f   testcrypt.obj
 0001:00015c96       _get_val_string            00416c96 f   testcrypt.obj
 0001:00015ccf       _get_val_string_binarysource 00416ccf f   testcrypt.obj
 0001:00015d12       _get_val_string_ptrlen     00416d12 f   testcrypt.obj
 0001:00015d23       _get_val_wcurve            00416d23 f   testcrypt.obj
 0001:00015d5d       _get_val_wpoint            00416d5d f   testcrypt.obj
 0001:00015d97       _get_value                 00416d97 f   testcrypt.obj
 0001:00015dab       _get_value_hash            00416dab f   testcrypt.obj
 0001:00015de2       _get_word                  00416de2 f   testcrypt.obj
 0001:00015e1f       _handle_des3_decrypt_pubkey_ossh 00416e1f f   testcrypt.obj
 0001:00015e69       _handle_des3_encrypt_pubkey_ossh 00416e69 f   testcrypt.obj
 0001:00015eb3       _handle_dh_setup_group     00416eb3 f   testcrypt.obj
 0001:00015f19       _handle_ecc_edwards_curve  00416f19 f   testcrypt.obj
 0001:00015f60       _handle_ecc_montgomery_point_new 00416f60 f   testcrypt.obj
 0001:00015fb9       _handle_ecc_weierstrass_curve 00416fb9 f   testcrypt.obj
 0001:00016000       _handle_getstring          00417000 f   testcrypt.obj
 0001:0001606c       _handle_mp_dump            0041706c f   testcrypt.obj
 0001:000160b9       _handle_mp_literal         004170b9 f   testcrypt.obj
 0001:0001610a       _handle_newstring          0041710a f   testcrypt.obj
 0001:00016194       _handle_primegen           00417194 f   testcrypt.obj
 0001:000161e9       _handle_ssh2_mac_new       004171e9 f   testcrypt.obj
 0001:00016283       _handle_ssh_cipher_new     00417283 f   testcrypt.obj
 0001:000162f6       _handle_ssh_ecdhkex_newkey 004172f6 f   testcrypt.obj
 0001:00016357       _handle_ssh_key_invalid    00417357 f   testcrypt.obj
 0001:0001639c       _handle_ssh_key_sign       0041739c f   testcrypt.obj
 0001:000163e5       _handle_ssh_key_verify     004173e5 f   testcrypt.obj
 0001:00016427       _handle_ssh_rsakex_decrypt 00417427 f   testcrypt.obj
 0001:00016476       _lookup_value              00417476 f   testcrypt.obj
 0001:0001681f       _process_line              0041781f f   testcrypt.obj
 0001:00018b33       _return_boolean            00419b33 f   testcrypt.obj
 0001:00018b58       _return_opt_val_key        00419b58 f   testcrypt.obj
 0001:00018b75       _return_uint               00419b75 f   testcrypt.obj
 0001:00018e9d       _return_val_string_asciz   00419e9d f   testcrypt.obj
 0001:00018eb7       _return_val_string_asciz_const 00419eb7 f   testcrypt.obj
 0001:00019187       _unwrap_value_cipher       0041a187 f   testcrypt.obj
 0001:000191b8       _unwrap_value_mpint        0041a1b8 f   testcrypt.obj
 0001:000191e9       _value_new                 0041a1e9 f   testcrypt.obj
 0001:00019298       _valuecmp                  0041a298 f   testcrypt.obj
 0001:00019298       _valuefind                 0041a298 f   testcrypt.obj
 0001:000192d0       _add234_internal           0041a2d0 f   tree234.obj
 0001:000197d9       _countnode234              0041a7d9 f   tree234.obj
 0001:00019870       _delpos234_internal        0041a870 f   tree234.obj
 0001:00019e0e       _freenode234               0041ae0e f   tree234.obj
 0001:0001a267       _dupvprintf_inner          0041b267 f   utils.obj
 0001:0001a45e       _strbuf_BinarySink_write   0041b45e f   utils.obj
 0001:0001a543       _strbuf_new_general        0041b543 f   utils.obj
 0001:0001a650       $$000000                   0041b650     LIBCMT:llmul.obj
 0001:0001a690       $$000000                   0041b690     LIBCMT:llshl.obj
 0001:0001a6b0       $$000000                   0041b6b0     LIBCMT:ullshr.obj
 0001:0001a8d0       $$000000                   0041b8d0     LIBCMT:chkstk.obj
 0001:0001a91a       ?find_pe_section@@YAPAU_IMAGE_SECTION_HEADER@@QAEI@Z 0041b91a f   LIBCMT:utility.obj
 0001:0001ab82       ?pre_c_initialization@@YAHXZ 0041bb82 f   LIBCMT:exe_main.obj
 0001:0001ac26       ?post_pgo_initialization@@YAHXZ 0041bc26 f   LIBCMT:exe_main.obj
 0001:0001ac2e       ?pre_cpp_initialization@@YAXXZ 0041bc2e f   LIBCMT:exe_main.obj
 0001:0001ac40       ?__scrt_common_main_seh@@YAHXZ 0041bc40 f   LIBCMT:exe_main.obj
 0001:0001b0e0       $$000000                   0041c0e0     LIBCMT:_sehprolg4_.obj
 0001:0001b1d7       _dss_invalid               0041c1d7 f   sshdss.obj
 0001:0001b1d7       _ec_signkey_invalid        0041c1d7 f   sshecc.obj
 0001:0001b20d       _arcfour_ssh2_setiv        0041c20d f   ssharcf.obj
 0001:0001b20d       _poly_ssh2_free            0041c20d f   sshccp.obj
 0001:0001b20d       _poly_setkey               0041c20d f   sshccp.obj
 0001:0001b20d       _ccp_iv                    0041c20d f   sshccp.obj
 0001:0001b20d       _no_progress               0041c20d f   testcrypt.obj
 0001:0001b2b0       $$000000                   0041c2b0     libvcruntime:memchr.obj
 0001:0001b360       $$000000                   0041c360     libvcruntime:memset.obj
 0001:0001b4c0       $$000000                   0041c4c0     libvcruntime:memcpy.obj
 0001:0001b724       TrailingUpVec              0041c724     libvcruntime:memcpy.obj
 0001:0001b7d0       TrailingDownVec            0041c7d0     libvcruntime:memcpy.obj
 0001:0001ba40       $$000000                   0041ca40     libvcruntime:memmove.obj
 0001:0001bca4       TrailingUpVec              0041cca4     libvcruntime:memmove.obj
 0001:0001bd50       TrailingDownVec            0041cd50     libvcruntime:memmove.obj
 0001:0001d6b4       $LN1281                    0041e6b4     libvcruntime:_memcmp_.obj
 0001:0001d740       $$000000                   0041e740     libvcruntime:strchr.obj
 0001:0001d8c0       _ValidateLocalCookies      0041e8c0 f   libvcruntime:_chandler4_.obj
 0001:0001db3b       ?try_get_function@@YAPAXW4function_id@?A0x89697e75@@QBDQBW4module_id@2@2@Z 0041eb3b f   libvcruntime:winapi_downlevel.obj
 0001:0001dbdb       ?try_get_module@@YAPAUHINSTANCE__@@W4module_id@?A0x89697e75@@@Z 0041ebdb f   libvcruntime:winapi_downlevel.obj
 0001:0001dde0       $$000000                   0041ede0     libvcruntime:_exsup4_.obj
 0001:0001de70       __unwind_handler4          0041ee70 f   libvcruntime:_exsup4_.obj
 0001:0001df40       $$000000                   0041ef40     libvcruntime:_exsup_.obj
 0001:0001df60       __unwind_handler           0041ef60 f   libvcruntime:_exsup_.obj
 0001:0001e077       ??$common_assert_to_message_box@_W@@YAXQB_W0IQAX@Z 0041f077 f   libucrt:assert.obj
 0001:0001e113       ??$common_assert_to_message_box_build_string@_W@@YAXQA_WIQB_W1IQAX@Z 0041f113 f   libucrt:assert.obj
 0001:0001e658       ??$common_assert_to_stderr@_W@@YAXQB_W0I@Z 0041f658 f   libucrt:assert.obj
 0001:0001e703       ?common_assert_to_stderr_direct@@YAXQB_W0I@Z 0041f703 f   libucrt:assert.obj
 0001:0001e7b4       ?get_assert_format@@YAPB_W_W@Z 0041f7b4 f   libucrt:assert.obj
 0001:0001e890       $$000000                   0041f890     libucrt:strlen.obj
 0001:0001ea28       ??$common_vsprintf@Vstandard_base@__crt_stdio_output@@D@@YAH_KQADIQBDQAU__crt_locale_pointers@@1@Z 0041fa28 f   libucrt:output.obj
 0001:0001eba4       ??$common_vsprintf@Vstandard_base@__crt_stdio_output@@_W@@YAH_KQA_WIQB_WQAU__crt_locale_pointers@@QAD@Z 0041fba4 f   libucrt:output.obj
 0001:0001f261       ??R<lambda_481dd5778c961fbcd3b60b650e9b9dc4>@@QBEHXZ 00420261 f   libucrt:output.obj
 0001:0001f31e       ??R<lambda_4f2c1eaeead2a5fc776db5b62ea0fb9b>@@QBEHXZ 0042031e f   libucrt:output.obj
 0001:0001f6aa       $LN54                      004206aa     libucrt:output.obj
 0001:0001f7c6       $LN54                      004207c6     libucrt:output.obj
 0001:0001f8e6       $LN54                      004208e6     libucrt:output.obj
 0001:0001fa06       $LN54                      00420a06     libucrt:output.obj
 0001:00020c1e       $LN19                      00421c1e     libucrt:output.obj
 0001:00021ee4       _common_flush_all          00422ee4 f   libucrt:fflush.obj
 0001:00022015       ??$common_fsopen@D@@YAPAU_iobuf@@QBD0H@Z 00423015 f   libucrt:fopen.obj
 0001:000222a6       ?atexit_exception_filter@@YAHK@Z 004232a6 f   libucrt:exit.obj
 0001:000222b9       ?common_exit@@YAXHW4_crt_exit_cleanup_mode@@W4_crt_exit_return_mode@@@Z 004232b9 f   libucrt:exit.obj
 0001:000223d2       ?exit_or_terminate_process@@YAXI@Z 004233d2 f   libucrt:exit.obj
 0001:00022413       ?is_managed_app@@YA_NXZ    00423413 f   libucrt:exit.obj
 0001:00022457       ?try_cor_exit_process@@YAXI@Z 00423457 f   libucrt:exit.obj
 0001:00023320       $$000000                   00424320     libucrt:strcmp.obj
 0001:000233ac       ??$common_strerror@D@@YAPADH@Z 004243ac f   libucrt:strerror.obj
 0001:00023457       ??$common_fgets@D@@YAPADQADHV__crt_stdio_stream@@@Z 00424457 f   libucrt:fgets.obj
 0001:00023590       $$000000                   00424590     libucrt:strcat.obj
 0001:00023690       $$000000                   00424690     libucrt:strcspn.obj
 0001:00023849       ??$common_configure_argv@D@@YAHW4_crt_argv_mode@@@Z 00424849 f   libucrt:argv_parsing.obj
 0001:0002396d       ??$parse_command_line@D@@YAXPADPAPAD0PAI2@Z 0042496d f   libucrt:argv_parsing.obj
 0001:00023b42       ??$common_get_or_create_environment_nolock@D@@YAPAPADXZ 00424b42 f   libucrt:environment_initialization.obj
 0001:00023b71       ??$common_initialize_environment_nolock@D@@YAHXZ 00424b71 f   libucrt:environment_initialization.obj
 0001:00023bca       ??$create_environment@D@@YAQAPADQAD@Z 00424bca f   libucrt:environment_initialization.obj
 0001:00023c9b       ??$free_environment@_W@@YAXQAPA_W@Z 00424c9b f   libucrt:environment_initialization.obj
 0001:00023c9b       ??$free_environment@D@@YAXQAPAD@Z 00424c9b f   libucrt:environment_initialization.obj
 0001:00023cca       ??$initialize_environment_by_cloning_nolock@D@@YAHXZ 00424cca f   libucrt:environment_initialization.obj
 0001:00023d89       ??$uninitialize_environment_internal@D@@YAXAAPAPAD@Z 00424d89 f   libucrt:environment_initialization.obj
 0001:00023da4       ??$uninitialize_environment_internal@_W@@YAXAAPAPA_W@Z 00424da4 f   libucrt:environment_initialization.obj
 0001:00023f25       ??R<lambda_275893d493268fdec8709772e3fcec0e>@@QBEHXZ 00424f25 f   libucrt:onexit.obj
 0001:00024045       ??R<lambda_4e60a939b0d047cfe11ddc22648dfba9>@@QBEHXZ 00425045 f   libucrt:onexit.obj
 0001:0002421a       _initialize_global_variables 0042521a f   libucrt:initialization.obj
 0001:0002422c       _initialize_c              0042522c f   libucrt:initialization.obj
 0001:00024246       _initialize_global_state_isolation 00425246 f   libucrt:initialization.obj
 0001:00024246       _report_memory_leaks       00425246 f   libucrt:initialization.obj
 0001:00024246       _uninitialize_global_state_isolation 00425246 f   libucrt:initialization.obj
 0001:00024246       _uninitialize_c            00425246 f   libucrt:initialization.obj
 0001:00024246       _initialize_environment    00425246 f   libucrt:initialization.obj
 0001:00024249       _uninitialize_environment  00425249 f   libucrt:initialization.obj
 0001:00024251       _initialize_pointers       00425251 f   libucrt:initialization.obj
 0001:0002428e       _uninitialize_vcruntime    0042528e f   libucrt:initialization.obj
 0001:00024297       _uninitialize_allocated_memory 00425297 f   libucrt:initialization.obj
 0001:00024ae4       ??$common_xtox@K_W@@YAHKQA_WII_N@Z 00425ae4 f   libucrt:xtoa.obj
 0001:00024b72       ??$common_xtox_s@K_W@@YAHKQA_WII_N@Z 00425b72 f   libucrt:xtoa.obj
 0001:00024d1e       ??$common_tcsncat_s@_W@@YAHQA_WIQB_WI@Z 00425d1e f   libucrt:wcsncat_s.obj
 0001:00024e12       ??$common_show_message_box@_W@@YAHQB_W0I@Z 00425e12 f   libucrt:crtmbox.obj
 0001:00024eeb       ??$message_box_wait_thread@_W@@YGKQAX@Z 00425eeb f   libucrt:crtmbox.obj
 0001:00024f91       ??R<lambda_b721fa326cdb32351d23dfa67958c160>@@QBEHXZ 00425f91 f   libucrt:setvbuf.obj
 0001:0002502b       ?set_buffer@@YAHV__crt_stdio_stream@@QADIH@Z 0042602b f   libucrt:setvbuf.obj
 0001:00025156       ?get_global_action_nolock@@YAPAP6AXH@ZH@Z 00426156 f   libucrt:signal.obj
 0001:00025198       ?siglookup@@YAPAU__crt_signal_action_t@@HQAU1@@Z 00426198 f   libucrt:signal.obj
 0001:00025423       ?write_double_translated_ansi_nolock@@YA?AUwrite_result@?A0x47fa6670@@HQBDI@Z 00426423 f   libucrt:write.obj
 0001:000255d6       ?write_double_translated_unicode_nolock@@YA?AUwrite_result@?A0x47fa6670@@QBDI@Z 004265d6 f   libucrt:write.obj
 0001:00025643       ?write_requires_double_translation_nolock@@YA_NH@Z 00426643 f   libucrt:write.obj
 0001:000256b9       ?write_text_ansi_nolock@@YA?AUwrite_result@?A0x47fa6670@@HQBDI@Z 004266b9 f   libucrt:write.obj
 0001:00025798       ?write_text_utf16le_nolock@@YA?AUwrite_result@?A0x47fa6670@@HQBDI@Z 00426798 f   libucrt:write.obj
 0001:00025886       ?write_text_utf8_nolock@@YA?AUwrite_result@?A0x47fa6670@@HQBDI@Z 00426886 f   libucrt:write.obj
 0001:00025cd0       ??$common_flush_and_write_nolock@D@@YAHHV__crt_stdio_stream@@@Z 00426cd0 f   libucrt:_flsbuf.obj
 0001:00025de1       ??$common_flush_and_write_nolock@_W@@YAHHV__crt_stdio_stream@@@Z 00426de1 f   libucrt:_flsbuf.obj
 0001:00025ef6       ??$write_buffer_nolock@D@@YA_NDV__crt_stdio_stream@@@Z 00426ef6 f   libucrt:_flsbuf.obj
 0001:00025fc2       ??$write_buffer_nolock@_W@@YA_N_WV__crt_stdio_stream@@@Z 00426fc2 f   libucrt:_flsbuf.obj
 0001:00026203       ?initialize_inherited_file_handles_nolock@@YAXXZ 00427203 f   libucrt:ioinit.obj
 0001:000262b9       ?initialize_stdio_handles_nolock@@YAXXZ 004272b9 f   libucrt:ioinit.obj
 0001:000263f1       ??$common_tox_l@$1?internal_isupper_l@@YA_NHQAU__crt_locale_pointers@@@Z$1?internal_map_lower@@YAHH0@Z@@YAHHKQAU__crt_locale_pointers@@@Z 004273f1 f   libucrt:tolower_toupper.obj
 0001:0002653b       ?internal_isupper_l@@YA_NHQAU__crt_locale_pointers@@@Z 0042753b f   libucrt:tolower_toupper.obj
 0001:00026cb6       ?construct_ptd@@YAXQAU__acrt_ptd@@QAPAU__crt_locale_data@@@Z 00427cb6 f   libucrt:per_thread_data.obj
 0001:00026d2f       ?destroy_fls@@YGXPAX@Z     00427d2f f   libucrt:per_thread_data.obj
 0001:00026d50       ?destroy_ptd@@YAXQAU__acrt_ptd@@@Z 00427d50 f   libucrt:per_thread_data.obj
 0001:00026df9       ?replace_current_thread_locale_nolock@@YAXQAU__acrt_ptd@@QAU__crt_locale_data@@@Z 00427df9 f   libucrt:per_thread_data.obj
 0001:00027077       ?fp_format_a@@YAHQBNPADIQADIH_NIQAU__crt_locale_pointers@@@Z 00428077 f   libucrt:cvt.obj
 0001:0002737a       ?fp_format_e@@YAHQBNQADI1IH_NIQAU__crt_locale_pointers@@@Z 0042837a f   libucrt:cvt.obj
 0001:00027415       ?fp_format_e_internal@@YAHQADIH_NIQAU_strflt@@1QAU__crt_locale_pointers@@@Z 00428415 f   libucrt:cvt.obj
 0001:00027560       ?fp_format_f@@YAHQBNQADI1IHQAU__crt_locale_pointers@@@Z 00428560 f   libucrt:cvt.obj
 0001:000275ed       ?fp_format_f_internal@@YAHQADIHQAU_strflt@@_NQAU__crt_locale_pointers@@@Z 004285ed f   libucrt:cvt.obj
 0001:000276c4       ?fp_format_g@@YAHQBNQADI1IH_NIQAU__crt_locale_pointers@@@Z 004286c4 f   libucrt:cvt.obj
 0001:0002778c       ?fp_format_nan_or_infinity@@YAHW4__acrt_fp_class@@_NPADI1@Z 0042878c f   libucrt:cvt.obj
 0001:00027884       ?shift_bytes@@YAXQADI0H@Z  00428884 f   libucrt:cvt.obj
 0001:00027a02       ?fputwc_binary_nolock@@YAG_WV__crt_stdio_stream@@@Z 00428a02 f   libucrt:fputwc.obj
 0001:00027b6f       ?try_get_CompareStringEx@@YAP6GHPB_WK0H0HPAU_nlsversioninfo@@PAXJ@ZXZ 00428b6f f   libucrt:winapi_thunks.obj
 0001:00027b89       ?try_get_MessageBoxA@@YAP6GHPAUHWND__@@PBD1I@ZXZ 00428b89 f   libucrt:winapi_thunks.obj
 0001:00027ba3       ?try_get_MessageBoxW@@YAP6GHPAUHWND__@@PB_W1I@ZXZ 00428ba3 f   libucrt:winapi_thunks.obj
 0001:00027bbd       ?try_get_function@@YAPAXW4function_id@?A0x352e5c4b@@QBDQBW4module_id@2@2@Z 00428bbd f   libucrt:winapi_thunks.obj
 0001:00027c59       ?try_get_module@@YAPAUHINSTANCE__@@W4module_id@?A0x352e5c4b@@@Z 00428c59 f   libucrt:winapi_thunks.obj
 0001:000285de       ?find_or_allocate_unused_stream_nolock@@YA?AV__crt_stdio_stream@@XZ 004295de f   libucrt:stream.obj
 0001:00028aa2       ??$common_openfile@D@@YAPAU_iobuf@@QBD0HV__crt_stdio_stream@@@Z 00429aa2 f   libucrt:openfile.obj
 0001:00028d88       ??$common_tcsncpy_s@D@@YAHQADIQBDI@Z 00429d88 f   libucrt:strncpy_s.obj
 0001:00028e8b       ??$translate_text_mode_nolock@D@@YAHHQADI@Z 00429e8b f   libucrt:read.obj
 0001:00028fe2       ??$translate_text_mode_nolock@_W@@YAHHQA_WI@Z 00429fe2 f   libucrt:read.obj
 0001:000291a2       ?translate_ansi_or_utf8_nolock@@YAHHQADIQA_WI@Z 0042a1a2 f   libucrt:read.obj
 0001:000292f2       ?translate_utf16_from_console_nolock@@YAHHQA_WI@Z 0042a2f2 f   libucrt:read.obj
 0001:0002983b       ??$common_refill_and_read_nolock@D@@YAHV__crt_stdio_stream@@@Z 0042a83b f   libucrt:_filbuf.obj
 0001:000299c7       ?<helper_func_cdecl>@<lambda_62bb7ecb46d0a77b591a051c43eb5ad1>@@CAHPBX0@Z 0042a9c7 f   libucrt:argv_wildcards.obj
 0001:000299df       ??$common_expand_argv_wildcards@D@@YAHQAPADQAPAPAD@Z 0042a9df f   libucrt:argv_wildcards.obj
 0001:00029b6f       ??$copy_and_add_argument_to_buffer@D@@YAHQBD0IAAV?$argument_list@D@?A0xb0e4b824@@@Z 0042ab6f f   libucrt:argv_wildcards.obj
 0001:00029c05       ??$expand_argument_wildcards@D@@YAHQAD0AAV?$argument_list@D@?A0xb0e4b824@@@Z 0042ac05 f   libucrt:argv_wildcards.obj
 0001:00029ee0       ??R<lambda_ad1ced32f4ac17aa236e5ef05d6b3b7c>@@QBEXXZ 0042aee0 f   libucrt:mbctype.obj
 0001:00029fa4       ?CPtoLocaleName@@YAPB_WH@Z 0042afa4 f   libucrt:mbctype.obj
 0001:00029fe2       ?getSystemCP@@YAHH@Z       0042afe2 f   libucrt:mbctype.obj
 0001:0002a055       ?setSBCS@@YAXPAU__crt_multibyte_data@@@Z 0042b055 f   libucrt:mbctype.obj
 0001:0002a0ba       ?setSBUpLow@@YAXPAU__crt_multibyte_data@@@Z 0042b0ba f   libucrt:mbctype.obj
 0001:0002a24e       ?setmbcp_internal@@YAHH_N@Z 0042b24e f   libucrt:mbctype.obj
 0001:0002a600       _memcpy_s                  0042b600 f   libucrt:assert.obj
 0001:0002a600       _memcpy_s                  0042b600 f   libucrt:cfout.obj
 0001:0002a600       _memcpy_s                  0042b600 f   libucrt:mbctype.obj
 0001:0002a681       ?x_ismbbtype_l@@YAHPAU__crt_locale_pointers@@IHH@Z 0042b681 f   libucrt:ismbbyte.obj
 0001:0002a6f2       ?find_end_of_double_null_terminated_sequence@@YAPB_WQB_W@Z 0042b6f2 f   libucrt:get_environment_from_os.obj
 0001:0002a7ac       ??$common_set_variable_in_environment_nolock@D@@YAHQADH@Z 0042b7ac f   libucrt:setenv.obj
 0001:0002a9e7       ??$copy_environment@D@@YAPAPADQAPAD@Z 0042b9e7 f   libucrt:setenv.obj
 0001:0002aa98       ??$find_in_environment_nolock@D@@YAHQBDI@Z 0042ba98 f   libucrt:setenv.obj
 0001:0002b299       ?free_crt_array_internal@@YAXQAPBXI@Z 0042c299 f   libucrt:inittime.obj
 0001:0002b887       ___hw_cw_sse2              0042c887 f   libucrt:ieee87.obj
 0001:0002bd12       __hw_cw                    0042cd12 f   libucrt:ieee87.obj
 0001:0002be01       ??$common_lseek@_J@@YA_JH_JH@Z 0042ce01 f   libucrt:lseek.obj
 0001:0002bf06       ??$common_lseek_nolock@_J@@YA_JH_JH@Z 0042cf06 f   libucrt:lseek.obj
 0001:0002c095       ?__acrt_LCMapStringA_stat@@YAHPAU__crt_locale_pointers@@PB_WKPBDHPADHHH@Z 0042d095 f   libucrt:lcmapstringa.obj
 0001:0002dc3a       ?GetTableIndexFromLocaleName@@YAHPB_W@Z 0042ec3a f   libucrt:lcidtoname_downlevel.obj
 0001:0002dd30       $$000000                   0042ed30     libucrt:strncmp.obj
 0001:0002decb       ??$common_sopen_dispatch@D@@YAHQBDHHHQAHH@Z 0042eecb f   libucrt:open.obj
 0001:0002df97       ?configure_text_mode@@YAHHUfile_options@?A0x704126de@@HAAW4__crt_lowio_text_mode@@@Z 0042ef97 f   libucrt:open.obj
 0001:0002e1e4       ?create_file@@YAPAXQB_WQAU_SECURITY_ATTRIBUTES@@Ufile_options@?A0x704126de@@@Z 0042f1e4 f   libucrt:open.obj
 0001:0002e209       ?decode_open_create_flags@@YAKH@Z 0042f209 f   libucrt:open.obj
 0001:0002e279       ?decode_options@@YA?AUfile_options@?A0x704126de@@HHH@Z 0042f279 f   libucrt:open.obj
 0001:0002e3f5       ?truncate_ctrl_z_if_present@@YAHH@Z 0042f3f5 f   libucrt:open.obj
 0001:0002e840       ?shortsort@@YAXPAD0IP6AHPBX1@Z@Z 0042f840 f   libucrt:qsort.obj
 0001:0002e8e0       ?swap@@YAXPAD0I@Z          0042f8e0 f   libucrt:qsort.obj
 0001:0002ecc0       $$000000                   0042fcc0     libucrt:strpbrk.obj
 0001:0002eda4       ?initialize_multibyte@@YAHXZ 0042fda4 f   libucrt:multibyte_initializer.obj
 0001:0002f110       $$000000                   00430110     libucrt:log10.obj
 0001:0002f260       $$000000                   00430260     libucrt:ceil_pentium4.obj
 0001:0002f380       $$000000                   00430380     libucrt:_strnicm.obj
 0001:0002f639       ?InternalCompareStringA@@YAHPAU__crt_locale_pointers@@PB_WKPBDH2HH@Z 00430639 f   libucrt:comparestringa.obj
 0001:0002f929       ___get_abstract_control_sse2 00430929 f   libucrt:_fenvutils.obj
 0001:0002f9a6       ___get_abstract_control_x87 004309a6 f   libucrt:_fenvutils.obj
 0001:0002fa19       ___get_machine_control     00430a19 f   libucrt:_fenvutils.obj
 0001:0002fa8a       ___get_machine_control_sse2 00430a8a f   libucrt:_fenvutils.obj
 0001:0002fb0a       ___get_machine_status_sse2 00430b0a f   libucrt:_fenvutils.obj
 0001:0002fb6b       ___get_machine_status_x87  00430b6b f   libucrt:_fenvutils.obj
 0001:0002fdd0       $$000000                   00430dd0     libucrt:log10_pentium4.obj
 0001:00030060       $$000000                   00431060     libucrt:87tran.obj
 0001:00030260       $$000000                   00431260     libucrt:87disp.obj
 0001:00030460       $$000000                   00431460     libucrt:common.obj
 0001:000305f0       $$000000                   004315f0     libucrt:genexcep.obj
 0001:000315f0       $$000000                   004325f0     LIBCMT:ulldvrm.obj
 0001:00031690       $$000000                   00432690     LIBCMT:_sehprolg4gs_.obj
 0001:000316f0       $$000000                   004326f0     LIBCMT:lldvrm.obj
 0001:000317d0       $$000000                   004327d0     LIBCMT:alloca16.obj
 0001:00031800       $$000000                   00432800     LIBCMT:_ftol2_.obj
 0001:000318c0       $$000000                   004328c0     libvcruntime:strrchr.obj
 0002:0000012c       ?pre_cpp_initializer@@3P6AXXZA 0043312c     LIBCMT:exe_main.obj
 0002:00000138       ?pre_c_initializer@@3P6AHXZA 00433138     LIBCMT:exe_main.obj
 0002:0000013c       ?post_pgo_initializer@@3P6AHXZA 0043313c     LIBCMT:exe_main.obj
 0002:00000730       _ssh_rijndael_lysator      00433730     sshaes.obj
 0002:00000770       _aes_list                  00433770     sshaes.obj
 0002:0000078c       _key_setup_round_constants 0043378c     sshaes.obj
 0002:00000fc0       _arcfour_list              00433fc0     ssharcf.obj
 0002:000010e8       _blowfish_list             004340e8     sshblowf.obj
 0002:000010f0       _parray                    004340f0     sshblowf.obj
 0002:00001138       _sbox0                     00434138     sshblowf.obj
 0002:00001538       _sbox1                     00434538     sshblowf.obj
 0002:00001938       _sbox2                     00434938     sshblowf.obj
 0002:00001d38       _sbox3                     00434d38     sshblowf.obj
 0002:00002268       _ccp_list                  00435268     sshccp.obj
 0002:0000226c       ?constant@?1??chacha20_key@@9@9 0043526c     sshccp.obj
 0002:00002410       _des_list                  00435410     sshdes.obj
 0002:00002418       _des3_list                 00435418     sshdes.obj
 0002:00002420       ?tbl@?1??des_S@@9@9        00435420     sshdes.obj
 0002:00002770       ?PC1@?1??des_key_setup@@9@9 00435770     sshdes.obj
 0002:000027ac       ?PC2_7531@?1??des_key_setup@@9@9 004357ac     sshdes.obj
 0002:000027cc       ?PC2_6420@?1??des_key_setup@@9@9 004357cc     sshdes.obj
 0002:000027f0       ?leftshifts@?1??des_key_setup@@9@9 004357f0     sshdes.obj
 0002:00002884       _extra_group1              00435884     sshdh.obj
 0002:0000288c       _ssh_diffiehellman_group1_sha1 0043588c     sshdh.obj
 0002:000028a0       _group1_list               004358a0     sshdh.obj
 0002:000028a4       _extra_group14             004358a4     sshdh.obj
 0002:000028ac       _ssh_diffiehellman_group14_sha256 004358ac     sshdh.obj
 0002:000028c0       _ssh_diffiehellman_group14_sha1 004358c0     sshdh.obj
 0002:000028d4       _group14_list              004358d4     sshdh.obj
 0002:000028dc       _extra_gex                 004358dc     sshdh.obj
 0002:000028e4       _ssh_diffiehellman_gex_sha256 004358e4     sshdh.obj
 0002:000028f8       _ssh_diffiehellman_gex_sha1 004358f8     sshdh.obj
 0002:0000290c       _gex_list                  0043590c     sshdh.obj
 0002:00002914       _ssh_gssk5_diffiehellman_gex_sha1 00435914     sshdh.obj
 0002:00002928       _ssh_gssk5_diffiehellman_group14_sha1 00435928     sshdh.obj
 0002:0000293c       _ssh_gssk5_diffiehellman_group1_sha1 0043593c     sshdh.obj
 0002:00002950       _gssk5_sha1_kex_list       00435950     sshdh.obj
 0002:00002ec0       _nistp256_oid              00435ec0     sshecc.obj
 0002:00002ed8       _nistp384_oid              00435ed8     sshecc.obj
 0002:00002ef0       _nistp521_oid              00435ef0     sshecc.obj
 0002:00002f08       _kex_extra_curve25519      00435f08     sshecc.obj
 0002:00002f58       _ec_kex_list               00435f58     sshecc.obj
 0002:000040e8       ?sha1_asn1_prefix@?2??rsa_pkcs1_prefix_for_hash@@9@9 004370e8     sshrsa.obj
 0002:000040f8       ?sha256_asn1_prefix@?3??rsa_pkcs1_prefix_for_hash@@9@9 004370f8     sshrsa.obj
 0002:0000410c       ?sha512_asn1_prefix@?4??rsa_pkcs1_prefix_for_hash@@9@9 0043710c     sshrsa.obj
 0002:00004120       _ssh_rsa_kex_extra_sha1    00437120     sshrsa.obj
 0002:00004124       _ssh_rsa_kex_extra_sha256  00437124     sshrsa.obj
 0002:00004128       _ssh_rsa_kex_sha1          00437128     sshrsa.obj
 0002:0000413c       _ssh_rsa_kex_sha256        0043713c     sshrsa.obj
 0002:00004150       _rsa_kex_list              00437150     sshrsa.obj
 0002:00004418       _sha256_initial_state      00437418     sshsh256.obj
 0002:00004438       _sha256_round_constants    00437438     sshsh256.obj
 0002:000047b0       ?iv@?1??SHA512_Core_Init@@9@9 004377b0     sshsh512.obj
 0002:000047f0       ?iv@?1??SHA384_Core_Init@@9@9 004377f0     sshsh512.obj
 0002:00004830       ?k@?1??SHA512_Block@@9@9   00437830     sshsh512.obj
 0002:00004b3c       _sha1_initial_state        00437b3c     sshsha.obj
 0002:00004c60       ?algs@?1??get_hashalg@@9@9 00437c60     testcrypt.obj
 0002:00004ca8       ?algs@?1??get_macalg@@9@9  00437ca8     testcrypt.obj
 0002:00004ce0       ?algs@?1??get_keyalg@@9@9  00437ce0     testcrypt.obj
 0002:00004d10       ?algs@?1??get_cipheralg@@9@9 00437d10     testcrypt.obj
 0002:00004df0       ?algs@?1??get_dh_group@@9@9 00437df0     testcrypt.obj
 0002:00004e00       ?algs@?1??get_ecdh_alg@@9@9 00437e00     testcrypt.obj
 0002:00004e20       ?orders@?1??get_rsaorder@@9@9 00437e20     testcrypt.obj
 0002:000066a0       ?base64_chars@?1??base64_encode_atom@@9@9 004396a0     utils.obj
 0002:0000678c       _GS_ExceptionPointers      0043978c     LIBCMT:gs_report.obj
 0002:00006794       ?module_names@?A0x89697e75@@3QBQB_WB 00439794     libvcruntime:winapi_downlevel.obj
 0002:00006844       ?candidate_modules@?1??try_get_FlsAlloc@@YAP6GKP6GXPAX@Z@ZXZ@4QBW4module_id@?A0x89697e75@@B 00439844     libvcruntime:winapi_downlevel.obj
 0002:00006858       ?candidate_modules@?1??try_get_FlsFree@@YAP6GHK@ZXZ@4QBW4module_id@?A0x89697e75@@B 00439858     libvcruntime:winapi_downlevel.obj
 0002:00006874       ?candidate_modules@?1??try_get_FlsSetValue@@YAP6GHKPAX@ZXZ@4QBW4module_id@?A0x89697e75@@B 00439874     libvcruntime:winapi_downlevel.obj
 0002:00006888       ?candidate_modules@?1??try_get_InitializeCriticalSectionEx@@YAP6GHPAU_RTL_CRITICAL_SECTION@@KK@ZXZ@4QBW4module_id@?A0x89697e75@@B 00439888     libvcruntime:winapi_downlevel.obj
 0002:000068b0       ?tokenTable@@3QBQBDB       004398b0     libvcruntime:undname.obj
 0002:000068e8       ?nameTable@@3QBQBDB        004398e8     libvcruntime:undname.obj
 0002:00006a2c       ?rttiTable@@3QBQBDB        00439a2c     libvcruntime:undname.obj
 0002:00007340       _errtable                  0043a340     libucrt:errno.obj
 0002:000075b0       ___acrt_initializers       0043a5b0     libucrt:initialization.obj
 0002:00007b38       _module_names              0043ab38     libucrt:winapi_thunks.obj
 0002:00007fd8       ?candidate_modules@?1??try_get_AreFileApisANSI@@YAP6GHXZXZ@4QBW4module_id@?A0x352e5c4b@@B 0043afd8     libucrt:winapi_thunks.obj
 0002:00007fec       ?candidate_modules@?1??try_get_CompareStringEx@@YAP6GHPB_WK0H0HPAU_nlsversioninfo@@PAXJ@ZXZ@4QBW4module_id@?A0x352e5c4b@@B 0043afec     libucrt:winapi_thunks.obj
 0002:00008004       ?candidate_modules@?1??try_get_FlsAlloc@@YAP6GKP6GXPAX@Z@ZXZ@4QBW4module_id@?A0x352e5c4b@@B 0043b004     libucrt:winapi_thunks.obj
 0002:0000800c       ?candidate_modules@?1??try_get_FlsFree@@YAP6GHK@ZXZ@4QBW4module_id@?A0x352e5c4b@@B 0043b00c     libucrt:winapi_thunks.obj
 0002:00008014       ?candidate_modules@?1??try_get_FlsGetValue@@YAP6GPAXK@ZXZ@4QBW4module_id@?A0x352e5c4b@@B 0043b014     libucrt:winapi_thunks.obj
 0002:0000801c       ?candidate_modules@?1??try_get_FlsSetValue@@YAP6GHKPAX@ZXZ@4QBW4module_id@?A0x352e5c4b@@B 0043b01c     libucrt:winapi_thunks.obj
 0002:00008024       ?candidate_modules@?1??try_get_GetActiveWindow@@YAP6GPAUHWND__@@XZXZ@4QBW4module_id@?A0x352e5c4b@@B 0043b024     libucrt:winapi_thunks.obj
 0002:0000803c       ?candidate_modules@?1??try_get_GetCurrentPackageId@@YAP6GJPAIPAE@ZXZ@4QBW4module_id@?A0x352e5c4b@@B 0043b03c     libucrt:winapi_thunks.obj
 0002:00008058       ?candidate_modules@?1??try_get_GetLastActivePopup@@YAP6GPAUHWND__@@PAU2@@ZXZ@4QBW4module_id@?A0x352e5c4b@@B 0043b058     libucrt:winapi_thunks.obj
 0002:00008074       ?candidate_modules@?1??try_get_GetProcessWindowStation@@YAP6GPAUHWINSTA__@@XZXZ@4QBW4module_id@?A0x352e5c4b@@B 0043b074     libucrt:winapi_thunks.obj
 0002:00008094       ?candidate_modules@?1??try_get_GetUserObjectInformationW@@YAP6GHPAXH0KPAK@ZXZ@4QBW4module_id@?A0x352e5c4b@@B 0043b094     libucrt:winapi_thunks.obj
 0002:000080b8       ?candidate_modules@?1??try_get_InitializeCriticalSectionEx@@YAP6GHPAU_RTL_CRITICAL_SECTION@@KK@ZXZ@4QBW4module_id@?A0x352e5c4b@@B 0043b0b8     libucrt:winapi_thunks.obj
 0002:000080c0       ?candidate_modules@?1??try_get_LCMapStringEx@@YAP6GHPB_WK0HPA_WHPAU_nlsversioninfo@@PAXJ@ZXZ@4QBW4module_id@?A0x352e5c4b@@B 0043b0c0     libucrt:winapi_thunks.obj
 0002:000080d8       ?candidate_modules@?1??try_get_LocaleNameToLCID@@YAP6GKPB_WK@ZXZ@4QBW4module_id@?A0x352e5c4b@@B 0043b0d8     libucrt:winapi_thunks.obj
 0002:000080f4       ?candidate_modules@?1??try_get_MessageBoxA@@YAP6GHPAUHWND__@@PBD1I@ZXZ@4QBW4module_id@?A0x352e5c4b@@B 0043b0f4     libucrt:winapi_thunks.obj
 0002:00008108       ?candidate_modules@?1??try_get_MessageBoxW@@YAP6GHPAUHWND__@@PB_W1I@ZXZ@4QBW4module_id@?A0x352e5c4b@@B 0043b108     libucrt:winapi_thunks.obj
 0002:00008d2c       __mb_locale_names          0043bd2c     libucrt:mbctype.obj
 0002:00009760       _LcidToLocaleNameTable     0043c760     libucrt:lcidtoname_downlevel.obj
 0002:0000a880       _LocaleNameToIndexTable    0043d880     libucrt:lcidtoname_downlevel.obj
 0002:0000b7d0       _over                      0043e7d0     libucrt:fpctrl.obj
 0002:0000b7dc       _under                     0043e7dc     libucrt:fpctrl.obj
 0002:0000b800       LOG_name                   0043e800     libucrt:log10.obj
 0002:0000b810       _One                       0043e810     libucrt:ceil_pentium4.obj
 0002:0000b820       _Bns                       0043e820     libucrt:ceil_pentium4.obj
 0002:0000b830       _Zero                      0043e830     libucrt:ceil_pentium4.obj
 0002:0000b840       _S                         0043e840     libucrt:ceil_pentium4.obj
 0002:0000b850       _NegZero                   0043e850     libucrt:ceil_pentium4.obj
 0002:0000b860       emask                      0043e860     libucrt:log10_pentium4.obj
 0002:0000b870       CC                         0043e870     libucrt:log10_pentium4.obj
 0002:0000b880       Magic                      0043e880     libucrt:log10_pentium4.obj
 0002:0000b890       hi_mask                    0043e890     libucrt:log10_pentium4.obj
 0002:0000b8a0       LOG10_2                    0043e8a0     libucrt:log10_pentium4.obj
 0002:0000b8b0       place_L                    0043e8b0     libucrt:log10_pentium4.obj
 0002:0000b8d0       One                        0043e8d0     libucrt:log10_pentium4.obj
 0002:0000b8e0       Zero                       0043e8e0     libucrt:log10_pentium4.obj
 0002:0000b8f0       Two52                      0043e8f0     libucrt:log10_pentium4.obj
 0002:0000b900       Infs                       0043e900     libucrt:log10_pentium4.obj
 0002:0000b910       NaN                        0043e910     libucrt:log10_pentium4.obj
 0002:0000b920       coeff                      0043e920     libucrt:log10_pentium4.obj
 0002:0000b97e       _log2max                   0043e97e     libucrt:87tran.obj
 0002:0000b988       _smallarg                  0043e988     libucrt:87tran.obj
 0002:0000b992       _half                      0043e992     libucrt:87tran.obj
 0002:0000b9de       One                        0043e9de     libucrt:87disp.obj
 0002:0000b9e6       Three                      0043e9e6     libucrt:87disp.obj
 0002:0000b9ee       XAMtoTagTab                0043e9ee     libucrt:87disp.obj
 0002:0000ba00       One                        0043ea00     libucrt:common.obj
 0002:0000ba14       DblMax                     0043ea14     libucrt:common.obj
 0002:0000ba1c       DblMin                     0043ea1c     libucrt:common.obj
 0002:0000ba24       IeeeAdjO                   0043ea24     libucrt:common.obj
 0002:0000ba2c       IeeeAdjU                   0043ea2c     libucrt:common.obj
 0002:0000ba34       _infinity                  0043ea34     libucrt:common.obj
 0002:0000ba3c       _zero                      0043ea3c     libucrt:common.obj
 0002:0000c338       ?_names@?1??_get_fname@@9@9 0043f338     libucrt:fpexcept.obj
 0002:0000c780       __sehtable$___scrt_is_nonwritable_in_current_image 0043f780     LIBCMT:utility.obj
 0002:0000c7a0       __sehtable$?__scrt_common_main_seh@@YAHXZ 0043f7a0     LIBCMT:exe_main.obj
 0002:0000c7c0       __sehtable$??$?RV<lambda_db08b09ef7aa9d4f8620ce68402612bc>@@AAV<lambda_4f2c1eaeead2a5fc776db5b62ea0fb9b>@@V<lambda_3ae262bc35d4ba6a3825c4f6bcaaf95c>@@@?$__crt_seh_guarded_call@H@@QAEH$$QAV<lambda_db08b09ef7aa9d4f8620ce68402612bc>@@AAV<lambda_4f2c1eaeead2a5fc776db5b62ea0fb9b>@@$$QAV<lambda_3ae262bc35d4ba6a3825c4f6bcaaf95c>@@@Z 0043f7c0     libucrt:output.obj
 0002:0000c7e0       __sehtable$??$?RV<lambda_ab9923ffb5d694ec0d78876dd103e44f>@@AAV<lambda_481dd5778c961fbcd3b60b650e9b9dc4>@@V<lambda_7923d86c9e3f319b415918ec4b39749c>@@@?$__crt_seh_guarded_call@H@@QAEH$$QAV<lambda_ab9923ffb5d694ec0d78876dd103e44f>@@AAV<lambda_481dd5778c961fbcd3b60b650e9b9dc4>@@$$QAV<lambda_7923d86c9e3f319b415918ec4b39749c>@@@Z 0043f7e0     libucrt:output.obj
 0002:0000c800       __sehtable$_fclose         0043f800     libucrt:fclose.obj
 0002:0000c820       __sehtable$_fflush         0043f820     libucrt:fflush.obj
 0002:0000c840       __sehtable$_common_flush_all 0043f840     libucrt:fflush.obj
 0002:0000c868       __sehtable$??$common_fsopen@D@@YAPAU_iobuf@@QBD0H@Z 0043f868     libucrt:fopen.obj
 0002:0000c888       __sehtable$_fputc          0043f888     libucrt:fputc.obj
 0002:0000c8a8       __sehtable$?common_exit@@YAXHW4_crt_exit_cleanup_mode@@W4_crt_exit_return_mode@@@Z 0043f8a8     libucrt:exit.obj
 0002:0000c8d0       __sehtable$??$common_fgets@D@@YAPADQADHV__crt_stdio_stream@@@Z 0043f8d0     libucrt:fgets.obj
 0002:0000c8f0       __sehtable$??$?RV<lambda_800076c951b434888f4765a74a194fcc>@@AAV<lambda_4e60a939b0d047cfe11ddc22648dfba9>@@V<lambda_6dbb1268764f43b569ce7b67e331d33a>@@@?$__crt_seh_guarded_call@H@@QAEH$$QAV<lambda_800076c951b434888f4765a74a194fcc>@@AAV<lambda_4e60a939b0d047cfe11ddc22648dfba9>@@$$QAV<lambda_6dbb1268764f43b569ce7b67e331d33a>@@@Z 0043f8f0     libucrt:onexit.obj
 0002:0000c910       __sehtable$??$?RV<lambda_995298e7d72eb4c2aab26c0585b3abe5>@@AAV<lambda_275893d493268fdec8709772e3fcec0e>@@V<lambda_293819299cbf9a7022e18b56a874bb5c>@@@?$__crt_seh_guarded_call@H@@QAEH$$QAV<lambda_995298e7d72eb4c2aab26c0585b3abe5>@@AAV<lambda_275893d493268fdec8709772e3fcec0e>@@$$QAV<lambda_293819299cbf9a7022e18b56a874bb5c>@@@Z 0043f910     libucrt:onexit.obj
 0002:0000c930       __sehtable$___acrt_uninitialize_locale 0043f930     libucrt:wsetlocale.obj
 0002:0000c950       __sehtable$_terminate      0043f950     libucrt:terminate.obj
 0002:0000c970       __sehtable$??$?RV<lambda_d92cfe8357b99225085016881b624cb0>@@AAV<lambda_b721fa326cdb32351d23dfa67958c160>@@V<lambda_42d75b0848218ec137fa420c8ba9fdf9>@@@?$__crt_seh_guarded_call@H@@QAEH$$QAV<lambda_d92cfe8357b99225085016881b624cb0>@@AAV<lambda_b721fa326cdb32351d23dfa67958c160>@@$$QAV<lambda_42d75b0848218ec137fa420c8ba9fdf9>@@@Z 0043f970     libucrt:setvbuf.obj
 0002:0000c990       __sehtable$_raise          0043f990     libucrt:signal.obj
 0002:0000c9b0       __sehtable$??$?RV<lambda_a048d3beccc847880fc8490e18b82769>@@AAV<lambda_ec61778202f4f5fc7e7711acc23c3bca>@@V<lambda_f7496a158712204296dd6628a163878e>@@@?$__crt_seh_guarded_call@P6AXH@Z@@QAEP6AXH@Z$$QAV<lambda_a048d3beccc847880fc8490e18b82769>@@AAV<lambda_ec61778202f4f5fc7e7711acc23c3bca>@@$$QAV<lambda_f7496a158712204296dd6628a163878e>@@@Z 0043f9b0     libucrt:signal.obj
 0002:0000c9d0       __sehtable$__write         0043f9d0     libucrt:write.obj
 0002:0000c9f0       __sehtable$___acrt_initialize_lowio 0043f9f0     libucrt:ioinit.obj
 0002:0000ca10       __sehtable$??$?RV<lambda_9df27f884b057bc3edfc946cb5b7cf47>@@AAV<lambda_e69574bed617af4e071282c136b37893>@@V<lambda_cc0d902bcbbeb830f749456577db4721>@@@?$__crt_seh_guarded_call@X@@QAEX$$QAV<lambda_9df27f884b057bc3edfc946cb5b7cf47>@@AAV<lambda_e69574bed617af4e071282c136b37893>@@$$QAV<lambda_cc0d902bcbbeb830f749456577db4721>@@@Z 0043fa10     libucrt:per_thread_data.obj
 0002:0000ca30       __sehtable$??$?RV<lambda_3518db117f0e7cdb002338c5d3c47b6c>@@AAV<lambda_b2ea41f6bbb362cd97d94c6828d90b61>@@V<lambda_abdedf541bb04549bc734292b4a045d4>@@@?$__crt_seh_guarded_call@X@@QAEX$$QAV<lambda_3518db117f0e7cdb002338c5d3c47b6c>@@AAV<lambda_b2ea41f6bbb362cd97d94c6828d90b61>@@$$QAV<lambda_abdedf541bb04549bc734292b4a045d4>@@@Z 0043fa30     libucrt:per_thread_data.obj
 0002:0000ca50       __sehtable$??$?RV<lambda_51b6e8b1eb166f2a3faf91f424b38130>@@AAV<lambda_6250bd4b2a391816dd638c3bf72b0bcb>@@V<lambda_0b5a4a3e68152e1d9b943535f5f47bed>@@@?$__crt_seh_guarded_call@X@@QAEX$$QAV<lambda_51b6e8b1eb166f2a3faf91f424b38130>@@AAV<lambda_6250bd4b2a391816dd638c3bf72b0bcb>@@$$QAV<lambda_0b5a4a3e68152e1d9b943535f5f47bed>@@@Z 0043fa50     libucrt:per_thread_data.obj
 0002:0000ca70       __sehtable$??$?RV<lambda_5b71d36f03204c0beab531769a5b5694>@@AAV<lambda_be2b3da3f62db62e9dad5dc70221a656>@@V<lambda_8f9ce462984622f9bf76b59e2aaaf805>@@@?$__crt_seh_guarded_call@X@@QAEX$$QAV<lambda_5b71d36f03204c0beab531769a5b5694>@@AAV<lambda_be2b3da3f62db62e9dad5dc70221a656>@@$$QAV<lambda_8f9ce462984622f9bf76b59e2aaaf805>@@@Z 0043fa70     libucrt:per_thread_data.obj
 0002:0000ca90       __sehtable$__fcloseall     0043fa90     libucrt:closeall.obj
 0002:0000cab0       __sehtable$??$?RV<lambda_123407a5e2ac06da108355a851863b7a>@@AAV<lambda_2fe9b910cf3cbf4a0ab98a02ba45b3ec>@@V<lambda_ae55bdf541ad94d75914d381c370e64d>@@@?$__crt_seh_guarded_call@H@@QAEH$$QAV<lambda_123407a5e2ac06da108355a851863b7a>@@AAV<lambda_2fe9b910cf3cbf4a0ab98a02ba45b3ec>@@$$QAV<lambda_ae55bdf541ad94d75914d381c370e64d>@@@Z 0043fab0     libucrt:close.obj
 0002:0000cad0       __sehtable$?__acrt_stdio_allocate_stream@@YA?AV__crt_stdio_stream@@XZ 0043fad0     libucrt:stream.obj
 0002:0000caf0       __sehtable$??$?RV<lambda_61cee617f5178ae960314fd4d05640a0>@@AAV<lambda_6978c1fb23f02e42e1d9e99668cc68aa>@@V<lambda_9cd88cf8ad10232537feb2133f08c833>@@@?$__crt_seh_guarded_call@H@@QAEH$$QAV<lambda_61cee617f5178ae960314fd4d05640a0>@@AAV<lambda_6978c1fb23f02e42e1d9e99668cc68aa>@@$$QAV<lambda_9cd88cf8ad10232537feb2133f08c833>@@@Z 0043faf0     libucrt:commit.obj
 0002:0000cb10       __sehtable$__read          0043fb10     libucrt:read.obj
 0002:0000cb30       __sehtable$___acrt_update_thread_multibyte_data 0043fb30     libucrt:mbctype.obj
 0002:0000cb50       __sehtable$??$?RV<lambda_978dc153c237d78434369da87b74ff60>@@AAV<lambda_ad1ced32f4ac17aa236e5ef05d6b3b7c>@@V<lambda_4a8533e2866a575feecb8298ce776b0d>@@@?$__crt_seh_guarded_call@X@@QAEX$$QAV<lambda_978dc153c237d78434369da87b74ff60>@@AAV<lambda_ad1ced32f4ac17aa236e5ef05d6b3b7c>@@$$QAV<lambda_4a8533e2866a575feecb8298ce776b0d>@@@Z 0043fb50     libucrt:mbctype.obj
 0002:0000cb70       __sehtable$__query_new_handler 0043fb70     libucrt:new_handler.obj
 0002:0000cb90       __sehtable$__alloc_osfhnd  0043fb90     libucrt:osfinfo.obj
 0002:0000cbb0       __sehtable$___acrt_lowio_ensure_fh_exists 0043fbb0     libucrt:osfinfo.obj
 0002:0000cbd0       __sehtable$___acrt_update_thread_locale_data 0043fbd0     libucrt:locale_refcounting.obj
 0002:0000cbf0       __sehtable$??$common_lseek@_J@@YA_JH_JH@Z 0043fbf0     libucrt:lseek.obj
 0002:0000cc10       __sehtable$??$common_sopen_dispatch@D@@YAHQBDHHHQAHH@Z 0043fc10     libucrt:open.obj
 0002:0000cc30       __sehtable$___set_fpsr_sse2 0043fc30     libucrt:fpctrl.obj
 0002:0000cc50       __sehtable$__IsNonwritableInCurrentImage 0043fc50     LIBCMT:pesect.obj
 0002:0000cef8       .idata$6                   0043fef8     kernel32:KERNEL32.dll
 0003:00000004       ?algs_with_oid@?1??ec_alg_by_oid@@9@9 00441004     sshecc.obj
 0003:00000040       ?__vcrt_flsindex@@3KA      00441040     libvcruntime:per_thread_data.obj
 0003:00000110       _errno_no_memory           00441110     libucrt:errno.obj
 0003:00000114       _doserrno_no_memory        00441114     libucrt:errno.obj
 0003:00000150       ___acrt_flsindex           00441150     libucrt:per_thread_data.obj
 0003:00000320       ___rgctypeflag             00441320     libucrt:mbctype.obj
 0003:00000328       ___rgcode_page_info        00441328     libucrt:mbctype.obj
 0003:000008b0       ?__DAZ_ENABLED@?1??__set_fpsr_sse2@@9@9 004418b0     libucrt:fpctrl.obj
 0003:000008d0       ?initialised@?1??aes_hw_available_cached@@9@9 004418d0     sshaes.obj
 0003:000008d1       ?hw_available@?1??aes_hw_available_cached@@9@9 004418d1     sshaes.obj
 0003:000008d8       ?curve@?1??ec_p256@@9@9    004418d8     sshecc.obj
 0003:000008fc       ?initialised@?1??ec_p256@@9@9 004418fc     sshecc.obj
 0003:000008fd       ?initialised@?1??ec_p384@@9@9 004418fd     sshecc.obj
 0003:000008fe       ?initialised@?1??ec_p521@@9@9 004418fe     sshecc.obj
 0003:000008ff       ?initialised@?1??ec_curve25519@@9@9 004418ff     sshecc.obj
 0003:00000900       ?curve@?1??ec_p384@@9@9    00441900     sshecc.obj
 0003:00000924       ?curve@?1??ec_p521@@9@9    00441924     sshecc.obj
 0003:00000948       ?curve@?1??ec_curve25519@@9@9 00441948     sshecc.obj
 0003:0000096c       ?curve@?1??ec_ed25519@@9@9 0044196c     sshecc.obj
 0003:00000990       ?initialised@?1??ec_ed25519@@9@9 00441990     sshecc.obj
 0003:00000998       _primes                    00441998     sshprime.obj
 0003:00003cb4       ?initialised@?1??sha256_hw_available_cached@@9@9 00444cb4     sshsh256.obj
 0003:00003cb5       ?hw_available@?1??sha256_hw_available_cached@@9@9 00444cb5     sshsh256.obj
 0003:00003cb6       ?initialised@?1??sha1_hw_available_cached@@9@9 00444cb6     sshsha.obj
 0003:00003cb7       ?hw_available@?1??sha1_hw_available_cached@@9@9 00444cb7     sshsha.obj
 0003:00003cb8       ?previous_time@?1??prng_reseed_time_ms@@9@9 00444cb8     testcrypt.obj
 0003:00003cc0       ?next_index@?1??value_new@@9@9 00444cc0     testcrypt.obj
 0003:00003cc8       _random_data_queue         00444cc8     testcrypt.obj
 0003:00003cdc       _values                    00444cdc     testcrypt.obj
 0003:00003ce0       _finalisers                00444ce0     testcrypt.obj
 0003:00003ce8       _GS_ExceptionRecord        00444ce8     LIBCMT:gs_report.obj
 0003:00003d38       _GS_ContextRecord          00444d38     LIBCMT:gs_report.obj
 0003:0000400c       ?module_local_atexit_table@@3U_onexit_table_t@@A 0044500c     LIBCMT:utility.obj
 0003:00004018       ?module_local_at_quick_exit_table@@3U_onexit_table_t@@A 00445018     LIBCMT:utility.obj
 0003:00004024       ?is_initialized_as_dll@@3_NA 00445024     LIBCMT:utility.obj
 0003:00004048       ?__vcrt_startup_thread_ptd@@3U__vcrt_ptd@@A 00445048     libvcruntime:per_thread_data.obj
 0003:00004070       ___vcrt_lock_table         00445070     libvcruntime:locks.obj
 0003:00004088       ___vcrt_locks_initialized  00445088     libvcruntime:locks.obj
 0003:0000408c       ?module_handles@@3PAPAUHINSTANCE__@@A 0044508c     libvcruntime:winapi_downlevel.obj
 0003:0000409c       ?encoded_function_pointers@@3PAPAXA 0044509c     libvcruntime:winapi_downlevel.obj
 0003:000040ec       ?heap@@3V_HeapManager@@A   004450ec     libvcruntime:undname.obj
 0003:0000410c       _c_termination_complete    0044510c     libucrt:exit.obj
 0003:00004110       _thread_local_exit_callback_func 00445110     libucrt:exit.obj
 0003:00004114       ?c_exit_complete@?5??common_exit@@YAXHW4_crt_exit_cleanup_mode@@W4_crt_exit_return_mode@@@Z@4_NA 00445114     libucrt:exit.obj
 0003:00004118       ?program_name@?5???$common_configure_argv@D@@YAHW4_crt_argv_mode@@@Z@4PADA 00445118     libucrt:argv_parsing.obj
 0003:00004248       ___acrt_app_type           00445248     libucrt:report_runtime_error.obj
 0003:0000424c       _user_matherr              0044524c     libucrt:matherr.obj
 0003:0000426c       ___acrt_global_new_mode    0044526c     libucrt:new_mode.obj
 0003:00004274       ___acrt_invalid_parameter_handler 00445274     libucrt:invalid_parameter.obj
 0003:00004278       ___acrt_error_mode         00445278     libucrt:set_error_mode.obj
 0003:0000427c       _ctrlc_action              0044527c     libucrt:signal.obj
 0003:00004280       _ctrlbreak_action          00445280     libucrt:signal.obj
 0003:00004284       _abort_action              00445284     libucrt:signal.obj
 0003:00004288       _term_action               00445288     libucrt:signal.obj
 0003:0000449c       _enable_percent_n          0044549c     libucrt:printf_count_output.obj
 0003:000044a8       _module_handles            004454a8     libucrt:winapi_thunks.obj
 0003:000044f8       _encoded_function_pointers 004454f8     libucrt:winapi_thunks.obj
 0003:00004578       ?state_cache@?1??__acrt_is_packaged_app@@9@4JA 00445578     libucrt:winapi_thunks.obj
 0003:00004580       ___acrt_lock_table         00445580     libucrt:locks.obj
 0003:000046b8       ___acrt_locks_initialized  004456b8     libucrt:locks.obj
 0003:000046d4       _fSystemSet                004456d4     libucrt:mbctype.obj
 0003:000046d8       ?initialized@?1??__acrt_initialize_multibyte@@9@4_NA 004456d8     libucrt:mbctype.obj
 0003:000046e0       ___acrt_new_handler        004456e0     libucrt:new_handler.obj
 0003:000046f8       __pmatherr_set             004456f8     libucrt:libm_error.obj
 0004:00000000       __guard_fids____dcrt_uninitialize_environments_nolock 00446000     libucrt:environment_initialization.obj
 0004:00000008       __guard_fids__             00446008     libucrt:initialization.obj
 0004:00000068       __guard_fids_??$common_show_message_box@_W@@YAHQB_W0I@Z 00446068     libucrt:crtmbox.obj
 0004:0000006c       __guard_fids____acrt_initialize_ptd 0044606c     libucrt:per_thread_data.obj
 0004:00000070       __guard_fids__             00446070     libucrt:stdio_initializer.obj
 0004:00000074       __guard_fids__             00446074     libucrt:stdio_initializer.obj
 0004:00000078       __guard_fids_??$expand_argument_wildcards@D@@YAHQAD0AAV?$argument_list@D@?A0xb0e4b824@@@Z 00446078     libucrt:argv_wildcards.obj
 0004:0000007c       __guard_fids__             0044607c     libucrt:locale_initializer.obj
 0004:00000080       __guard_fids__             00446080     libucrt:multibyte_initializer.obj
 0004:00000084       __guard_fids__             00446084     libucrt:console_output_initializer.obj
 0004:00000088       __guard_fids____libm_error_support 00446088     libucrt:libm_error.obj
 0004:0000008c       __guard_fids__             0044608c     libucrt:sse2_initializer.obj
 0004:00000090       __guard_fids__             00446090     LIBCMT:exe_main.obj
 0004:00000094       __guard_fids__             00446094     LIBCMT:exe_main.obj
 0004:00000098       __guard_fids__             00446098     LIBCMT:exe_main.obj
 0004:0000009c       __guard_fids_?pre_c_initialization@@YAHXZ 0044609c     LIBCMT:exe_main.obj
 0004:000000a4       __guard_fids____scrt_set_unhandled_exception_filter 004460a4     LIBCMT:utility_desktop.obj
 0004:000000a8       __guard_fids__             004460a8     LIBCMT:guard_support.obj
 0004:000000ac       __guard_fids____vcrt_initialize_ptd 004460ac     libvcruntime:per_thread_data.obj
